ARM GAS  C:\Users\PC\AppData\Local\Temp\ccTXgV0X.s 			page 1


   1              		.syntax unified
   2              		.cpu cortex-m0plus
   3              		.fpu softvfp
   4              		.eabi_attribute 20, 1
   5              		.eabi_attribute 21, 1
   6              		.eabi_attribute 23, 3
   7              		.eabi_attribute 24, 1
   8              		.eabi_attribute 25, 1
   9              		.eabi_attribute 26, 1
  10              		.eabi_attribute 30, 4
  11              		.eabi_attribute 34, 0
  12              		.eabi_attribute 18, 4
  13              		.thumb
  14              		.syntax unified
  15              		.file	"mUART_SPI_UART.c"
  16              		.text
  17              	.Ltext0:
  18              		.cfi_sections	.debug_frame
  19              		.section	.text.mUART_SpiUartReadRxData,"ax",%progbits
  20              		.align	1
  21              		.global	mUART_SpiUartReadRxData
  22              		.code	16
  23              		.thumb_func
  24              		.type	mUART_SpiUartReadRxData, %function
  25              	mUART_SpiUartReadRxData:
  26              	.LFB1:
  27              		.file 1 "Generated_Source\\PSoC4\\mUART_SPI_UART.c"
   1:Generated_Source\PSoC4/mUART_SPI_UART.c **** /***************************************************************************//**
   2:Generated_Source\PSoC4/mUART_SPI_UART.c **** * \file mUART_SPI_UART.c
   3:Generated_Source\PSoC4/mUART_SPI_UART.c **** * \version 4.0
   4:Generated_Source\PSoC4/mUART_SPI_UART.c **** *
   5:Generated_Source\PSoC4/mUART_SPI_UART.c **** * \brief
   6:Generated_Source\PSoC4/mUART_SPI_UART.c **** *  This file provides the source code to the API for the SCB Component in
   7:Generated_Source\PSoC4/mUART_SPI_UART.c **** *  SPI and UART modes.
   8:Generated_Source\PSoC4/mUART_SPI_UART.c **** *
   9:Generated_Source\PSoC4/mUART_SPI_UART.c **** * Note:
  10:Generated_Source\PSoC4/mUART_SPI_UART.c **** *
  11:Generated_Source\PSoC4/mUART_SPI_UART.c **** *******************************************************************************
  12:Generated_Source\PSoC4/mUART_SPI_UART.c **** * \copyright
  13:Generated_Source\PSoC4/mUART_SPI_UART.c **** * Copyright 2013-2017, Cypress Semiconductor Corporation.  All rights reserved.
  14:Generated_Source\PSoC4/mUART_SPI_UART.c **** * You may use this file only in accordance with the license, terms, conditions,
  15:Generated_Source\PSoC4/mUART_SPI_UART.c **** * disclaimers, and limitations in the end user license agreement accompanying
  16:Generated_Source\PSoC4/mUART_SPI_UART.c **** * the software package with which this file was provided.
  17:Generated_Source\PSoC4/mUART_SPI_UART.c **** *******************************************************************************/
  18:Generated_Source\PSoC4/mUART_SPI_UART.c **** 
  19:Generated_Source\PSoC4/mUART_SPI_UART.c **** #include "mUART_PVT.h"
  20:Generated_Source\PSoC4/mUART_SPI_UART.c **** #include "mUART_SPI_UART_PVT.h"
  21:Generated_Source\PSoC4/mUART_SPI_UART.c **** 
  22:Generated_Source\PSoC4/mUART_SPI_UART.c **** /***************************************
  23:Generated_Source\PSoC4/mUART_SPI_UART.c **** *        SPI/UART Private Vars
  24:Generated_Source\PSoC4/mUART_SPI_UART.c **** ***************************************/
  25:Generated_Source\PSoC4/mUART_SPI_UART.c **** 
  26:Generated_Source\PSoC4/mUART_SPI_UART.c **** #if(mUART_INTERNAL_RX_SW_BUFFER_CONST)
  27:Generated_Source\PSoC4/mUART_SPI_UART.c ****     /* Start index to put data into the software receive buffer.*/
  28:Generated_Source\PSoC4/mUART_SPI_UART.c ****     volatile uint32 mUART_rxBufferHead;
  29:Generated_Source\PSoC4/mUART_SPI_UART.c ****     /* Start index to get data from the software receive buffer.*/
  30:Generated_Source\PSoC4/mUART_SPI_UART.c ****     volatile uint32 mUART_rxBufferTail;
ARM GAS  C:\Users\PC\AppData\Local\Temp\ccTXgV0X.s 			page 2


  31:Generated_Source\PSoC4/mUART_SPI_UART.c ****     /**
  32:Generated_Source\PSoC4/mUART_SPI_UART.c ****     * \addtogroup group_globals
  33:Generated_Source\PSoC4/mUART_SPI_UART.c ****     * \{
  34:Generated_Source\PSoC4/mUART_SPI_UART.c ****     */
  35:Generated_Source\PSoC4/mUART_SPI_UART.c ****     /** Sets when internal software receive buffer overflow
  36:Generated_Source\PSoC4/mUART_SPI_UART.c ****     *  was occurred.
  37:Generated_Source\PSoC4/mUART_SPI_UART.c ****     */
  38:Generated_Source\PSoC4/mUART_SPI_UART.c ****     volatile uint8  mUART_rxBufferOverflow;
  39:Generated_Source\PSoC4/mUART_SPI_UART.c ****     /** \} globals */
  40:Generated_Source\PSoC4/mUART_SPI_UART.c **** #endif /* (mUART_INTERNAL_RX_SW_BUFFER_CONST) */
  41:Generated_Source\PSoC4/mUART_SPI_UART.c **** 
  42:Generated_Source\PSoC4/mUART_SPI_UART.c **** #if(mUART_INTERNAL_TX_SW_BUFFER_CONST)
  43:Generated_Source\PSoC4/mUART_SPI_UART.c ****     /* Start index to put data into the software transmit buffer.*/
  44:Generated_Source\PSoC4/mUART_SPI_UART.c ****     volatile uint32 mUART_txBufferHead;
  45:Generated_Source\PSoC4/mUART_SPI_UART.c ****     /* Start index to get data from the software transmit buffer.*/
  46:Generated_Source\PSoC4/mUART_SPI_UART.c ****     volatile uint32 mUART_txBufferTail;
  47:Generated_Source\PSoC4/mUART_SPI_UART.c **** #endif /* (mUART_INTERNAL_TX_SW_BUFFER_CONST) */
  48:Generated_Source\PSoC4/mUART_SPI_UART.c **** 
  49:Generated_Source\PSoC4/mUART_SPI_UART.c **** #if(mUART_INTERNAL_RX_SW_BUFFER)
  50:Generated_Source\PSoC4/mUART_SPI_UART.c ****     /* Add one element to the buffer to receive full packet. One byte in receive buffer is always e
  51:Generated_Source\PSoC4/mUART_SPI_UART.c ****     volatile uint8 mUART_rxBufferInternal[mUART_INTERNAL_RX_BUFFER_SIZE];
  52:Generated_Source\PSoC4/mUART_SPI_UART.c **** #endif /* (mUART_INTERNAL_RX_SW_BUFFER) */
  53:Generated_Source\PSoC4/mUART_SPI_UART.c **** 
  54:Generated_Source\PSoC4/mUART_SPI_UART.c **** #if(mUART_INTERNAL_TX_SW_BUFFER)
  55:Generated_Source\PSoC4/mUART_SPI_UART.c ****     volatile uint8 mUART_txBufferInternal[mUART_TX_BUFFER_SIZE];
  56:Generated_Source\PSoC4/mUART_SPI_UART.c **** #endif /* (mUART_INTERNAL_TX_SW_BUFFER) */
  57:Generated_Source\PSoC4/mUART_SPI_UART.c **** 
  58:Generated_Source\PSoC4/mUART_SPI_UART.c **** 
  59:Generated_Source\PSoC4/mUART_SPI_UART.c **** #if(mUART_RX_DIRECTION)
  60:Generated_Source\PSoC4/mUART_SPI_UART.c ****     /*******************************************************************************
  61:Generated_Source\PSoC4/mUART_SPI_UART.c ****     * Function Name: mUART_SpiUartReadRxData
  62:Generated_Source\PSoC4/mUART_SPI_UART.c ****     ****************************************************************************//**
  63:Generated_Source\PSoC4/mUART_SPI_UART.c ****     *
  64:Generated_Source\PSoC4/mUART_SPI_UART.c ****     *  Retrieves the next data element from the receive buffer.
  65:Generated_Source\PSoC4/mUART_SPI_UART.c ****     *   - RX software buffer is disabled: Returns data element retrieved from
  66:Generated_Source\PSoC4/mUART_SPI_UART.c ****     *     RX FIFO. Undefined data will be returned if the RX FIFO is empty.
  67:Generated_Source\PSoC4/mUART_SPI_UART.c ****     *   - RX software buffer is enabled: Returns data element from the software
  68:Generated_Source\PSoC4/mUART_SPI_UART.c ****     *     receive buffer. Zero value is returned if the software receive buffer
  69:Generated_Source\PSoC4/mUART_SPI_UART.c ****     *     is empty.
  70:Generated_Source\PSoC4/mUART_SPI_UART.c ****     *
  71:Generated_Source\PSoC4/mUART_SPI_UART.c ****     * \return
  72:Generated_Source\PSoC4/mUART_SPI_UART.c ****     *  Next data element from the receive buffer. 
  73:Generated_Source\PSoC4/mUART_SPI_UART.c ****     *  The amount of data bits to be received depends on RX data bits selection 
  74:Generated_Source\PSoC4/mUART_SPI_UART.c ****     *  (the data bit counting starts from LSB of return value).
  75:Generated_Source\PSoC4/mUART_SPI_UART.c ****     *
  76:Generated_Source\PSoC4/mUART_SPI_UART.c ****     * \globalvars
  77:Generated_Source\PSoC4/mUART_SPI_UART.c ****     *  mUART_rxBufferHead - the start index to put data into the 
  78:Generated_Source\PSoC4/mUART_SPI_UART.c ****     *  software receive buffer.
  79:Generated_Source\PSoC4/mUART_SPI_UART.c ****     *  mUART_rxBufferTail - the start index to get data from the 
  80:Generated_Source\PSoC4/mUART_SPI_UART.c ****     *  software receive buffer.
  81:Generated_Source\PSoC4/mUART_SPI_UART.c ****     *
  82:Generated_Source\PSoC4/mUART_SPI_UART.c ****     *******************************************************************************/
  83:Generated_Source\PSoC4/mUART_SPI_UART.c ****     uint32 mUART_SpiUartReadRxData(void)
  84:Generated_Source\PSoC4/mUART_SPI_UART.c ****     {
  28              		.loc 1 84 0
  29              		.cfi_startproc
  30              		@ args = 0, pretend = 0, frame = 0
ARM GAS  C:\Users\PC\AppData\Local\Temp\ccTXgV0X.s 			page 3


  31              		@ frame_needed = 0, uses_anonymous_args = 0
  32              		@ link register save eliminated.
  33              	.LVL0:
  85:Generated_Source\PSoC4/mUART_SPI_UART.c ****         uint32 rxData = 0u;
  86:Generated_Source\PSoC4/mUART_SPI_UART.c **** 
  87:Generated_Source\PSoC4/mUART_SPI_UART.c ****     #if (mUART_INTERNAL_RX_SW_BUFFER_CONST)
  88:Generated_Source\PSoC4/mUART_SPI_UART.c ****         uint32 locTail;
  89:Generated_Source\PSoC4/mUART_SPI_UART.c ****     #endif /* (mUART_INTERNAL_RX_SW_BUFFER_CONST) */
  90:Generated_Source\PSoC4/mUART_SPI_UART.c **** 
  91:Generated_Source\PSoC4/mUART_SPI_UART.c ****         #if (mUART_CHECK_RX_SW_BUFFER)
  92:Generated_Source\PSoC4/mUART_SPI_UART.c ****         {
  93:Generated_Source\PSoC4/mUART_SPI_UART.c ****             if (mUART_rxBufferHead != mUART_rxBufferTail)
  34              		.loc 1 93 0
  35 0000 084B     		ldr	r3, .L6
  36 0002 094A     		ldr	r2, .L6+4
  37 0004 1968     		ldr	r1, [r3]
  38 0006 1368     		ldr	r3, [r2]
  85:Generated_Source\PSoC4/mUART_SPI_UART.c ****         uint32 rxData = 0u;
  39              		.loc 1 85 0
  40 0008 0020     		movs	r0, #0
  41              		.loc 1 93 0
  42 000a 9942     		cmp	r1, r3
  43 000c 08D0     		beq	.L2
  94:Generated_Source\PSoC4/mUART_SPI_UART.c ****             {
  95:Generated_Source\PSoC4/mUART_SPI_UART.c ****                 /* There is data in RX software buffer */
  96:Generated_Source\PSoC4/mUART_SPI_UART.c **** 
  97:Generated_Source\PSoC4/mUART_SPI_UART.c ****                 /* Calculate index to read from */
  98:Generated_Source\PSoC4/mUART_SPI_UART.c ****                 locTail = (mUART_rxBufferTail + 1u);
  44              		.loc 1 98 0
  45 000e 1368     		ldr	r3, [r2]
  46 0010 0133     		adds	r3, r3, #1
  47              	.LVL1:
  99:Generated_Source\PSoC4/mUART_SPI_UART.c **** 
 100:Generated_Source\PSoC4/mUART_SPI_UART.c ****                 if (mUART_INTERNAL_RX_BUFFER_SIZE == locTail)
  48              		.loc 1 100 0
  49 0012 412B     		cmp	r3, #65
  50 0014 00D1     		bne	.L3
 101:Generated_Source\PSoC4/mUART_SPI_UART.c ****                 {
 102:Generated_Source\PSoC4/mUART_SPI_UART.c ****                     locTail = 0u;
  51              		.loc 1 102 0
  52 0016 0300     		movs	r3, r0
  53              	.LVL2:
  54              	.L3:
 103:Generated_Source\PSoC4/mUART_SPI_UART.c ****                 }
 104:Generated_Source\PSoC4/mUART_SPI_UART.c **** 
 105:Generated_Source\PSoC4/mUART_SPI_UART.c ****                 /* Get data from RX software buffer */
 106:Generated_Source\PSoC4/mUART_SPI_UART.c ****                 rxData = mUART_GetWordFromRxBuffer(locTail);
  55              		.loc 1 106 0
  56 0018 0449     		ldr	r1, .L6+8
  57 001a C85C     		ldrb	r0, [r1, r3]
 107:Generated_Source\PSoC4/mUART_SPI_UART.c **** 
 108:Generated_Source\PSoC4/mUART_SPI_UART.c ****                 /* Change index in the buffer */
 109:Generated_Source\PSoC4/mUART_SPI_UART.c ****                 mUART_rxBufferTail = locTail;
  58              		.loc 1 109 0
  59 001c 1360     		str	r3, [r2]
 106:Generated_Source\PSoC4/mUART_SPI_UART.c **** 
  60              		.loc 1 106 0
ARM GAS  C:\Users\PC\AppData\Local\Temp\ccTXgV0X.s 			page 4


  61 001e C0B2     		uxtb	r0, r0
  62              	.LVL3:
  63              	.L2:
 110:Generated_Source\PSoC4/mUART_SPI_UART.c **** 
 111:Generated_Source\PSoC4/mUART_SPI_UART.c ****                 #if (mUART_CHECK_UART_RTS_CONTROL_FLOW)
 112:Generated_Source\PSoC4/mUART_SPI_UART.c ****                 {
 113:Generated_Source\PSoC4/mUART_SPI_UART.c ****                     /* Check if RX Not Empty is disabled in the interrupt */
 114:Generated_Source\PSoC4/mUART_SPI_UART.c ****                     if (0u == (mUART_INTR_RX_MASK_REG & mUART_INTR_RX_NOT_EMPTY))
 115:Generated_Source\PSoC4/mUART_SPI_UART.c ****                     {
 116:Generated_Source\PSoC4/mUART_SPI_UART.c ****                         /* Enable RX Not Empty interrupt source to continue
 117:Generated_Source\PSoC4/mUART_SPI_UART.c ****                         * receiving data into software buffer.
 118:Generated_Source\PSoC4/mUART_SPI_UART.c ****                         */
 119:Generated_Source\PSoC4/mUART_SPI_UART.c ****                         mUART_INTR_RX_MASK_REG |= mUART_INTR_RX_NOT_EMPTY;
 120:Generated_Source\PSoC4/mUART_SPI_UART.c ****                     }
 121:Generated_Source\PSoC4/mUART_SPI_UART.c ****                 }
 122:Generated_Source\PSoC4/mUART_SPI_UART.c ****                 #endif
 123:Generated_Source\PSoC4/mUART_SPI_UART.c **** 
 124:Generated_Source\PSoC4/mUART_SPI_UART.c ****             }
 125:Generated_Source\PSoC4/mUART_SPI_UART.c ****         }
 126:Generated_Source\PSoC4/mUART_SPI_UART.c ****         #else
 127:Generated_Source\PSoC4/mUART_SPI_UART.c ****         {
 128:Generated_Source\PSoC4/mUART_SPI_UART.c ****             /* Read data from RX FIFO */
 129:Generated_Source\PSoC4/mUART_SPI_UART.c ****             rxData = mUART_RX_FIFO_RD_REG;
 130:Generated_Source\PSoC4/mUART_SPI_UART.c ****         }
 131:Generated_Source\PSoC4/mUART_SPI_UART.c ****         #endif
 132:Generated_Source\PSoC4/mUART_SPI_UART.c **** 
 133:Generated_Source\PSoC4/mUART_SPI_UART.c ****         return (rxData);
 134:Generated_Source\PSoC4/mUART_SPI_UART.c ****     }
  64              		.loc 1 134 0
  65              		@ sp needed
  66 0020 7047     		bx	lr
  67              	.L7:
  68 0022 C046     		.align	2
  69              	.L6:
  70 0024 00000000 		.word	mUART_rxBufferHead
  71 0028 00000000 		.word	mUART_rxBufferTail
  72 002c 00000000 		.word	mUART_rxBufferInternal
  73              		.cfi_endproc
  74              	.LFE1:
  75              		.size	mUART_SpiUartReadRxData, .-mUART_SpiUartReadRxData
  76              		.section	.text.mUART_SpiUartGetRxBufferSize,"ax",%progbits
  77              		.align	1
  78              		.global	mUART_SpiUartGetRxBufferSize
  79              		.code	16
  80              		.thumb_func
  81              		.type	mUART_SpiUartGetRxBufferSize, %function
  82              	mUART_SpiUartGetRxBufferSize:
  83              	.LFB2:
 135:Generated_Source\PSoC4/mUART_SPI_UART.c **** 
 136:Generated_Source\PSoC4/mUART_SPI_UART.c **** 
 137:Generated_Source\PSoC4/mUART_SPI_UART.c ****     /*******************************************************************************
 138:Generated_Source\PSoC4/mUART_SPI_UART.c ****     * Function Name: mUART_SpiUartGetRxBufferSize
 139:Generated_Source\PSoC4/mUART_SPI_UART.c ****     ****************************************************************************//**
 140:Generated_Source\PSoC4/mUART_SPI_UART.c ****     *
 141:Generated_Source\PSoC4/mUART_SPI_UART.c ****     *  Returns the number of received data elements in the receive buffer.
 142:Generated_Source\PSoC4/mUART_SPI_UART.c ****     *   - RX software buffer disabled: returns the number of used entries in
 143:Generated_Source\PSoC4/mUART_SPI_UART.c ****     *     RX FIFO.
ARM GAS  C:\Users\PC\AppData\Local\Temp\ccTXgV0X.s 			page 5


 144:Generated_Source\PSoC4/mUART_SPI_UART.c ****     *   - RX software buffer enabled: returns the number of elements which were
 145:Generated_Source\PSoC4/mUART_SPI_UART.c ****     *     placed in the receive buffer. This does not include the hardware RX FIFO.
 146:Generated_Source\PSoC4/mUART_SPI_UART.c ****     *
 147:Generated_Source\PSoC4/mUART_SPI_UART.c ****     * \return
 148:Generated_Source\PSoC4/mUART_SPI_UART.c ****     *  Number of received data elements.
 149:Generated_Source\PSoC4/mUART_SPI_UART.c ****     *
 150:Generated_Source\PSoC4/mUART_SPI_UART.c ****     * \globalvars
 151:Generated_Source\PSoC4/mUART_SPI_UART.c ****     *  mUART_rxBufferHead - the start index to put data into the 
 152:Generated_Source\PSoC4/mUART_SPI_UART.c ****     *  software receive buffer.
 153:Generated_Source\PSoC4/mUART_SPI_UART.c ****     *  mUART_rxBufferTail - the start index to get data from the 
 154:Generated_Source\PSoC4/mUART_SPI_UART.c ****     *  software receive buffer.
 155:Generated_Source\PSoC4/mUART_SPI_UART.c ****     *
 156:Generated_Source\PSoC4/mUART_SPI_UART.c ****     *******************************************************************************/
 157:Generated_Source\PSoC4/mUART_SPI_UART.c ****     uint32 mUART_SpiUartGetRxBufferSize(void)
 158:Generated_Source\PSoC4/mUART_SPI_UART.c ****     {
  84              		.loc 1 158 0
  85              		.cfi_startproc
  86              		@ args = 0, pretend = 0, frame = 0
  87              		@ frame_needed = 0, uses_anonymous_args = 0
  88              		@ link register save eliminated.
 159:Generated_Source\PSoC4/mUART_SPI_UART.c ****         uint32 size;
 160:Generated_Source\PSoC4/mUART_SPI_UART.c ****     #if (mUART_INTERNAL_RX_SW_BUFFER_CONST)
 161:Generated_Source\PSoC4/mUART_SPI_UART.c ****         uint32 locHead;
 162:Generated_Source\PSoC4/mUART_SPI_UART.c ****     #endif /* (mUART_INTERNAL_RX_SW_BUFFER_CONST) */
 163:Generated_Source\PSoC4/mUART_SPI_UART.c **** 
 164:Generated_Source\PSoC4/mUART_SPI_UART.c ****         #if (mUART_CHECK_RX_SW_BUFFER)
 165:Generated_Source\PSoC4/mUART_SPI_UART.c ****         {
 166:Generated_Source\PSoC4/mUART_SPI_UART.c ****             locHead = mUART_rxBufferHead;
  89              		.loc 1 166 0
  90 0000 044B     		ldr	r3, .L12
  91 0002 1868     		ldr	r0, [r3]
  92              	.LVL4:
 167:Generated_Source\PSoC4/mUART_SPI_UART.c **** 
 168:Generated_Source\PSoC4/mUART_SPI_UART.c ****             if(locHead >= mUART_rxBufferTail)
  93              		.loc 1 168 0
  94 0004 044B     		ldr	r3, .L12+4
  95 0006 1A68     		ldr	r2, [r3]
 169:Generated_Source\PSoC4/mUART_SPI_UART.c ****             {
 170:Generated_Source\PSoC4/mUART_SPI_UART.c ****                 size = (locHead - mUART_rxBufferTail);
  96              		.loc 1 170 0
  97 0008 1B68     		ldr	r3, [r3]
 168:Generated_Source\PSoC4/mUART_SPI_UART.c ****             {
  98              		.loc 1 168 0
  99 000a 9042     		cmp	r0, r2
 100 000c 00D2     		bcs	.L11
 171:Generated_Source\PSoC4/mUART_SPI_UART.c ****             }
 172:Generated_Source\PSoC4/mUART_SPI_UART.c ****             else
 173:Generated_Source\PSoC4/mUART_SPI_UART.c ****             {
 174:Generated_Source\PSoC4/mUART_SPI_UART.c ****                 size = (locHead + (mUART_INTERNAL_RX_BUFFER_SIZE - mUART_rxBufferTail));
 101              		.loc 1 174 0
 102 000e 4130     		adds	r0, r0, #65
 103              	.LVL5:
 104              	.L11:
 105 0010 C01A     		subs	r0, r0, r3
 106              	.LVL6:
 175:Generated_Source\PSoC4/mUART_SPI_UART.c ****             }
 176:Generated_Source\PSoC4/mUART_SPI_UART.c ****         }
ARM GAS  C:\Users\PC\AppData\Local\Temp\ccTXgV0X.s 			page 6


 177:Generated_Source\PSoC4/mUART_SPI_UART.c ****         #else
 178:Generated_Source\PSoC4/mUART_SPI_UART.c ****         {
 179:Generated_Source\PSoC4/mUART_SPI_UART.c ****             size = mUART_GET_RX_FIFO_ENTRIES;
 180:Generated_Source\PSoC4/mUART_SPI_UART.c ****         }
 181:Generated_Source\PSoC4/mUART_SPI_UART.c ****         #endif
 182:Generated_Source\PSoC4/mUART_SPI_UART.c **** 
 183:Generated_Source\PSoC4/mUART_SPI_UART.c ****         return (size);
 184:Generated_Source\PSoC4/mUART_SPI_UART.c ****     }
 107              		.loc 1 184 0
 108              		@ sp needed
 109 0012 7047     		bx	lr
 110              	.L13:
 111              		.align	2
 112              	.L12:
 113 0014 00000000 		.word	mUART_rxBufferHead
 114 0018 00000000 		.word	mUART_rxBufferTail
 115              		.cfi_endproc
 116              	.LFE2:
 117              		.size	mUART_SpiUartGetRxBufferSize, .-mUART_SpiUartGetRxBufferSize
 118              		.section	.text.mUART_SpiUartClearRxBuffer,"ax",%progbits
 119              		.align	1
 120              		.global	mUART_SpiUartClearRxBuffer
 121              		.code	16
 122              		.thumb_func
 123              		.type	mUART_SpiUartClearRxBuffer, %function
 124              	mUART_SpiUartClearRxBuffer:
 125              	.LFB3:
 185:Generated_Source\PSoC4/mUART_SPI_UART.c **** 
 186:Generated_Source\PSoC4/mUART_SPI_UART.c **** 
 187:Generated_Source\PSoC4/mUART_SPI_UART.c ****     /*******************************************************************************
 188:Generated_Source\PSoC4/mUART_SPI_UART.c ****     * Function Name: mUART_SpiUartClearRxBuffer
 189:Generated_Source\PSoC4/mUART_SPI_UART.c ****     ****************************************************************************//**
 190:Generated_Source\PSoC4/mUART_SPI_UART.c ****     *
 191:Generated_Source\PSoC4/mUART_SPI_UART.c ****     *  Clears the receive buffer and RX FIFO.
 192:Generated_Source\PSoC4/mUART_SPI_UART.c ****     *
 193:Generated_Source\PSoC4/mUART_SPI_UART.c ****     * \globalvars
 194:Generated_Source\PSoC4/mUART_SPI_UART.c ****     *  mUART_rxBufferHead - the start index to put data into the 
 195:Generated_Source\PSoC4/mUART_SPI_UART.c ****     *  software receive buffer.
 196:Generated_Source\PSoC4/mUART_SPI_UART.c ****     *  mUART_rxBufferTail - the start index to get data from the 
 197:Generated_Source\PSoC4/mUART_SPI_UART.c ****     *  software receive buffer.
 198:Generated_Source\PSoC4/mUART_SPI_UART.c ****     *
 199:Generated_Source\PSoC4/mUART_SPI_UART.c ****     *******************************************************************************/
 200:Generated_Source\PSoC4/mUART_SPI_UART.c ****     void mUART_SpiUartClearRxBuffer(void)
 201:Generated_Source\PSoC4/mUART_SPI_UART.c ****     {
 126              		.loc 1 201 0
 127              		.cfi_startproc
 128              		@ args = 0, pretend = 0, frame = 0
 129              		@ frame_needed = 0, uses_anonymous_args = 0
 130 0000 10B5     		push	{r4, lr}
 131              		.cfi_def_cfa_offset 8
 132              		.cfi_offset 4, -8
 133              		.cfi_offset 14, -4
 202:Generated_Source\PSoC4/mUART_SPI_UART.c ****         #if (mUART_CHECK_RX_SW_BUFFER)
 203:Generated_Source\PSoC4/mUART_SPI_UART.c ****         {
 204:Generated_Source\PSoC4/mUART_SPI_UART.c ****             /* Lock from component interruption */
 205:Generated_Source\PSoC4/mUART_SPI_UART.c ****             mUART_DisableInt();
 134              		.loc 1 205 0
ARM GAS  C:\Users\PC\AppData\Local\Temp\ccTXgV0X.s 			page 7


 135 0002 0720     		movs	r0, #7
 136 0004 FFF7FEFF 		bl	CyIntDisable
 137              	.LVL7:
 206:Generated_Source\PSoC4/mUART_SPI_UART.c **** 
 207:Generated_Source\PSoC4/mUART_SPI_UART.c ****             /* Flush RX software buffer */
 208:Generated_Source\PSoC4/mUART_SPI_UART.c ****             mUART_rxBufferHead = mUART_rxBufferTail;
 138              		.loc 1 208 0
 139 0008 0B4B     		ldr	r3, .L15
 209:Generated_Source\PSoC4/mUART_SPI_UART.c ****             mUART_rxBufferOverflow = 0u;
 210:Generated_Source\PSoC4/mUART_SPI_UART.c **** 
 211:Generated_Source\PSoC4/mUART_SPI_UART.c ****             mUART_CLEAR_RX_FIFO;
 140              		.loc 1 211 0
 141 000a 8021     		movs	r1, #128
 208:Generated_Source\PSoC4/mUART_SPI_UART.c ****             mUART_rxBufferOverflow = 0u;
 142              		.loc 1 208 0
 143 000c 1A68     		ldr	r2, [r3]
 144 000e 0B4B     		ldr	r3, .L15+4
 145              		.loc 1 211 0
 146 0010 4902     		lsls	r1, r1, #9
 208:Generated_Source\PSoC4/mUART_SPI_UART.c ****             mUART_rxBufferOverflow = 0u;
 147              		.loc 1 208 0
 148 0012 1A60     		str	r2, [r3]
 209:Generated_Source\PSoC4/mUART_SPI_UART.c ****             mUART_rxBufferOverflow = 0u;
 149              		.loc 1 209 0
 150 0014 0022     		movs	r2, #0
 151 0016 0A4B     		ldr	r3, .L15+8
 212:Generated_Source\PSoC4/mUART_SPI_UART.c ****             mUART_ClearRxInterruptSource(mUART_INTR_RX_ALL);
 213:Generated_Source\PSoC4/mUART_SPI_UART.c **** 
 214:Generated_Source\PSoC4/mUART_SPI_UART.c ****             #if (mUART_CHECK_UART_RTS_CONTROL_FLOW)
 215:Generated_Source\PSoC4/mUART_SPI_UART.c ****             {
 216:Generated_Source\PSoC4/mUART_SPI_UART.c ****                 /* Enable RX Not Empty interrupt source to continue receiving
 217:Generated_Source\PSoC4/mUART_SPI_UART.c ****                 * data into software buffer.
 218:Generated_Source\PSoC4/mUART_SPI_UART.c ****                 */
 219:Generated_Source\PSoC4/mUART_SPI_UART.c ****                 mUART_INTR_RX_MASK_REG |= mUART_INTR_RX_NOT_EMPTY;
 220:Generated_Source\PSoC4/mUART_SPI_UART.c ****             }
 221:Generated_Source\PSoC4/mUART_SPI_UART.c ****             #endif
 222:Generated_Source\PSoC4/mUART_SPI_UART.c ****             
 223:Generated_Source\PSoC4/mUART_SPI_UART.c ****             /* Release lock */
 224:Generated_Source\PSoC4/mUART_SPI_UART.c ****             mUART_EnableInt();
 152              		.loc 1 224 0
 153 0018 0720     		movs	r0, #7
 209:Generated_Source\PSoC4/mUART_SPI_UART.c **** 
 154              		.loc 1 209 0
 155 001a 1A70     		strb	r2, [r3]
 211:Generated_Source\PSoC4/mUART_SPI_UART.c ****             mUART_ClearRxInterruptSource(mUART_INTR_RX_ALL);
 156              		.loc 1 211 0
 157 001c 094B     		ldr	r3, .L15+12
 225:Generated_Source\PSoC4/mUART_SPI_UART.c ****         }
 226:Generated_Source\PSoC4/mUART_SPI_UART.c ****         #else
 227:Generated_Source\PSoC4/mUART_SPI_UART.c ****         {
 228:Generated_Source\PSoC4/mUART_SPI_UART.c ****             mUART_CLEAR_RX_FIFO;
 229:Generated_Source\PSoC4/mUART_SPI_UART.c ****         }
 230:Generated_Source\PSoC4/mUART_SPI_UART.c ****         #endif
 231:Generated_Source\PSoC4/mUART_SPI_UART.c ****     }
 158              		.loc 1 231 0
 159              		@ sp needed
 211:Generated_Source\PSoC4/mUART_SPI_UART.c ****             mUART_ClearRxInterruptSource(mUART_INTR_RX_ALL);
ARM GAS  C:\Users\PC\AppData\Local\Temp\ccTXgV0X.s 			page 8


 160              		.loc 1 211 0
 161 001e 1A68     		ldr	r2, [r3]
 162 0020 0A43     		orrs	r2, r1
 163 0022 1A60     		str	r2, [r3]
 164 0024 1968     		ldr	r1, [r3]
 165 0026 084A     		ldr	r2, .L15+16
 166 0028 0A40     		ands	r2, r1
 167 002a 1A60     		str	r2, [r3]
 212:Generated_Source\PSoC4/mUART_SPI_UART.c **** 
 168              		.loc 1 212 0
 169 002c 074A     		ldr	r2, .L15+20
 170 002e 084B     		ldr	r3, .L15+24
 171 0030 1A60     		str	r2, [r3]
 224:Generated_Source\PSoC4/mUART_SPI_UART.c ****         }
 172              		.loc 1 224 0
 173 0032 FFF7FEFF 		bl	CyIntEnable
 174              	.LVL8:
 175              		.loc 1 231 0
 176 0036 10BD     		pop	{r4, pc}
 177              	.L16:
 178              		.align	2
 179              	.L15:
 180 0038 00000000 		.word	mUART_rxBufferTail
 181 003c 00000000 		.word	mUART_rxBufferHead
 182 0040 00000000 		.word	mUART_rxBufferOverflow
 183 0044 04030840 		.word	1074266884
 184 0048 FFFFFEFF 		.word	-65537
 185 004c ED0F0000 		.word	4077
 186 0050 C00F0840 		.word	1074270144
 187              		.cfi_endproc
 188              	.LFE3:
 189              		.size	mUART_SpiUartClearRxBuffer, .-mUART_SpiUartClearRxBuffer
 190              		.section	.text.mUART_SpiUartWriteTxData,"ax",%progbits
 191              		.align	1
 192              		.global	mUART_SpiUartWriteTxData
 193              		.code	16
 194              		.thumb_func
 195              		.type	mUART_SpiUartWriteTxData, %function
 196              	mUART_SpiUartWriteTxData:
 197              	.LFB4:
 232:Generated_Source\PSoC4/mUART_SPI_UART.c **** 
 233:Generated_Source\PSoC4/mUART_SPI_UART.c **** #endif /* (mUART_RX_DIRECTION) */
 234:Generated_Source\PSoC4/mUART_SPI_UART.c **** 
 235:Generated_Source\PSoC4/mUART_SPI_UART.c **** 
 236:Generated_Source\PSoC4/mUART_SPI_UART.c **** #if(mUART_TX_DIRECTION)
 237:Generated_Source\PSoC4/mUART_SPI_UART.c ****     /*******************************************************************************
 238:Generated_Source\PSoC4/mUART_SPI_UART.c ****     * Function Name: mUART_SpiUartWriteTxData
 239:Generated_Source\PSoC4/mUART_SPI_UART.c ****     ****************************************************************************//**
 240:Generated_Source\PSoC4/mUART_SPI_UART.c ****     *
 241:Generated_Source\PSoC4/mUART_SPI_UART.c ****     *  Places a data entry into the transmit buffer to be sent at the next available
 242:Generated_Source\PSoC4/mUART_SPI_UART.c ****     *  bus time.
 243:Generated_Source\PSoC4/mUART_SPI_UART.c ****     *  This function is blocking and waits until there is space available to put the
 244:Generated_Source\PSoC4/mUART_SPI_UART.c ****     *  requested data in the transmit buffer.
 245:Generated_Source\PSoC4/mUART_SPI_UART.c ****     *
 246:Generated_Source\PSoC4/mUART_SPI_UART.c ****     *  \param txDataByte: the data to be transmitted.
 247:Generated_Source\PSoC4/mUART_SPI_UART.c ****     *   The amount of data bits to be transmitted depends on TX data bits selection 
 248:Generated_Source\PSoC4/mUART_SPI_UART.c ****     *   (the data bit counting starts from LSB of txDataByte).
ARM GAS  C:\Users\PC\AppData\Local\Temp\ccTXgV0X.s 			page 9


 249:Generated_Source\PSoC4/mUART_SPI_UART.c ****     *
 250:Generated_Source\PSoC4/mUART_SPI_UART.c ****     * \globalvars
 251:Generated_Source\PSoC4/mUART_SPI_UART.c ****     *  mUART_txBufferHead - the start index to put data into the 
 252:Generated_Source\PSoC4/mUART_SPI_UART.c ****     *  software transmit buffer.
 253:Generated_Source\PSoC4/mUART_SPI_UART.c ****     *  mUART_txBufferTail - start index to get data from the software
 254:Generated_Source\PSoC4/mUART_SPI_UART.c ****     *  transmit buffer.
 255:Generated_Source\PSoC4/mUART_SPI_UART.c ****     *
 256:Generated_Source\PSoC4/mUART_SPI_UART.c ****     *******************************************************************************/
 257:Generated_Source\PSoC4/mUART_SPI_UART.c ****     void mUART_SpiUartWriteTxData(uint32 txData)
 258:Generated_Source\PSoC4/mUART_SPI_UART.c ****     {
 198              		.loc 1 258 0
 199              		.cfi_startproc
 200              		@ args = 0, pretend = 0, frame = 0
 201              		@ frame_needed = 0, uses_anonymous_args = 0
 202              	.LVL9:
 259:Generated_Source\PSoC4/mUART_SPI_UART.c ****     #if (mUART_INTERNAL_TX_SW_BUFFER_CONST)
 260:Generated_Source\PSoC4/mUART_SPI_UART.c ****         uint32 locHead;
 261:Generated_Source\PSoC4/mUART_SPI_UART.c ****     #endif /* (mUART_INTERNAL_TX_SW_BUFFER_CONST) */
 262:Generated_Source\PSoC4/mUART_SPI_UART.c **** 
 263:Generated_Source\PSoC4/mUART_SPI_UART.c ****         #if (mUART_CHECK_TX_SW_BUFFER)
 264:Generated_Source\PSoC4/mUART_SPI_UART.c ****         {
 265:Generated_Source\PSoC4/mUART_SPI_UART.c ****             /* Put data directly into the TX FIFO */
 266:Generated_Source\PSoC4/mUART_SPI_UART.c ****             if ((mUART_txBufferHead == mUART_txBufferTail) &&
 203              		.loc 1 266 0
 204 0000 134B     		ldr	r3, .L26
 205 0002 144A     		ldr	r2, .L26+4
 258:Generated_Source\PSoC4/mUART_SPI_UART.c ****     #if (mUART_INTERNAL_TX_SW_BUFFER_CONST)
 206              		.loc 1 258 0
 207 0004 30B5     		push	{r4, r5, lr}
 208              		.cfi_def_cfa_offset 12
 209              		.cfi_offset 4, -12
 210              		.cfi_offset 5, -8
 211              		.cfi_offset 14, -4
 212              		.loc 1 266 0
 213 0006 1568     		ldr	r5, [r2]
 214 0008 1C68     		ldr	r4, [r3]
 215 000a 1900     		movs	r1, r3
 216 000c A542     		cmp	r5, r4
 217 000e 08D1     		bne	.L18
 267:Generated_Source\PSoC4/mUART_SPI_UART.c ****                 (mUART_SPI_UART_FIFO_SIZE != mUART_GET_TX_FIFO_ENTRIES))
 218              		.loc 1 267 0 discriminator 1
 219 0010 114B     		ldr	r3, .L26+8
 220 0012 1C68     		ldr	r4, [r3]
 266:Generated_Source\PSoC4/mUART_SPI_UART.c ****                 (mUART_SPI_UART_FIFO_SIZE != mUART_GET_TX_FIFO_ENTRIES))
 221              		.loc 1 266 0 discriminator 1
 222 0014 1F23     		movs	r3, #31
 223 0016 2340     		ands	r3, r4
 224 0018 082B     		cmp	r3, #8
 225 001a 02D0     		beq	.L18
 268:Generated_Source\PSoC4/mUART_SPI_UART.c ****             {
 269:Generated_Source\PSoC4/mUART_SPI_UART.c ****                 /* TX software buffer is empty: put data directly in TX FIFO */
 270:Generated_Source\PSoC4/mUART_SPI_UART.c ****                 mUART_TX_FIFO_WR_REG = txData;
 226              		.loc 1 270 0
 227 001c 0F4B     		ldr	r3, .L26+12
 228 001e 1860     		str	r0, [r3]
 229 0020 15E0     		b	.L17
 230              	.L18:
ARM GAS  C:\Users\PC\AppData\Local\Temp\ccTXgV0X.s 			page 10


 271:Generated_Source\PSoC4/mUART_SPI_UART.c ****             }
 272:Generated_Source\PSoC4/mUART_SPI_UART.c ****             /* Put data into TX software buffer */
 273:Generated_Source\PSoC4/mUART_SPI_UART.c ****             else
 274:Generated_Source\PSoC4/mUART_SPI_UART.c ****             {
 275:Generated_Source\PSoC4/mUART_SPI_UART.c ****                 /* Head index to put data */
 276:Generated_Source\PSoC4/mUART_SPI_UART.c ****                 locHead = (mUART_txBufferHead + 1u);
 231              		.loc 1 276 0
 232 0022 1368     		ldr	r3, [r2]
 233 0024 0133     		adds	r3, r3, #1
 234              	.LVL10:
 277:Generated_Source\PSoC4/mUART_SPI_UART.c **** 
 278:Generated_Source\PSoC4/mUART_SPI_UART.c ****                 /* Adjust TX software buffer index */
 279:Generated_Source\PSoC4/mUART_SPI_UART.c ****                 if (mUART_TX_BUFFER_SIZE == locHead)
 235              		.loc 1 279 0
 236 0026 402B     		cmp	r3, #64
 237 0028 00D1     		bne	.L21
 280:Generated_Source\PSoC4/mUART_SPI_UART.c ****                 {
 281:Generated_Source\PSoC4/mUART_SPI_UART.c ****                     locHead = 0u;
 238              		.loc 1 281 0
 239 002a 0023     		movs	r3, #0
 240              	.LVL11:
 241              	.L21:
 282:Generated_Source\PSoC4/mUART_SPI_UART.c ****                 }
 283:Generated_Source\PSoC4/mUART_SPI_UART.c **** 
 284:Generated_Source\PSoC4/mUART_SPI_UART.c ****                 /* Wait for space in TX software buffer */
 285:Generated_Source\PSoC4/mUART_SPI_UART.c ****                 while (locHead == mUART_txBufferTail)
 242              		.loc 1 285 0 discriminator 1
 243 002c 0C68     		ldr	r4, [r1]
 244 002e A342     		cmp	r3, r4
 245 0030 FCD0     		beq	.L21
 286:Generated_Source\PSoC4/mUART_SPI_UART.c ****                 {
 287:Generated_Source\PSoC4/mUART_SPI_UART.c ****                 }
 288:Generated_Source\PSoC4/mUART_SPI_UART.c **** 
 289:Generated_Source\PSoC4/mUART_SPI_UART.c ****                 /* TX software buffer has at least one room */
 290:Generated_Source\PSoC4/mUART_SPI_UART.c **** 
 291:Generated_Source\PSoC4/mUART_SPI_UART.c ****                 /* Clear old status of INTR_TX_NOT_FULL. It sets at the end of transfer when TX FIF
 292:Generated_Source\PSoC4/mUART_SPI_UART.c ****                 mUART_ClearTxInterruptSource(mUART_INTR_TX_NOT_FULL);
 246              		.loc 1 292 0
 247 0032 0221     		movs	r1, #2
 248 0034 0A4C     		ldr	r4, .L26+16
 293:Generated_Source\PSoC4/mUART_SPI_UART.c **** 
 294:Generated_Source\PSoC4/mUART_SPI_UART.c ****                 mUART_PutWordInTxBuffer(locHead, txData);
 249              		.loc 1 294 0
 250 0036 C0B2     		uxtb	r0, r0
 251              	.LVL12:
 292:Generated_Source\PSoC4/mUART_SPI_UART.c **** 
 252              		.loc 1 292 0
 253 0038 2160     		str	r1, [r4]
 254              		.loc 1 294 0
 255 003a 0A4C     		ldr	r4, .L26+20
 256 003c E054     		strb	r0, [r4, r3]
 295:Generated_Source\PSoC4/mUART_SPI_UART.c **** 
 296:Generated_Source\PSoC4/mUART_SPI_UART.c ****                 mUART_txBufferHead = locHead;
 257              		.loc 1 296 0
 258 003e 1360     		str	r3, [r2]
 297:Generated_Source\PSoC4/mUART_SPI_UART.c **** 
 298:Generated_Source\PSoC4/mUART_SPI_UART.c ****                 /* Check if TX Not Full is disabled in interrupt */
ARM GAS  C:\Users\PC\AppData\Local\Temp\ccTXgV0X.s 			page 11


 299:Generated_Source\PSoC4/mUART_SPI_UART.c ****                 if (0u == (mUART_INTR_TX_MASK_REG & mUART_INTR_TX_NOT_FULL))
 259              		.loc 1 299 0
 260 0040 094B     		ldr	r3, .L26+24
 261              	.LVL13:
 262 0042 1A68     		ldr	r2, [r3]
 263 0044 0A42     		tst	r2, r1
 264 0046 02D1     		bne	.L17
 265              	.LVL14:
 266              	.LBB4:
 267              	.LBB5:
 300:Generated_Source\PSoC4/mUART_SPI_UART.c ****                 {
 301:Generated_Source\PSoC4/mUART_SPI_UART.c ****                     /* Enable TX Not Full interrupt source to transmit from software buffer */
 302:Generated_Source\PSoC4/mUART_SPI_UART.c ****                     mUART_INTR_TX_MASK_REG |= (uint32) mUART_INTR_TX_NOT_FULL;
 268              		.loc 1 302 0
 269 0048 1A68     		ldr	r2, [r3]
 270 004a 0A43     		orrs	r2, r1
 271 004c 1A60     		str	r2, [r3]
 272              	.LVL15:
 273              	.L17:
 274              	.LBE5:
 275              	.LBE4:
 303:Generated_Source\PSoC4/mUART_SPI_UART.c ****                 }
 304:Generated_Source\PSoC4/mUART_SPI_UART.c ****             }
 305:Generated_Source\PSoC4/mUART_SPI_UART.c ****         }
 306:Generated_Source\PSoC4/mUART_SPI_UART.c ****         #else
 307:Generated_Source\PSoC4/mUART_SPI_UART.c ****         {
 308:Generated_Source\PSoC4/mUART_SPI_UART.c ****             /* Wait until TX FIFO has space to put data element */
 309:Generated_Source\PSoC4/mUART_SPI_UART.c ****             while (mUART_SPI_UART_FIFO_SIZE == mUART_GET_TX_FIFO_ENTRIES)
 310:Generated_Source\PSoC4/mUART_SPI_UART.c ****             {
 311:Generated_Source\PSoC4/mUART_SPI_UART.c ****             }
 312:Generated_Source\PSoC4/mUART_SPI_UART.c **** 
 313:Generated_Source\PSoC4/mUART_SPI_UART.c ****             mUART_TX_FIFO_WR_REG = txData;
 314:Generated_Source\PSoC4/mUART_SPI_UART.c ****         }
 315:Generated_Source\PSoC4/mUART_SPI_UART.c ****         #endif
 316:Generated_Source\PSoC4/mUART_SPI_UART.c ****     }
 276              		.loc 1 316 0
 277              		@ sp needed
 278 004e 30BD     		pop	{r4, r5, pc}
 279              	.L27:
 280              		.align	2
 281              	.L26:
 282 0050 00000000 		.word	mUART_txBufferTail
 283 0054 00000000 		.word	mUART_txBufferHead
 284 0058 08020840 		.word	1074266632
 285 005c 40020840 		.word	1074266688
 286 0060 800F0840 		.word	1074270080
 287 0064 00000000 		.word	mUART_txBufferInternal
 288 0068 880F0840 		.word	1074270088
 289              		.cfi_endproc
 290              	.LFE4:
 291              		.size	mUART_SpiUartWriteTxData, .-mUART_SpiUartWriteTxData
 292              		.section	.text.mUART_SpiUartPutArray,"ax",%progbits
 293              		.align	1
 294              		.global	mUART_SpiUartPutArray
 295              		.code	16
 296              		.thumb_func
 297              		.type	mUART_SpiUartPutArray, %function
ARM GAS  C:\Users\PC\AppData\Local\Temp\ccTXgV0X.s 			page 12


 298              	mUART_SpiUartPutArray:
 299              	.LFB5:
 317:Generated_Source\PSoC4/mUART_SPI_UART.c **** 
 318:Generated_Source\PSoC4/mUART_SPI_UART.c **** 
 319:Generated_Source\PSoC4/mUART_SPI_UART.c ****     /*******************************************************************************
 320:Generated_Source\PSoC4/mUART_SPI_UART.c ****     * Function Name: mUART_SpiUartPutArray
 321:Generated_Source\PSoC4/mUART_SPI_UART.c ****     ****************************************************************************//**
 322:Generated_Source\PSoC4/mUART_SPI_UART.c ****     *
 323:Generated_Source\PSoC4/mUART_SPI_UART.c ****     *  Places an array of data into the transmit buffer to be sent.
 324:Generated_Source\PSoC4/mUART_SPI_UART.c ****     *  This function is blocking and waits until there is a space available to put
 325:Generated_Source\PSoC4/mUART_SPI_UART.c ****     *  all the requested data in the transmit buffer. The array size can be greater
 326:Generated_Source\PSoC4/mUART_SPI_UART.c ****     *  than transmit buffer size.
 327:Generated_Source\PSoC4/mUART_SPI_UART.c ****     *
 328:Generated_Source\PSoC4/mUART_SPI_UART.c ****     * \param wrBuf: pointer to an array of data to be placed in transmit buffer. 
 329:Generated_Source\PSoC4/mUART_SPI_UART.c ****     *  The width of the data to be transmitted depends on TX data width selection 
 330:Generated_Source\PSoC4/mUART_SPI_UART.c ****     *  (the data bit counting starts from LSB for each array element).
 331:Generated_Source\PSoC4/mUART_SPI_UART.c ****     * \param count: number of data elements to be placed in the transmit buffer.
 332:Generated_Source\PSoC4/mUART_SPI_UART.c ****     *
 333:Generated_Source\PSoC4/mUART_SPI_UART.c ****     * \globalvars
 334:Generated_Source\PSoC4/mUART_SPI_UART.c ****     *  mUART_txBufferHead - the start index to put data into the 
 335:Generated_Source\PSoC4/mUART_SPI_UART.c ****     *  software transmit buffer.
 336:Generated_Source\PSoC4/mUART_SPI_UART.c ****     *  mUART_txBufferTail - start index to get data from the software
 337:Generated_Source\PSoC4/mUART_SPI_UART.c ****     *  transmit buffer.
 338:Generated_Source\PSoC4/mUART_SPI_UART.c ****     *
 339:Generated_Source\PSoC4/mUART_SPI_UART.c ****     *******************************************************************************/
 340:Generated_Source\PSoC4/mUART_SPI_UART.c ****     void mUART_SpiUartPutArray(const uint8 wrBuf[], uint32 count)
 341:Generated_Source\PSoC4/mUART_SPI_UART.c ****     {
 300              		.loc 1 341 0
 301              		.cfi_startproc
 302              		@ args = 0, pretend = 0, frame = 0
 303              		@ frame_needed = 0, uses_anonymous_args = 0
 304              	.LVL16:
 305 0000 70B5     		push	{r4, r5, r6, lr}
 306              		.cfi_def_cfa_offset 16
 307              		.cfi_offset 4, -16
 308              		.cfi_offset 5, -12
 309              		.cfi_offset 6, -8
 310              		.cfi_offset 14, -4
 311 0002 0400     		movs	r4, r0
 312 0004 4518     		adds	r5, r0, r1
 313              	.LVL17:
 314              	.L29:
 342:Generated_Source\PSoC4/mUART_SPI_UART.c ****         uint32 i;
 343:Generated_Source\PSoC4/mUART_SPI_UART.c **** 
 344:Generated_Source\PSoC4/mUART_SPI_UART.c ****         for (i=0u; i < count; i++)
 315              		.loc 1 344 0 discriminator 1
 316 0006 AC42     		cmp	r4, r5
 317 0008 04D0     		beq	.L31
 345:Generated_Source\PSoC4/mUART_SPI_UART.c ****         {
 346:Generated_Source\PSoC4/mUART_SPI_UART.c ****             mUART_SpiUartWriteTxData((uint32) wrBuf[i]);
 318              		.loc 1 346 0 discriminator 3
 319 000a 2078     		ldrb	r0, [r4]
 320 000c FFF7FEFF 		bl	mUART_SpiUartWriteTxData
 321              	.LVL18:
 322 0010 0134     		adds	r4, r4, #1
 323              	.LVL19:
 324 0012 F8E7     		b	.L29
ARM GAS  C:\Users\PC\AppData\Local\Temp\ccTXgV0X.s 			page 13


 325              	.L31:
 347:Generated_Source\PSoC4/mUART_SPI_UART.c ****         }
 348:Generated_Source\PSoC4/mUART_SPI_UART.c ****     }
 326              		.loc 1 348 0
 327              		@ sp needed
 328              	.LVL20:
 329 0014 70BD     		pop	{r4, r5, r6, pc}
 330              		.cfi_endproc
 331              	.LFE5:
 332              		.size	mUART_SpiUartPutArray, .-mUART_SpiUartPutArray
 333              		.section	.text.mUART_SpiUartGetTxBufferSize,"ax",%progbits
 334              		.align	1
 335              		.global	mUART_SpiUartGetTxBufferSize
 336              		.code	16
 337              		.thumb_func
 338              		.type	mUART_SpiUartGetTxBufferSize, %function
 339              	mUART_SpiUartGetTxBufferSize:
 340              	.LFB6:
 349:Generated_Source\PSoC4/mUART_SPI_UART.c **** 
 350:Generated_Source\PSoC4/mUART_SPI_UART.c **** 
 351:Generated_Source\PSoC4/mUART_SPI_UART.c ****     /*******************************************************************************
 352:Generated_Source\PSoC4/mUART_SPI_UART.c ****     * Function Name: mUART_SpiUartGetTxBufferSize
 353:Generated_Source\PSoC4/mUART_SPI_UART.c ****     ****************************************************************************//**
 354:Generated_Source\PSoC4/mUART_SPI_UART.c ****     *
 355:Generated_Source\PSoC4/mUART_SPI_UART.c ****     *  Returns the number of elements currently in the transmit buffer.
 356:Generated_Source\PSoC4/mUART_SPI_UART.c ****     *   - TX software buffer is disabled: returns the number of used entries in
 357:Generated_Source\PSoC4/mUART_SPI_UART.c ****     *     TX FIFO.
 358:Generated_Source\PSoC4/mUART_SPI_UART.c ****     *   - TX software buffer is enabled: returns the number of elements currently
 359:Generated_Source\PSoC4/mUART_SPI_UART.c ****     *     used in the transmit buffer. This number does not include used entries in
 360:Generated_Source\PSoC4/mUART_SPI_UART.c ****     *     the TX FIFO. The transmit buffer size is zero until the TX FIFO is
 361:Generated_Source\PSoC4/mUART_SPI_UART.c ****     *     not full.
 362:Generated_Source\PSoC4/mUART_SPI_UART.c ****     *
 363:Generated_Source\PSoC4/mUART_SPI_UART.c ****     * \return
 364:Generated_Source\PSoC4/mUART_SPI_UART.c ****     *  Number of data elements ready to transmit.
 365:Generated_Source\PSoC4/mUART_SPI_UART.c ****     *
 366:Generated_Source\PSoC4/mUART_SPI_UART.c ****     * \globalvars
 367:Generated_Source\PSoC4/mUART_SPI_UART.c ****     *  mUART_txBufferHead - the start index to put data into the 
 368:Generated_Source\PSoC4/mUART_SPI_UART.c ****     *  software transmit buffer.
 369:Generated_Source\PSoC4/mUART_SPI_UART.c ****     *  mUART_txBufferTail - start index to get data from the software
 370:Generated_Source\PSoC4/mUART_SPI_UART.c ****     *  transmit buffer.
 371:Generated_Source\PSoC4/mUART_SPI_UART.c ****     *
 372:Generated_Source\PSoC4/mUART_SPI_UART.c ****     *******************************************************************************/
 373:Generated_Source\PSoC4/mUART_SPI_UART.c ****     uint32 mUART_SpiUartGetTxBufferSize(void)
 374:Generated_Source\PSoC4/mUART_SPI_UART.c ****     {
 341              		.loc 1 374 0
 342              		.cfi_startproc
 343              		@ args = 0, pretend = 0, frame = 0
 344              		@ frame_needed = 0, uses_anonymous_args = 0
 345              		@ link register save eliminated.
 375:Generated_Source\PSoC4/mUART_SPI_UART.c ****         uint32 size;
 376:Generated_Source\PSoC4/mUART_SPI_UART.c ****     #if (mUART_INTERNAL_TX_SW_BUFFER_CONST)
 377:Generated_Source\PSoC4/mUART_SPI_UART.c ****         uint32 locTail;
 378:Generated_Source\PSoC4/mUART_SPI_UART.c ****     #endif /* (mUART_INTERNAL_TX_SW_BUFFER_CONST) */
 379:Generated_Source\PSoC4/mUART_SPI_UART.c **** 
 380:Generated_Source\PSoC4/mUART_SPI_UART.c ****         #if (mUART_CHECK_TX_SW_BUFFER)
 381:Generated_Source\PSoC4/mUART_SPI_UART.c ****         {
 382:Generated_Source\PSoC4/mUART_SPI_UART.c ****             /* Get current Tail index */
ARM GAS  C:\Users\PC\AppData\Local\Temp\ccTXgV0X.s 			page 14


 383:Generated_Source\PSoC4/mUART_SPI_UART.c ****             locTail = mUART_txBufferTail;
 384:Generated_Source\PSoC4/mUART_SPI_UART.c **** 
 385:Generated_Source\PSoC4/mUART_SPI_UART.c ****             if (mUART_txBufferHead >= locTail)
 346              		.loc 1 385 0
 347 0000 044A     		ldr	r2, .L36
 383:Generated_Source\PSoC4/mUART_SPI_UART.c **** 
 348              		.loc 1 383 0
 349 0002 054B     		ldr	r3, .L36+4
 350 0004 1B68     		ldr	r3, [r3]
 351              	.LVL21:
 352              		.loc 1 385 0
 353 0006 1168     		ldr	r1, [r2]
 386:Generated_Source\PSoC4/mUART_SPI_UART.c ****             {
 387:Generated_Source\PSoC4/mUART_SPI_UART.c ****                 size = (mUART_txBufferHead - locTail);
 354              		.loc 1 387 0
 355 0008 1068     		ldr	r0, [r2]
 385:Generated_Source\PSoC4/mUART_SPI_UART.c ****             {
 356              		.loc 1 385 0
 357 000a 8B42     		cmp	r3, r1
 358 000c 00D9     		bls	.L35
 388:Generated_Source\PSoC4/mUART_SPI_UART.c ****             }
 389:Generated_Source\PSoC4/mUART_SPI_UART.c ****             else
 390:Generated_Source\PSoC4/mUART_SPI_UART.c ****             {
 391:Generated_Source\PSoC4/mUART_SPI_UART.c ****                 size = (mUART_txBufferHead + (mUART_TX_BUFFER_SIZE - locTail));
 359              		.loc 1 391 0
 360 000e 4030     		adds	r0, r0, #64
 361              	.L35:
 362 0010 C01A     		subs	r0, r0, r3
 363              	.LVL22:
 392:Generated_Source\PSoC4/mUART_SPI_UART.c ****             }
 393:Generated_Source\PSoC4/mUART_SPI_UART.c ****         }
 394:Generated_Source\PSoC4/mUART_SPI_UART.c ****         #else
 395:Generated_Source\PSoC4/mUART_SPI_UART.c ****         {
 396:Generated_Source\PSoC4/mUART_SPI_UART.c ****             size = mUART_GET_TX_FIFO_ENTRIES;
 397:Generated_Source\PSoC4/mUART_SPI_UART.c ****         }
 398:Generated_Source\PSoC4/mUART_SPI_UART.c ****         #endif
 399:Generated_Source\PSoC4/mUART_SPI_UART.c **** 
 400:Generated_Source\PSoC4/mUART_SPI_UART.c ****         return (size);
 401:Generated_Source\PSoC4/mUART_SPI_UART.c ****     }
 364              		.loc 1 401 0
 365              		@ sp needed
 366 0012 7047     		bx	lr
 367              	.L37:
 368              		.align	2
 369              	.L36:
 370 0014 00000000 		.word	mUART_txBufferHead
 371 0018 00000000 		.word	mUART_txBufferTail
 372              		.cfi_endproc
 373              	.LFE6:
 374              		.size	mUART_SpiUartGetTxBufferSize, .-mUART_SpiUartGetTxBufferSize
 375              		.section	.text.mUART_SpiUartClearTxBuffer,"ax",%progbits
 376              		.align	1
 377              		.global	mUART_SpiUartClearTxBuffer
 378              		.code	16
 379              		.thumb_func
 380              		.type	mUART_SpiUartClearTxBuffer, %function
 381              	mUART_SpiUartClearTxBuffer:
ARM GAS  C:\Users\PC\AppData\Local\Temp\ccTXgV0X.s 			page 15


 382              	.LFB7:
 402:Generated_Source\PSoC4/mUART_SPI_UART.c **** 
 403:Generated_Source\PSoC4/mUART_SPI_UART.c **** 
 404:Generated_Source\PSoC4/mUART_SPI_UART.c ****     /*******************************************************************************
 405:Generated_Source\PSoC4/mUART_SPI_UART.c ****     * Function Name: mUART_SpiUartClearTxBuffer
 406:Generated_Source\PSoC4/mUART_SPI_UART.c ****     ****************************************************************************//**
 407:Generated_Source\PSoC4/mUART_SPI_UART.c ****     *
 408:Generated_Source\PSoC4/mUART_SPI_UART.c ****     *  Clears the transmit buffer and TX FIFO.
 409:Generated_Source\PSoC4/mUART_SPI_UART.c ****     *
 410:Generated_Source\PSoC4/mUART_SPI_UART.c ****     * \globalvars
 411:Generated_Source\PSoC4/mUART_SPI_UART.c ****     *  mUART_txBufferHead - the start index to put data into the 
 412:Generated_Source\PSoC4/mUART_SPI_UART.c ****     *  software transmit buffer.
 413:Generated_Source\PSoC4/mUART_SPI_UART.c ****     *  mUART_txBufferTail - start index to get data from the software
 414:Generated_Source\PSoC4/mUART_SPI_UART.c ****     *  transmit buffer.
 415:Generated_Source\PSoC4/mUART_SPI_UART.c ****     *
 416:Generated_Source\PSoC4/mUART_SPI_UART.c ****     *******************************************************************************/
 417:Generated_Source\PSoC4/mUART_SPI_UART.c ****     void mUART_SpiUartClearTxBuffer(void)
 418:Generated_Source\PSoC4/mUART_SPI_UART.c ****     {
 383              		.loc 1 418 0
 384              		.cfi_startproc
 385              		@ args = 0, pretend = 0, frame = 0
 386              		@ frame_needed = 0, uses_anonymous_args = 0
 387 0000 10B5     		push	{r4, lr}
 388              		.cfi_def_cfa_offset 8
 389              		.cfi_offset 4, -8
 390              		.cfi_offset 14, -4
 419:Generated_Source\PSoC4/mUART_SPI_UART.c ****         #if (mUART_CHECK_TX_SW_BUFFER)
 420:Generated_Source\PSoC4/mUART_SPI_UART.c ****         {
 421:Generated_Source\PSoC4/mUART_SPI_UART.c ****             /* Lock from component interruption */
 422:Generated_Source\PSoC4/mUART_SPI_UART.c ****             mUART_DisableInt();
 391              		.loc 1 422 0
 392 0002 0720     		movs	r0, #7
 393 0004 FFF7FEFF 		bl	CyIntDisable
 394              	.LVL23:
 423:Generated_Source\PSoC4/mUART_SPI_UART.c **** 
 424:Generated_Source\PSoC4/mUART_SPI_UART.c ****             /* Flush TX software buffer */
 425:Generated_Source\PSoC4/mUART_SPI_UART.c ****             mUART_txBufferHead = mUART_txBufferTail;
 426:Generated_Source\PSoC4/mUART_SPI_UART.c **** 
 427:Generated_Source\PSoC4/mUART_SPI_UART.c ****             mUART_INTR_TX_MASK_REG &= (uint32) ~mUART_INTR_TX_NOT_FULL;
 395              		.loc 1 427 0
 396 0008 0221     		movs	r1, #2
 425:Generated_Source\PSoC4/mUART_SPI_UART.c **** 
 397              		.loc 1 425 0
 398 000a 0C4B     		ldr	r3, .L39
 428:Generated_Source\PSoC4/mUART_SPI_UART.c ****             mUART_CLEAR_TX_FIFO;
 429:Generated_Source\PSoC4/mUART_SPI_UART.c ****             mUART_ClearTxInterruptSource(mUART_INTR_TX_ALL);
 430:Generated_Source\PSoC4/mUART_SPI_UART.c **** 
 431:Generated_Source\PSoC4/mUART_SPI_UART.c ****             /* Release lock */
 432:Generated_Source\PSoC4/mUART_SPI_UART.c ****             mUART_EnableInt();
 399              		.loc 1 432 0
 400 000c 0720     		movs	r0, #7
 425:Generated_Source\PSoC4/mUART_SPI_UART.c **** 
 401              		.loc 1 425 0
 402 000e 1A68     		ldr	r2, [r3]
 403 0010 0B4B     		ldr	r3, .L39+4
 433:Generated_Source\PSoC4/mUART_SPI_UART.c ****         }
 434:Generated_Source\PSoC4/mUART_SPI_UART.c ****         #else
ARM GAS  C:\Users\PC\AppData\Local\Temp\ccTXgV0X.s 			page 16


 435:Generated_Source\PSoC4/mUART_SPI_UART.c ****         {
 436:Generated_Source\PSoC4/mUART_SPI_UART.c ****             mUART_CLEAR_TX_FIFO;
 437:Generated_Source\PSoC4/mUART_SPI_UART.c ****         }
 438:Generated_Source\PSoC4/mUART_SPI_UART.c ****         #endif
 439:Generated_Source\PSoC4/mUART_SPI_UART.c ****     }
 404              		.loc 1 439 0
 405              		@ sp needed
 425:Generated_Source\PSoC4/mUART_SPI_UART.c **** 
 406              		.loc 1 425 0
 407 0012 1A60     		str	r2, [r3]
 427:Generated_Source\PSoC4/mUART_SPI_UART.c ****             mUART_CLEAR_TX_FIFO;
 408              		.loc 1 427 0
 409 0014 0B4A     		ldr	r2, .L39+8
 410 0016 1368     		ldr	r3, [r2]
 411 0018 8B43     		bics	r3, r1
 428:Generated_Source\PSoC4/mUART_SPI_UART.c ****             mUART_ClearTxInterruptSource(mUART_INTR_TX_ALL);
 412              		.loc 1 428 0
 413 001a 8021     		movs	r1, #128
 427:Generated_Source\PSoC4/mUART_SPI_UART.c ****             mUART_CLEAR_TX_FIFO;
 414              		.loc 1 427 0
 415 001c 1360     		str	r3, [r2]
 428:Generated_Source\PSoC4/mUART_SPI_UART.c ****             mUART_ClearTxInterruptSource(mUART_INTR_TX_ALL);
 416              		.loc 1 428 0
 417 001e 0A4B     		ldr	r3, .L39+12
 418 0020 4902     		lsls	r1, r1, #9
 419 0022 1A68     		ldr	r2, [r3]
 420 0024 0A43     		orrs	r2, r1
 421 0026 1A60     		str	r2, [r3]
 422 0028 1968     		ldr	r1, [r3]
 423 002a 084A     		ldr	r2, .L39+16
 424 002c 0A40     		ands	r2, r1
 425 002e 1A60     		str	r2, [r3]
 429:Generated_Source\PSoC4/mUART_SPI_UART.c **** 
 426              		.loc 1 429 0
 427 0030 074A     		ldr	r2, .L39+20
 428 0032 084B     		ldr	r3, .L39+24
 429 0034 1A60     		str	r2, [r3]
 432:Generated_Source\PSoC4/mUART_SPI_UART.c ****         }
 430              		.loc 1 432 0
 431 0036 FFF7FEFF 		bl	CyIntEnable
 432              	.LVL24:
 433              		.loc 1 439 0
 434 003a 10BD     		pop	{r4, pc}
 435              	.L40:
 436              		.align	2
 437              	.L39:
 438 003c 00000000 		.word	mUART_txBufferTail
 439 0040 00000000 		.word	mUART_txBufferHead
 440 0044 880F0840 		.word	1074270088
 441 0048 04020840 		.word	1074266628
 442 004c FFFFFEFF 		.word	-65537
 443 0050 F3070000 		.word	2035
 444 0054 800F0840 		.word	1074270080
 445              		.cfi_endproc
 446              	.LFE7:
 447              		.size	mUART_SpiUartClearTxBuffer, .-mUART_SpiUartClearTxBuffer
 448              		.section	.text.mUART_SpiUartDisableIntRx,"ax",%progbits
ARM GAS  C:\Users\PC\AppData\Local\Temp\ccTXgV0X.s 			page 17


 449              		.align	1
 450              		.global	mUART_SpiUartDisableIntRx
 451              		.code	16
 452              		.thumb_func
 453              		.type	mUART_SpiUartDisableIntRx, %function
 454              	mUART_SpiUartDisableIntRx:
 455              	.LFB8:
 440:Generated_Source\PSoC4/mUART_SPI_UART.c **** 
 441:Generated_Source\PSoC4/mUART_SPI_UART.c **** #endif /* (mUART_TX_DIRECTION) */
 442:Generated_Source\PSoC4/mUART_SPI_UART.c **** 
 443:Generated_Source\PSoC4/mUART_SPI_UART.c **** 
 444:Generated_Source\PSoC4/mUART_SPI_UART.c **** /*******************************************************************************
 445:Generated_Source\PSoC4/mUART_SPI_UART.c **** * Function Name: mUART_SpiUartDisableIntRx
 446:Generated_Source\PSoC4/mUART_SPI_UART.c **** ****************************************************************************//**
 447:Generated_Source\PSoC4/mUART_SPI_UART.c **** *
 448:Generated_Source\PSoC4/mUART_SPI_UART.c **** *  Disables the RX interrupt sources.
 449:Generated_Source\PSoC4/mUART_SPI_UART.c **** *
 450:Generated_Source\PSoC4/mUART_SPI_UART.c **** *  \return
 451:Generated_Source\PSoC4/mUART_SPI_UART.c **** *   Returns the RX interrupt sources enabled before the function call.
 452:Generated_Source\PSoC4/mUART_SPI_UART.c **** *
 453:Generated_Source\PSoC4/mUART_SPI_UART.c **** *******************************************************************************/
 454:Generated_Source\PSoC4/mUART_SPI_UART.c **** uint32 mUART_SpiUartDisableIntRx(void)
 455:Generated_Source\PSoC4/mUART_SPI_UART.c **** {
 456              		.loc 1 455 0
 457              		.cfi_startproc
 458              		@ args = 0, pretend = 0, frame = 0
 459              		@ frame_needed = 0, uses_anonymous_args = 0
 460              		@ link register save eliminated.
 456:Generated_Source\PSoC4/mUART_SPI_UART.c ****     uint32 intSource;
 457:Generated_Source\PSoC4/mUART_SPI_UART.c **** 
 458:Generated_Source\PSoC4/mUART_SPI_UART.c ****     intSource = mUART_GetRxInterruptMode();
 459:Generated_Source\PSoC4/mUART_SPI_UART.c **** 
 460:Generated_Source\PSoC4/mUART_SPI_UART.c ****     mUART_SetRxInterruptMode(mUART_NO_INTR_SOURCES);
 461              		.loc 1 460 0
 462 0000 0022     		movs	r2, #0
 458:Generated_Source\PSoC4/mUART_SPI_UART.c **** 
 463              		.loc 1 458 0
 464 0002 024B     		ldr	r3, .L42
 461:Generated_Source\PSoC4/mUART_SPI_UART.c **** 
 462:Generated_Source\PSoC4/mUART_SPI_UART.c ****     return (intSource);
 463:Generated_Source\PSoC4/mUART_SPI_UART.c **** }
 465              		.loc 1 463 0
 466              		@ sp needed
 458:Generated_Source\PSoC4/mUART_SPI_UART.c **** 
 467              		.loc 1 458 0
 468 0004 1868     		ldr	r0, [r3]
 469              	.LVL25:
 460:Generated_Source\PSoC4/mUART_SPI_UART.c **** 
 470              		.loc 1 460 0
 471 0006 1A60     		str	r2, [r3]
 472              		.loc 1 463 0
 473 0008 7047     		bx	lr
 474              	.L43:
 475 000a C046     		.align	2
 476              	.L42:
 477 000c C80F0840 		.word	1074270152
 478              		.cfi_endproc
ARM GAS  C:\Users\PC\AppData\Local\Temp\ccTXgV0X.s 			page 18


 479              	.LFE8:
 480              		.size	mUART_SpiUartDisableIntRx, .-mUART_SpiUartDisableIntRx
 481              		.section	.text.mUART_SpiUartDisableIntTx,"ax",%progbits
 482              		.align	1
 483              		.global	mUART_SpiUartDisableIntTx
 484              		.code	16
 485              		.thumb_func
 486              		.type	mUART_SpiUartDisableIntTx, %function
 487              	mUART_SpiUartDisableIntTx:
 488              	.LFB9:
 464:Generated_Source\PSoC4/mUART_SPI_UART.c **** 
 465:Generated_Source\PSoC4/mUART_SPI_UART.c **** 
 466:Generated_Source\PSoC4/mUART_SPI_UART.c **** /*******************************************************************************
 467:Generated_Source\PSoC4/mUART_SPI_UART.c **** * Function Name: mUART_SpiUartDisableIntTx
 468:Generated_Source\PSoC4/mUART_SPI_UART.c **** ****************************************************************************//**
 469:Generated_Source\PSoC4/mUART_SPI_UART.c **** *
 470:Generated_Source\PSoC4/mUART_SPI_UART.c **** *  Disables TX interrupt sources.
 471:Generated_Source\PSoC4/mUART_SPI_UART.c **** *
 472:Generated_Source\PSoC4/mUART_SPI_UART.c **** *  \return
 473:Generated_Source\PSoC4/mUART_SPI_UART.c **** *   Returns TX interrupt sources enabled before function call.
 474:Generated_Source\PSoC4/mUART_SPI_UART.c **** *
 475:Generated_Source\PSoC4/mUART_SPI_UART.c **** *******************************************************************************/
 476:Generated_Source\PSoC4/mUART_SPI_UART.c **** uint32 mUART_SpiUartDisableIntTx(void)
 477:Generated_Source\PSoC4/mUART_SPI_UART.c **** {
 489              		.loc 1 477 0
 490              		.cfi_startproc
 491              		@ args = 0, pretend = 0, frame = 0
 492              		@ frame_needed = 0, uses_anonymous_args = 0
 493              		@ link register save eliminated.
 478:Generated_Source\PSoC4/mUART_SPI_UART.c ****     uint32 intSourceMask;
 479:Generated_Source\PSoC4/mUART_SPI_UART.c **** 
 480:Generated_Source\PSoC4/mUART_SPI_UART.c ****     intSourceMask = mUART_GetTxInterruptMode();
 481:Generated_Source\PSoC4/mUART_SPI_UART.c **** 
 482:Generated_Source\PSoC4/mUART_SPI_UART.c ****     mUART_SetTxInterruptMode(mUART_NO_INTR_SOURCES);
 494              		.loc 1 482 0
 495 0000 0022     		movs	r2, #0
 480:Generated_Source\PSoC4/mUART_SPI_UART.c **** 
 496              		.loc 1 480 0
 497 0002 024B     		ldr	r3, .L45
 483:Generated_Source\PSoC4/mUART_SPI_UART.c **** 
 484:Generated_Source\PSoC4/mUART_SPI_UART.c ****     return (intSourceMask);
 485:Generated_Source\PSoC4/mUART_SPI_UART.c **** }
 498              		.loc 1 485 0
 499              		@ sp needed
 480:Generated_Source\PSoC4/mUART_SPI_UART.c **** 
 500              		.loc 1 480 0
 501 0004 1868     		ldr	r0, [r3]
 502              	.LVL26:
 482:Generated_Source\PSoC4/mUART_SPI_UART.c **** 
 503              		.loc 1 482 0
 504 0006 1A60     		str	r2, [r3]
 505              		.loc 1 485 0
 506 0008 7047     		bx	lr
 507              	.L46:
 508 000a C046     		.align	2
 509              	.L45:
 510 000c 880F0840 		.word	1074270088
ARM GAS  C:\Users\PC\AppData\Local\Temp\ccTXgV0X.s 			page 19


 511              		.cfi_endproc
 512              	.LFE9:
 513              		.size	mUART_SpiUartDisableIntTx, .-mUART_SpiUartDisableIntTx
 514              		.comm	mUART_txBufferInternal,64,1
 515              		.comm	mUART_rxBufferInternal,65,1
 516              		.comm	mUART_txBufferTail,4,4
 517              		.comm	mUART_txBufferHead,4,4
 518              		.comm	mUART_rxBufferOverflow,1,1
 519              		.comm	mUART_rxBufferTail,4,4
 520              		.comm	mUART_rxBufferHead,4,4
 521              		.text
 522              	.Letext0:
 523              		.file 2 "Generated_Source\\PSoC4/cytypes.h"
 524              		.file 3 "Generated_Source\\PSoC4/CyLib.h"