ARM GAS  C:\Users\PC\AppData\Local\Temp\ccBujkqP.s 			page 1


   1              		.syntax unified
   2              		.cpu cortex-m0plus
   3              		.fpu softvfp
   4              		.eabi_attribute 20, 1
   5              		.eabi_attribute 21, 1
   6              		.eabi_attribute 23, 3
   7              		.eabi_attribute 24, 1
   8              		.eabi_attribute 25, 1
   9              		.eabi_attribute 26, 1
  10              		.eabi_attribute 30, 4
  11              		.eabi_attribute 34, 0
  12              		.eabi_attribute 18, 4
  13              		.thumb
  14              		.syntax unified
  15              		.file	"mUART.c"
  16              		.text
  17              	.Ltext0:
  18              		.cfi_sections	.debug_frame
  19              		.section	.text.mUART_Init,"ax",%progbits
  20              		.align	1
  21              		.global	mUART_Init
  22              		.code	16
  23              		.thumb_func
  24              		.type	mUART_Init, %function
  25              	mUART_Init:
  26              	.LFB1:
  27              		.file 1 "Generated_Source\\PSoC4\\mUART.c"
   1:Generated_Source\PSoC4/mUART.c **** /***************************************************************************//**
   2:Generated_Source\PSoC4/mUART.c **** * \file mUART.c
   3:Generated_Source\PSoC4/mUART.c **** * \version 4.0
   4:Generated_Source\PSoC4/mUART.c **** *
   5:Generated_Source\PSoC4/mUART.c **** * \brief
   6:Generated_Source\PSoC4/mUART.c **** *  This file provides the source code to the API for the SCB Component.
   7:Generated_Source\PSoC4/mUART.c **** *
   8:Generated_Source\PSoC4/mUART.c **** * Note:
   9:Generated_Source\PSoC4/mUART.c **** *
  10:Generated_Source\PSoC4/mUART.c **** *******************************************************************************
  11:Generated_Source\PSoC4/mUART.c **** * \copyright
  12:Generated_Source\PSoC4/mUART.c **** * Copyright 2013-2017, Cypress Semiconductor Corporation.  All rights reserved.
  13:Generated_Source\PSoC4/mUART.c **** * You may use this file only in accordance with the license, terms, conditions,
  14:Generated_Source\PSoC4/mUART.c **** * disclaimers, and limitations in the end user license agreement accompanying
  15:Generated_Source\PSoC4/mUART.c **** * the software package with which this file was provided.
  16:Generated_Source\PSoC4/mUART.c **** *******************************************************************************/
  17:Generated_Source\PSoC4/mUART.c **** 
  18:Generated_Source\PSoC4/mUART.c **** #include "mUART_PVT.h"
  19:Generated_Source\PSoC4/mUART.c **** 
  20:Generated_Source\PSoC4/mUART.c **** #if (mUART_SCB_MODE_I2C_INC)
  21:Generated_Source\PSoC4/mUART.c ****     #include "mUART_I2C_PVT.h"
  22:Generated_Source\PSoC4/mUART.c **** #endif /* (mUART_SCB_MODE_I2C_INC) */
  23:Generated_Source\PSoC4/mUART.c **** 
  24:Generated_Source\PSoC4/mUART.c **** #if (mUART_SCB_MODE_EZI2C_INC)
  25:Generated_Source\PSoC4/mUART.c ****     #include "mUART_EZI2C_PVT.h"
  26:Generated_Source\PSoC4/mUART.c **** #endif /* (mUART_SCB_MODE_EZI2C_INC) */
  27:Generated_Source\PSoC4/mUART.c **** 
  28:Generated_Source\PSoC4/mUART.c **** #if (mUART_SCB_MODE_SPI_INC || mUART_SCB_MODE_UART_INC)
  29:Generated_Source\PSoC4/mUART.c ****     #include "mUART_SPI_UART_PVT.h"
  30:Generated_Source\PSoC4/mUART.c **** #endif /* (mUART_SCB_MODE_SPI_INC || mUART_SCB_MODE_UART_INC) */
ARM GAS  C:\Users\PC\AppData\Local\Temp\ccBujkqP.s 			page 2


  31:Generated_Source\PSoC4/mUART.c **** 
  32:Generated_Source\PSoC4/mUART.c **** 
  33:Generated_Source\PSoC4/mUART.c **** /***************************************
  34:Generated_Source\PSoC4/mUART.c **** *    Run Time Configuration Vars
  35:Generated_Source\PSoC4/mUART.c **** ***************************************/
  36:Generated_Source\PSoC4/mUART.c **** 
  37:Generated_Source\PSoC4/mUART.c **** /* Stores internal component configuration for Unconfigured mode */
  38:Generated_Source\PSoC4/mUART.c **** #if (mUART_SCB_MODE_UNCONFIG_CONST_CFG)
  39:Generated_Source\PSoC4/mUART.c ****     /* Common configuration variables */
  40:Generated_Source\PSoC4/mUART.c ****     uint8 mUART_scbMode = mUART_SCB_MODE_UNCONFIG;
  41:Generated_Source\PSoC4/mUART.c ****     uint8 mUART_scbEnableWake;
  42:Generated_Source\PSoC4/mUART.c ****     uint8 mUART_scbEnableIntr;
  43:Generated_Source\PSoC4/mUART.c **** 
  44:Generated_Source\PSoC4/mUART.c ****     /* I2C configuration variables */
  45:Generated_Source\PSoC4/mUART.c ****     uint8 mUART_mode;
  46:Generated_Source\PSoC4/mUART.c ****     uint8 mUART_acceptAddr;
  47:Generated_Source\PSoC4/mUART.c **** 
  48:Generated_Source\PSoC4/mUART.c ****     /* SPI/UART configuration variables */
  49:Generated_Source\PSoC4/mUART.c ****     volatile uint8 * mUART_rxBuffer;
  50:Generated_Source\PSoC4/mUART.c ****     uint8  mUART_rxDataBits;
  51:Generated_Source\PSoC4/mUART.c ****     uint32 mUART_rxBufferSize;
  52:Generated_Source\PSoC4/mUART.c **** 
  53:Generated_Source\PSoC4/mUART.c ****     volatile uint8 * mUART_txBuffer;
  54:Generated_Source\PSoC4/mUART.c ****     uint8  mUART_txDataBits;
  55:Generated_Source\PSoC4/mUART.c ****     uint32 mUART_txBufferSize;
  56:Generated_Source\PSoC4/mUART.c **** 
  57:Generated_Source\PSoC4/mUART.c ****     /* EZI2C configuration variables */
  58:Generated_Source\PSoC4/mUART.c ****     uint8 mUART_numberOfAddr;
  59:Generated_Source\PSoC4/mUART.c ****     uint8 mUART_subAddrSize;
  60:Generated_Source\PSoC4/mUART.c **** #endif /* (mUART_SCB_MODE_UNCONFIG_CONST_CFG) */
  61:Generated_Source\PSoC4/mUART.c **** 
  62:Generated_Source\PSoC4/mUART.c **** 
  63:Generated_Source\PSoC4/mUART.c **** /***************************************
  64:Generated_Source\PSoC4/mUART.c **** *     Common SCB Vars
  65:Generated_Source\PSoC4/mUART.c **** ***************************************/
  66:Generated_Source\PSoC4/mUART.c **** /**
  67:Generated_Source\PSoC4/mUART.c **** * \addtogroup group_general
  68:Generated_Source\PSoC4/mUART.c **** * \{
  69:Generated_Source\PSoC4/mUART.c **** */
  70:Generated_Source\PSoC4/mUART.c **** 
  71:Generated_Source\PSoC4/mUART.c **** /** mUART_initVar indicates whether the mUART 
  72:Generated_Source\PSoC4/mUART.c **** *  component has been initialized. The variable is initialized to 0 
  73:Generated_Source\PSoC4/mUART.c **** *  and set to 1 the first time SCB_Start() is called. This allows 
  74:Generated_Source\PSoC4/mUART.c **** *  the component to restart without reinitialization after the first 
  75:Generated_Source\PSoC4/mUART.c **** *  call to the mUART_Start() routine.
  76:Generated_Source\PSoC4/mUART.c **** *
  77:Generated_Source\PSoC4/mUART.c **** *  If re-initialization of the component is required, then the 
  78:Generated_Source\PSoC4/mUART.c **** *  mUART_Init() function can be called before the 
  79:Generated_Source\PSoC4/mUART.c **** *  mUART_Start() or mUART_Enable() function.
  80:Generated_Source\PSoC4/mUART.c **** */
  81:Generated_Source\PSoC4/mUART.c **** uint8 mUART_initVar = 0u;
  82:Generated_Source\PSoC4/mUART.c **** 
  83:Generated_Source\PSoC4/mUART.c **** 
  84:Generated_Source\PSoC4/mUART.c **** #if (! (mUART_SCB_MODE_I2C_CONST_CFG || \
  85:Generated_Source\PSoC4/mUART.c ****         mUART_SCB_MODE_EZI2C_CONST_CFG))
  86:Generated_Source\PSoC4/mUART.c ****     /** This global variable stores TX interrupt sources after 
  87:Generated_Source\PSoC4/mUART.c ****     * mUART_Stop() is called. Only these TX interrupt sources 
ARM GAS  C:\Users\PC\AppData\Local\Temp\ccBujkqP.s 			page 3


  88:Generated_Source\PSoC4/mUART.c ****     * will be restored on a subsequent mUART_Enable() call.
  89:Generated_Source\PSoC4/mUART.c ****     */
  90:Generated_Source\PSoC4/mUART.c ****     uint16 mUART_IntrTxMask = 0u;
  91:Generated_Source\PSoC4/mUART.c **** #endif /* (! (mUART_SCB_MODE_I2C_CONST_CFG || \
  92:Generated_Source\PSoC4/mUART.c ****               mUART_SCB_MODE_EZI2C_CONST_CFG)) */
  93:Generated_Source\PSoC4/mUART.c **** /** \} globals */
  94:Generated_Source\PSoC4/mUART.c **** 
  95:Generated_Source\PSoC4/mUART.c **** #if (mUART_SCB_IRQ_INTERNAL)
  96:Generated_Source\PSoC4/mUART.c **** #if !defined (CY_REMOVE_mUART_CUSTOM_INTR_HANDLER)
  97:Generated_Source\PSoC4/mUART.c ****     void (*mUART_customIntrHandler)(void) = NULL;
  98:Generated_Source\PSoC4/mUART.c **** #endif /* !defined (CY_REMOVE_mUART_CUSTOM_INTR_HANDLER) */
  99:Generated_Source\PSoC4/mUART.c **** #endif /* (mUART_SCB_IRQ_INTERNAL) */
 100:Generated_Source\PSoC4/mUART.c **** 
 101:Generated_Source\PSoC4/mUART.c **** 
 102:Generated_Source\PSoC4/mUART.c **** /***************************************
 103:Generated_Source\PSoC4/mUART.c **** *    Private Function Prototypes
 104:Generated_Source\PSoC4/mUART.c **** ***************************************/
 105:Generated_Source\PSoC4/mUART.c **** 
 106:Generated_Source\PSoC4/mUART.c **** static void mUART_ScbEnableIntr(void);
 107:Generated_Source\PSoC4/mUART.c **** static void mUART_ScbModeStop(void);
 108:Generated_Source\PSoC4/mUART.c **** static void mUART_ScbModePostEnable(void);
 109:Generated_Source\PSoC4/mUART.c **** 
 110:Generated_Source\PSoC4/mUART.c **** 
 111:Generated_Source\PSoC4/mUART.c **** /*******************************************************************************
 112:Generated_Source\PSoC4/mUART.c **** * Function Name: mUART_Init
 113:Generated_Source\PSoC4/mUART.c **** ****************************************************************************//**
 114:Generated_Source\PSoC4/mUART.c **** *
 115:Generated_Source\PSoC4/mUART.c **** *  Initializes the mUART component to operate in one of the selected
 116:Generated_Source\PSoC4/mUART.c **** *  configurations: I2C, SPI, UART or EZI2C.
 117:Generated_Source\PSoC4/mUART.c **** *  When the configuration is set to "Unconfigured SCB", this function does
 118:Generated_Source\PSoC4/mUART.c **** *  not do any initialization. Use mode-specific initialization APIs instead:
 119:Generated_Source\PSoC4/mUART.c **** *  mUART_I2CInit, mUART_SpiInit, 
 120:Generated_Source\PSoC4/mUART.c **** *  mUART_UartInit or mUART_EzI2CInit.
 121:Generated_Source\PSoC4/mUART.c **** *
 122:Generated_Source\PSoC4/mUART.c **** *******************************************************************************/
 123:Generated_Source\PSoC4/mUART.c **** void mUART_Init(void)
 124:Generated_Source\PSoC4/mUART.c **** {
  28              		.loc 1 124 0
  29              		.cfi_startproc
  30              		@ args = 0, pretend = 0, frame = 0
  31              		@ frame_needed = 0, uses_anonymous_args = 0
  32 0000 10B5     		push	{r4, lr}
  33              		.cfi_def_cfa_offset 8
  34              		.cfi_offset 4, -8
  35              		.cfi_offset 14, -4
 125:Generated_Source\PSoC4/mUART.c **** #if (mUART_SCB_MODE_UNCONFIG_CONST_CFG)
 126:Generated_Source\PSoC4/mUART.c ****     if (mUART_SCB_MODE_UNCONFIG_RUNTM_CFG)
 127:Generated_Source\PSoC4/mUART.c ****     {
 128:Generated_Source\PSoC4/mUART.c ****         mUART_initVar = 0u;
 129:Generated_Source\PSoC4/mUART.c ****     }
 130:Generated_Source\PSoC4/mUART.c ****     else
 131:Generated_Source\PSoC4/mUART.c ****     {
 132:Generated_Source\PSoC4/mUART.c ****         /* Initialization was done before this function call */
 133:Generated_Source\PSoC4/mUART.c ****     }
 134:Generated_Source\PSoC4/mUART.c **** 
 135:Generated_Source\PSoC4/mUART.c **** #elif (mUART_SCB_MODE_I2C_CONST_CFG)
 136:Generated_Source\PSoC4/mUART.c ****     mUART_I2CInit();
ARM GAS  C:\Users\PC\AppData\Local\Temp\ccBujkqP.s 			page 4


 137:Generated_Source\PSoC4/mUART.c **** 
 138:Generated_Source\PSoC4/mUART.c **** #elif (mUART_SCB_MODE_SPI_CONST_CFG)
 139:Generated_Source\PSoC4/mUART.c ****     mUART_SpiInit();
 140:Generated_Source\PSoC4/mUART.c **** 
 141:Generated_Source\PSoC4/mUART.c **** #elif (mUART_SCB_MODE_UART_CONST_CFG)
 142:Generated_Source\PSoC4/mUART.c ****     mUART_UartInit();
  36              		.loc 1 142 0
  37 0002 FFF7FEFF 		bl	mUART_UartInit
  38              	.LVL0:
 143:Generated_Source\PSoC4/mUART.c **** 
 144:Generated_Source\PSoC4/mUART.c **** #elif (mUART_SCB_MODE_EZI2C_CONST_CFG)
 145:Generated_Source\PSoC4/mUART.c ****     mUART_EzI2CInit();
 146:Generated_Source\PSoC4/mUART.c **** 
 147:Generated_Source\PSoC4/mUART.c **** #endif /* (mUART_SCB_MODE_UNCONFIG_CONST_CFG) */
 148:Generated_Source\PSoC4/mUART.c **** }
  39              		.loc 1 148 0
  40              		@ sp needed
  41 0006 10BD     		pop	{r4, pc}
  42              		.cfi_endproc
  43              	.LFE1:
  44              		.size	mUART_Init, .-mUART_Init
  45              		.section	.text.mUART_Enable,"ax",%progbits
  46              		.align	1
  47              		.global	mUART_Enable
  48              		.code	16
  49              		.thumb_func
  50              		.type	mUART_Enable, %function
  51              	mUART_Enable:
  52              	.LFB2:
 149:Generated_Source\PSoC4/mUART.c **** 
 150:Generated_Source\PSoC4/mUART.c **** 
 151:Generated_Source\PSoC4/mUART.c **** /*******************************************************************************
 152:Generated_Source\PSoC4/mUART.c **** * Function Name: mUART_Enable
 153:Generated_Source\PSoC4/mUART.c **** ****************************************************************************//**
 154:Generated_Source\PSoC4/mUART.c **** *
 155:Generated_Source\PSoC4/mUART.c **** *  Enables mUART component operation: activates the hardware and 
 156:Generated_Source\PSoC4/mUART.c **** *  internal interrupt. It also restores TX interrupt sources disabled after the 
 157:Generated_Source\PSoC4/mUART.c **** *  mUART_Stop() function was called (note that level-triggered TX 
 158:Generated_Source\PSoC4/mUART.c **** *  interrupt sources remain disabled to not cause code lock-up).
 159:Generated_Source\PSoC4/mUART.c **** *  For I2C and EZI2C modes the interrupt is internal and mandatory for 
 160:Generated_Source\PSoC4/mUART.c **** *  operation. For SPI and UART modes the interrupt can be configured as none, 
 161:Generated_Source\PSoC4/mUART.c **** *  internal or external.
 162:Generated_Source\PSoC4/mUART.c **** *  The mUART configuration should be not changed when the component
 163:Generated_Source\PSoC4/mUART.c **** *  is enabled. Any configuration changes should be made after disabling the 
 164:Generated_Source\PSoC4/mUART.c **** *  component.
 165:Generated_Source\PSoC4/mUART.c **** *  When configuration is set to “Unconfigured mUART”, the component 
 166:Generated_Source\PSoC4/mUART.c **** *  must first be initialized to operate in one of the following configurations: 
 167:Generated_Source\PSoC4/mUART.c **** *  I2C, SPI, UART or EZ I2C, using the mode-specific initialization API. 
 168:Generated_Source\PSoC4/mUART.c **** *  Otherwise this function does not enable the component.
 169:Generated_Source\PSoC4/mUART.c **** *
 170:Generated_Source\PSoC4/mUART.c **** *******************************************************************************/
 171:Generated_Source\PSoC4/mUART.c **** void mUART_Enable(void)
 172:Generated_Source\PSoC4/mUART.c **** {
  53              		.loc 1 172 0
  54              		.cfi_startproc
  55              		@ args = 0, pretend = 0, frame = 0
  56              		@ frame_needed = 0, uses_anonymous_args = 0
ARM GAS  C:\Users\PC\AppData\Local\Temp\ccBujkqP.s 			page 5


 173:Generated_Source\PSoC4/mUART.c **** #if (mUART_SCB_MODE_UNCONFIG_CONST_CFG)
 174:Generated_Source\PSoC4/mUART.c ****     /* Enable SCB block, only if it is already configured */
 175:Generated_Source\PSoC4/mUART.c ****     if (!mUART_SCB_MODE_UNCONFIG_RUNTM_CFG)
 176:Generated_Source\PSoC4/mUART.c ****     {
 177:Generated_Source\PSoC4/mUART.c ****         mUART_CTRL_REG |= mUART_CTRL_ENABLED;
 178:Generated_Source\PSoC4/mUART.c **** 
 179:Generated_Source\PSoC4/mUART.c ****         mUART_ScbEnableIntr();
 180:Generated_Source\PSoC4/mUART.c **** 
 181:Generated_Source\PSoC4/mUART.c ****         /* Call PostEnable function specific to current operation mode */
 182:Generated_Source\PSoC4/mUART.c ****         mUART_ScbModePostEnable();
 183:Generated_Source\PSoC4/mUART.c ****     }
 184:Generated_Source\PSoC4/mUART.c **** #else
 185:Generated_Source\PSoC4/mUART.c ****     mUART_CTRL_REG |= mUART_CTRL_ENABLED;
  57              		.loc 1 185 0
  58 0000 8021     		movs	r1, #128
  59 0002 064A     		ldr	r2, .L3
 172:Generated_Source\PSoC4/mUART.c **** #if (mUART_SCB_MODE_UNCONFIG_CONST_CFG)
  60              		.loc 1 172 0
  61 0004 10B5     		push	{r4, lr}
  62              		.cfi_def_cfa_offset 8
  63              		.cfi_offset 4, -8
  64              		.cfi_offset 14, -4
  65              		.loc 1 185 0
  66 0006 1368     		ldr	r3, [r2]
  67 0008 0906     		lsls	r1, r1, #24
  68 000a 0B43     		orrs	r3, r1
  69 000c 1360     		str	r3, [r2]
  70              	.LBB12:
  71              	.LBB13:
 186:Generated_Source\PSoC4/mUART.c **** 
 187:Generated_Source\PSoC4/mUART.c ****     mUART_ScbEnableIntr();
 188:Generated_Source\PSoC4/mUART.c **** 
 189:Generated_Source\PSoC4/mUART.c ****     /* Call PostEnable function specific to current operation mode */
 190:Generated_Source\PSoC4/mUART.c ****     mUART_ScbModePostEnable();
 191:Generated_Source\PSoC4/mUART.c **** #endif /* (mUART_SCB_MODE_UNCONFIG_CONST_CFG) */
 192:Generated_Source\PSoC4/mUART.c **** }
 193:Generated_Source\PSoC4/mUART.c **** 
 194:Generated_Source\PSoC4/mUART.c **** 
 195:Generated_Source\PSoC4/mUART.c **** /*******************************************************************************
 196:Generated_Source\PSoC4/mUART.c **** * Function Name: mUART_Start
 197:Generated_Source\PSoC4/mUART.c **** ****************************************************************************//**
 198:Generated_Source\PSoC4/mUART.c **** *
 199:Generated_Source\PSoC4/mUART.c **** *  Invokes mUART_Init() and mUART_Enable().
 200:Generated_Source\PSoC4/mUART.c **** *  After this function call, the component is enabled and ready for operation.
 201:Generated_Source\PSoC4/mUART.c **** *  When configuration is set to "Unconfigured SCB", the component must first be
 202:Generated_Source\PSoC4/mUART.c **** *  initialized to operate in one of the following configurations: I2C, SPI, UART
 203:Generated_Source\PSoC4/mUART.c **** *  or EZI2C. Otherwise this function does not enable the component.
 204:Generated_Source\PSoC4/mUART.c **** *
 205:Generated_Source\PSoC4/mUART.c **** * \globalvars
 206:Generated_Source\PSoC4/mUART.c **** *  mUART_initVar - used to check initial configuration, modified
 207:Generated_Source\PSoC4/mUART.c **** *  on first function call.
 208:Generated_Source\PSoC4/mUART.c **** *
 209:Generated_Source\PSoC4/mUART.c **** *******************************************************************************/
 210:Generated_Source\PSoC4/mUART.c **** void mUART_Start(void)
 211:Generated_Source\PSoC4/mUART.c **** {
 212:Generated_Source\PSoC4/mUART.c ****     if (0u == mUART_initVar)
 213:Generated_Source\PSoC4/mUART.c ****     {
ARM GAS  C:\Users\PC\AppData\Local\Temp\ccBujkqP.s 			page 6


 214:Generated_Source\PSoC4/mUART.c ****         mUART_Init();
 215:Generated_Source\PSoC4/mUART.c ****         mUART_initVar = 1u; /* Component was initialized */
 216:Generated_Source\PSoC4/mUART.c ****     }
 217:Generated_Source\PSoC4/mUART.c **** 
 218:Generated_Source\PSoC4/mUART.c ****     mUART_Enable();
 219:Generated_Source\PSoC4/mUART.c **** }
 220:Generated_Source\PSoC4/mUART.c **** 
 221:Generated_Source\PSoC4/mUART.c **** 
 222:Generated_Source\PSoC4/mUART.c **** /*******************************************************************************
 223:Generated_Source\PSoC4/mUART.c **** * Function Name: mUART_Stop
 224:Generated_Source\PSoC4/mUART.c **** ****************************************************************************//**
 225:Generated_Source\PSoC4/mUART.c **** *
 226:Generated_Source\PSoC4/mUART.c **** *  Disables the mUART component: disable the hardware and internal 
 227:Generated_Source\PSoC4/mUART.c **** *  interrupt. It also disables all TX interrupt sources so as not to cause an 
 228:Generated_Source\PSoC4/mUART.c **** *  unexpected interrupt trigger because after the component is enabled, the 
 229:Generated_Source\PSoC4/mUART.c **** *  TX FIFO is empty.
 230:Generated_Source\PSoC4/mUART.c **** *  Refer to the function mUART_Enable() for the interrupt 
 231:Generated_Source\PSoC4/mUART.c **** *  configuration details.
 232:Generated_Source\PSoC4/mUART.c **** *  This function disables the SCB component without checking to see if 
 233:Generated_Source\PSoC4/mUART.c **** *  communication is in progress. Before calling this function it may be 
 234:Generated_Source\PSoC4/mUART.c **** *  necessary to check the status of communication to make sure communication 
 235:Generated_Source\PSoC4/mUART.c **** *  is complete. If this is not done then communication could be stopped mid 
 236:Generated_Source\PSoC4/mUART.c **** *  byte and corrupted data could result.
 237:Generated_Source\PSoC4/mUART.c **** *
 238:Generated_Source\PSoC4/mUART.c **** *******************************************************************************/
 239:Generated_Source\PSoC4/mUART.c **** void mUART_Stop(void)
 240:Generated_Source\PSoC4/mUART.c **** {
 241:Generated_Source\PSoC4/mUART.c **** #if (mUART_SCB_IRQ_INTERNAL)
 242:Generated_Source\PSoC4/mUART.c ****     mUART_DisableInt();
 243:Generated_Source\PSoC4/mUART.c **** #endif /* (mUART_SCB_IRQ_INTERNAL) */
 244:Generated_Source\PSoC4/mUART.c **** 
 245:Generated_Source\PSoC4/mUART.c ****     /* Call Stop function specific to current operation mode */
 246:Generated_Source\PSoC4/mUART.c ****     mUART_ScbModeStop();
 247:Generated_Source\PSoC4/mUART.c **** 
 248:Generated_Source\PSoC4/mUART.c ****     /* Disable SCB IP */
 249:Generated_Source\PSoC4/mUART.c ****     mUART_CTRL_REG &= (uint32) ~mUART_CTRL_ENABLED;
 250:Generated_Source\PSoC4/mUART.c **** 
 251:Generated_Source\PSoC4/mUART.c ****     /* Disable all TX interrupt sources so as not to cause an unexpected
 252:Generated_Source\PSoC4/mUART.c ****     * interrupt trigger after the component will be enabled because the 
 253:Generated_Source\PSoC4/mUART.c ****     * TX FIFO is empty.
 254:Generated_Source\PSoC4/mUART.c ****     * For SCB IP v0, it is critical as it does not mask-out interrupt
 255:Generated_Source\PSoC4/mUART.c ****     * sources when it is disabled. This can cause a code lock-up in the
 256:Generated_Source\PSoC4/mUART.c ****     * interrupt handler because TX FIFO cannot be loaded after the block
 257:Generated_Source\PSoC4/mUART.c ****     * is disabled.
 258:Generated_Source\PSoC4/mUART.c ****     */
 259:Generated_Source\PSoC4/mUART.c ****     mUART_SetTxInterruptMode(mUART_NO_INTR_SOURCES);
 260:Generated_Source\PSoC4/mUART.c **** 
 261:Generated_Source\PSoC4/mUART.c **** #if (mUART_SCB_IRQ_INTERNAL)
 262:Generated_Source\PSoC4/mUART.c ****     mUART_ClearPendingInt();
 263:Generated_Source\PSoC4/mUART.c **** #endif /* (mUART_SCB_IRQ_INTERNAL) */
 264:Generated_Source\PSoC4/mUART.c **** }
 265:Generated_Source\PSoC4/mUART.c **** 
 266:Generated_Source\PSoC4/mUART.c **** 
 267:Generated_Source\PSoC4/mUART.c **** /*******************************************************************************
 268:Generated_Source\PSoC4/mUART.c **** * Function Name: mUART_SetRxFifoLevel
 269:Generated_Source\PSoC4/mUART.c **** ****************************************************************************//**
 270:Generated_Source\PSoC4/mUART.c **** *
ARM GAS  C:\Users\PC\AppData\Local\Temp\ccBujkqP.s 			page 7


 271:Generated_Source\PSoC4/mUART.c **** *  Sets level in the RX FIFO to generate a RX level interrupt.
 272:Generated_Source\PSoC4/mUART.c **** *  When the RX FIFO has more entries than the RX FIFO level an RX level
 273:Generated_Source\PSoC4/mUART.c **** *  interrupt request is generated.
 274:Generated_Source\PSoC4/mUART.c **** *
 275:Generated_Source\PSoC4/mUART.c **** *  \param level: Level in the RX FIFO to generate RX level interrupt.
 276:Generated_Source\PSoC4/mUART.c **** *   The range of valid level values is between 0 and RX FIFO depth - 1.
 277:Generated_Source\PSoC4/mUART.c **** *
 278:Generated_Source\PSoC4/mUART.c **** *******************************************************************************/
 279:Generated_Source\PSoC4/mUART.c **** void mUART_SetRxFifoLevel(uint32 level)
 280:Generated_Source\PSoC4/mUART.c **** {
 281:Generated_Source\PSoC4/mUART.c ****     uint32 rxFifoCtrl;
 282:Generated_Source\PSoC4/mUART.c **** 
 283:Generated_Source\PSoC4/mUART.c ****     rxFifoCtrl = mUART_RX_FIFO_CTRL_REG;
 284:Generated_Source\PSoC4/mUART.c **** 
 285:Generated_Source\PSoC4/mUART.c ****     rxFifoCtrl &= ((uint32) ~mUART_RX_FIFO_CTRL_TRIGGER_LEVEL_MASK); /* Clear level mask bits */
 286:Generated_Source\PSoC4/mUART.c ****     rxFifoCtrl |= ((uint32) (mUART_RX_FIFO_CTRL_TRIGGER_LEVEL_MASK & level));
 287:Generated_Source\PSoC4/mUART.c **** 
 288:Generated_Source\PSoC4/mUART.c ****     mUART_RX_FIFO_CTRL_REG = rxFifoCtrl;
 289:Generated_Source\PSoC4/mUART.c **** }
 290:Generated_Source\PSoC4/mUART.c **** 
 291:Generated_Source\PSoC4/mUART.c **** 
 292:Generated_Source\PSoC4/mUART.c **** /*******************************************************************************
 293:Generated_Source\PSoC4/mUART.c **** * Function Name: mUART_SetTxFifoLevel
 294:Generated_Source\PSoC4/mUART.c **** ****************************************************************************//**
 295:Generated_Source\PSoC4/mUART.c **** *
 296:Generated_Source\PSoC4/mUART.c **** *  Sets level in the TX FIFO to generate a TX level interrupt.
 297:Generated_Source\PSoC4/mUART.c **** *  When the TX FIFO has less entries than the TX FIFO level an TX level
 298:Generated_Source\PSoC4/mUART.c **** *  interrupt request is generated.
 299:Generated_Source\PSoC4/mUART.c **** *
 300:Generated_Source\PSoC4/mUART.c **** *  \param level: Level in the TX FIFO to generate TX level interrupt.
 301:Generated_Source\PSoC4/mUART.c **** *   The range of valid level values is between 0 and TX FIFO depth - 1.
 302:Generated_Source\PSoC4/mUART.c **** *
 303:Generated_Source\PSoC4/mUART.c **** *******************************************************************************/
 304:Generated_Source\PSoC4/mUART.c **** void mUART_SetTxFifoLevel(uint32 level)
 305:Generated_Source\PSoC4/mUART.c **** {
 306:Generated_Source\PSoC4/mUART.c ****     uint32 txFifoCtrl;
 307:Generated_Source\PSoC4/mUART.c **** 
 308:Generated_Source\PSoC4/mUART.c ****     txFifoCtrl = mUART_TX_FIFO_CTRL_REG;
 309:Generated_Source\PSoC4/mUART.c **** 
 310:Generated_Source\PSoC4/mUART.c ****     txFifoCtrl &= ((uint32) ~mUART_TX_FIFO_CTRL_TRIGGER_LEVEL_MASK); /* Clear level mask bits */
 311:Generated_Source\PSoC4/mUART.c ****     txFifoCtrl |= ((uint32) (mUART_TX_FIFO_CTRL_TRIGGER_LEVEL_MASK & level));
 312:Generated_Source\PSoC4/mUART.c **** 
 313:Generated_Source\PSoC4/mUART.c ****     mUART_TX_FIFO_CTRL_REG = txFifoCtrl;
 314:Generated_Source\PSoC4/mUART.c **** }
 315:Generated_Source\PSoC4/mUART.c **** 
 316:Generated_Source\PSoC4/mUART.c **** 
 317:Generated_Source\PSoC4/mUART.c **** #if (mUART_SCB_IRQ_INTERNAL)
 318:Generated_Source\PSoC4/mUART.c ****     /*******************************************************************************
 319:Generated_Source\PSoC4/mUART.c ****     * Function Name: mUART_SetCustomInterruptHandler
 320:Generated_Source\PSoC4/mUART.c ****     ****************************************************************************//**
 321:Generated_Source\PSoC4/mUART.c ****     *
 322:Generated_Source\PSoC4/mUART.c ****     *  Registers a function to be called by the internal interrupt handler.
 323:Generated_Source\PSoC4/mUART.c ****     *  First the function that is registered is called, then the internal interrupt
 324:Generated_Source\PSoC4/mUART.c ****     *  handler performs any operation such as software buffer management functions
 325:Generated_Source\PSoC4/mUART.c ****     *  before the interrupt returns.  It is the user's responsibility not to break
 326:Generated_Source\PSoC4/mUART.c ****     *  the software buffer operations. Only one custom handler is supported, which
 327:Generated_Source\PSoC4/mUART.c ****     *  is the function provided by the most recent call.
ARM GAS  C:\Users\PC\AppData\Local\Temp\ccBujkqP.s 			page 8


 328:Generated_Source\PSoC4/mUART.c ****     *  At the initialization time no custom handler is registered.
 329:Generated_Source\PSoC4/mUART.c ****     *
 330:Generated_Source\PSoC4/mUART.c ****     *  \param func: Pointer to the function to register.
 331:Generated_Source\PSoC4/mUART.c ****     *        The value NULL indicates to remove the current custom interrupt
 332:Generated_Source\PSoC4/mUART.c ****     *        handler.
 333:Generated_Source\PSoC4/mUART.c ****     *
 334:Generated_Source\PSoC4/mUART.c ****     *******************************************************************************/
 335:Generated_Source\PSoC4/mUART.c ****     void mUART_SetCustomInterruptHandler(void (*func)(void))
 336:Generated_Source\PSoC4/mUART.c ****     {
 337:Generated_Source\PSoC4/mUART.c ****     #if !defined (CY_REMOVE_mUART_CUSTOM_INTR_HANDLER)
 338:Generated_Source\PSoC4/mUART.c ****         mUART_customIntrHandler = func; /* Register interrupt handler */
 339:Generated_Source\PSoC4/mUART.c ****     #else
 340:Generated_Source\PSoC4/mUART.c ****         if (NULL != func)
 341:Generated_Source\PSoC4/mUART.c ****         {
 342:Generated_Source\PSoC4/mUART.c ****             /* Suppress compiler warning */
 343:Generated_Source\PSoC4/mUART.c ****         }
 344:Generated_Source\PSoC4/mUART.c ****     #endif /* !defined (CY_REMOVE_mUART_CUSTOM_INTR_HANDLER) */
 345:Generated_Source\PSoC4/mUART.c ****     }
 346:Generated_Source\PSoC4/mUART.c **** #endif /* (mUART_SCB_IRQ_INTERNAL) */
 347:Generated_Source\PSoC4/mUART.c **** 
 348:Generated_Source\PSoC4/mUART.c **** 
 349:Generated_Source\PSoC4/mUART.c **** /*******************************************************************************
 350:Generated_Source\PSoC4/mUART.c **** * Function Name: mUART_ScbModeEnableIntr
 351:Generated_Source\PSoC4/mUART.c **** ****************************************************************************//**
 352:Generated_Source\PSoC4/mUART.c **** *
 353:Generated_Source\PSoC4/mUART.c **** *  Enables an interrupt for a specific mode.
 354:Generated_Source\PSoC4/mUART.c **** *
 355:Generated_Source\PSoC4/mUART.c **** *******************************************************************************/
 356:Generated_Source\PSoC4/mUART.c **** static void mUART_ScbEnableIntr(void)
 357:Generated_Source\PSoC4/mUART.c **** {
 358:Generated_Source\PSoC4/mUART.c **** #if (mUART_SCB_IRQ_INTERNAL)
 359:Generated_Source\PSoC4/mUART.c ****     /* Enable interrupt in NVIC */
 360:Generated_Source\PSoC4/mUART.c ****     #if (mUART_SCB_MODE_UNCONFIG_CONST_CFG)
 361:Generated_Source\PSoC4/mUART.c ****         if (0u != mUART_scbEnableIntr)
 362:Generated_Source\PSoC4/mUART.c ****         {
 363:Generated_Source\PSoC4/mUART.c ****             mUART_EnableInt();
 364:Generated_Source\PSoC4/mUART.c ****         }
 365:Generated_Source\PSoC4/mUART.c **** 
 366:Generated_Source\PSoC4/mUART.c ****     #else
 367:Generated_Source\PSoC4/mUART.c ****         mUART_EnableInt();
  72              		.loc 1 367 0
  73 000e 0720     		movs	r0, #7
  74 0010 FFF7FEFF 		bl	CyIntEnable
  75              	.LVL1:
  76              	.LBE13:
  77              	.LBE12:
 192:Generated_Source\PSoC4/mUART.c **** 
  78              		.loc 1 192 0
  79              		@ sp needed
  80              	.LBB14:
  81              	.LBB15:
 368:Generated_Source\PSoC4/mUART.c **** 
 369:Generated_Source\PSoC4/mUART.c ****     #endif /* (mUART_SCB_MODE_UNCONFIG_CONST_CFG) */
 370:Generated_Source\PSoC4/mUART.c **** #endif /* (mUART_SCB_IRQ_INTERNAL) */
 371:Generated_Source\PSoC4/mUART.c **** }
 372:Generated_Source\PSoC4/mUART.c **** 
 373:Generated_Source\PSoC4/mUART.c **** 
ARM GAS  C:\Users\PC\AppData\Local\Temp\ccBujkqP.s 			page 9


 374:Generated_Source\PSoC4/mUART.c **** /*******************************************************************************
 375:Generated_Source\PSoC4/mUART.c **** * Function Name: mUART_ScbModePostEnable
 376:Generated_Source\PSoC4/mUART.c **** ****************************************************************************//**
 377:Generated_Source\PSoC4/mUART.c **** *
 378:Generated_Source\PSoC4/mUART.c **** *  Calls the PostEnable function for a specific operation mode.
 379:Generated_Source\PSoC4/mUART.c **** *
 380:Generated_Source\PSoC4/mUART.c **** *******************************************************************************/
 381:Generated_Source\PSoC4/mUART.c **** static void mUART_ScbModePostEnable(void)
 382:Generated_Source\PSoC4/mUART.c **** {
 383:Generated_Source\PSoC4/mUART.c **** #if (mUART_SCB_MODE_UNCONFIG_CONST_CFG)
 384:Generated_Source\PSoC4/mUART.c **** #if (!mUART_CY_SCBIP_V1)
 385:Generated_Source\PSoC4/mUART.c ****     if (mUART_SCB_MODE_SPI_RUNTM_CFG)
 386:Generated_Source\PSoC4/mUART.c ****     {
 387:Generated_Source\PSoC4/mUART.c ****         mUART_SpiPostEnable();
 388:Generated_Source\PSoC4/mUART.c ****     }
 389:Generated_Source\PSoC4/mUART.c ****     else if (mUART_SCB_MODE_UART_RUNTM_CFG)
 390:Generated_Source\PSoC4/mUART.c ****     {
 391:Generated_Source\PSoC4/mUART.c ****         mUART_UartPostEnable();
 392:Generated_Source\PSoC4/mUART.c ****     }
 393:Generated_Source\PSoC4/mUART.c ****     else
 394:Generated_Source\PSoC4/mUART.c ****     {
 395:Generated_Source\PSoC4/mUART.c ****         /* Unknown mode: do nothing */
 396:Generated_Source\PSoC4/mUART.c ****     }
 397:Generated_Source\PSoC4/mUART.c **** #endif /* (!mUART_CY_SCBIP_V1) */
 398:Generated_Source\PSoC4/mUART.c **** 
 399:Generated_Source\PSoC4/mUART.c **** #elif (mUART_SCB_MODE_SPI_CONST_CFG)
 400:Generated_Source\PSoC4/mUART.c ****     mUART_SpiPostEnable();
 401:Generated_Source\PSoC4/mUART.c **** 
 402:Generated_Source\PSoC4/mUART.c **** #elif (mUART_SCB_MODE_UART_CONST_CFG)
 403:Generated_Source\PSoC4/mUART.c ****     mUART_UartPostEnable();
  82              		.loc 1 403 0
  83 0014 FFF7FEFF 		bl	mUART_UartPostEnable
  84              	.LVL2:
  85              	.LBE15:
  86              	.LBE14:
 192:Generated_Source\PSoC4/mUART.c **** 
  87              		.loc 1 192 0
  88 0018 10BD     		pop	{r4, pc}
  89              	.L4:
  90 001a C046     		.align	2
  91              	.L3:
  92 001c 00000840 		.word	1074266112
  93              		.cfi_endproc
  94              	.LFE2:
  95              		.size	mUART_Enable, .-mUART_Enable
  96              		.section	.text.mUART_Start,"ax",%progbits
  97              		.align	1
  98              		.global	mUART_Start
  99              		.code	16
 100              		.thumb_func
 101              		.type	mUART_Start, %function
 102              	mUART_Start:
 103              	.LFB3:
 211:Generated_Source\PSoC4/mUART.c ****     if (0u == mUART_initVar)
 104              		.loc 1 211 0
 105              		.cfi_startproc
 106              		@ args = 0, pretend = 0, frame = 0
ARM GAS  C:\Users\PC\AppData\Local\Temp\ccBujkqP.s 			page 10


 107              		@ frame_needed = 0, uses_anonymous_args = 0
 108 0000 10B5     		push	{r4, lr}
 109              		.cfi_def_cfa_offset 8
 110              		.cfi_offset 4, -8
 111              		.cfi_offset 14, -4
 212:Generated_Source\PSoC4/mUART.c ****     {
 112              		.loc 1 212 0
 113 0002 054C     		ldr	r4, .L8
 114 0004 2378     		ldrb	r3, [r4]
 115 0006 002B     		cmp	r3, #0
 116 0008 03D1     		bne	.L6
 117              	.LBB16:
 118              	.LBB17:
 142:Generated_Source\PSoC4/mUART.c **** 
 119              		.loc 1 142 0
 120 000a FFF7FEFF 		bl	mUART_UartInit
 121              	.LVL3:
 122              	.LBE17:
 123              	.LBE16:
 215:Generated_Source\PSoC4/mUART.c ****     }
 124              		.loc 1 215 0
 125 000e 0123     		movs	r3, #1
 126 0010 2370     		strb	r3, [r4]
 127              	.L6:
 218:Generated_Source\PSoC4/mUART.c **** }
 128              		.loc 1 218 0
 129 0012 FFF7FEFF 		bl	mUART_Enable
 130              	.LVL4:
 219:Generated_Source\PSoC4/mUART.c **** 
 131              		.loc 1 219 0
 132              		@ sp needed
 133 0016 10BD     		pop	{r4, pc}
 134              	.L9:
 135              		.align	2
 136              	.L8:
 137 0018 00000000 		.word	.LANCHOR0
 138              		.cfi_endproc
 139              	.LFE3:
 140              		.size	mUART_Start, .-mUART_Start
 141              		.section	.text.mUART_Stop,"ax",%progbits
 142              		.align	1
 143              		.global	mUART_Stop
 144              		.code	16
 145              		.thumb_func
 146              		.type	mUART_Stop, %function
 147              	mUART_Stop:
 148              	.LFB4:
 240:Generated_Source\PSoC4/mUART.c **** #if (mUART_SCB_IRQ_INTERNAL)
 149              		.loc 1 240 0
 150              		.cfi_startproc
 151              		@ args = 0, pretend = 0, frame = 0
 152              		@ frame_needed = 0, uses_anonymous_args = 0
 153 0000 10B5     		push	{r4, lr}
 154              		.cfi_def_cfa_offset 8
 155              		.cfi_offset 4, -8
 156              		.cfi_offset 14, -4
 242:Generated_Source\PSoC4/mUART.c **** #endif /* (mUART_SCB_IRQ_INTERNAL) */
ARM GAS  C:\Users\PC\AppData\Local\Temp\ccBujkqP.s 			page 11


 157              		.loc 1 242 0
 158 0002 0720     		movs	r0, #7
 159 0004 FFF7FEFF 		bl	CyIntDisable
 160              	.LVL5:
 161              	.LBB18:
 162              	.LBB19:
 404:Generated_Source\PSoC4/mUART.c **** 
 405:Generated_Source\PSoC4/mUART.c **** #else
 406:Generated_Source\PSoC4/mUART.c ****     /* Unknown mode: do nothing */
 407:Generated_Source\PSoC4/mUART.c **** #endif /* (mUART_SCB_MODE_UNCONFIG_CONST_CFG) */
 408:Generated_Source\PSoC4/mUART.c **** }
 409:Generated_Source\PSoC4/mUART.c **** 
 410:Generated_Source\PSoC4/mUART.c **** 
 411:Generated_Source\PSoC4/mUART.c **** /*******************************************************************************
 412:Generated_Source\PSoC4/mUART.c **** * Function Name: mUART_ScbModeStop
 413:Generated_Source\PSoC4/mUART.c **** ****************************************************************************//**
 414:Generated_Source\PSoC4/mUART.c **** *
 415:Generated_Source\PSoC4/mUART.c **** *  Calls the Stop function for a specific operation mode.
 416:Generated_Source\PSoC4/mUART.c **** *
 417:Generated_Source\PSoC4/mUART.c **** *******************************************************************************/
 418:Generated_Source\PSoC4/mUART.c **** static void mUART_ScbModeStop(void)
 419:Generated_Source\PSoC4/mUART.c **** {
 420:Generated_Source\PSoC4/mUART.c **** #if (mUART_SCB_MODE_UNCONFIG_CONST_CFG)
 421:Generated_Source\PSoC4/mUART.c ****     if (mUART_SCB_MODE_I2C_RUNTM_CFG)
 422:Generated_Source\PSoC4/mUART.c ****     {
 423:Generated_Source\PSoC4/mUART.c ****         mUART_I2CStop();
 424:Generated_Source\PSoC4/mUART.c ****     }
 425:Generated_Source\PSoC4/mUART.c ****     else if (mUART_SCB_MODE_EZI2C_RUNTM_CFG)
 426:Generated_Source\PSoC4/mUART.c ****     {
 427:Generated_Source\PSoC4/mUART.c ****         mUART_EzI2CStop();
 428:Generated_Source\PSoC4/mUART.c ****     }
 429:Generated_Source\PSoC4/mUART.c **** #if (!mUART_CY_SCBIP_V1)
 430:Generated_Source\PSoC4/mUART.c ****     else if (mUART_SCB_MODE_SPI_RUNTM_CFG)
 431:Generated_Source\PSoC4/mUART.c ****     {
 432:Generated_Source\PSoC4/mUART.c ****         mUART_SpiStop();
 433:Generated_Source\PSoC4/mUART.c ****     }
 434:Generated_Source\PSoC4/mUART.c ****     else if (mUART_SCB_MODE_UART_RUNTM_CFG)
 435:Generated_Source\PSoC4/mUART.c ****     {
 436:Generated_Source\PSoC4/mUART.c ****         mUART_UartStop();
 437:Generated_Source\PSoC4/mUART.c ****     }
 438:Generated_Source\PSoC4/mUART.c **** #endif /* (!mUART_CY_SCBIP_V1) */
 439:Generated_Source\PSoC4/mUART.c ****     else
 440:Generated_Source\PSoC4/mUART.c ****     {
 441:Generated_Source\PSoC4/mUART.c ****         /* Unknown mode: do nothing */
 442:Generated_Source\PSoC4/mUART.c ****     }
 443:Generated_Source\PSoC4/mUART.c **** #elif (mUART_SCB_MODE_I2C_CONST_CFG)
 444:Generated_Source\PSoC4/mUART.c ****     mUART_I2CStop();
 445:Generated_Source\PSoC4/mUART.c **** 
 446:Generated_Source\PSoC4/mUART.c **** #elif (mUART_SCB_MODE_EZI2C_CONST_CFG)
 447:Generated_Source\PSoC4/mUART.c ****     mUART_EzI2CStop();
 448:Generated_Source\PSoC4/mUART.c **** 
 449:Generated_Source\PSoC4/mUART.c **** #elif (mUART_SCB_MODE_SPI_CONST_CFG)
 450:Generated_Source\PSoC4/mUART.c ****     mUART_SpiStop();
 451:Generated_Source\PSoC4/mUART.c **** 
 452:Generated_Source\PSoC4/mUART.c **** #elif (mUART_SCB_MODE_UART_CONST_CFG)
 453:Generated_Source\PSoC4/mUART.c ****     mUART_UartStop();
 163              		.loc 1 453 0
ARM GAS  C:\Users\PC\AppData\Local\Temp\ccBujkqP.s 			page 12


 164 0008 FFF7FEFF 		bl	mUART_UartStop
 165              	.LVL6:
 166              	.LBE19:
 167              	.LBE18:
 249:Generated_Source\PSoC4/mUART.c **** 
 168              		.loc 1 249 0
 169 000c 054A     		ldr	r2, .L11
 262:Generated_Source\PSoC4/mUART.c **** #endif /* (mUART_SCB_IRQ_INTERNAL) */
 170              		.loc 1 262 0
 171 000e 0720     		movs	r0, #7
 249:Generated_Source\PSoC4/mUART.c **** 
 172              		.loc 1 249 0
 173 0010 1368     		ldr	r3, [r2]
 264:Generated_Source\PSoC4/mUART.c **** 
 174              		.loc 1 264 0
 175              		@ sp needed
 249:Generated_Source\PSoC4/mUART.c **** 
 176              		.loc 1 249 0
 177 0012 5B00     		lsls	r3, r3, #1
 178 0014 5B08     		lsrs	r3, r3, #1
 179 0016 1360     		str	r3, [r2]
 259:Generated_Source\PSoC4/mUART.c **** 
 180              		.loc 1 259 0
 181 0018 0022     		movs	r2, #0
 182 001a 034B     		ldr	r3, .L11+4
 183 001c 1A60     		str	r2, [r3]
 262:Generated_Source\PSoC4/mUART.c **** #endif /* (mUART_SCB_IRQ_INTERNAL) */
 184              		.loc 1 262 0
 185 001e FFF7FEFF 		bl	CyIntClearPending
 186              	.LVL7:
 264:Generated_Source\PSoC4/mUART.c **** 
 187              		.loc 1 264 0
 188 0022 10BD     		pop	{r4, pc}
 189              	.L12:
 190              		.align	2
 191              	.L11:
 192 0024 00000840 		.word	1074266112
 193 0028 880F0840 		.word	1074270088
 194              		.cfi_endproc
 195              	.LFE4:
 196              		.size	mUART_Stop, .-mUART_Stop
 197              		.section	.text.mUART_SetRxFifoLevel,"ax",%progbits
 198              		.align	1
 199              		.global	mUART_SetRxFifoLevel
 200              		.code	16
 201              		.thumb_func
 202              		.type	mUART_SetRxFifoLevel, %function
 203              	mUART_SetRxFifoLevel:
 204              	.LFB5:
 280:Generated_Source\PSoC4/mUART.c ****     uint32 rxFifoCtrl;
 205              		.loc 1 280 0
 206              		.cfi_startproc
 207              		@ args = 0, pretend = 0, frame = 0
 208              		@ frame_needed = 0, uses_anonymous_args = 0
 209              		@ link register save eliminated.
 210              	.LVL8:
 285:Generated_Source\PSoC4/mUART.c ****     rxFifoCtrl |= ((uint32) (mUART_RX_FIFO_CTRL_TRIGGER_LEVEL_MASK & level));
ARM GAS  C:\Users\PC\AppData\Local\Temp\ccBujkqP.s 			page 13


 211              		.loc 1 285 0
 212 0000 0F22     		movs	r2, #15
 283:Generated_Source\PSoC4/mUART.c **** 
 213              		.loc 1 283 0
 214 0002 0349     		ldr	r1, .L14
 286:Generated_Source\PSoC4/mUART.c **** 
 215              		.loc 1 286 0
 216 0004 1040     		ands	r0, r2
 217              	.LVL9:
 283:Generated_Source\PSoC4/mUART.c **** 
 218              		.loc 1 283 0
 219 0006 0B68     		ldr	r3, [r1]
 220              	.LVL10:
 289:Generated_Source\PSoC4/mUART.c **** 
 221              		.loc 1 289 0
 222              		@ sp needed
 285:Generated_Source\PSoC4/mUART.c ****     rxFifoCtrl |= ((uint32) (mUART_RX_FIFO_CTRL_TRIGGER_LEVEL_MASK & level));
 223              		.loc 1 285 0
 224 0008 9343     		bics	r3, r2
 225              	.LVL11:
 286:Generated_Source\PSoC4/mUART.c **** 
 226              		.loc 1 286 0
 227 000a 1843     		orrs	r0, r3
 228              	.LVL12:
 288:Generated_Source\PSoC4/mUART.c **** }
 229              		.loc 1 288 0
 230 000c 0860     		str	r0, [r1]
 289:Generated_Source\PSoC4/mUART.c **** 
 231              		.loc 1 289 0
 232 000e 7047     		bx	lr
 233              	.L15:
 234              		.align	2
 235              	.L14:
 236 0010 04030840 		.word	1074266884
 237              		.cfi_endproc
 238              	.LFE5:
 239              		.size	mUART_SetRxFifoLevel, .-mUART_SetRxFifoLevel
 240              		.section	.text.mUART_SetTxFifoLevel,"ax",%progbits
 241              		.align	1
 242              		.global	mUART_SetTxFifoLevel
 243              		.code	16
 244              		.thumb_func
 245              		.type	mUART_SetTxFifoLevel, %function
 246              	mUART_SetTxFifoLevel:
 247              	.LFB6:
 305:Generated_Source\PSoC4/mUART.c ****     uint32 txFifoCtrl;
 248              		.loc 1 305 0
 249              		.cfi_startproc
 250              		@ args = 0, pretend = 0, frame = 0
 251              		@ frame_needed = 0, uses_anonymous_args = 0
 252              		@ link register save eliminated.
 253              	.LVL13:
 310:Generated_Source\PSoC4/mUART.c ****     txFifoCtrl |= ((uint32) (mUART_TX_FIFO_CTRL_TRIGGER_LEVEL_MASK & level));
 254              		.loc 1 310 0
 255 0000 0F22     		movs	r2, #15
 308:Generated_Source\PSoC4/mUART.c **** 
 256              		.loc 1 308 0
ARM GAS  C:\Users\PC\AppData\Local\Temp\ccBujkqP.s 			page 14


 257 0002 0349     		ldr	r1, .L17
 311:Generated_Source\PSoC4/mUART.c **** 
 258              		.loc 1 311 0
 259 0004 1040     		ands	r0, r2
 260              	.LVL14:
 308:Generated_Source\PSoC4/mUART.c **** 
 261              		.loc 1 308 0
 262 0006 0B68     		ldr	r3, [r1]
 263              	.LVL15:
 314:Generated_Source\PSoC4/mUART.c **** 
 264              		.loc 1 314 0
 265              		@ sp needed
 310:Generated_Source\PSoC4/mUART.c ****     txFifoCtrl |= ((uint32) (mUART_TX_FIFO_CTRL_TRIGGER_LEVEL_MASK & level));
 266              		.loc 1 310 0
 267 0008 9343     		bics	r3, r2
 268              	.LVL16:
 311:Generated_Source\PSoC4/mUART.c **** 
 269              		.loc 1 311 0
 270 000a 1843     		orrs	r0, r3
 271              	.LVL17:
 313:Generated_Source\PSoC4/mUART.c **** }
 272              		.loc 1 313 0
 273 000c 0860     		str	r0, [r1]
 314:Generated_Source\PSoC4/mUART.c **** 
 274              		.loc 1 314 0
 275 000e 7047     		bx	lr
 276              	.L18:
 277              		.align	2
 278              	.L17:
 279 0010 04020840 		.word	1074266628
 280              		.cfi_endproc
 281              	.LFE6:
 282              		.size	mUART_SetTxFifoLevel, .-mUART_SetTxFifoLevel
 283              		.section	.text.mUART_SetCustomInterruptHandler,"ax",%progbits
 284              		.align	1
 285              		.global	mUART_SetCustomInterruptHandler
 286              		.code	16
 287              		.thumb_func
 288              		.type	mUART_SetCustomInterruptHandler, %function
 289              	mUART_SetCustomInterruptHandler:
 290              	.LFB7:
 336:Generated_Source\PSoC4/mUART.c ****     #if !defined (CY_REMOVE_mUART_CUSTOM_INTR_HANDLER)
 291              		.loc 1 336 0
 292              		.cfi_startproc
 293              		@ args = 0, pretend = 0, frame = 0
 294              		@ frame_needed = 0, uses_anonymous_args = 0
 295              		@ link register save eliminated.
 296              	.LVL18:
 338:Generated_Source\PSoC4/mUART.c ****     #else
 297              		.loc 1 338 0
 298 0000 014B     		ldr	r3, .L20
 345:Generated_Source\PSoC4/mUART.c **** #endif /* (mUART_SCB_IRQ_INTERNAL) */
 299              		.loc 1 345 0
 300              		@ sp needed
 338:Generated_Source\PSoC4/mUART.c ****     #else
 301              		.loc 1 338 0
 302 0002 5860     		str	r0, [r3, #4]
ARM GAS  C:\Users\PC\AppData\Local\Temp\ccBujkqP.s 			page 15


 345:Generated_Source\PSoC4/mUART.c **** #endif /* (mUART_SCB_IRQ_INTERNAL) */
 303              		.loc 1 345 0
 304 0004 7047     		bx	lr
 305              	.L21:
 306 0006 C046     		.align	2
 307              	.L20:
 308 0008 00000000 		.word	.LANCHOR0
 309              		.cfi_endproc
 310              	.LFE7:
 311              		.size	mUART_SetCustomInterruptHandler, .-mUART_SetCustomInterruptHandler
 312              		.global	mUART_customIntrHandler
 313              		.global	mUART_IntrTxMask
 314              		.global	mUART_initVar
 315              		.bss
 316              		.align	2
 317              		.set	.LANCHOR0,. + 0
 318              		.type	mUART_initVar, %object
 319              		.size	mUART_initVar, 1
 320              	mUART_initVar:
 321 0000 00       		.space	1
 322 0001 000000   		.space	3
 323              		.type	mUART_customIntrHandler, %object
 324              		.size	mUART_customIntrHandler, 4
 325              	mUART_customIntrHandler:
 326 0004 00000000 		.space	4
 327              		.type	mUART_IntrTxMask, %object
 328              		.size	mUART_IntrTxMask, 2
 329              	mUART_IntrTxMask:
 330 0008 0000     		.space	2
 331              		.text
 332              	.Letext0:
 333              		.file 2 "Generated_Source\\PSoC4/cytypes.h"
 334              		.file 3 "Generated_Source\\PSoC4\\mUART_SPI_UART_PVT.h"
 335              		.file 4 "Generated_Source\\PSoC4/CyLib.h"