ARM GAS  C:\Users\PC\AppData\Local\Temp\ccO2tMyh.s 			page 1


   1              		.syntax unified
   2              		.cpu cortex-m0plus
   3              		.fpu softvfp
   4              		.eabi_attribute 20, 1
   5              		.eabi_attribute 21, 1
   6              		.eabi_attribute 23, 3
   7              		.eabi_attribute 24, 1
   8              		.eabi_attribute 25, 1
   9              		.eabi_attribute 26, 1
  10              		.eabi_attribute 30, 1
  11              		.eabi_attribute 34, 0
  12              		.eabi_attribute 18, 4
  13              		.thumb
  14              		.syntax unified
  15              		.file	"main.c"
  16              		.text
  17              	.Ltext0:
  18              		.cfi_sections	.debug_frame
  19              		.global	__aeabi_dadd
  20              		.global	__aeabi_ddiv
  21              		.global	__aeabi_dmul
  22              		.global	__aeabi_dsub
  23              		.section	.text.kalmanCDS,"ax",%progbits
  24              		.align	2
  25              		.global	kalmanCDS
  26              		.code	16
  27              		.thumb_func
  28              		.type	kalmanCDS, %function
  29              	kalmanCDS:
  30              	.LFB34:
  31              		.file 1 "main.c"
   1:main.c        **** /* ========================================
   2:main.c        ****  *
   3:main.c        ****  * Copyright YOUR COMPANY, THE YEAR
   4:main.c        ****  * All Rights Reserved
   5:main.c        ****  * UNPUBLISHED, LICENSED SOFTWARE.
   6:main.c        ****  *
   7:main.c        ****  * CONFIDENTIAL AND PROPRIETARY INFORMATION
   8:main.c        ****  * WHICH IS THE PROPERTY OF your company.
   9:main.c        ****  *
  10:main.c        ****  * ========================================
  11:main.c        **** */
  12:main.c        **** #include <stdio.h>
  13:main.c        **** #include "project.h"
  14:main.c        **** 
  15:main.c        **** double kalmanCDS(double inData){
  32              		.loc 1 15 0
  33              		.cfi_startproc
  34              		@ args = 0, pretend = 0, frame = 16
  35              		@ frame_needed = 0, uses_anonymous_args = 0
  36              	.LVL0:
  37 0000 F0B5     		push	{r4, r5, r6, r7, lr}
  38              		.cfi_def_cfa_offset 20
  39              		.cfi_offset 4, -20
  40              		.cfi_offset 5, -16
  41              		.cfi_offset 6, -12
  42              		.cfi_offset 7, -8
ARM GAS  C:\Users\PC\AppData\Local\Temp\ccO2tMyh.s 			page 2


  43              		.cfi_offset 14, -4
  44 0002 85B0     		sub	sp, sp, #20
  45              		.cfi_def_cfa_offset 40
  46 0004 0400     		movs	r4, r0
  47 0006 0D00     		movs	r5, r1
  48              	.LVL1:
  16:main.c        ****     const double valP = 0.00001;   
  17:main.c        ****     static double r = 0.001, x = 0, p = 1, k;
  18:main.c        ****     p += valP;
  49              		.loc 1 18 0
  50 0008 1E4E     		ldr	r6, .L2
  51 000a 1F4A     		ldr	r2, .L2+4
  52 000c 1F4B     		ldr	r3, .L2+8
  53 000e 3068     		ldr	r0, [r6]
  54 0010 7168     		ldr	r1, [r6, #4]
  55              	.LVL2:
  56 0012 FFF7FEFF 		bl	__aeabi_dadd
  57              	.LVL3:
  58 0016 0090     		str	r0, [sp]
  59 0018 0191     		str	r1, [sp, #4]
  19:main.c        ****     k = p / (p + r);
  60              		.loc 1 19 0
  61 001a 1D4A     		ldr	r2, .L2+12
  62 001c 1D4B     		ldr	r3, .L2+16
  63 001e FFF7FEFF 		bl	__aeabi_dadd
  64              	.LVL4:
  65 0022 0200     		movs	r2, r0
  66 0024 0B00     		movs	r3, r1
  67 0026 0098     		ldr	r0, [sp]
  68 0028 0199     		ldr	r1, [sp, #4]
  69 002a FFF7FEFF 		bl	__aeabi_ddiv
  70              	.LVL5:
  71 002e 0290     		str	r0, [sp, #8]
  72 0030 0391     		str	r1, [sp, #12]
  20:main.c        ****     x = (k * inData) + (1 - k) * x;
  73              		.loc 1 20 0
  74 0032 2200     		movs	r2, r4
  75 0034 2B00     		movs	r3, r5
  76 0036 FFF7FEFF 		bl	__aeabi_dmul
  77              	.LVL6:
  78 003a 0400     		movs	r4, r0
  79 003c 0D00     		movs	r5, r1
  80 003e 029A     		ldr	r2, [sp, #8]
  81 0040 039B     		ldr	r3, [sp, #12]
  82 0042 0020     		movs	r0, #0
  83 0044 1449     		ldr	r1, .L2+20
  84 0046 FFF7FEFF 		bl	__aeabi_dsub
  85              	.LVL7:
  86 004a 0290     		str	r0, [sp, #8]
  87 004c 0391     		str	r1, [sp, #12]
  88 004e 134F     		ldr	r7, .L2+24
  89 0050 3A68     		ldr	r2, [r7]
  90 0052 7B68     		ldr	r3, [r7, #4]
  91 0054 FFF7FEFF 		bl	__aeabi_dmul
  92              	.LVL8:
  93 0058 0200     		movs	r2, r0
  94 005a 0B00     		movs	r3, r1
ARM GAS  C:\Users\PC\AppData\Local\Temp\ccO2tMyh.s 			page 3


  95 005c 2000     		movs	r0, r4
  96 005e 2900     		movs	r1, r5
  97 0060 FFF7FEFF 		bl	__aeabi_dadd
  98              	.LVL9:
  99 0064 0400     		movs	r4, r0
 100 0066 0D00     		movs	r5, r1
 101 0068 3C60     		str	r4, [r7]
 102 006a 7D60     		str	r5, [r7, #4]
  21:main.c        ****     p = (1 - k) * p;
 103              		.loc 1 21 0
 104 006c 029A     		ldr	r2, [sp, #8]
 105 006e 039B     		ldr	r3, [sp, #12]
 106 0070 0098     		ldr	r0, [sp]
 107 0072 0199     		ldr	r1, [sp, #4]
 108 0074 FFF7FEFF 		bl	__aeabi_dmul
 109              	.LVL10:
 110 0078 3060     		str	r0, [r6]
 111 007a 7160     		str	r1, [r6, #4]
  22:main.c        ****     return x;
  23:main.c        **** }
 112              		.loc 1 23 0
 113 007c 2000     		movs	r0, r4
 114 007e 2900     		movs	r1, r5
 115 0080 05B0     		add	sp, sp, #20
 116              		@ sp needed
 117 0082 F0BD     		pop	{r4, r5, r6, r7, pc}
 118              	.L3:
 119              		.align	2
 120              	.L2:
 121 0084 00000000 		.word	.LANCHOR0
 122 0088 F168E388 		.word	-1998362383
 123 008c B5F8E43E 		.word	1055193269
 124 0090 FCA9F1D2 		.word	-755914244
 125 0094 4D62503F 		.word	1062232653
 126 0098 0000F03F 		.word	1072693248
 127 009c 00000000 		.word	.LANCHOR1
 128              		.cfi_endproc
 129              	.LFE34:
 130              		.size	kalmanCDS, .-kalmanCDS
 131              		.section	.text.kalmans,"ax",%progbits
 132              		.align	2
 133              		.global	kalmans
 134              		.code	16
 135              		.thumb_func
 136              		.type	kalmans, %function
 137              	kalmans:
 138              	.LFB35:
  24:main.c        **** 
  25:main.c        **** double kalmans(double inData){
 139              		.loc 1 25 0
 140              		.cfi_startproc
 141              		@ args = 0, pretend = 0, frame = 16
 142              		@ frame_needed = 0, uses_anonymous_args = 0
 143              	.LVL11:
 144 0000 F0B5     		push	{r4, r5, r6, r7, lr}
 145              		.cfi_def_cfa_offset 20
 146              		.cfi_offset 4, -20
ARM GAS  C:\Users\PC\AppData\Local\Temp\ccO2tMyh.s 			page 4


 147              		.cfi_offset 5, -16
 148              		.cfi_offset 6, -12
 149              		.cfi_offset 7, -8
 150              		.cfi_offset 14, -4
 151 0002 85B0     		sub	sp, sp, #20
 152              		.cfi_def_cfa_offset 40
 153 0004 0400     		movs	r4, r0
 154 0006 0D00     		movs	r5, r1
 155              	.LVL12:
  26:main.c        ****     const double valP = 0.00001;   
  27:main.c        ****     static double r = 0.001, x = 0, p = 1, k;
  28:main.c        ****     p += valP;
 156              		.loc 1 28 0
 157 0008 1E4E     		ldr	r6, .L5
 158 000a 1F4A     		ldr	r2, .L5+4
 159 000c 1F4B     		ldr	r3, .L5+8
 160 000e B068     		ldr	r0, [r6, #8]
 161 0010 F168     		ldr	r1, [r6, #12]
 162              	.LVL13:
 163 0012 FFF7FEFF 		bl	__aeabi_dadd
 164              	.LVL14:
 165 0016 0090     		str	r0, [sp]
 166 0018 0191     		str	r1, [sp, #4]
  29:main.c        ****     k = p / (p + r);
 167              		.loc 1 29 0
 168 001a 1D4A     		ldr	r2, .L5+12
 169 001c 1D4B     		ldr	r3, .L5+16
 170 001e FFF7FEFF 		bl	__aeabi_dadd
 171              	.LVL15:
 172 0022 0200     		movs	r2, r0
 173 0024 0B00     		movs	r3, r1
 174 0026 0098     		ldr	r0, [sp]
 175 0028 0199     		ldr	r1, [sp, #4]
 176 002a FFF7FEFF 		bl	__aeabi_ddiv
 177              	.LVL16:
 178 002e 0290     		str	r0, [sp, #8]
 179 0030 0391     		str	r1, [sp, #12]
  30:main.c        ****     x = (k * inData) + (1 - k) * x;
 180              		.loc 1 30 0
 181 0032 2200     		movs	r2, r4
 182 0034 2B00     		movs	r3, r5
 183 0036 FFF7FEFF 		bl	__aeabi_dmul
 184              	.LVL17:
 185 003a 0400     		movs	r4, r0
 186 003c 0D00     		movs	r5, r1
 187 003e 029A     		ldr	r2, [sp, #8]
 188 0040 039B     		ldr	r3, [sp, #12]
 189 0042 0020     		movs	r0, #0
 190 0044 1449     		ldr	r1, .L5+20
 191 0046 FFF7FEFF 		bl	__aeabi_dsub
 192              	.LVL18:
 193 004a 0290     		str	r0, [sp, #8]
 194 004c 0391     		str	r1, [sp, #12]
 195 004e 134F     		ldr	r7, .L5+24
 196 0050 BA68     		ldr	r2, [r7, #8]
 197 0052 FB68     		ldr	r3, [r7, #12]
 198 0054 FFF7FEFF 		bl	__aeabi_dmul
ARM GAS  C:\Users\PC\AppData\Local\Temp\ccO2tMyh.s 			page 5


 199              	.LVL19:
 200 0058 0200     		movs	r2, r0
 201 005a 0B00     		movs	r3, r1
 202 005c 2000     		movs	r0, r4
 203 005e 2900     		movs	r1, r5
 204 0060 FFF7FEFF 		bl	__aeabi_dadd
 205              	.LVL20:
 206 0064 0400     		movs	r4, r0
 207 0066 0D00     		movs	r5, r1
 208 0068 BC60     		str	r4, [r7, #8]
 209 006a FD60     		str	r5, [r7, #12]
  31:main.c        ****     p = (1 - k) * p;
 210              		.loc 1 31 0
 211 006c 029A     		ldr	r2, [sp, #8]
 212 006e 039B     		ldr	r3, [sp, #12]
 213 0070 0098     		ldr	r0, [sp]
 214 0072 0199     		ldr	r1, [sp, #4]
 215 0074 FFF7FEFF 		bl	__aeabi_dmul
 216              	.LVL21:
 217 0078 B060     		str	r0, [r6, #8]
 218 007a F160     		str	r1, [r6, #12]
  32:main.c        ****     return x;
  33:main.c        **** }
 219              		.loc 1 33 0
 220 007c 2000     		movs	r0, r4
 221 007e 2900     		movs	r1, r5
 222 0080 05B0     		add	sp, sp, #20
 223              		@ sp needed
 224 0082 F0BD     		pop	{r4, r5, r6, r7, pc}
 225              	.L6:
 226              		.align	2
 227              	.L5:
 228 0084 00000000 		.word	.LANCHOR0
 229 0088 F168E388 		.word	-1998362383
 230 008c B5F8E43E 		.word	1055193269
 231 0090 FCA9F1D2 		.word	-755914244
 232 0094 4D62503F 		.word	1062232653
 233 0098 0000F03F 		.word	1072693248
 234 009c 00000000 		.word	.LANCHOR1
 235              		.cfi_endproc
 236              	.LFE35:
 237              		.size	kalmans, .-kalmans
 238              		.global	__aeabi_i2d
 239              		.global	__aeabi_d2iz
 240              		.section	.text.main,"ax",%progbits
 241              		.align	2
 242              		.global	main
 243              		.code	16
 244              		.thumb_func
 245              		.type	main, %function
 246              	main:
 247              	.LFB36:
  34:main.c        **** 
  35:main.c        **** int main(void)
  36:main.c        **** {
 248              		.loc 1 36 0
 249              		.cfi_startproc
ARM GAS  C:\Users\PC\AppData\Local\Temp\ccO2tMyh.s 			page 6


 250              		@ args = 0, pretend = 0, frame = 40
 251              		@ frame_needed = 0, uses_anonymous_args = 0
 252 0000 F0B5     		push	{r4, r5, r6, r7, lr}
 253              		.cfi_def_cfa_offset 20
 254              		.cfi_offset 4, -20
 255              		.cfi_offset 5, -16
 256              		.cfi_offset 6, -12
 257              		.cfi_offset 7, -8
 258              		.cfi_offset 14, -4
 259 0002 8BB0     		sub	sp, sp, #44
 260              		.cfi_def_cfa_offset 64
  37:main.c        ****     CyGlobalIntEnable; /* Enable global interrupts. */
 261              		.loc 1 37 0
 262              		.syntax divided
 263              	@ 37 "main.c" 1
 264 0004 62B6     		CPSIE   i
 265              	@ 0 "" 2
 266              	.LVL22:
  38:main.c        ****     int pos = 0;
  39:main.c        ****     int adcval[2];
  40:main.c        ****     /* Place your initialization/startup code here (e.g. MyInst_Start()) */
  41:main.c        ****     mUART_Start();
 267              		.loc 1 41 0
 268              		.thumb
 269              		.syntax unified
 270 0006 FFF7FEFF 		bl	mUART_Start
 271              	.LVL23:
  42:main.c        ****     mADC_Start();
 272              		.loc 1 42 0
 273 000a FFF7FEFF 		bl	mADC_Start
 274              	.LVL24:
  38:main.c        ****     int pos = 0;
 275              		.loc 1 38 0
 276 000e 0024     		movs	r4, #0
 277              	.LVL25:
 278              	.L9:
 279              	.LBB2:
  43:main.c        ****     
  44:main.c        ****     for(;;)
  45:main.c        ****     {
  46:main.c        ****         adcval[pos] = mADC_GetResult_mVolts(pos);
 280              		.loc 1 46 0
 281 0010 E0B2     		uxtb	r0, r4
 282 0012 FFF7FEFF 		bl	mADC_GetResult_mVolts
 283              	.LVL26:
 284 0016 08AD     		add	r5, sp, #32
 285 0018 A300     		lsls	r3, r4, #2
 286 001a 5851     		str	r0, [r3, r5]
  47:main.c        ****         char str[30];
  48:main.c        ****         sprintf(str, "%04d %04d \n", (int)kalmans(adcval[0]), (int)kalmanCDS(adcval[1]));
 287              		.loc 1 48 0
 288 001c 0898     		ldr	r0, [sp, #32]
 289 001e FFF7FEFF 		bl	__aeabi_i2d
 290              	.LVL27:
 291 0022 FFF7FEFF 		bl	kalmans
 292              	.LVL28:
 293 0026 0600     		movs	r6, r0
ARM GAS  C:\Users\PC\AppData\Local\Temp\ccO2tMyh.s 			page 7


 294 0028 0F00     		movs	r7, r1
 295 002a 6868     		ldr	r0, [r5, #4]
 296 002c FFF7FEFF 		bl	__aeabi_i2d
 297              	.LVL29:
 298 0030 FFF7FEFF 		bl	kalmanCDS
 299              	.LVL30:
 300 0034 FFF7FEFF 		bl	__aeabi_d2iz
 301              	.LVL31:
 302 0038 0500     		movs	r5, r0
 303 003a 3000     		movs	r0, r6
 304 003c 3900     		movs	r1, r7
 305 003e FFF7FEFF 		bl	__aeabi_d2iz
 306              	.LVL32:
 307 0042 0200     		movs	r2, r0
 308 0044 2B00     		movs	r3, r5
 309 0046 0A49     		ldr	r1, .L10
 310 0048 6846     		mov	r0, sp
 311 004a FFF7FEFF 		bl	sprintf
 312              	.LVL33:
  49:main.c        ****         mUART_UartPutString(str);
 313              		.loc 1 49 0
 314 004e 6846     		mov	r0, sp
 315 0050 FFF7FEFF 		bl	mUART_UartPutString
 316              	.LVL34:
  50:main.c        ****         pos = !pos;
 317              		.loc 1 50 0
 318 0054 6342     		rsbs	r3, r4, #0
 319 0056 5C41     		adcs	r4, r4, r3
 320              	.LVL35:
 321 0058 E4B2     		uxtb	r4, r4
 322              	.LVL36:
  51:main.c        ****         CyDelay(50);
 323              		.loc 1 51 0
 324 005a 3220     		movs	r0, #50
 325 005c FFF7FEFF 		bl	CyDelay
 326              	.LVL37:
  52:main.c        ****         mADC_StartConvert(pos);
 327              		.loc 1 52 0
 328 0060 2000     		movs	r0, r4
 329 0062 FFF7FEFF 		bl	mADC_StartConvert
 330              	.LVL38:
 331              	.L8:
  53:main.c        ****         while(mADC_IsBusy()){}
 332              		.loc 1 53 0 discriminator 1
 333 0066 FFF7FEFF 		bl	mADC_IsBusy
 334              	.LVL39:
 335 006a 0028     		cmp	r0, #0
 336 006c FBD1     		bne	.L8
 337 006e CFE7     		b	.L9
 338              	.L11:
 339              		.align	2
 340              	.L10:
 341 0070 00000000 		.word	.LC4
 342              	.LBE2:
 343              		.cfi_endproc
 344              	.LFE36:
 345              		.size	main, .-main
ARM GAS  C:\Users\PC\AppData\Local\Temp\ccO2tMyh.s 			page 8


 346              		.data
 347              		.align	3
 348              		.set	.LANCHOR0,. + 0
 349              		.type	p.6129, %object
 350              		.size	p.6129, 8
 351              	p.6129:
 352 0000 00000000 		.word	0
 353 0004 0000F03F 		.word	1072693248
 354              		.type	p.6137, %object
 355              		.size	p.6137, 8
 356              	p.6137:
 357 0008 00000000 		.word	0
 358 000c 0000F03F 		.word	1072693248
 359              		.section	.rodata.str1.4,"aMS",%progbits,1
 360              		.align	2
 361              	.LC4:
 362 0000 25303464 		.ascii	"%04d %04d \012\000"
 362      20253034 
 362      64200A00 
 363              		.bss
 364              		.align	3
 365              		.set	.LANCHOR1,. + 0
 366              		.type	x.6128, %object
 367              		.size	x.6128, 8
 368              	x.6128:
 369 0000 00000000 		.space	8
 369      00000000 
 370              		.type	x.6136, %object
 371              		.size	x.6136, 8
 372              	x.6136:
 373 0008 00000000 		.space	8
 373      00000000 
 374              		.text
 375              	.Letext0:
 376              		.file 2 "Generated_Source\\PSoC4/mADC_Adc.h"
 377              		.file 3 "c:\\program files (x86)\\cypress\\psoc creator\\4.4\\psoc creator\\import\\gnu\\arm\\5.4.
 378              		.file 4 "Generated_Source\\PSoC4/mUART_SPI_UART.h"
 379              		.file 5 "Generated_Source\\PSoC4/CyLib.h"
 380              		.file 6 "Generated_Source\\PSoC4/mUART.h"