ARM GAS  C:\Users\PC\AppData\Local\Temp\ccFSAbKL.s 			page 1


   1              		.syntax unified
   2              		.cpu cortex-m0plus
   3              		.fpu softvfp
   4              		.eabi_attribute 20, 1
   5              		.eabi_attribute 21, 1
   6              		.eabi_attribute 23, 3
   7              		.eabi_attribute 24, 1
   8              		.eabi_attribute 25, 1
   9              		.eabi_attribute 26, 1
  10              		.eabi_attribute 30, 1
  11              		.eabi_attribute 34, 0
  12              		.eabi_attribute 18, 4
  13              		.thumb
  14              		.syntax unified
  15              		.file	"main.c"
  16              		.text
  17              	.Ltext0:
  18              		.cfi_sections	.debug_frame
  19              		.global	__aeabi_idivmod
  20              		.section	.text.isrUart,"ax",%progbits
  21              		.align	2
  22              		.global	isrUart
  23              		.code	16
  24              		.thumb_func
  25              		.type	isrUart, %function
  26              	isrUart:
  27              	.LFB33:
  28              		.file 1 "main.c"
   1:main.c        **** /* ========================================
   2:main.c        ****  *
   3:main.c        ****  * Copyright YOUR COMPANY, THE YEAR
   4:main.c        ****  * All Rights Reserved
   5:main.c        ****  * UNPUBLISHED, LICENSED SOFTWARE.
   6:main.c        ****  *
   7:main.c        ****  * CONFIDENTIAL AND PROPRIETARY INFORMATION
   8:main.c        ****  * WHICH IS THE PROPERTY OF your company.
   9:main.c        ****  *
  10:main.c        ****  * ========================================
  11:main.c        **** */
  12:main.c        **** #include "project.h"
  13:main.c        **** 
  14:main.c        **** #define RXMAX 255
  15:main.c        **** 
  16:main.c        **** typedef char *String;
  17:main.c        **** 
  18:main.c        **** char ringBuff[RXMAX];
  19:main.c        **** int ringPptr = 0;
  20:main.c        **** int ringGptr = 0;
  21:main.c        **** 
  22:main.c        **** void isrUart(){
  29              		.loc 1 22 0
  30              		.cfi_startproc
  31              		@ args = 0, pretend = 0, frame = 0
  32              		@ frame_needed = 0, uses_anonymous_args = 0
  33 0000 70B5     		push	{r4, r5, r6, lr}
  34              		.cfi_def_cfa_offset 16
  35              		.cfi_offset 4, -16
ARM GAS  C:\Users\PC\AppData\Local\Temp\ccFSAbKL.s 			page 2


  36              		.cfi_offset 5, -12
  37              		.cfi_offset 6, -8
  38              		.cfi_offset 14, -4
  23:main.c        ****     if((mUART_GetRxInterruptSource() & mUART_INTR_RX_NOT_EMPTY) != 0){
  39              		.loc 1 23 0
  40 0002 0C4B     		ldr	r3, .L3
  41 0004 1B68     		ldr	r3, [r3]
  42 0006 5B07     		lsls	r3, r3, #29
  43 0008 0FD5     		bpl	.L2
  24:main.c        ****         ringBuff[ringPptr++] = mUART_UartGetChar();
  44              		.loc 1 24 0
  45 000a 0B4C     		ldr	r4, .L3+4
  46 000c 2568     		ldr	r5, [r4]
  47 000e 6B1C     		adds	r3, r5, #1
  48 0010 2360     		str	r3, [r4]
  49 0012 FFF7FEFF 		bl	mUART_UartGetChar
  50              	.LVL0:
  51 0016 094B     		ldr	r3, .L3+8
  52 0018 5855     		strb	r0, [r3, r5]
  25:main.c        ****         ringPptr %= RXMAX;
  53              		.loc 1 25 0
  54 001a FF21     		movs	r1, #255
  55 001c 2068     		ldr	r0, [r4]
  56 001e FFF7FEFF 		bl	__aeabi_idivmod
  57              	.LVL1:
  58 0022 2160     		str	r1, [r4]
  26:main.c        ****         mUART_ClearRxInterruptSource(mUART_INTR_RX_NOT_EMPTY);
  59              		.loc 1 26 0
  60 0024 0422     		movs	r2, #4
  61 0026 034B     		ldr	r3, .L3
  62 0028 1A60     		str	r2, [r3]
  63              	.L2:
  27:main.c        ****     }
  28:main.c        ****     mUART_ClearPendingInt();
  64              		.loc 1 28 0
  65 002a 0720     		movs	r0, #7
  66 002c FFF7FEFF 		bl	CyIntClearPending
  67              	.LVL2:
  29:main.c        **** }
  68              		.loc 1 29 0
  69              		@ sp needed
  70 0030 70BD     		pop	{r4, r5, r6, pc}
  71              	.L4:
  72 0032 C046     		.align	2
  73              	.L3:
  74 0034 C00F0840 		.word	1074270144
  75 0038 00000000 		.word	.LANCHOR0
  76 003c 00000000 		.word	ringBuff
  77              		.cfi_endproc
  78              	.LFE33:
  79              		.size	isrUart, .-isrUart
  80              		.section	.text.println,"ax",%progbits
  81              		.align	2
  82              		.global	println
  83              		.code	16
  84              		.thumb_func
  85              		.type	println, %function
ARM GAS  C:\Users\PC\AppData\Local\Temp\ccFSAbKL.s 			page 3


  86              	println:
  87              	.LFB35:
  30:main.c        **** 
  31:main.c        **** char scan(){
  32:main.c        ****     char c = -1;
  33:main.c        ****     if(ringGptr == ringPptr) return c;
  34:main.c        ****     c = ringBuff[ringGptr++];
  35:main.c        ****     ringGptr %= RXMAX;
  36:main.c        ****     return c;
  37:main.c        **** }
  38:main.c        **** 
  39:main.c        **** void println(String str){
  88              		.loc 1 39 0
  89              		.cfi_startproc
  90              		@ args = 0, pretend = 0, frame = 0
  91              		@ frame_needed = 0, uses_anonymous_args = 0
  92              	.LVL3:
  93 0000 10B5     		push	{r4, lr}
  94              		.cfi_def_cfa_offset 8
  95              		.cfi_offset 4, -8
  96              		.cfi_offset 14, -4
  40:main.c        ****     mUART_UartPutString(str);
  97              		.loc 1 40 0
  98 0002 FFF7FEFF 		bl	mUART_UartPutString
  99              	.LVL4:
  41:main.c        ****     mUART_UartPutString("\n");
 100              		.loc 1 41 0
 101 0006 0248     		ldr	r0, .L6
 102 0008 FFF7FEFF 		bl	mUART_UartPutString
 103              	.LVL5:
  42:main.c        **** }
 104              		.loc 1 42 0
 105              		@ sp needed
 106 000c 10BD     		pop	{r4, pc}
 107              	.L7:
 108 000e C046     		.align	2
 109              	.L6:
 110 0010 00000000 		.word	.LC3
 111              		.cfi_endproc
 112              	.LFE35:
 113              		.size	println, .-println
 114              		.global	__aeabi_fdiv
 115              		.global	__aeabi_fmul
 116              		.global	__aeabi_f2uiz
 117              		.section	.text.sound,"ax",%progbits
 118              		.align	2
 119              		.global	sound
 120              		.code	16
 121              		.thumb_func
 122              		.type	sound, %function
 123              	sound:
 124              	.LFB36:
  43:main.c        **** 
  44:main.c        **** void sound(float f){
 125              		.loc 1 44 0
 126              		.cfi_startproc
 127              		@ args = 0, pretend = 0, frame = 0
ARM GAS  C:\Users\PC\AppData\Local\Temp\ccFSAbKL.s 			page 4


 128              		@ frame_needed = 0, uses_anonymous_args = 0
 129              	.LVL6:
 130 0000 10B5     		push	{r4, lr}
 131              		.cfi_def_cfa_offset 8
 132              		.cfi_offset 4, -8
 133              		.cfi_offset 14, -4
 134 0002 011C     		adds	r1, r0, #0
  45:main.c        ****     float cnt = 1000000 / f;
 135              		.loc 1 45 0
 136 0004 0848     		ldr	r0, .L9
 137              	.LVL7:
 138 0006 FFF7FEFF 		bl	__aeabi_fdiv
 139              	.LVL8:
 140 000a 041C     		adds	r4, r0, #0
 141              	.LVL9:
  46:main.c        ****     mPWM_WriteCompare(cnt / 2);
 142              		.loc 1 46 0
 143 000c FC21     		movs	r1, #252
 144 000e 8905     		lsls	r1, r1, #22
 145 0010 FFF7FEFF 		bl	__aeabi_fmul
 146              	.LVL10:
 147 0014 FFF7FEFF 		bl	__aeabi_f2uiz
 148              	.LVL11:
 149 0018 FFF7FEFF 		bl	mPWM_WriteCompare
 150              	.LVL12:
  47:main.c        ****     mPWM_WritePeriod(cnt);
 151              		.loc 1 47 0
 152 001c 201C     		adds	r0, r4, #0
 153 001e FFF7FEFF 		bl	__aeabi_f2uiz
 154              	.LVL13:
 155 0022 FFF7FEFF 		bl	mPWM_WritePeriod
 156              	.LVL14:
  48:main.c        **** }
 157              		.loc 1 48 0
 158              		@ sp needed
 159              	.LVL15:
 160 0026 10BD     		pop	{r4, pc}
 161              	.L10:
 162              		.align	2
 163              	.L9:
 164 0028 00247449 		.word	1232348160
 165              		.cfi_endproc
 166              	.LFE36:
 167              		.size	sound, .-sound
 168              		.section	.text.scan,"ax",%progbits
 169              		.align	2
 170              		.global	scan
 171              		.code	16
 172              		.thumb_func
 173              		.type	scan, %function
 174              	scan:
 175              	.LFB34:
  31:main.c        ****     char c = -1;
 176              		.loc 1 31 0
 177              		.cfi_startproc
 178              		@ args = 0, pretend = 0, frame = 0
 179              		@ frame_needed = 0, uses_anonymous_args = 0
ARM GAS  C:\Users\PC\AppData\Local\Temp\ccFSAbKL.s 			page 5


 180 0000 10B5     		push	{r4, lr}
 181              		.cfi_def_cfa_offset 8
 182              		.cfi_offset 4, -8
 183              		.cfi_offset 14, -4
 184              	.LVL16:
  33:main.c        ****     c = ringBuff[ringGptr++];
 185              		.loc 1 33 0
 186 0002 084A     		ldr	r2, .L14
 187 0004 5368     		ldr	r3, [r2, #4]
 188 0006 1268     		ldr	r2, [r2]
 189 0008 9342     		cmp	r3, r2
 190 000a 09D0     		beq	.L13
  34:main.c        ****     ringGptr %= RXMAX;
 191              		.loc 1 34 0
 192 000c 581C     		adds	r0, r3, #1
 193 000e 064A     		ldr	r2, .L14+4
 194 0010 D45C     		ldrb	r4, [r2, r3]
 195              	.LVL17:
  35:main.c        ****     return c;
 196              		.loc 1 35 0
 197 0012 FF21     		movs	r1, #255
 198 0014 FFF7FEFF 		bl	__aeabi_idivmod
 199              	.LVL18:
 200 0018 024B     		ldr	r3, .L14
 201 001a 5960     		str	r1, [r3, #4]
  36:main.c        **** }
 202              		.loc 1 36 0
 203 001c 2000     		movs	r0, r4
 204 001e 00E0     		b	.L12
 205              	.LVL19:
 206              	.L13:
  33:main.c        ****     c = ringBuff[ringGptr++];
 207              		.loc 1 33 0
 208 0020 FF20     		movs	r0, #255
 209              	.LVL20:
 210              	.L12:
  37:main.c        **** 
 211              		.loc 1 37 0
 212              		@ sp needed
 213 0022 10BD     		pop	{r4, pc}
 214              	.L15:
 215              		.align	2
 216              	.L14:
 217 0024 00000000 		.word	.LANCHOR0
 218 0028 00000000 		.word	ringBuff
 219              		.cfi_endproc
 220              	.LFE34:
 221              		.size	scan, .-scan
 222              		.section	.text.publicSetUp,"ax",%progbits
 223              		.align	2
 224              		.global	publicSetUp
 225              		.code	16
 226              		.thumb_func
 227              		.type	publicSetUp, %function
 228              	publicSetUp:
 229              	.LFB37:
  49:main.c        **** 
ARM GAS  C:\Users\PC\AppData\Local\Temp\ccFSAbKL.s 			page 6


  50:main.c        **** typedef struct _System{
  51:main.c        ****     struct _IN{   
  52:main.c        ****         void (*scan)(char *);
  53:main.c        ****     }in;
  54:main.c        ****     struct _OUT{
  55:main.c        ****         void (*println)(String);
  56:main.c        ****         void (*sound)(float);
  57:main.c        ****     }out;
  58:main.c        **** }system;
  59:main.c        **** 
  60:main.c        **** void publicSetUp(system *System){
 230              		.loc 1 60 0
 231              		.cfi_startproc
 232              		@ args = 0, pretend = 0, frame = 0
 233              		@ frame_needed = 0, uses_anonymous_args = 0
 234              		@ link register save eliminated.
 235              	.LVL21:
  61:main.c        ****     System->out.println = println;
 236              		.loc 1 61 0
 237 0000 024B     		ldr	r3, .L17
 238 0002 4360     		str	r3, [r0, #4]
  62:main.c        ****     System->out.sound = sound;
 239              		.loc 1 62 0
 240 0004 024B     		ldr	r3, .L17+4
 241 0006 8360     		str	r3, [r0, #8]
  63:main.c        ****     //System->in.scan = scan;
  64:main.c        **** }
 242              		.loc 1 64 0
 243              		@ sp needed
 244 0008 7047     		bx	lr
 245              	.L18:
 246 000a C046     		.align	2
 247              	.L17:
 248 000c 00000000 		.word	println
 249 0010 00000000 		.word	sound
 250              		.cfi_endproc
 251              	.LFE37:
 252              		.size	publicSetUp, .-publicSetUp
 253              		.section	.text.main,"ax",%progbits
 254              		.align	2
 255              		.global	main
 256              		.code	16
 257              		.thumb_func
 258              		.type	main, %function
 259              	main:
 260              	.LFB38:
  65:main.c        **** 
  66:main.c        **** int main(void)
  67:main.c        **** {   
 261              		.loc 1 67 0
 262              		.cfi_startproc
 263              		@ args = 0, pretend = 0, frame = 48
 264              		@ frame_needed = 0, uses_anonymous_args = 0
 265 0000 10B5     		push	{r4, lr}
 266              		.cfi_def_cfa_offset 8
 267              		.cfi_offset 4, -8
 268              		.cfi_offset 14, -4
ARM GAS  C:\Users\PC\AppData\Local\Temp\ccFSAbKL.s 			page 7


 269 0002 8CB0     		sub	sp, sp, #48
 270              		.cfi_def_cfa_offset 56
 271              	.LVL22:
  68:main.c        ****     system System;
  69:main.c        ****     char c = -1;
  70:main.c        ****     float sheet[] = {261.63, 293.66, 329.63, 349.23, 392.00, 440.00, 493.88, 523.25};
 272              		.loc 1 70 0
 273 0004 01A9     		add	r1, sp, #4
 274 0006 2348     		ldr	r0, .L30
 275 0008 0B00     		movs	r3, r1
 276 000a 0200     		movs	r2, r0
 277 000c 13CA     		ldmia	r2!, {r0, r1, r4}
 278 000e 13C3     		stmia	r3!, {r0, r1, r4}
 279 0010 13CA     		ldmia	r2!, {r0, r1, r4}
 280 0012 13C3     		stmia	r3!, {r0, r1, r4}
 281 0014 03CA     		ldmia	r2!, {r0, r1}
 282 0016 03C3     		stmia	r3!, {r0, r1}
  71:main.c        ****     CyGlobalIntEnable; /* Enable global interrupts. */
 283              		.loc 1 71 0
 284              		.syntax divided
 285              	@ 71 "main.c" 1
 286 0018 62B6     		CPSIE   i
 287              	@ 0 "" 2
  72:main.c        ****     mUART_Start();
 288              		.loc 1 72 0
 289              		.thumb
 290              		.syntax unified
 291 001a FFF7FEFF 		bl	mUART_Start
 292              	.LVL23:
  73:main.c        ****     mUART_EnableInt();
 293              		.loc 1 73 0
 294 001e 0720     		movs	r0, #7
 295 0020 FFF7FEFF 		bl	CyIntEnable
 296              	.LVL24:
  74:main.c        ****     mUART_SetCustomInterruptHandler(*isrUart);
 297              		.loc 1 74 0
 298 0024 1C48     		ldr	r0, .L30+4
 299 0026 FFF7FEFF 		bl	mUART_SetCustomInterruptHandler
 300              	.LVL25:
  75:main.c        ****     mPWM_Start();
 301              		.loc 1 75 0
 302 002a FFF7FEFF 		bl	mPWM_Start
 303              	.LVL26:
  76:main.c        ****     
  77:main.c        ****     publicSetUp(&System);
 304              		.loc 1 77 0
 305 002e 09A8     		add	r0, sp, #36
 306 0030 FFF7FEFF 		bl	publicSetUp
 307              	.LVL27:
 308              	.L21:
  78:main.c        ****     /* Place your initialization/startup code here (e.g. MyInst_Start()) */
  79:main.c        **** 
  80:main.c        ****     for(;;)
  81:main.c        ****     {   
  82:main.c        ****         c = scan();
 309              		.loc 1 82 0
 310 0034 FFF7FEFF 		bl	scan
ARM GAS  C:\Users\PC\AppData\Local\Temp\ccFSAbKL.s 			page 8


 311              	.LVL28:
 312 0038 0400     		movs	r4, r0
 313              	.LVL29:
  83:main.c        ****         mUART_UartPutChar(c);
 314              		.loc 1 83 0
 315 003a FFF7FEFF 		bl	mUART_SpiUartWriteTxData
 316              	.LVL30:
  84:main.c        ****         System.out.sound(sheet[c == '1' ? 0 : c == '2' ? 1 : c == '3' ? 2 : c == '4' ? 3 : c == '5'
 317              		.loc 1 84 0
 318 003e 0B9A     		ldr	r2, [sp, #44]
 319 0040 312C     		cmp	r4, #49
 320 0042 0FD0     		beq	.L22
 321              		.loc 1 84 0 is_stmt 0 discriminator 1
 322 0044 322C     		cmp	r4, #50
 323 0046 0FD0     		beq	.L23
 324              		.loc 1 84 0 discriminator 3
 325 0048 332C     		cmp	r4, #51
 326 004a 0FD0     		beq	.L24
 327              		.loc 1 84 0 discriminator 5
 328 004c 342C     		cmp	r4, #52
 329 004e 0FD0     		beq	.L25
 330              		.loc 1 84 0 discriminator 7
 331 0050 352C     		cmp	r4, #53
 332 0052 0FD0     		beq	.L26
 333              		.loc 1 84 0 discriminator 9
 334 0054 362C     		cmp	r4, #54
 335 0056 0FD0     		beq	.L27
 336              		.loc 1 84 0 discriminator 11
 337 0058 372C     		cmp	r4, #55
 338 005a 0FD0     		beq	.L28
 339              		.loc 1 84 0 discriminator 13
 340 005c 382C     		cmp	r4, #56
 341 005e 0FD1     		bne	.L29
 342              		.loc 1 84 0
 343 0060 0723     		movs	r3, #7
 344 0062 0FE0     		b	.L20
 345              	.L22:
 346 0064 0023     		movs	r3, #0
 347 0066 0DE0     		b	.L20
 348              	.L23:
 349 0068 0123     		movs	r3, #1
 350 006a 0BE0     		b	.L20
 351              	.L24:
 352 006c 0223     		movs	r3, #2
 353 006e 09E0     		b	.L20
 354              	.L25:
 355 0070 0323     		movs	r3, #3
 356 0072 07E0     		b	.L20
 357              	.L26:
 358 0074 0423     		movs	r3, #4
 359 0076 05E0     		b	.L20
 360              	.L27:
 361 0078 0523     		movs	r3, #5
 362 007a 03E0     		b	.L20
 363              	.L28:
 364 007c 0623     		movs	r3, #6
 365 007e 01E0     		b	.L20
ARM GAS  C:\Users\PC\AppData\Local\Temp\ccFSAbKL.s 			page 9


 366              	.L29:
 367 0080 0123     		movs	r3, #1
 368 0082 5B42     		rsbs	r3, r3, #0
 369              	.L20:
 370              		.loc 1 84 0 discriminator 32
 371 0084 9B00     		lsls	r3, r3, #2
 372 0086 01A9     		add	r1, sp, #4
 373 0088 5858     		ldr	r0, [r3, r1]
 374 008a 9047     		blx	r2
 375              	.LVL31:
  85:main.c        ****         CyDelay(100);
 376              		.loc 1 85 0 is_stmt 1 discriminator 32
 377 008c 6420     		movs	r0, #100
 378 008e FFF7FEFF 		bl	CyDelay
 379              	.LVL32:
  86:main.c        ****         /* Place your application code here. */
  87:main.c        ****        
  88:main.c        ****     }
 380              		.loc 1 88 0 discriminator 32
 381 0092 CFE7     		b	.L21
 382              	.L31:
 383              		.align	2
 384              	.L30:
 385 0094 00000000 		.word	.LANCHOR1
 386 0098 00000000 		.word	isrUart
 387              		.cfi_endproc
 388              	.LFE38:
 389              		.size	main, .-main
 390              		.global	ringGptr
 391              		.global	ringPptr
 392              		.comm	ringBuff,255,4
 393              		.section	.rodata
 394              		.align	2
 395              		.set	.LANCHOR1,. + 0
 396              	.LC0:
 397 0000 A4D08243 		.word	1132646564
 398 0004 7BD49243 		.word	1133696123
 399 0008 A4D0A443 		.word	1134874788
 400 000c 719DAE43 		.word	1135517041
 401 0010 0000C443 		.word	1136918528
 402 0014 0000DC43 		.word	1138491392
 403 0018 A4F0F643 		.word	1140256932
 404 001c 00D00244 		.word	1141035008
 405              		.section	.rodata.str1.4,"aMS",%progbits,1
 406              		.align	2
 407              	.LC3:
 408 0000 0A00     		.ascii	"\012\000"
 409              		.bss
 410              		.align	2
 411              		.set	.LANCHOR0,. + 0
 412              		.type	ringPptr, %object
 413              		.size	ringPptr, 4
 414              	ringPptr:
 415 0000 00000000 		.space	4
 416              		.type	ringGptr, %object
 417              		.size	ringGptr, 4
 418              	ringGptr:
ARM GAS  C:\Users\PC\AppData\Local\Temp\ccFSAbKL.s 			page 10


 419 0004 00000000 		.space	4
 420              		.text
 421              	.Letext0:
 422              		.file 2 "Generated_Source\\PSoC4/cytypes.h"
 423              		.file 3 "Generated_Source\\PSoC4/mUART_SPI_UART.h"
 424              		.file 4 "Generated_Source\\PSoC4/CyLib.h"
 425              		.file 5 "Generated_Source\\PSoC4/mPWM.h"
 426              		.file 6 "Generated_Source\\PSoC4/mUART.h"