ARM GAS  C:\Users\PC\AppData\Local\Temp\ccTEN2S7.s 			page 1


   1              		.syntax unified
   2              		.cpu cortex-m0plus
   3              		.fpu softvfp
   4              		.eabi_attribute 20, 1
   5              		.eabi_attribute 21, 1
   6              		.eabi_attribute 23, 3
   7              		.eabi_attribute 24, 1
   8              		.eabi_attribute 25, 1
   9              		.eabi_attribute 26, 1
  10              		.eabi_attribute 30, 4
  11              		.eabi_attribute 34, 0
  12              		.eabi_attribute 18, 4
  13              		.thumb
  14              		.syntax unified
  15              		.file	"main.c"
  16              		.text
  17              	.Ltext0:
  18              		.cfi_sections	.debug_frame
  19              		.section	.text.println,"ax",%progbits
  20              		.align	1
  21              		.global	println
  22              		.code	16
  23              		.thumb_func
  24              		.type	println, %function
  25              	println:
  26              	.LFB33:
  27              		.file 1 "main.c"
   1:main.c        **** /* ========================================
   2:main.c        ****  *
   3:main.c        ****  * Copyright YOUR COMPANY, THE YEAR
   4:main.c        ****  * All Rights Reserved
   5:main.c        ****  * UNPUBLISHED, LICENSED SOFTWARE.
   6:main.c        ****  *
   7:main.c        ****  * CONFIDENTIAL AND PROPRIETARY INFORMATION
   8:main.c        ****  * WHICH IS THE PROPERTY OF your company.
   9:main.c        ****  *
  10:main.c        ****  * ========================================
  11:main.c        **** */
  12:main.c        **** #include "project.h"
  13:main.c        **** 
  14:main.c        **** typedef char *String;
  15:main.c        **** 
  16:main.c        **** void println(String str){
  28              		.loc 1 16 0
  29              		.cfi_startproc
  30              		@ args = 0, pretend = 0, frame = 0
  31              		@ frame_needed = 0, uses_anonymous_args = 0
  32              	.LVL0:
  33 0000 10B5     		push	{r4, lr}
  34              		.cfi_def_cfa_offset 8
  35              		.cfi_offset 4, -8
  36              		.cfi_offset 14, -4
  17:main.c        ****     mUART_UartPutString(str);
  37              		.loc 1 17 0
  38 0002 FFF7FEFF 		bl	mUART_UartPutString
  39              	.LVL1:
  18:main.c        ****     mUART_UartPutString("\n");
ARM GAS  C:\Users\PC\AppData\Local\Temp\ccTEN2S7.s 			page 2


  40              		.loc 1 18 0
  41 0006 0248     		ldr	r0, .L2
  42 0008 FFF7FEFF 		bl	mUART_UartPutString
  43              	.LVL2:
  19:main.c        **** }
  44              		.loc 1 19 0
  45              		@ sp needed
  46 000c 10BD     		pop	{r4, pc}
  47              	.L3:
  48 000e C046     		.align	2
  49              	.L2:
  50 0010 00000000 		.word	.LC0
  51              		.cfi_endproc
  52              	.LFE33:
  53              		.size	println, .-println
  54              		.section	.text.publicSetUp,"ax",%progbits
  55              		.align	1
  56              		.global	publicSetUp
  57              		.code	16
  58              		.thumb_func
  59              		.type	publicSetUp, %function
  60              	publicSetUp:
  61              	.LFB34:
  20:main.c        **** 
  21:main.c        **** typedef struct _System{
  22:main.c        ****     struct _IN{   
  23:main.c        ****     
  24:main.c        ****     }in;
  25:main.c        ****     struct _OUT{
  26:main.c        ****         void (*println)(String);
  27:main.c        ****     }out;
  28:main.c        **** }system;
  29:main.c        **** 
  30:main.c        **** void publicSetUp(system *System){
  62              		.loc 1 30 0
  63              		.cfi_startproc
  64              		@ args = 0, pretend = 0, frame = 0
  65              		@ frame_needed = 0, uses_anonymous_args = 0
  66              		@ link register save eliminated.
  67              	.LVL3:
  31:main.c        ****     System->out.println = println;
  68              		.loc 1 31 0
  69 0000 014B     		ldr	r3, .L5
  32:main.c        **** }
  70              		.loc 1 32 0
  71              		@ sp needed
  31:main.c        ****     System->out.println = println;
  72              		.loc 1 31 0
  73 0002 0360     		str	r3, [r0]
  74              		.loc 1 32 0
  75 0004 7047     		bx	lr
  76              	.L6:
  77 0006 C046     		.align	2
  78              	.L5:
  79 0008 00000000 		.word	println
  80              		.cfi_endproc
  81              	.LFE34:
ARM GAS  C:\Users\PC\AppData\Local\Temp\ccTEN2S7.s 			page 3


  82              		.size	publicSetUp, .-publicSetUp
  83              		.section	.text.startup.main,"ax",%progbits
  84              		.align	1
  85              		.global	main
  86              		.code	16
  87              		.thumb_func
  88              		.type	main, %function
  89              	main:
  90              	.LFB35:
  33:main.c        **** 
  34:main.c        **** 
  35:main.c        **** int main(void)
  36:main.c        **** {   
  91              		.loc 1 36 0
  92              		.cfi_startproc
  93              		@ args = 0, pretend = 0, frame = 0
  94              		@ frame_needed = 0, uses_anonymous_args = 0
  95 0000 10B5     		push	{r4, lr}
  96              		.cfi_def_cfa_offset 8
  97              		.cfi_offset 4, -8
  98              		.cfi_offset 14, -4
  37:main.c        ****     system System;
  38:main.c        ****     CyGlobalIntEnable; /* Enable global interrupts. */
  99              		.loc 1 38 0
 100              		.syntax divided
 101              	@ 38 "main.c" 1
 102 0002 62B6     		CPSIE   i
 103              	@ 0 "" 2
  39:main.c        ****     mUART_Start();
 104              		.loc 1 39 0
 105              		.thumb
 106              		.syntax unified
 107 0004 FFF7FEFF 		bl	mUART_Start
 108              	.LVL4:
  40:main.c        ****     mPWM_Start();
 109              		.loc 1 40 0
 110 0008 FFF7FEFF 		bl	mPWM_Start
 111              	.LVL5:
 112              	.L8:
 113 000c FEE7     		b	.L8
 114              		.cfi_endproc
 115              	.LFE35:
 116              		.size	main, .-main
 117              		.section	.rodata.str1.1,"aMS",%progbits,1
 118              	.LC0:
 119 0000 0A00     		.ascii	"\012\000"
 120              		.text
 121              	.Letext0:
 122              		.file 2 "Generated_Source\\PSoC4/mUART_SPI_UART.h"
 123              		.file 3 "Generated_Source\\PSoC4/mUART.h"
 124              		.file 4 "Generated_Source\\PSoC4/mPWM.h"