ARM GAS  C:\Users\PC\AppData\Local\Temp\ccInAIXx.s 			page 1


   1              		.syntax unified
   2              		.cpu cortex-m0plus
   3              		.fpu softvfp
   4              		.eabi_attribute 20, 1
   5              		.eabi_attribute 21, 1
   6              		.eabi_attribute 23, 3
   7              		.eabi_attribute 24, 1
   8              		.eabi_attribute 25, 1
   9              		.eabi_attribute 26, 1
  10              		.eabi_attribute 30, 4
  11              		.eabi_attribute 34, 0
  12              		.eabi_attribute 18, 4
  13              		.thumb
  14              		.syntax unified
  15              		.file	"PWM_1_PM.c"
  16              		.text
  17              	.Ltext0:
  18              		.cfi_sections	.debug_frame
  19              		.section	.text.PWM_1_SaveConfig,"ax",%progbits
  20              		.align	1
  21              		.global	PWM_1_SaveConfig
  22              		.code	16
  23              		.thumb_func
  24              		.type	PWM_1_SaveConfig, %function
  25              	PWM_1_SaveConfig:
  26              	.LFB6:
  27              		.cfi_startproc
  28              		@ args = 0, pretend = 0, frame = 0
  29              		@ frame_needed = 0, uses_anonymous_args = 0
  30              		@ link register save eliminated.
  31              		@ sp needed
  32 0000 7047     		bx	lr
  33              		.cfi_endproc
  34              	.LFE6:
  35              		.size	PWM_1_SaveConfig, .-PWM_1_SaveConfig
  36              		.section	.text.PWM_1_Sleep,"ax",%progbits
  37              		.align	1
  38              		.global	PWM_1_Sleep
  39              		.code	16
  40              		.thumb_func
  41              		.type	PWM_1_Sleep, %function
  42              	PWM_1_Sleep:
  43              	.LFB2:
  44              		.file 1 "Generated_Source\\PSoC4\\PWM_1_PM.c"
   1:Generated_Source\PSoC4/PWM_1_PM.c **** /*******************************************************************************
   2:Generated_Source\PSoC4/PWM_1_PM.c **** * File Name: PWM_1_PM.c
   3:Generated_Source\PSoC4/PWM_1_PM.c **** * Version 2.10
   4:Generated_Source\PSoC4/PWM_1_PM.c **** *
   5:Generated_Source\PSoC4/PWM_1_PM.c **** * Description:
   6:Generated_Source\PSoC4/PWM_1_PM.c **** *  This file contains the setup, control, and status commands to support
   7:Generated_Source\PSoC4/PWM_1_PM.c **** *  the component operations in the low power mode.
   8:Generated_Source\PSoC4/PWM_1_PM.c **** *
   9:Generated_Source\PSoC4/PWM_1_PM.c **** * Note:
  10:Generated_Source\PSoC4/PWM_1_PM.c **** *  None
  11:Generated_Source\PSoC4/PWM_1_PM.c **** *
  12:Generated_Source\PSoC4/PWM_1_PM.c **** ********************************************************************************
  13:Generated_Source\PSoC4/PWM_1_PM.c **** * Copyright 2013-2015, Cypress Semiconductor Corporation.  All rights reserved.
ARM GAS  C:\Users\PC\AppData\Local\Temp\ccInAIXx.s 			page 2


  14:Generated_Source\PSoC4/PWM_1_PM.c **** * You may use this file only in accordance with the license, terms, conditions,
  15:Generated_Source\PSoC4/PWM_1_PM.c **** * disclaimers, and limitations in the end user license agreement accompanying
  16:Generated_Source\PSoC4/PWM_1_PM.c **** * the software package with which this file was provided.
  17:Generated_Source\PSoC4/PWM_1_PM.c **** *******************************************************************************/
  18:Generated_Source\PSoC4/PWM_1_PM.c **** 
  19:Generated_Source\PSoC4/PWM_1_PM.c **** #include "PWM_1.h"
  20:Generated_Source\PSoC4/PWM_1_PM.c **** 
  21:Generated_Source\PSoC4/PWM_1_PM.c **** static PWM_1_BACKUP_STRUCT PWM_1_backup;
  22:Generated_Source\PSoC4/PWM_1_PM.c **** 
  23:Generated_Source\PSoC4/PWM_1_PM.c **** 
  24:Generated_Source\PSoC4/PWM_1_PM.c **** /*******************************************************************************
  25:Generated_Source\PSoC4/PWM_1_PM.c **** * Function Name: PWM_1_SaveConfig
  26:Generated_Source\PSoC4/PWM_1_PM.c **** ********************************************************************************
  27:Generated_Source\PSoC4/PWM_1_PM.c **** *
  28:Generated_Source\PSoC4/PWM_1_PM.c **** * Summary:
  29:Generated_Source\PSoC4/PWM_1_PM.c **** *  All configuration registers are retention. Nothing to save here.
  30:Generated_Source\PSoC4/PWM_1_PM.c **** *
  31:Generated_Source\PSoC4/PWM_1_PM.c **** * Parameters:
  32:Generated_Source\PSoC4/PWM_1_PM.c **** *  None
  33:Generated_Source\PSoC4/PWM_1_PM.c **** *
  34:Generated_Source\PSoC4/PWM_1_PM.c **** * Return:
  35:Generated_Source\PSoC4/PWM_1_PM.c **** *  None
  36:Generated_Source\PSoC4/PWM_1_PM.c **** *
  37:Generated_Source\PSoC4/PWM_1_PM.c **** *******************************************************************************/
  38:Generated_Source\PSoC4/PWM_1_PM.c **** void PWM_1_SaveConfig(void)
  39:Generated_Source\PSoC4/PWM_1_PM.c **** {
  40:Generated_Source\PSoC4/PWM_1_PM.c **** 
  41:Generated_Source\PSoC4/PWM_1_PM.c **** }
  42:Generated_Source\PSoC4/PWM_1_PM.c **** 
  43:Generated_Source\PSoC4/PWM_1_PM.c **** 
  44:Generated_Source\PSoC4/PWM_1_PM.c **** /*******************************************************************************
  45:Generated_Source\PSoC4/PWM_1_PM.c **** * Function Name: PWM_1_Sleep
  46:Generated_Source\PSoC4/PWM_1_PM.c **** ********************************************************************************
  47:Generated_Source\PSoC4/PWM_1_PM.c **** *
  48:Generated_Source\PSoC4/PWM_1_PM.c **** * Summary:
  49:Generated_Source\PSoC4/PWM_1_PM.c **** *  Stops the component operation and saves the user configuration.
  50:Generated_Source\PSoC4/PWM_1_PM.c **** *
  51:Generated_Source\PSoC4/PWM_1_PM.c **** * Parameters:
  52:Generated_Source\PSoC4/PWM_1_PM.c **** *  None
  53:Generated_Source\PSoC4/PWM_1_PM.c **** *
  54:Generated_Source\PSoC4/PWM_1_PM.c **** * Return:
  55:Generated_Source\PSoC4/PWM_1_PM.c **** *  None
  56:Generated_Source\PSoC4/PWM_1_PM.c **** *
  57:Generated_Source\PSoC4/PWM_1_PM.c **** *******************************************************************************/
  58:Generated_Source\PSoC4/PWM_1_PM.c **** void PWM_1_Sleep(void)
  59:Generated_Source\PSoC4/PWM_1_PM.c **** {
  45              		.loc 1 59 0
  46              		.cfi_startproc
  47              		@ args = 0, pretend = 0, frame = 0
  48              		@ frame_needed = 0, uses_anonymous_args = 0
  60:Generated_Source\PSoC4/PWM_1_PM.c ****     if(0u != (PWM_1_BLOCK_CONTROL_REG & PWM_1_MASK))
  49              		.loc 1 60 0
  50 0000 054B     		ldr	r3, .L6
  59:Generated_Source\PSoC4/PWM_1_PM.c ****     if(0u != (PWM_1_BLOCK_CONTROL_REG & PWM_1_MASK))
  51              		.loc 1 59 0
  52 0002 10B5     		push	{r4, lr}
  53              		.cfi_def_cfa_offset 8
ARM GAS  C:\Users\PC\AppData\Local\Temp\ccInAIXx.s 			page 3


  54              		.cfi_offset 4, -8
  55              		.cfi_offset 14, -4
  56              		.loc 1 60 0
  57 0004 1A68     		ldr	r2, [r3]
  58 0006 1023     		movs	r3, #16
  59 0008 1340     		ands	r3, r2
  60 000a 044A     		ldr	r2, .L6+4
  61 000c 00D0     		beq	.L3
  61:Generated_Source\PSoC4/PWM_1_PM.c ****     {
  62:Generated_Source\PSoC4/PWM_1_PM.c ****         PWM_1_backup.enableState = 1u;
  62              		.loc 1 62 0
  63 000e 0123     		movs	r3, #1
  64              	.L3:
  63:Generated_Source\PSoC4/PWM_1_PM.c ****     }
  64:Generated_Source\PSoC4/PWM_1_PM.c ****     else
  65:Generated_Source\PSoC4/PWM_1_PM.c ****     {
  66:Generated_Source\PSoC4/PWM_1_PM.c ****         PWM_1_backup.enableState = 0u;
  65              		.loc 1 66 0
  66 0010 1370     		strb	r3, [r2]
  67:Generated_Source\PSoC4/PWM_1_PM.c ****     }
  68:Generated_Source\PSoC4/PWM_1_PM.c **** 
  69:Generated_Source\PSoC4/PWM_1_PM.c ****     PWM_1_Stop();
  70:Generated_Source\PSoC4/PWM_1_PM.c ****     PWM_1_SaveConfig();
  71:Generated_Source\PSoC4/PWM_1_PM.c **** }
  67              		.loc 1 71 0
  68              		@ sp needed
  69:Generated_Source\PSoC4/PWM_1_PM.c ****     PWM_1_SaveConfig();
  69              		.loc 1 69 0
  70 0012 FFF7FEFF 		bl	PWM_1_Stop
  71              	.LVL0:
  72              		.loc 1 71 0
  73 0016 10BD     		pop	{r4, pc}
  74              	.L7:
  75              		.align	2
  76              	.L6:
  77 0018 00000640 		.word	1074135040
  78 001c 00000000 		.word	.LANCHOR0
  79              		.cfi_endproc
  80              	.LFE2:
  81              		.size	PWM_1_Sleep, .-PWM_1_Sleep
  82              		.section	.text.PWM_1_RestoreConfig,"ax",%progbits
  83              		.align	1
  84              		.global	PWM_1_RestoreConfig
  85              		.code	16
  86              		.thumb_func
  87              		.type	PWM_1_RestoreConfig, %function
  88              	PWM_1_RestoreConfig:
  89              	.LFB3:
  72:Generated_Source\PSoC4/PWM_1_PM.c **** 
  73:Generated_Source\PSoC4/PWM_1_PM.c **** 
  74:Generated_Source\PSoC4/PWM_1_PM.c **** /*******************************************************************************
  75:Generated_Source\PSoC4/PWM_1_PM.c **** * Function Name: PWM_1_RestoreConfig
  76:Generated_Source\PSoC4/PWM_1_PM.c **** ********************************************************************************
  77:Generated_Source\PSoC4/PWM_1_PM.c **** *
  78:Generated_Source\PSoC4/PWM_1_PM.c **** * Summary:
  79:Generated_Source\PSoC4/PWM_1_PM.c **** *  All configuration registers are retention. Nothing to restore here.
  80:Generated_Source\PSoC4/PWM_1_PM.c **** *
ARM GAS  C:\Users\PC\AppData\Local\Temp\ccInAIXx.s 			page 4


  81:Generated_Source\PSoC4/PWM_1_PM.c **** * Parameters:
  82:Generated_Source\PSoC4/PWM_1_PM.c **** *  None
  83:Generated_Source\PSoC4/PWM_1_PM.c **** *
  84:Generated_Source\PSoC4/PWM_1_PM.c **** * Return:
  85:Generated_Source\PSoC4/PWM_1_PM.c **** *  None
  86:Generated_Source\PSoC4/PWM_1_PM.c **** *
  87:Generated_Source\PSoC4/PWM_1_PM.c **** *******************************************************************************/
  88:Generated_Source\PSoC4/PWM_1_PM.c **** void PWM_1_RestoreConfig(void)
  89:Generated_Source\PSoC4/PWM_1_PM.c **** {
  90              		.loc 1 89 0
  91              		.cfi_startproc
  92              		@ args = 0, pretend = 0, frame = 0
  93              		@ frame_needed = 0, uses_anonymous_args = 0
  94              		@ link register save eliminated.
  90:Generated_Source\PSoC4/PWM_1_PM.c **** 
  91:Generated_Source\PSoC4/PWM_1_PM.c **** }
  95              		.loc 1 91 0
  96              		@ sp needed
  97 0000 7047     		bx	lr
  98              		.cfi_endproc
  99              	.LFE3:
 100              		.size	PWM_1_RestoreConfig, .-PWM_1_RestoreConfig
 101              		.section	.text.PWM_1_Wakeup,"ax",%progbits
 102              		.align	1
 103              		.global	PWM_1_Wakeup
 104              		.code	16
 105              		.thumb_func
 106              		.type	PWM_1_Wakeup, %function
 107              	PWM_1_Wakeup:
 108              	.LFB4:
  92:Generated_Source\PSoC4/PWM_1_PM.c **** 
  93:Generated_Source\PSoC4/PWM_1_PM.c **** 
  94:Generated_Source\PSoC4/PWM_1_PM.c **** /*******************************************************************************
  95:Generated_Source\PSoC4/PWM_1_PM.c **** * Function Name: PWM_1_Wakeup
  96:Generated_Source\PSoC4/PWM_1_PM.c **** ********************************************************************************
  97:Generated_Source\PSoC4/PWM_1_PM.c **** *
  98:Generated_Source\PSoC4/PWM_1_PM.c **** * Summary:
  99:Generated_Source\PSoC4/PWM_1_PM.c **** *  Restores the user configuration and restores the enable state.
 100:Generated_Source\PSoC4/PWM_1_PM.c **** *
 101:Generated_Source\PSoC4/PWM_1_PM.c **** * Parameters:
 102:Generated_Source\PSoC4/PWM_1_PM.c **** *  None
 103:Generated_Source\PSoC4/PWM_1_PM.c **** *
 104:Generated_Source\PSoC4/PWM_1_PM.c **** * Return:
 105:Generated_Source\PSoC4/PWM_1_PM.c **** *  None
 106:Generated_Source\PSoC4/PWM_1_PM.c **** *
 107:Generated_Source\PSoC4/PWM_1_PM.c **** *******************************************************************************/
 108:Generated_Source\PSoC4/PWM_1_PM.c **** void PWM_1_Wakeup(void)
 109:Generated_Source\PSoC4/PWM_1_PM.c **** {
 109              		.loc 1 109 0
 110              		.cfi_startproc
 111              		@ args = 0, pretend = 0, frame = 0
 112              		@ frame_needed = 0, uses_anonymous_args = 0
 113 0000 10B5     		push	{r4, lr}
 114              		.cfi_def_cfa_offset 8
 115              		.cfi_offset 4, -8
 116              		.cfi_offset 14, -4
 110:Generated_Source\PSoC4/PWM_1_PM.c ****     PWM_1_RestoreConfig();
ARM GAS  C:\Users\PC\AppData\Local\Temp\ccInAIXx.s 			page 5


 111:Generated_Source\PSoC4/PWM_1_PM.c **** 
 112:Generated_Source\PSoC4/PWM_1_PM.c ****     if(0u != PWM_1_backup.enableState)
 117              		.loc 1 112 0
 118 0002 034B     		ldr	r3, .L14
 119 0004 1B78     		ldrb	r3, [r3]
 120 0006 002B     		cmp	r3, #0
 121 0008 01D0     		beq	.L9
 113:Generated_Source\PSoC4/PWM_1_PM.c ****     {
 114:Generated_Source\PSoC4/PWM_1_PM.c ****         PWM_1_Enable();
 122              		.loc 1 114 0
 123 000a FFF7FEFF 		bl	PWM_1_Enable
 124              	.LVL1:
 125              	.L9:
 115:Generated_Source\PSoC4/PWM_1_PM.c ****     }
 116:Generated_Source\PSoC4/PWM_1_PM.c **** }
 126              		.loc 1 116 0
 127              		@ sp needed
 128 000e 10BD     		pop	{r4, pc}
 129              	.L15:
 130              		.align	2
 131              	.L14:
 132 0010 00000000 		.word	.LANCHOR0
 133              		.cfi_endproc
 134              	.LFE4:
 135              		.size	PWM_1_Wakeup, .-PWM_1_Wakeup
 136              		.bss
 137              		.set	.LANCHOR0,. + 0
 138              		.type	PWM_1_backup, %object
 139              		.size	PWM_1_backup, 1
 140              	PWM_1_backup:
 141 0000 00       		.space	1
 142              		.text
 143              	.Letext0:
 144              		.file 2 "Generated_Source\\PSoC4\\cytypes.h"
 145              		.file 3 "Generated_Source\\PSoC4\\PWM_1.h"