ARM GAS  C:\Users\PC\AppData\Local\Temp\ccNJoPe4.s 			page 1


   1              		.syntax unified
   2              		.cpu cortex-m0plus
   3              		.fpu softvfp
   4              		.eabi_attribute 20, 1
   5              		.eabi_attribute 21, 1
   6              		.eabi_attribute 23, 3
   7              		.eabi_attribute 24, 1
   8              		.eabi_attribute 25, 1
   9              		.eabi_attribute 26, 1
  10              		.eabi_attribute 30, 1
  11              		.eabi_attribute 34, 0
  12              		.eabi_attribute 18, 4
  13              		.thumb
  14              		.syntax unified
  15              		.file	"mADC_Adc.c"
  16              		.text
  17              	.Ltext0:
  18              		.cfi_sections	.debug_frame
  19              		.section	.text.mADC_Sleep,"ax",%progbits
  20              		.align	2
  21              		.global	mADC_Sleep
  22              		.code	16
  23              		.thumb_func
  24              		.type	mADC_Sleep, %function
  25              	mADC_Sleep:
  26              	.LFB2:
  27              		.file 1 "Generated_Source\\PSoC4\\mADC_Adc.c"
   1:Generated_Source\PSoC4/mADC_Adc.c **** /***************************************************************************//**
   2:Generated_Source\PSoC4/mADC_Adc.c **** * \file mADC_Adc.c
   3:Generated_Source\PSoC4/mADC_Adc.c **** * \version 7.0
   4:Generated_Source\PSoC4/mADC_Adc.c **** *
   5:Generated_Source\PSoC4/mADC_Adc.c **** * \brief
   6:Generated_Source\PSoC4/mADC_Adc.c **** *   This file provides implementation for the ADC module of the mADC
   7:Generated_Source\PSoC4/mADC_Adc.c **** *   Component.
   8:Generated_Source\PSoC4/mADC_Adc.c **** *
   9:Generated_Source\PSoC4/mADC_Adc.c **** * \see mADC v7.0 Datasheet
  10:Generated_Source\PSoC4/mADC_Adc.c **** *
  11:Generated_Source\PSoC4/mADC_Adc.c **** *//*****************************************************************************
  12:Generated_Source\PSoC4/mADC_Adc.c **** * Copyright (2016-2019), Cypress Semiconductor Corporation.
  13:Generated_Source\PSoC4/mADC_Adc.c **** ********************************************************************************
  14:Generated_Source\PSoC4/mADC_Adc.c **** * This software is owned by Cypress Semiconductor Corporation (Cypress) and is
  15:Generated_Source\PSoC4/mADC_Adc.c **** * protected by and subject to worldwide patent protection (United States and
  16:Generated_Source\PSoC4/mADC_Adc.c **** * foreign), United States copyright laws and international treaty provisions.
  17:Generated_Source\PSoC4/mADC_Adc.c **** * Cypress hereby grants to licensee a personal, non-exclusive, non-transferable
  18:Generated_Source\PSoC4/mADC_Adc.c **** * license to copy, use, modify, create derivative works of, and compile the
  19:Generated_Source\PSoC4/mADC_Adc.c **** * Cypress Source Code and derivative works for the sole purpose of creating
  20:Generated_Source\PSoC4/mADC_Adc.c **** * custom software in support of licensee product to be used only in conjunction
  21:Generated_Source\PSoC4/mADC_Adc.c **** * with a Cypress integrated circuit as specified in the applicable agreement.
  22:Generated_Source\PSoC4/mADC_Adc.c **** * Any reproduction, modification, translation, compilation, or representation of
  23:Generated_Source\PSoC4/mADC_Adc.c **** * this software except as specified above is prohibited without the express
  24:Generated_Source\PSoC4/mADC_Adc.c **** * written permission of Cypress.
  25:Generated_Source\PSoC4/mADC_Adc.c **** *
  26:Generated_Source\PSoC4/mADC_Adc.c **** * Disclaimer: CYPRESS MAKES NO WARRANTY OF ANY KIND, EXPRESS OR IMPLIED, WITH
  27:Generated_Source\PSoC4/mADC_Adc.c **** * REGARD TO THIS MATERIAL, INCLUDING, BUT NOT LIMITED TO, THE IMPLIED
  28:Generated_Source\PSoC4/mADC_Adc.c **** * WARRANTIES OF MERCHANTABILITY AND FITNESS FOR A PARTICULAR PURPOSE.
  29:Generated_Source\PSoC4/mADC_Adc.c **** * Cypress reserves the right to make changes without further notice to the
  30:Generated_Source\PSoC4/mADC_Adc.c **** * materials described herein. Cypress does not assume any liability arising out
ARM GAS  C:\Users\PC\AppData\Local\Temp\ccNJoPe4.s 			page 2


  31:Generated_Source\PSoC4/mADC_Adc.c **** * of the application or use of any product or circuit described herein. Cypress
  32:Generated_Source\PSoC4/mADC_Adc.c **** * does not authorize its products for use as critical components in life-support
  33:Generated_Source\PSoC4/mADC_Adc.c **** * systems where a malfunction or failure may reasonably be expected to result in
  34:Generated_Source\PSoC4/mADC_Adc.c **** * significant injury to the user. The inclusion of Cypress' product in a life-
  35:Generated_Source\PSoC4/mADC_Adc.c **** * support systems application implies that the manufacturer assumes all risk of
  36:Generated_Source\PSoC4/mADC_Adc.c **** * such use and in doing so indemnifies Cypress against all charges. Use may be
  37:Generated_Source\PSoC4/mADC_Adc.c **** * limited by and subject to the applicable Cypress software license agreement.
  38:Generated_Source\PSoC4/mADC_Adc.c **** *******************************************************************************/
  39:Generated_Source\PSoC4/mADC_Adc.c **** #include <cytypes.h>
  40:Generated_Source\PSoC4/mADC_Adc.c **** #include "CyLib.h"
  41:Generated_Source\PSoC4/mADC_Adc.c **** #include "mADC_ISR.h"
  42:Generated_Source\PSoC4/mADC_Adc.c **** #include "mADC_Configuration.h"
  43:Generated_Source\PSoC4/mADC_Adc.c **** #include "mADC_Structure.h"
  44:Generated_Source\PSoC4/mADC_Adc.c **** #include "mADC_Adc.h"
  45:Generated_Source\PSoC4/mADC_Adc.c **** #include "mADC_Sensing.h"
  46:Generated_Source\PSoC4/mADC_Adc.c **** #if (mADC_ENABLE == mADC_SELF_TEST_EN)
  47:Generated_Source\PSoC4/mADC_Adc.c ****     #include "mADC_SelfTest.h"
  48:Generated_Source\PSoC4/mADC_Adc.c **** #endif
  49:Generated_Source\PSoC4/mADC_Adc.c **** 
  50:Generated_Source\PSoC4/mADC_Adc.c **** #if (mADC_ADC_EN)
  51:Generated_Source\PSoC4/mADC_Adc.c **** 
  52:Generated_Source\PSoC4/mADC_Adc.c **** static uint8 mADC_initVar;
  53:Generated_Source\PSoC4/mADC_Adc.c **** uint16 mADC_adcVrefMv = mADC_ADC_VREF_MV;
  54:Generated_Source\PSoC4/mADC_Adc.c **** 
  55:Generated_Source\PSoC4/mADC_Adc.c **** 
  56:Generated_Source\PSoC4/mADC_Adc.c **** /*******************************************************************************
  57:Generated_Source\PSoC4/mADC_Adc.c **** * Module local function declarations
  58:Generated_Source\PSoC4/mADC_Adc.c **** *******************************************************************************/
  59:Generated_Source\PSoC4/mADC_Adc.c **** /**
  60:Generated_Source\PSoC4/mADC_Adc.c **** * \cond SECTION_ADC_INTERNAL
  61:Generated_Source\PSoC4/mADC_Adc.c **** * \addtogroup group_adc_internal
  62:Generated_Source\PSoC4/mADC_Adc.c **** * \{
  63:Generated_Source\PSoC4/mADC_Adc.c **** */
  64:Generated_Source\PSoC4/mADC_Adc.c **** 
  65:Generated_Source\PSoC4/mADC_Adc.c **** void mADC_SetModClkClockDivider(uint32 modClk);
  66:Generated_Source\PSoC4/mADC_Adc.c **** 
  67:Generated_Source\PSoC4/mADC_Adc.c **** /** \}
  68:Generated_Source\PSoC4/mADC_Adc.c **** * \endcond */
  69:Generated_Source\PSoC4/mADC_Adc.c **** 
  70:Generated_Source\PSoC4/mADC_Adc.c **** /*******************************************************************************
  71:Generated_Source\PSoC4/mADC_Adc.c **** * Local definition
  72:Generated_Source\PSoC4/mADC_Adc.c **** *******************************************************************************/
  73:Generated_Source\PSoC4/mADC_Adc.c **** #define mADC_INIT_DONE                    (1u)
  74:Generated_Source\PSoC4/mADC_Adc.c **** #define mADC_INIT_NEEDED                  (0u)
  75:Generated_Source\PSoC4/mADC_Adc.c **** #define mADC_CAL_WATCHDOG_CYCLES_NUM      (0x0000FFFFLu)
  76:Generated_Source\PSoC4/mADC_Adc.c **** 
  77:Generated_Source\PSoC4/mADC_Adc.c **** #if (mADC_ENABLE == mADC_ADC_STANDALONE_EN)
  78:Generated_Source\PSoC4/mADC_Adc.c ****     /*******************************************************************************
  79:Generated_Source\PSoC4/mADC_Adc.c ****     * Function Name: mADC_Start
  80:Generated_Source\PSoC4/mADC_Adc.c ****     ****************************************************************************//**
  81:Generated_Source\PSoC4/mADC_Adc.c ****     * \cond SECTION_STANDALONE_ADC
  82:Generated_Source\PSoC4/mADC_Adc.c ****     * \brief
  83:Generated_Source\PSoC4/mADC_Adc.c ****     *   Configures the hardware and performs calibration.
  84:Generated_Source\PSoC4/mADC_Adc.c ****     *
  85:Generated_Source\PSoC4/mADC_Adc.c ****     * \details
  86:Generated_Source\PSoC4/mADC_Adc.c ****     *   Configures the hardware and performs calibration.
  87:Generated_Source\PSoC4/mADC_Adc.c ****     * \endcond
ARM GAS  C:\Users\PC\AppData\Local\Temp\ccNJoPe4.s 			page 3


  88:Generated_Source\PSoC4/mADC_Adc.c ****     *
  89:Generated_Source\PSoC4/mADC_Adc.c ****     *******************************************************************************/
  90:Generated_Source\PSoC4/mADC_Adc.c ****     void mADC_Start(void)
  91:Generated_Source\PSoC4/mADC_Adc.c ****     {
  92:Generated_Source\PSoC4/mADC_Adc.c ****         mADC_ClearAdcChannels();
  93:Generated_Source\PSoC4/mADC_Adc.c **** 
  94:Generated_Source\PSoC4/mADC_Adc.c ****         if (mADC_INIT_DONE != mADC_initVar)
  95:Generated_Source\PSoC4/mADC_Adc.c ****         {
  96:Generated_Source\PSoC4/mADC_Adc.c ****             mADC_DsInitialize();
  97:Generated_Source\PSoC4/mADC_Adc.c ****         }
  98:Generated_Source\PSoC4/mADC_Adc.c ****         mADC_ConfigAdcResources();
  99:Generated_Source\PSoC4/mADC_Adc.c ****         (void) mADC_Calibrate();
 100:Generated_Source\PSoC4/mADC_Adc.c ****     }
 101:Generated_Source\PSoC4/mADC_Adc.c **** 
 102:Generated_Source\PSoC4/mADC_Adc.c ****     /*******************************************************************************
 103:Generated_Source\PSoC4/mADC_Adc.c ****     * Function Name: mADC_Sleep
 104:Generated_Source\PSoC4/mADC_Adc.c ****     ****************************************************************************//**
 105:Generated_Source\PSoC4/mADC_Adc.c ****     * \cond SECTION_STANDALONE_ADC
 106:Generated_Source\PSoC4/mADC_Adc.c ****     * \brief
 107:Generated_Source\PSoC4/mADC_Adc.c ****     *  Prepares the Component for deep sleep.
 108:Generated_Source\PSoC4/mADC_Adc.c ****     *
 109:Generated_Source\PSoC4/mADC_Adc.c ****     * \details
 110:Generated_Source\PSoC4/mADC_Adc.c ****     *  Currently this function is empty and exists as a place for future updates,
 111:Generated_Source\PSoC4/mADC_Adc.c ****     *  this function will be used to prepare the Component to enter deep sleep.
 112:Generated_Source\PSoC4/mADC_Adc.c ****     * \endcond
 113:Generated_Source\PSoC4/mADC_Adc.c ****     *
 114:Generated_Source\PSoC4/mADC_Adc.c ****     *******************************************************************************/
 115:Generated_Source\PSoC4/mADC_Adc.c ****     void mADC_Sleep(void)
 116:Generated_Source\PSoC4/mADC_Adc.c ****     {
  28              		.loc 1 116 0
  29              		.cfi_startproc
  30              		@ args = 0, pretend = 0, frame = 0
  31              		@ frame_needed = 0, uses_anonymous_args = 0
  32              		@ link register save eliminated.
 117:Generated_Source\PSoC4/mADC_Adc.c ****     }
  33              		.loc 1 117 0
  34              		@ sp needed
  35 0000 7047     		bx	lr
  36              		.cfi_endproc
  37              	.LFE2:
  38              		.size	mADC_Sleep, .-mADC_Sleep
  39 0002 C046     		.section	.text.mADC_Wakeup,"ax",%progbits
  40              		.align	2
  41              		.global	mADC_Wakeup
  42              		.code	16
  43              		.thumb_func
  44              		.type	mADC_Wakeup, %function
  45              	mADC_Wakeup:
  46              	.LFB3:
 118:Generated_Source\PSoC4/mADC_Adc.c **** 
 119:Generated_Source\PSoC4/mADC_Adc.c **** 
 120:Generated_Source\PSoC4/mADC_Adc.c ****     /*******************************************************************************
 121:Generated_Source\PSoC4/mADC_Adc.c ****     * Function Name: mADC_Wakeup
 122:Generated_Source\PSoC4/mADC_Adc.c ****     ****************************************************************************//**
 123:Generated_Source\PSoC4/mADC_Adc.c ****     * \cond SECTION_STANDALONE_ADC
 124:Generated_Source\PSoC4/mADC_Adc.c ****     * \brief
 125:Generated_Source\PSoC4/mADC_Adc.c ****     *  This function resumes the Component after sleep.
ARM GAS  C:\Users\PC\AppData\Local\Temp\ccNJoPe4.s 			page 4


 126:Generated_Source\PSoC4/mADC_Adc.c ****     *
 127:Generated_Source\PSoC4/mADC_Adc.c ****     * \details
 128:Generated_Source\PSoC4/mADC_Adc.c ****     *  Currently this function is empty and exists as a place for future updates,
 129:Generated_Source\PSoC4/mADC_Adc.c ****     *  this function will be used to resume the Component after exiting deep sleep.
 130:Generated_Source\PSoC4/mADC_Adc.c ****     * \endcond
 131:Generated_Source\PSoC4/mADC_Adc.c ****     *
 132:Generated_Source\PSoC4/mADC_Adc.c ****     *******************************************************************************/
 133:Generated_Source\PSoC4/mADC_Adc.c ****     void mADC_Wakeup(void)
 134:Generated_Source\PSoC4/mADC_Adc.c ****     {
  47              		.loc 1 134 0
  48              		.cfi_startproc
  49              		@ args = 0, pretend = 0, frame = 0
  50              		@ frame_needed = 0, uses_anonymous_args = 0
  51              		@ link register save eliminated.
 135:Generated_Source\PSoC4/mADC_Adc.c ****     }
  52              		.loc 1 135 0
  53              		@ sp needed
  54 0000 7047     		bx	lr
  55              		.cfi_endproc
  56              	.LFE3:
  57              		.size	mADC_Wakeup, .-mADC_Wakeup
  58 0002 C046     		.section	.text.mADC_SetNonDedicatedAdcChannel,"ax",%progbits
  59              		.align	2
  60              		.global	mADC_SetNonDedicatedAdcChannel
  61              		.code	16
  62              		.thumb_func
  63              		.type	mADC_SetNonDedicatedAdcChannel, %function
  64              	mADC_SetNonDedicatedAdcChannel:
  65              	.LFB4:
 136:Generated_Source\PSoC4/mADC_Adc.c **** #endif  /* (mADC_ENABLE != mADC_ADC_STANDALONE_EN) */
 137:Generated_Source\PSoC4/mADC_Adc.c **** 
 138:Generated_Source\PSoC4/mADC_Adc.c **** /*******************************************************************************
 139:Generated_Source\PSoC4/mADC_Adc.c **** * Function Name: mADC_SetNonDedicatedAdcChannel
 140:Generated_Source\PSoC4/mADC_Adc.c **** ****************************************************************************//**
 141:Generated_Source\PSoC4/mADC_Adc.c **** *
 142:Generated_Source\PSoC4/mADC_Adc.c **** * \brief
 143:Generated_Source\PSoC4/mADC_Adc.c **** *   Sets the non dedicated channel to the given state.
 144:Generated_Source\PSoC4/mADC_Adc.c **** *
 145:Generated_Source\PSoC4/mADC_Adc.c **** * \details
 146:Generated_Source\PSoC4/mADC_Adc.c **** *   Connects/disconnects the pin and the analog muxbus B. Sets the drive mode
 147:Generated_Source\PSoC4/mADC_Adc.c **** *   of the pin as well.
 148:Generated_Source\PSoC4/mADC_Adc.c **** *
 149:Generated_Source\PSoC4/mADC_Adc.c **** * \param chId  The ID of the non dedicated channel to be set.
 150:Generated_Source\PSoC4/mADC_Adc.c **** * \param state The state in which the channel is to be put:
 151:Generated_Source\PSoC4/mADC_Adc.c **** *         - (0) mADC_CHAN_DISCONNECT
 152:Generated_Source\PSoC4/mADC_Adc.c **** *         - (1) mADC_CHAN_CONNECT
 153:Generated_Source\PSoC4/mADC_Adc.c **** *
 154:Generated_Source\PSoC4/mADC_Adc.c **** *******************************************************************************/
 155:Generated_Source\PSoC4/mADC_Adc.c **** void mADC_SetNonDedicatedAdcChannel(uint8 chId, uint32 state)
 156:Generated_Source\PSoC4/mADC_Adc.c **** {
  66              		.loc 1 156 0
  67              		.cfi_startproc
  68              		@ args = 0, pretend = 0, frame = 0
  69              		@ frame_needed = 0, uses_anonymous_args = 0
  70              	.LVL0:
  71 0000 F8B5     		push	{r3, r4, r5, r6, r7, lr}
  72              		.cfi_def_cfa_offset 24
ARM GAS  C:\Users\PC\AppData\Local\Temp\ccNJoPe4.s 			page 5


  73              		.cfi_offset 3, -24
  74              		.cfi_offset 4, -20
  75              		.cfi_offset 5, -16
  76              		.cfi_offset 6, -12
  77              		.cfi_offset 7, -8
  78              		.cfi_offset 14, -4
  79 0002 4F46     		mov	r7, r9
  80 0004 4646     		mov	r6, r8
  81 0006 C0B4     		push	{r6, r7}
  82              		.cfi_def_cfa_offset 32
  83              		.cfi_offset 8, -32
  84              		.cfi_offset 9, -28
  85 0008 0400     		movs	r4, r0
  86 000a 8846     		mov	r8, r1
  87              	.LVL1:
 157:Generated_Source\PSoC4/mADC_Adc.c ****     mADC_FLASH_IO_STRUCT const *ptr2adcIO;
 158:Generated_Source\PSoC4/mADC_Adc.c ****     uint32 newRegisterValue;
 159:Generated_Source\PSoC4/mADC_Adc.c ****     uint8  interruptState;
 160:Generated_Source\PSoC4/mADC_Adc.c ****     uint32 pinHSIOMShift;
 161:Generated_Source\PSoC4/mADC_Adc.c ****     uint32 pinModeShift;
 162:Generated_Source\PSoC4/mADC_Adc.c ****     uint32 tmpVal;
 163:Generated_Source\PSoC4/mADC_Adc.c **** 
 164:Generated_Source\PSoC4/mADC_Adc.c ****     ptr2adcIO = &mADC_adcIoList[chId];
 165:Generated_Source\PSoC4/mADC_Adc.c ****     pinHSIOMShift = (uint32)ptr2adcIO->hsiomShift;
  88              		.loc 1 165 0
  89 000c 2F49     		ldr	r1, .L10
  90              	.LVL2:
  91 000e C300     		lsls	r3, r0, #3
  92 0010 181A     		subs	r0, r3, r0
  93              	.LVL3:
  94 0012 8200     		lsls	r2, r0, #2
  95 0014 1000     		movs	r0, r2
  96 0016 8A18     		adds	r2, r1, r2
  97 0018 177E     		ldrb	r7, [r2, #24]
  98              	.LVL4:
 166:Generated_Source\PSoC4/mADC_Adc.c ****     pinModeShift = (uint32)ptr2adcIO->shift;
  99              		.loc 1 166 0
 100 001a 967E     		ldrb	r6, [r2, #26]
 101              	.LVL5:
 167:Generated_Source\PSoC4/mADC_Adc.c **** 
 168:Generated_Source\PSoC4/mADC_Adc.c ****     /* Clear port connections. */
 169:Generated_Source\PSoC4/mADC_Adc.c ****     tmpVal = CY_GET_REG32(ptr2adcIO->hsiomPtr);
 102              		.loc 1 169 0
 103 001c 4558     		ldr	r5, [r0, r1]
 104 001e 2A68     		ldr	r2, [r5]
 105              	.LVL6:
 170:Generated_Source\PSoC4/mADC_Adc.c ****     tmpVal &= ~(mADC_HSIOM_SEL_MASK << pinHSIOMShift);
 106              		.loc 1 170 0
 107 0020 0F23     		movs	r3, #15
 108 0022 BB40     		lsls	r3, r3, r7
 109 0024 9A43     		bics	r2, r3
 110              	.LVL7:
 111 0026 9146     		mov	r9, r2
 112              	.LVL8:
 171:Generated_Source\PSoC4/mADC_Adc.c **** 
 172:Generated_Source\PSoC4/mADC_Adc.c ****     interruptState = CyEnterCriticalSection();
 113              		.loc 1 172 0
ARM GAS  C:\Users\PC\AppData\Local\Temp\ccNJoPe4.s 			page 6


 114 0028 FFF7FEFF 		bl	CyEnterCriticalSection
 115              	.LVL9:
 173:Generated_Source\PSoC4/mADC_Adc.c **** 
 174:Generated_Source\PSoC4/mADC_Adc.c ****     switch (state)
 116              		.loc 1 174 0
 117 002c 4346     		mov	r3, r8
 118 002e 012B     		cmp	r3, #1
 119 0030 21D1     		bne	.L9
 175:Generated_Source\PSoC4/mADC_Adc.c ****     {
 176:Generated_Source\PSoC4/mADC_Adc.c ****     case mADC_CHAN_CONNECT:
 177:Generated_Source\PSoC4/mADC_Adc.c ****         /* Connect AMuxBusB to the selected port */
 178:Generated_Source\PSoC4/mADC_Adc.c ****         CY_SET_REG32(ptr2adcIO->hsiomPtr, (tmpVal | (mADC_HSIOM_SEL_AMUXB << pinHSIOMShift)));
 120              		.loc 1 178 0
 121 0032 0722     		movs	r2, #7
 122 0034 1300     		movs	r3, r2
 123 0036 BB40     		lsls	r3, r3, r7
 124 0038 4946     		mov	r1, r9
 125 003a 1943     		orrs	r1, r3
 126 003c 2960     		str	r1, [r5]
 179:Generated_Source\PSoC4/mADC_Adc.c ****         /* Update port configuration register (drive mode) to HiZ Analog */
 180:Generated_Source\PSoC4/mADC_Adc.c ****         newRegisterValue = CY_GET_REG32(ptr2adcIO->pcPtr);
 127              		.loc 1 180 0
 128 003e E100     		lsls	r1, r4, #3
 129 0040 091B     		subs	r1, r1, r4
 130 0042 8B00     		lsls	r3, r1, #2
 131 0044 2149     		ldr	r1, .L10
 132 0046 CB18     		adds	r3, r1, r3
 133 0048 5968     		ldr	r1, [r3, #4]
 134 004a 0B68     		ldr	r3, [r1]
 135              	.LVL10:
 181:Generated_Source\PSoC4/mADC_Adc.c ****         newRegisterValue &= ~(mADC_GPIO_PC_MASK << pinModeShift);
 136              		.loc 1 181 0
 137 004c B240     		lsls	r2, r2, r6
 138 004e 9343     		bics	r3, r2
 139              	.LVL11:
 140 0050 1A00     		movs	r2, r3
 141              	.LVL12:
 182:Generated_Source\PSoC4/mADC_Adc.c ****         newRegisterValue |= (mADC_GPIO_PC_INPUT << pinModeShift);
 142              		.loc 1 182 0
 143 0052 0123     		movs	r3, #1
 144 0054 B340     		lsls	r3, r3, r6
 145 0056 1343     		orrs	r3, r2
 146              	.LVL13:
 183:Generated_Source\PSoC4/mADC_Adc.c ****         CY_SET_REG32(ptr2adcIO->pcPtr, newRegisterValue);
 147              		.loc 1 183 0
 148 0058 0B60     		str	r3, [r1]
 184:Generated_Source\PSoC4/mADC_Adc.c **** 
 185:Generated_Source\PSoC4/mADC_Adc.c ****         /* Cmod and Ctank are not typical GPIO, require CSD setting. */
 186:Generated_Source\PSoC4/mADC_Adc.c ****         if (0u != ((uint32)(ptr2adcIO->hsiomPtr) & mADC_SW_CMOD_PORT_MASK))
 149              		.loc 1 186 0
 150 005a 6B05     		lsls	r3, r5, #21
 151 005c 21D5     		bpl	.L6
 152              	.LVL14:
 187:Generated_Source\PSoC4/mADC_Adc.c ****         {
 188:Generated_Source\PSoC4/mADC_Adc.c ****             if (mADC_SW_CTANK_PINSHIFT == pinModeShift)
 153              		.loc 1 188 0
 154 005e 092E     		cmp	r6, #9
ARM GAS  C:\Users\PC\AppData\Local\Temp\ccNJoPe4.s 			page 7


 155 0060 03D1     		bne	.L7
 189:Generated_Source\PSoC4/mADC_Adc.c ****             {
 190:Generated_Source\PSoC4/mADC_Adc.c ****                 CY_SET_REG32(mADC_SW_DSI_SEL_PTR, mADC_SW_DSI_CTANK);
 156              		.loc 1 190 0
 157 0062 0122     		movs	r2, #1
 158 0064 1A4B     		ldr	r3, .L10+4
 159 0066 1A60     		str	r2, [r3]
 160              	.LVL15:
 161 0068 1BE0     		b	.L6
 162              	.LVL16:
 163              	.L7:
 191:Generated_Source\PSoC4/mADC_Adc.c ****             }
 192:Generated_Source\PSoC4/mADC_Adc.c ****             else if (mADC_SW_CMOD_PINSHIFT == pinModeShift)
 164              		.loc 1 192 0
 165 006a 062E     		cmp	r6, #6
 166 006c 19D1     		bne	.L6
 193:Generated_Source\PSoC4/mADC_Adc.c ****             {
 194:Generated_Source\PSoC4/mADC_Adc.c ****                 CY_SET_REG32(mADC_SW_DSI_SEL_PTR, mADC_SW_DSI_CMOD);
 167              		.loc 1 194 0
 168 006e 1022     		movs	r2, #16
 169 0070 174B     		ldr	r3, .L10+4
 170 0072 1A60     		str	r2, [r3]
 171              	.LVL17:
 172 0074 15E0     		b	.L6
 173              	.LVL18:
 174              	.L9:
 195:Generated_Source\PSoC4/mADC_Adc.c ****             }
 196:Generated_Source\PSoC4/mADC_Adc.c ****             else { /* No action */ }
 197:Generated_Source\PSoC4/mADC_Adc.c ****         }
 198:Generated_Source\PSoC4/mADC_Adc.c ****         break;
 199:Generated_Source\PSoC4/mADC_Adc.c **** 
 200:Generated_Source\PSoC4/mADC_Adc.c ****     /* Disconnection is a safe default state. Fall-through is intentional. */
 201:Generated_Source\PSoC4/mADC_Adc.c ****     case mADC_CHAN_DISCONNECT:
 202:Generated_Source\PSoC4/mADC_Adc.c ****     default:
 203:Generated_Source\PSoC4/mADC_Adc.c ****         /* Disconnec AMuxBusB from the selected port */
 204:Generated_Source\PSoC4/mADC_Adc.c ****         CY_SET_REG32(ptr2adcIO->hsiomPtr, tmpVal);
 175              		.loc 1 204 0
 176 0076 4B46     		mov	r3, r9
 177              	.LVL19:
 178 0078 2B60     		str	r3, [r5]
 205:Generated_Source\PSoC4/mADC_Adc.c **** 
 206:Generated_Source\PSoC4/mADC_Adc.c ****         /* Update port configuration register (drive mode) to HiZ input/output by clearing PC */
 207:Generated_Source\PSoC4/mADC_Adc.c ****         newRegisterValue = CY_GET_REG32(ptr2adcIO->pcPtr);
 179              		.loc 1 207 0
 180 007a E200     		lsls	r2, r4, #3
 181 007c 121B     		subs	r2, r2, r4
 182 007e 9300     		lsls	r3, r2, #2
 183 0080 124A     		ldr	r2, .L10
 184 0082 D318     		adds	r3, r2, r3
 185 0084 5968     		ldr	r1, [r3, #4]
 186 0086 0B68     		ldr	r3, [r1]
 187              	.LVL20:
 208:Generated_Source\PSoC4/mADC_Adc.c ****         newRegisterValue &= ~(mADC_GPIO_PC_MASK << pinModeShift);
 188              		.loc 1 208 0
 189 0088 0722     		movs	r2, #7
 190 008a B240     		lsls	r2, r2, r6
 191 008c 9343     		bics	r3, r2
ARM GAS  C:\Users\PC\AppData\Local\Temp\ccNJoPe4.s 			page 8


 192              	.LVL21:
 209:Generated_Source\PSoC4/mADC_Adc.c ****         CY_SET_REG32(ptr2adcIO->pcPtr, newRegisterValue);
 193              		.loc 1 209 0
 194 008e 0B60     		str	r3, [r1]
 210:Generated_Source\PSoC4/mADC_Adc.c **** 
 211:Generated_Source\PSoC4/mADC_Adc.c ****         /* Cmod and Ctank are not typical GPIO, require CSD setting. */
 212:Generated_Source\PSoC4/mADC_Adc.c ****         if (0u != ((uint32)(ptr2adcIO->hsiomPtr) & mADC_SW_CMOD_PORT_MASK))
 195              		.loc 1 212 0
 196 0090 6B05     		lsls	r3, r5, #21
 197 0092 06D5     		bpl	.L6
 198              	.LVL22:
 213:Generated_Source\PSoC4/mADC_Adc.c ****         {
 214:Generated_Source\PSoC4/mADC_Adc.c ****             if ((mADC_SW_CTANK_PINSHIFT == pinModeShift) ||
 199              		.loc 1 214 0
 200 0094 092E     		cmp	r6, #9
 201 0096 01D0     		beq	.L8
 202              		.loc 1 214 0 is_stmt 0 discriminator 1
 203 0098 062E     		cmp	r6, #6
 204 009a 02D1     		bne	.L6
 205              	.L8:
 215:Generated_Source\PSoC4/mADC_Adc.c ****                 (mADC_SW_CMOD_PINSHIFT == pinModeShift ))
 216:Generated_Source\PSoC4/mADC_Adc.c ****             {
 217:Generated_Source\PSoC4/mADC_Adc.c ****                 CY_SET_REG32(mADC_SW_DSI_SEL_PTR, 0u);
 206              		.loc 1 217 0 is_stmt 1
 207 009c 0022     		movs	r2, #0
 208 009e 0C4B     		ldr	r3, .L10+4
 209 00a0 1A60     		str	r2, [r3]
 210              	.LVL23:
 211              	.L6:
 218:Generated_Source\PSoC4/mADC_Adc.c ****             }
 219:Generated_Source\PSoC4/mADC_Adc.c ****         }
 220:Generated_Source\PSoC4/mADC_Adc.c ****         break;
 221:Generated_Source\PSoC4/mADC_Adc.c ****     }
 222:Generated_Source\PSoC4/mADC_Adc.c **** 
 223:Generated_Source\PSoC4/mADC_Adc.c ****     /* Set logic 0 to port data register */
 224:Generated_Source\PSoC4/mADC_Adc.c ****     tmpVal = CY_GET_REG32(ptr2adcIO->drPtr);
 212              		.loc 1 224 0
 213 00a2 0A4D     		ldr	r5, .L10
 214 00a4 E300     		lsls	r3, r4, #3
 215 00a6 191B     		subs	r1, r3, r4
 216 00a8 8A00     		lsls	r2, r1, #2
 217 00aa AA18     		adds	r2, r5, r2
 218 00ac 9168     		ldr	r1, [r2, #8]
 219 00ae 0A68     		ldr	r2, [r1]
 220              	.LVL24:
 225:Generated_Source\PSoC4/mADC_Adc.c ****     tmpVal &= (uint32)~(uint32)((uint32)1u << ptr2adcIO->drShift);
 221              		.loc 1 225 0
 222 00b0 1C1B     		subs	r4, r3, r4
 223              	.LVL25:
 224 00b2 A300     		lsls	r3, r4, #2
 225 00b4 EB18     		adds	r3, r5, r3
 226 00b6 5C7E     		ldrb	r4, [r3, #25]
 227 00b8 0123     		movs	r3, #1
 228 00ba A340     		lsls	r3, r3, r4
 229 00bc 9A43     		bics	r2, r3
 230              	.LVL26:
 226:Generated_Source\PSoC4/mADC_Adc.c ****     CY_SET_REG32(ptr2adcIO->drPtr, tmpVal);
ARM GAS  C:\Users\PC\AppData\Local\Temp\ccNJoPe4.s 			page 9


 231              		.loc 1 226 0
 232 00be 0A60     		str	r2, [r1]
 227:Generated_Source\PSoC4/mADC_Adc.c ****     
 228:Generated_Source\PSoC4/mADC_Adc.c ****     CyExitCriticalSection(interruptState);
 233              		.loc 1 228 0
 234 00c0 FFF7FEFF 		bl	CyExitCriticalSection
 235              	.LVL27:
 229:Generated_Source\PSoC4/mADC_Adc.c **** }
 236              		.loc 1 229 0
 237              		@ sp needed
 238              	.LVL28:
 239              	.LVL29:
 240              	.LVL30:
 241 00c4 0CBC     		pop	{r2, r3}
 242 00c6 9046     		mov	r8, r2
 243 00c8 9946     		mov	r9, r3
 244 00ca F8BD     		pop	{r3, r4, r5, r6, r7, pc}
 245              	.L11:
 246              		.align	2
 247              	.L10:
 248 00cc 00000000 		.word	mADC_adcIoList
 249 00d0 C0020B40 		.word	1074463424
 250              		.cfi_endproc
 251              	.LFE4:
 252              		.size	mADC_SetNonDedicatedAdcChannel, .-mADC_SetNonDedicatedAdcChannel
 253              		.section	.text.mADC_SetAdcChannel,"ax",%progbits
 254              		.align	2
 255              		.global	mADC_SetAdcChannel
 256              		.code	16
 257              		.thumb_func
 258              		.type	mADC_SetAdcChannel, %function
 259              	mADC_SetAdcChannel:
 260              	.LFB5:
 230:Generated_Source\PSoC4/mADC_Adc.c **** 
 231:Generated_Source\PSoC4/mADC_Adc.c **** 
 232:Generated_Source\PSoC4/mADC_Adc.c **** /*******************************************************************************
 233:Generated_Source\PSoC4/mADC_Adc.c **** * Function Name: mADC_SetAdcChannel
 234:Generated_Source\PSoC4/mADC_Adc.c **** ****************************************************************************//**
 235:Generated_Source\PSoC4/mADC_Adc.c **** *
 236:Generated_Source\PSoC4/mADC_Adc.c **** * \brief
 237:Generated_Source\PSoC4/mADC_Adc.c **** *   Sets the given channel to the given state.
 238:Generated_Source\PSoC4/mADC_Adc.c **** *
 239:Generated_Source\PSoC4/mADC_Adc.c **** * \details
 240:Generated_Source\PSoC4/mADC_Adc.c **** *   Connects/disconnects the pin and the analog muxbus B.  Sets the drive mode
 241:Generated_Source\PSoC4/mADC_Adc.c **** *   of the pin as well.
 242:Generated_Source\PSoC4/mADC_Adc.c **** *
 243:Generated_Source\PSoC4/mADC_Adc.c **** * \param chId  The ID of the channel to be set.
 244:Generated_Source\PSoC4/mADC_Adc.c **** * \param state The state in which the channel is to be put:
 245:Generated_Source\PSoC4/mADC_Adc.c **** *         - (0) mADC_CHAN_DISCONNECT
 246:Generated_Source\PSoC4/mADC_Adc.c **** *         - (1) mADC_CHAN_CONNECT
 247:Generated_Source\PSoC4/mADC_Adc.c **** *
 248:Generated_Source\PSoC4/mADC_Adc.c **** *******************************************************************************/
 249:Generated_Source\PSoC4/mADC_Adc.c **** void mADC_SetAdcChannel(uint8 chId, uint32 state)
 250:Generated_Source\PSoC4/mADC_Adc.c **** {
 261              		.loc 1 250 0
 262              		.cfi_startproc
 263              		@ args = 0, pretend = 0, frame = 0
ARM GAS  C:\Users\PC\AppData\Local\Temp\ccNJoPe4.s 			page 10


 264              		@ frame_needed = 0, uses_anonymous_args = 0
 265              	.LVL31:
 266 0000 10B5     		push	{r4, lr}
 267              		.cfi_def_cfa_offset 8
 268              		.cfi_offset 4, -8
 269              		.cfi_offset 14, -4
 251:Generated_Source\PSoC4/mADC_Adc.c ****     #if (0u != mADC_ADC_AMUXB_INPUT_EN)
 252:Generated_Source\PSoC4/mADC_Adc.c ****         #if (mADC_ADC_MIN_CHANNELS < mADC_ADC_TOTAL_CHANNELS)
 253:Generated_Source\PSoC4/mADC_Adc.c ****             if(mADC_ADC_SELECT_AMUXB_CH != chId)
 254:Generated_Source\PSoC4/mADC_Adc.c ****             {
 255:Generated_Source\PSoC4/mADC_Adc.c ****                 mADC_SetNonDedicatedAdcChannel(chId, state);
 256:Generated_Source\PSoC4/mADC_Adc.c ****             }
 257:Generated_Source\PSoC4/mADC_Adc.c ****         #endif /* (0u != mADC_ADC_TOTAL_CHANNELS) */
 258:Generated_Source\PSoC4/mADC_Adc.c ****     #else
 259:Generated_Source\PSoC4/mADC_Adc.c ****         mADC_SetNonDedicatedAdcChannel(chId, state);
 270              		.loc 1 259 0
 271 0002 FFF7FEFF 		bl	mADC_SetNonDedicatedAdcChannel
 272              	.LVL32:
 260:Generated_Source\PSoC4/mADC_Adc.c ****     #endif /* (0u != mADC_ADC_AMUXB_INPUT_EN) */
 261:Generated_Source\PSoC4/mADC_Adc.c **** }
 273              		.loc 1 261 0
 274              		@ sp needed
 275 0006 10BD     		pop	{r4, pc}
 276              		.cfi_endproc
 277              	.LFE5:
 278              		.size	mADC_SetAdcChannel, .-mADC_SetAdcChannel
 279              		.section	.text.mADC_StartAdcFSM,"ax",%progbits
 280              		.align	2
 281              		.global	mADC_StartAdcFSM
 282              		.code	16
 283              		.thumb_func
 284              		.type	mADC_StartAdcFSM, %function
 285              	mADC_StartAdcFSM:
 286              	.LFB7:
 262:Generated_Source\PSoC4/mADC_Adc.c **** 
 263:Generated_Source\PSoC4/mADC_Adc.c **** 
 264:Generated_Source\PSoC4/mADC_Adc.c **** /*******************************************************************************
 265:Generated_Source\PSoC4/mADC_Adc.c **** * Function Name: mADC_ConfigAdcResources
 266:Generated_Source\PSoC4/mADC_Adc.c **** ****************************************************************************//**
 267:Generated_Source\PSoC4/mADC_Adc.c **** *
 268:Generated_Source\PSoC4/mADC_Adc.c **** * \brief
 269:Generated_Source\PSoC4/mADC_Adc.c **** *   Configures the CSD block to be used as an ADC.
 270:Generated_Source\PSoC4/mADC_Adc.c **** *
 271:Generated_Source\PSoC4/mADC_Adc.c **** * \details
 272:Generated_Source\PSoC4/mADC_Adc.c **** *   Configures the IDACB, internal switches, REFGEN, HSCOMP, enables CSD
 273:Generated_Source\PSoC4/mADC_Adc.c **** *   block interrupt and set interrupt vector to ADC sensing method.
 274:Generated_Source\PSoC4/mADC_Adc.c **** *
 275:Generated_Source\PSoC4/mADC_Adc.c **** *******************************************************************************/
 276:Generated_Source\PSoC4/mADC_Adc.c **** void mADC_ConfigAdcResources(void)
 277:Generated_Source\PSoC4/mADC_Adc.c **** {
 278:Generated_Source\PSoC4/mADC_Adc.c ****     uint8  interruptState;
 279:Generated_Source\PSoC4/mADC_Adc.c ****     uint32 newRegValue;
 280:Generated_Source\PSoC4/mADC_Adc.c **** 
 281:Generated_Source\PSoC4/mADC_Adc.c ****     /* Configure clocks */
 282:Generated_Source\PSoC4/mADC_Adc.c ****     mADC_SetModClkClockDivider(mADC_ADC_MODCLK_DIV_DEFAULT);
 283:Generated_Source\PSoC4/mADC_Adc.c ****     CY_SET_REG32(mADC_SENSE_PERIOD_PTR, (mADC_SENSE_DIV_DEFAULT - 1uL));
 284:Generated_Source\PSoC4/mADC_Adc.c **** 
ARM GAS  C:\Users\PC\AppData\Local\Temp\ccNJoPe4.s 			page 11


 285:Generated_Source\PSoC4/mADC_Adc.c ****     /* Configure the IDAC */
 286:Generated_Source\PSoC4/mADC_Adc.c ****     CY_SET_REG32(mADC_CONFIG_PTR, mADC_CONFIG_DEFAULT);
 287:Generated_Source\PSoC4/mADC_Adc.c ****     CY_SET_REG32(mADC_CSD_IDACB_PTR, mADC_IDACB_CONFIG | mADC_dsRam.adcIdac);
 288:Generated_Source\PSoC4/mADC_Adc.c **** 
 289:Generated_Source\PSoC4/mADC_Adc.c ****     /* Configure AZ Time */
 290:Generated_Source\PSoC4/mADC_Adc.c ****     CY_SET_REG32(mADC_SEQ_TIME_PTR, (mADC_SEQ_TIME_DEFAUL - 1uL));
 291:Generated_Source\PSoC4/mADC_Adc.c **** 
 292:Generated_Source\PSoC4/mADC_Adc.c ****     CY_SET_REG32(mADC_CSDCMP_PTR, 0uL);
 293:Generated_Source\PSoC4/mADC_Adc.c ****     CY_SET_REG32(mADC_SW_DSI_SEL_PTR, 0uL);
 294:Generated_Source\PSoC4/mADC_Adc.c **** 
 295:Generated_Source\PSoC4/mADC_Adc.c ****     CY_SET_REG32(mADC_SENSE_DUTY_PTR, 0uL);
 296:Generated_Source\PSoC4/mADC_Adc.c ****     CY_SET_REG32(mADC_SEQ_INIT_CNT_PTR, 1uL);
 297:Generated_Source\PSoC4/mADC_Adc.c ****     CY_SET_REG32(mADC_SEQ_NORM_CNT_PTR, 2uL);
 298:Generated_Source\PSoC4/mADC_Adc.c **** 
 299:Generated_Source\PSoC4/mADC_Adc.c ****     /* Configure the block-level routing */
 300:Generated_Source\PSoC4/mADC_Adc.c ****     CY_SET_REG32(mADC_SW_HS_P_SEL_PTR, mADC_SW_HSP_DEFAULT);
 301:Generated_Source\PSoC4/mADC_Adc.c ****     CY_SET_REG32(mADC_SW_HS_N_SEL_PTR, mADC_SW_HSN_DEFAULT);
 302:Generated_Source\PSoC4/mADC_Adc.c ****     CY_SET_REG32(mADC_SW_SHIELD_SEL_PTR, mADC_SW_SHIELD_DEFAULT);
 303:Generated_Source\PSoC4/mADC_Adc.c ****     CY_SET_REG32(mADC_SW_CMP_P_SEL_PTR, mADC_SW_CMPP_DEFAULT);
 304:Generated_Source\PSoC4/mADC_Adc.c ****     CY_SET_REG32(mADC_SW_CMP_N_SEL_PTR, mADC_SW_CMPN_DEFAULT);
 305:Generated_Source\PSoC4/mADC_Adc.c ****     CY_SET_REG32(mADC_SW_FW_MOD_SEL_PTR, mADC_SW_FWMOD_DEFAULT);
 306:Generated_Source\PSoC4/mADC_Adc.c ****     CY_SET_REG32(mADC_SW_FW_TANK_SEL_PTR, mADC_SW_FWTANK_DEFAULT);
 307:Generated_Source\PSoC4/mADC_Adc.c ****     CY_SET_REG32(mADC_SW_REFGEN_SEL_PTR, mADC_SW_REFGEN_DEFAULT);
 308:Generated_Source\PSoC4/mADC_Adc.c **** 
 309:Generated_Source\PSoC4/mADC_Adc.c ****     interruptState = CyEnterCriticalSection();
 310:Generated_Source\PSoC4/mADC_Adc.c ****     newRegValue = CY_GET_REG32(mADC_SW_BYP_SEL_PTR);
 311:Generated_Source\PSoC4/mADC_Adc.c ****     newRegValue |= mADC_SW_BYP_DEFAULT;
 312:Generated_Source\PSoC4/mADC_Adc.c ****     CY_SET_REG32(mADC_SW_BYP_SEL_PTR, newRegValue);
 313:Generated_Source\PSoC4/mADC_Adc.c ****     CyExitCriticalSection(interruptState);
 314:Generated_Source\PSoC4/mADC_Adc.c **** 
 315:Generated_Source\PSoC4/mADC_Adc.c ****     /* Config RefGen */
 316:Generated_Source\PSoC4/mADC_Adc.c ****     #if (mADC_CYDEV_VDDA_MV < mADC_LVTHRESH)
 317:Generated_Source\PSoC4/mADC_Adc.c ****         /* The routing of the HS_N and AMUXBUF switches depend on RefGen */
 318:Generated_Source\PSoC4/mADC_Adc.c ****         CY_SET_REG32(mADC_REFGEN_PTR, mADC_REFGEN_LV);
 319:Generated_Source\PSoC4/mADC_Adc.c ****         CY_SET_REG32(mADC_SW_AMUXBUF_SEL_PTR, mADC_SW_AMUBUF_LV);
 320:Generated_Source\PSoC4/mADC_Adc.c ****         CY_SET_REG32(mADC_AMBUF_PTR, mADC_AMBUF_LV);
 321:Generated_Source\PSoC4/mADC_Adc.c ****     #else
 322:Generated_Source\PSoC4/mADC_Adc.c ****         CY_SET_REG32(mADC_REFGEN_PTR, mADC_REFGEN_NORM);
 323:Generated_Source\PSoC4/mADC_Adc.c ****         CY_SET_REG32(mADC_SW_AMUXBUF_SEL_PTR, mADC_SW_AMUBUF_NORM);
 324:Generated_Source\PSoC4/mADC_Adc.c ****     #endif /* mADC__CYDEV_VDDA_MV < mADC_LVTHRESH */
 325:Generated_Source\PSoC4/mADC_Adc.c **** 
 326:Generated_Source\PSoC4/mADC_Adc.c ****     /* Configure HSCOMP */
 327:Generated_Source\PSoC4/mADC_Adc.c ****     CY_SET_REG32(mADC_HSCMP_PTR, mADC_HSCMP_AZ_DEFAULT);
 328:Generated_Source\PSoC4/mADC_Adc.c **** 
 329:Generated_Source\PSoC4/mADC_Adc.c ****     /* Clear all pending interrupts of CSD block */
 330:Generated_Source\PSoC4/mADC_Adc.c ****     CY_SET_REG32(mADC_INTR_PTR, mADC_INTR_ALL_MASK);
 331:Generated_Source\PSoC4/mADC_Adc.c **** 
 332:Generated_Source\PSoC4/mADC_Adc.c ****     /* Mask all CSD block interrupts (disable all interrupts) */
 333:Generated_Source\PSoC4/mADC_Adc.c ****     CY_SET_REG32(mADC_INTR_MASK_PTR, mADC_INTR_MASK_CLEAR_MASK);
 334:Generated_Source\PSoC4/mADC_Adc.c **** 
 335:Generated_Source\PSoC4/mADC_Adc.c ****     /* Set the ISR vector */
 336:Generated_Source\PSoC4/mADC_Adc.c ****     mADC_ISR_StartEx(&mADC_IntrHandler);
 337:Generated_Source\PSoC4/mADC_Adc.c **** 
 338:Generated_Source\PSoC4/mADC_Adc.c ****     /* Component is initialized */
 339:Generated_Source\PSoC4/mADC_Adc.c ****     mADC_initVar = mADC_INIT_DONE;
 340:Generated_Source\PSoC4/mADC_Adc.c **** }
 341:Generated_Source\PSoC4/mADC_Adc.c **** 
ARM GAS  C:\Users\PC\AppData\Local\Temp\ccNJoPe4.s 			page 12


 342:Generated_Source\PSoC4/mADC_Adc.c **** 
 343:Generated_Source\PSoC4/mADC_Adc.c **** /*******************************************************************************
 344:Generated_Source\PSoC4/mADC_Adc.c **** * Function Name: mADC_StartAdcFSM
 345:Generated_Source\PSoC4/mADC_Adc.c **** ****************************************************************************//**
 346:Generated_Source\PSoC4/mADC_Adc.c **** *
 347:Generated_Source\PSoC4/mADC_Adc.c **** * \brief
 348:Generated_Source\PSoC4/mADC_Adc.c **** *   Starts the CSD state machine with correct parameters to initialize an ADC
 349:Generated_Source\PSoC4/mADC_Adc.c **** *   conversion.
 350:Generated_Source\PSoC4/mADC_Adc.c **** *
 351:Generated_Source\PSoC4/mADC_Adc.c **** * \details
 352:Generated_Source\PSoC4/mADC_Adc.c **** *   Starts the CSD state machine with correct parameters to initialize an ADC
 353:Generated_Source\PSoC4/mADC_Adc.c **** *   conversion.
 354:Generated_Source\PSoC4/mADC_Adc.c **** *
 355:Generated_Source\PSoC4/mADC_Adc.c **** * \param measureMode The FSM mode:
 356:Generated_Source\PSoC4/mADC_Adc.c **** *        - (0) mADC_MEASMODE_OFF
 357:Generated_Source\PSoC4/mADC_Adc.c **** *        - (1) mADC_MEASMODE_VREF
 358:Generated_Source\PSoC4/mADC_Adc.c **** *        - (2) mADC_MEASMODE_VREFBY2
 359:Generated_Source\PSoC4/mADC_Adc.c **** *        - (3) mADC_MEASMODE_VIN
 360:Generated_Source\PSoC4/mADC_Adc.c **** *
 361:Generated_Source\PSoC4/mADC_Adc.c **** *******************************************************************************/
 362:Generated_Source\PSoC4/mADC_Adc.c **** void mADC_StartAdcFSM(uint32 measureMode)
 363:Generated_Source\PSoC4/mADC_Adc.c **** {
 287              		.loc 1 363 0
 288              		.cfi_startproc
 289              		@ args = 0, pretend = 0, frame = 0
 290              		@ frame_needed = 0, uses_anonymous_args = 0
 291              		@ link register save eliminated.
 292              	.LVL33:
 364:Generated_Source\PSoC4/mADC_Adc.c ****     uint32 tmpStartVal;
 365:Generated_Source\PSoC4/mADC_Adc.c **** 
 366:Generated_Source\PSoC4/mADC_Adc.c ****     /* Set the mode and acquisition time */
 367:Generated_Source\PSoC4/mADC_Adc.c ****     CY_SET_REG32(mADC_ADC_CTL_PTR, (measureMode | (mADC_ACQUISITION_BASE - 1u)));
 293              		.loc 1 367 0
 294 0000 3B23     		movs	r3, #59
 295 0002 0343     		orrs	r3, r0
 296 0004 084A     		ldr	r2, .L17
 297 0006 1360     		str	r3, [r2]
 368:Generated_Source\PSoC4/mADC_Adc.c **** 
 369:Generated_Source\PSoC4/mADC_Adc.c ****     if(mADC_MEASMODE_VREF == measureMode)
 298              		.loc 1 369 0
 299 0008 8023     		movs	r3, #128
 300 000a 5B02     		lsls	r3, r3, #9
 301 000c 9842     		cmp	r0, r3
 302 000e 03D0     		beq	.L15
 370:Generated_Source\PSoC4/mADC_Adc.c ****     {
 371:Generated_Source\PSoC4/mADC_Adc.c ****         tmpStartVal =
 372:Generated_Source\PSoC4/mADC_Adc.c ****             mADC_FSMSETTING_AZSKIP_DEFAULT    |
 373:Generated_Source\PSoC4/mADC_Adc.c ****             mADC_FSMSETTING_DSIIGNORE   |
 374:Generated_Source\PSoC4/mADC_Adc.c ****             mADC_FSMSETTING_NOABORT     |
 375:Generated_Source\PSoC4/mADC_Adc.c ****             mADC_FSMSETTING_SEQMODE     |
 376:Generated_Source\PSoC4/mADC_Adc.c ****             mADC_FSMSETTING_START;
 377:Generated_Source\PSoC4/mADC_Adc.c ****     }
 378:Generated_Source\PSoC4/mADC_Adc.c ****     else if (mADC_MEASMODE_OFF == measureMode)
 303              		.loc 1 378 0
 304 0010 0028     		cmp	r0, #0
 305 0012 04D1     		bne	.L16
 379:Generated_Source\PSoC4/mADC_Adc.c ****     {
ARM GAS  C:\Users\PC\AppData\Local\Temp\ccNJoPe4.s 			page 13


 380:Generated_Source\PSoC4/mADC_Adc.c ****         tmpStartVal = mADC_FSMSETTING_ABORT;
 306              		.loc 1 380 0
 307 0014 0822     		movs	r2, #8
 308 0016 04E0     		b	.L14
 309              	.L15:
 371:Generated_Source\PSoC4/mADC_Adc.c ****             mADC_FSMSETTING_AZSKIP_DEFAULT    |
 310              		.loc 1 371 0
 311 0018 0222     		movs	r2, #2
 312 001a FF32     		adds	r2, r2, #255
 313 001c 01E0     		b	.L14
 314              	.L16:
 381:Generated_Source\PSoC4/mADC_Adc.c ****     }
 382:Generated_Source\PSoC4/mADC_Adc.c ****     /* This setting is used for both MEASMODE_VREFBY2 and MEASMODE_VIN */
 383:Generated_Source\PSoC4/mADC_Adc.c ****     else
 384:Generated_Source\PSoC4/mADC_Adc.c ****     {
 385:Generated_Source\PSoC4/mADC_Adc.c ****         tmpStartVal =
 315              		.loc 1 385 0
 316 001e 0222     		movs	r2, #2
 317 0020 FF32     		adds	r2, r2, #255
 318              	.L14:
 319              	.LVL34:
 386:Generated_Source\PSoC4/mADC_Adc.c ****             mADC_FSMSETTING_AZSKIP_DEFAULT    |
 387:Generated_Source\PSoC4/mADC_Adc.c ****             mADC_FSMSETTING_DSIIGNORE   |
 388:Generated_Source\PSoC4/mADC_Adc.c ****             mADC_FSMSETTING_NOABORT     |
 389:Generated_Source\PSoC4/mADC_Adc.c ****             mADC_FSMSETTING_SEQMODE     |
 390:Generated_Source\PSoC4/mADC_Adc.c ****             mADC_FSMSETTING_START;
 391:Generated_Source\PSoC4/mADC_Adc.c ****     }
 392:Generated_Source\PSoC4/mADC_Adc.c **** 
 393:Generated_Source\PSoC4/mADC_Adc.c ****     /* Enable HSComp */
 394:Generated_Source\PSoC4/mADC_Adc.c ****     CY_SET_REG32(mADC_SEQ_START_PTR, tmpStartVal);
 320              		.loc 1 394 0
 321 0022 024B     		ldr	r3, .L17+4
 322 0024 1A60     		str	r2, [r3]
 395:Generated_Source\PSoC4/mADC_Adc.c **** }
 323              		.loc 1 395 0
 324              		@ sp needed
 325 0026 7047     		bx	lr
 326              	.L18:
 327              		.align	2
 328              	.L17:
 329 0028 20030B40 		.word	1074463520
 330 002c 40030B40 		.word	1074463552
 331              		.cfi_endproc
 332              	.LFE7:
 333              		.size	mADC_StartAdcFSM, .-mADC_StartAdcFSM
 334              		.section	.text.mADC_IsBusy,"ax",%progbits
 335              		.align	2
 336              		.global	mADC_IsBusy
 337              		.code	16
 338              		.thumb_func
 339              		.type	mADC_IsBusy, %function
 340              	mADC_IsBusy:
 341              	.LFB11:
 396:Generated_Source\PSoC4/mADC_Adc.c **** 
 397:Generated_Source\PSoC4/mADC_Adc.c **** /*******************************************************************************
 398:Generated_Source\PSoC4/mADC_Adc.c **** * Function Name: mADC_AdcCaptureResources
 399:Generated_Source\PSoC4/mADC_Adc.c **** ****************************************************************************//**
ARM GAS  C:\Users\PC\AppData\Local\Temp\ccNJoPe4.s 			page 14


 400:Generated_Source\PSoC4/mADC_Adc.c **** *
 401:Generated_Source\PSoC4/mADC_Adc.c **** * \brief
 402:Generated_Source\PSoC4/mADC_Adc.c **** *   Releases CSD resources from sensing mode, and sets it into ADC mode.
 403:Generated_Source\PSoC4/mADC_Adc.c **** *
 404:Generated_Source\PSoC4/mADC_Adc.c **** * \details
 405:Generated_Source\PSoC4/mADC_Adc.c **** *   Releases CSD resources from sensing mode, and sets it into ADC mode.
 406:Generated_Source\PSoC4/mADC_Adc.c **** *
 407:Generated_Source\PSoC4/mADC_Adc.c **** * \return     The function returns cystatus of its operation.
 408:Generated_Source\PSoC4/mADC_Adc.c **** *   - CYRET_LOCKED  - The sensing hardware is in-use and could not be released.
 409:Generated_Source\PSoC4/mADC_Adc.c **** *   - CYRET_SUCCESS - Block is configured for ADC use.
 410:Generated_Source\PSoC4/mADC_Adc.c **** *
 411:Generated_Source\PSoC4/mADC_Adc.c **** *******************************************************************************/
 412:Generated_Source\PSoC4/mADC_Adc.c **** cystatus mADC_AdcCaptureResources(void)
 413:Generated_Source\PSoC4/mADC_Adc.c **** {
 414:Generated_Source\PSoC4/mADC_Adc.c ****     cystatus tmpStatus = CYRET_SUCCESS;
 415:Generated_Source\PSoC4/mADC_Adc.c **** 
 416:Generated_Source\PSoC4/mADC_Adc.c ****     #if !(mADC_ENABLE == mADC_ADC_STANDALONE_EN)
 417:Generated_Source\PSoC4/mADC_Adc.c ****         tmpStatus = mADC_SsReleaseResources();
 418:Generated_Source\PSoC4/mADC_Adc.c **** 
 419:Generated_Source\PSoC4/mADC_Adc.c ****         if (mADC_INIT_NEEDED == mADC_initVar)
 420:Generated_Source\PSoC4/mADC_Adc.c ****         {
 421:Generated_Source\PSoC4/mADC_Adc.c ****             if(CYRET_SUCCESS == tmpStatus)
 422:Generated_Source\PSoC4/mADC_Adc.c ****             {
 423:Generated_Source\PSoC4/mADC_Adc.c ****                 mADC_ConfigAdcResources();
 424:Generated_Source\PSoC4/mADC_Adc.c ****             }
 425:Generated_Source\PSoC4/mADC_Adc.c ****             else
 426:Generated_Source\PSoC4/mADC_Adc.c ****             {
 427:Generated_Source\PSoC4/mADC_Adc.c ****                 tmpStatus = CYRET_LOCKED;
 428:Generated_Source\PSoC4/mADC_Adc.c ****             }
 429:Generated_Source\PSoC4/mADC_Adc.c ****         }
 430:Generated_Source\PSoC4/mADC_Adc.c ****     #else
 431:Generated_Source\PSoC4/mADC_Adc.c ****         if (mADC_INIT_NEEDED == mADC_initVar)
 432:Generated_Source\PSoC4/mADC_Adc.c ****         {
 433:Generated_Source\PSoC4/mADC_Adc.c ****             mADC_ConfigAdcResources();
 434:Generated_Source\PSoC4/mADC_Adc.c ****         }
 435:Generated_Source\PSoC4/mADC_Adc.c ****     #endif /* !(mADC_ENABLE == mADC_ADC_STANDALONE_EN) */
 436:Generated_Source\PSoC4/mADC_Adc.c **** 
 437:Generated_Source\PSoC4/mADC_Adc.c ****     return tmpStatus;
 438:Generated_Source\PSoC4/mADC_Adc.c **** }
 439:Generated_Source\PSoC4/mADC_Adc.c **** 
 440:Generated_Source\PSoC4/mADC_Adc.c **** 
 441:Generated_Source\PSoC4/mADC_Adc.c **** /*******************************************************************************
 442:Generated_Source\PSoC4/mADC_Adc.c **** * Function Name: mADC_AdcReleaseResources
 443:Generated_Source\PSoC4/mADC_Adc.c **** ****************************************************************************//**
 444:Generated_Source\PSoC4/mADC_Adc.c **** *
 445:Generated_Source\PSoC4/mADC_Adc.c **** * \brief
 446:Generated_Source\PSoC4/mADC_Adc.c **** *   Releases CSD resources from ADC mode.
 447:Generated_Source\PSoC4/mADC_Adc.c **** *
 448:Generated_Source\PSoC4/mADC_Adc.c **** * \details
 449:Generated_Source\PSoC4/mADC_Adc.c **** *   Releases CSD resources from ADC mode.
 450:Generated_Source\PSoC4/mADC_Adc.c **** *
 451:Generated_Source\PSoC4/mADC_Adc.c **** * \return     The function returns cystatus of its operation.
 452:Generated_Source\PSoC4/mADC_Adc.c **** *   CYRET_SUCCESS   Block resources no longer in use.
 453:Generated_Source\PSoC4/mADC_Adc.c **** *
 454:Generated_Source\PSoC4/mADC_Adc.c **** *******************************************************************************/
 455:Generated_Source\PSoC4/mADC_Adc.c **** cystatus mADC_AdcReleaseResources(void)
 456:Generated_Source\PSoC4/mADC_Adc.c **** {
ARM GAS  C:\Users\PC\AppData\Local\Temp\ccNJoPe4.s 			page 15


 457:Generated_Source\PSoC4/mADC_Adc.c ****     uint8  interruptState;
 458:Generated_Source\PSoC4/mADC_Adc.c ****     uint32 newRegValue;
 459:Generated_Source\PSoC4/mADC_Adc.c **** 
 460:Generated_Source\PSoC4/mADC_Adc.c ****     if (mADC_INIT_DONE == mADC_initVar)
 461:Generated_Source\PSoC4/mADC_Adc.c ****     {
 462:Generated_Source\PSoC4/mADC_Adc.c ****         /* If the FSM is running, shut it down. */
 463:Generated_Source\PSoC4/mADC_Adc.c ****         if(mADC_STATUS_IDLE != (mADC_dsRam.adcStatus
 464:Generated_Source\PSoC4/mADC_Adc.c ****                             & mADC_STATUS_FSM_MASK))
 465:Generated_Source\PSoC4/mADC_Adc.c ****         {
 466:Generated_Source\PSoC4/mADC_Adc.c ****             mADC_StartAdcFSM(mADC_MEASMODE_OFF);
 467:Generated_Source\PSoC4/mADC_Adc.c ****             mADC_SetAdcChannel((mADC_dsRam.adcStatus
 468:Generated_Source\PSoC4/mADC_Adc.c ****                             & (uint8)(mADC_STATUS_LASTCHAN_MASK)),
 469:Generated_Source\PSoC4/mADC_Adc.c ****                             mADC_CHAN_DISCONNECT);
 470:Generated_Source\PSoC4/mADC_Adc.c ****             mADC_dsRam.adcStatus = mADC_STATUS_IDLE;
 471:Generated_Source\PSoC4/mADC_Adc.c ****         }
 472:Generated_Source\PSoC4/mADC_Adc.c **** 
 473:Generated_Source\PSoC4/mADC_Adc.c ****         /* Disable the subblocks. */
 474:Generated_Source\PSoC4/mADC_Adc.c ****         CY_SET_REG32(mADC_CSD_IDACB_PTR, 0u);
 475:Generated_Source\PSoC4/mADC_Adc.c ****         CY_SET_REG32(mADC_REFGEN_PTR, 0u);
 476:Generated_Source\PSoC4/mADC_Adc.c ****         CY_SET_REG32(mADC_AMBUF_PTR, 0u);
 477:Generated_Source\PSoC4/mADC_Adc.c ****         CY_SET_REG32(mADC_HSCMP_PTR, 0u);
 478:Generated_Source\PSoC4/mADC_Adc.c **** 
 479:Generated_Source\PSoC4/mADC_Adc.c ****         /* Reset the block-level routing */
 480:Generated_Source\PSoC4/mADC_Adc.c ****         CY_SET_REG32(mADC_SW_HS_P_SEL_PTR, 0u);
 481:Generated_Source\PSoC4/mADC_Adc.c ****         CY_SET_REG32(mADC_SW_HS_N_SEL_PTR, 0u);
 482:Generated_Source\PSoC4/mADC_Adc.c ****         CY_SET_REG32(mADC_SW_SHIELD_SEL_PTR, 0u);
 483:Generated_Source\PSoC4/mADC_Adc.c ****         CY_SET_REG32(mADC_SW_CMP_P_SEL_PTR, 0u);
 484:Generated_Source\PSoC4/mADC_Adc.c ****         CY_SET_REG32(mADC_SW_CMP_N_SEL_PTR, 0u);
 485:Generated_Source\PSoC4/mADC_Adc.c ****         CY_SET_REG32(mADC_SW_FW_MOD_SEL_PTR, 0u);
 486:Generated_Source\PSoC4/mADC_Adc.c ****         CY_SET_REG32(mADC_SW_FW_TANK_SEL_PTR, 0u);
 487:Generated_Source\PSoC4/mADC_Adc.c **** 
 488:Generated_Source\PSoC4/mADC_Adc.c ****         interruptState = CyEnterCriticalSection();
 489:Generated_Source\PSoC4/mADC_Adc.c ****         newRegValue = CY_GET_REG32(mADC_SW_BYP_SEL_PTR);
 490:Generated_Source\PSoC4/mADC_Adc.c ****         newRegValue &= (uint32)(~mADC_SW_BYP_DEFAULT);
 491:Generated_Source\PSoC4/mADC_Adc.c ****         CY_SET_REG32(mADC_SW_BYP_SEL_PTR, newRegValue);
 492:Generated_Source\PSoC4/mADC_Adc.c ****         CyExitCriticalSection(interruptState);
 493:Generated_Source\PSoC4/mADC_Adc.c **** 
 494:Generated_Source\PSoC4/mADC_Adc.c ****          /* Disconnect all ADC channels */
 495:Generated_Source\PSoC4/mADC_Adc.c ****         mADC_ClearAdcChannels();
 496:Generated_Source\PSoC4/mADC_Adc.c **** 
 497:Generated_Source\PSoC4/mADC_Adc.c ****         mADC_initVar = mADC_INIT_NEEDED;
 498:Generated_Source\PSoC4/mADC_Adc.c ****     }
 499:Generated_Source\PSoC4/mADC_Adc.c **** 
 500:Generated_Source\PSoC4/mADC_Adc.c ****     return CYRET_SUCCESS;
 501:Generated_Source\PSoC4/mADC_Adc.c **** }
 502:Generated_Source\PSoC4/mADC_Adc.c **** 
 503:Generated_Source\PSoC4/mADC_Adc.c **** 
 504:Generated_Source\PSoC4/mADC_Adc.c **** /*******************************************************************************
 505:Generated_Source\PSoC4/mADC_Adc.c **** * Function Name: mADC_StartConvert
 506:Generated_Source\PSoC4/mADC_Adc.c **** ****************************************************************************//**
 507:Generated_Source\PSoC4/mADC_Adc.c **** *
 508:Generated_Source\PSoC4/mADC_Adc.c **** * \brief
 509:Generated_Source\PSoC4/mADC_Adc.c **** *  Initializes the hardware and initiates an analog-to-digital conversion on the
 510:Generated_Source\PSoC4/mADC_Adc.c **** *  selected input channel.
 511:Generated_Source\PSoC4/mADC_Adc.c **** *
 512:Generated_Source\PSoC4/mADC_Adc.c **** * \details
 513:Generated_Source\PSoC4/mADC_Adc.c **** *  Initializes the hardware and initiates an analog-to-digital conversion on the
ARM GAS  C:\Users\PC\AppData\Local\Temp\ccNJoPe4.s 			page 16


 514:Generated_Source\PSoC4/mADC_Adc.c **** *  selected input channel. This API only initiates a conversion and does not
 515:Generated_Source\PSoC4/mADC_Adc.c **** *  wait for the conversion to be completed, therefore the
 516:Generated_Source\PSoC4/mADC_Adc.c **** *  mADC_IsBusy() API must be used to check the
 517:Generated_Source\PSoC4/mADC_Adc.c **** *  status and ensure that the conversion is complete prior to reading the result,
 518:Generated_Source\PSoC4/mADC_Adc.c **** *  starting a new conversion with the same or a different channel, or reconfiguring
 519:Generated_Source\PSoC4/mADC_Adc.c **** *  the hardware for different functionality.
 520:Generated_Source\PSoC4/mADC_Adc.c **** *
 521:Generated_Source\PSoC4/mADC_Adc.c **** * \param chId
 522:Generated_Source\PSoC4/mADC_Adc.c **** *  The ID of the channel to be converted.
 523:Generated_Source\PSoC4/mADC_Adc.c **** *
 524:Generated_Source\PSoC4/mADC_Adc.c **** * \return
 525:Generated_Source\PSoC4/mADC_Adc.c **** *  The function returns cystatus of its operation.
 526:Generated_Source\PSoC4/mADC_Adc.c **** *    - CYRET_SUCCESS - A conversion has started.
 527:Generated_Source\PSoC4/mADC_Adc.c **** *    - CYRET_LOCKED - The hardware is already in-use by a previously initialized
 528:Generated_Source\PSoC4/mADC_Adc.c **** *      conversion or other functionality. No new conversion is started by this API.
 529:Generated_Source\PSoC4/mADC_Adc.c **** *    - CYRET_BAD_PARAM - An invalid channel Id. No conversion is started.
 530:Generated_Source\PSoC4/mADC_Adc.c **** *
 531:Generated_Source\PSoC4/mADC_Adc.c **** *******************************************************************************/
 532:Generated_Source\PSoC4/mADC_Adc.c **** cystatus mADC_StartConvert(uint8 chId)
 533:Generated_Source\PSoC4/mADC_Adc.c **** {
 534:Generated_Source\PSoC4/mADC_Adc.c ****     uint32 tmpStatus = CYRET_SUCCESS;
 535:Generated_Source\PSoC4/mADC_Adc.c **** 
 536:Generated_Source\PSoC4/mADC_Adc.c ****     /* If non-standalone ADC, try to Capture resources */
 537:Generated_Source\PSoC4/mADC_Adc.c ****     #if (mADC_ENABLE != mADC_ADC_STANDALONE_EN)
 538:Generated_Source\PSoC4/mADC_Adc.c ****         tmpStatus = mADC_AdcCaptureResources();
 539:Generated_Source\PSoC4/mADC_Adc.c **** 
 540:Generated_Source\PSoC4/mADC_Adc.c ****         if (CYRET_SUCCESS == tmpStatus)
 541:Generated_Source\PSoC4/mADC_Adc.c ****         {
 542:Generated_Source\PSoC4/mADC_Adc.c ****     #else /* Otherwise, configure resources if needed. */
 543:Generated_Source\PSoC4/mADC_Adc.c ****         if (mADC_INIT_NEEDED == mADC_initVar)
 544:Generated_Source\PSoC4/mADC_Adc.c ****         {
 545:Generated_Source\PSoC4/mADC_Adc.c ****             mADC_ConfigAdcResources();
 546:Generated_Source\PSoC4/mADC_Adc.c ****         }
 547:Generated_Source\PSoC4/mADC_Adc.c ****     #endif /* (mADC_ENABLE != mADC_ADC_STANDALONE_EN) */
 548:Generated_Source\PSoC4/mADC_Adc.c **** 
 549:Generated_Source\PSoC4/mADC_Adc.c ****     if(chId >= mADC_ADC_TOTAL_CHANNELS)
 550:Generated_Source\PSoC4/mADC_Adc.c ****     {
 551:Generated_Source\PSoC4/mADC_Adc.c ****         tmpStatus = CYRET_BAD_PARAM;
 552:Generated_Source\PSoC4/mADC_Adc.c ****     }
 553:Generated_Source\PSoC4/mADC_Adc.c **** 
 554:Generated_Source\PSoC4/mADC_Adc.c ****     if (CYRET_SUCCESS == tmpStatus)
 555:Generated_Source\PSoC4/mADC_Adc.c ****     {
 556:Generated_Source\PSoC4/mADC_Adc.c ****         if(mADC_STATUS_IDLE != (mADC_dsRam.adcStatus & mADC_STATUS_FSM_MASK))
 557:Generated_Source\PSoC4/mADC_Adc.c ****         {
 558:Generated_Source\PSoC4/mADC_Adc.c ****             tmpStatus = CYRET_LOCKED;
 559:Generated_Source\PSoC4/mADC_Adc.c ****         }
 560:Generated_Source\PSoC4/mADC_Adc.c **** 
 561:Generated_Source\PSoC4/mADC_Adc.c ****         if(CYRET_SUCCESS == tmpStatus)
 562:Generated_Source\PSoC4/mADC_Adc.c ****         {
 563:Generated_Source\PSoC4/mADC_Adc.c ****             #if(mADC_ADC_ANALOG_STARTUP_DELAY_US > 0uL)
 564:Generated_Source\PSoC4/mADC_Adc.c ****                 CyDelayUs(mADC_ADC_ANALOG_STARTUP_DELAY_US);
 565:Generated_Source\PSoC4/mADC_Adc.c ****             #endif /* (mADC_ADC_ANALOG_STARTUP_DELAY_US > 0uL) */
 566:Generated_Source\PSoC4/mADC_Adc.c **** 
 567:Generated_Source\PSoC4/mADC_Adc.c ****             /* Set Component Status */
 568:Generated_Source\PSoC4/mADC_Adc.c ****             mADC_dsRam.adcStatus = (mADC_STATUS_CONVERTING | chId);
 569:Generated_Source\PSoC4/mADC_Adc.c **** 
 570:Generated_Source\PSoC4/mADC_Adc.c ****             /* Configure a desired channel if needed */
ARM GAS  C:\Users\PC\AppData\Local\Temp\ccNJoPe4.s 			page 17


 571:Generated_Source\PSoC4/mADC_Adc.c ****             if (chId != mADC_dsRam.adcActiveCh)
 572:Generated_Source\PSoC4/mADC_Adc.c ****             {
 573:Generated_Source\PSoC4/mADC_Adc.c ****                 if (mADC_NO_CHANNEL != mADC_dsRam.adcActiveCh)
 574:Generated_Source\PSoC4/mADC_Adc.c ****                 {
 575:Generated_Source\PSoC4/mADC_Adc.c ****                     /* Disconnect existing channel */
 576:Generated_Source\PSoC4/mADC_Adc.c ****                     mADC_SetAdcChannel(mADC_dsRam.adcActiveCh, mADC_CHAN_DISCONNECT);
 577:Generated_Source\PSoC4/mADC_Adc.c ****                 }
 578:Generated_Source\PSoC4/mADC_Adc.c ****                 /* Connect desired input */
 579:Generated_Source\PSoC4/mADC_Adc.c ****                 mADC_SetAdcChannel(chId, mADC_CHAN_CONNECT);
 580:Generated_Source\PSoC4/mADC_Adc.c ****                 mADC_dsRam.adcActiveCh = chId;
 581:Generated_Source\PSoC4/mADC_Adc.c ****             }
 582:Generated_Source\PSoC4/mADC_Adc.c **** 
 583:Generated_Source\PSoC4/mADC_Adc.c ****             /* Un-mask ADC_RES interrupt (enable interrupt) */
 584:Generated_Source\PSoC4/mADC_Adc.c ****             CY_SET_REG32(mADC_INTR_MASK_PTR, mADC_INTR_MASK_ADC_RES_MASK);
 585:Generated_Source\PSoC4/mADC_Adc.c ****             mADC_StartAdcFSM(mADC_MEASMODE_VIN);
 586:Generated_Source\PSoC4/mADC_Adc.c ****         }
 587:Generated_Source\PSoC4/mADC_Adc.c ****     }
 588:Generated_Source\PSoC4/mADC_Adc.c **** 
 589:Generated_Source\PSoC4/mADC_Adc.c ****     #if (mADC_ENABLE != mADC_ADC_STANDALONE_EN)
 590:Generated_Source\PSoC4/mADC_Adc.c ****         }
 591:Generated_Source\PSoC4/mADC_Adc.c ****     #endif /* (mADC_ENABLE != mADC_ADC_STANDALONE_EN) */
 592:Generated_Source\PSoC4/mADC_Adc.c **** 
 593:Generated_Source\PSoC4/mADC_Adc.c ****     return tmpStatus;
 594:Generated_Source\PSoC4/mADC_Adc.c **** }
 595:Generated_Source\PSoC4/mADC_Adc.c **** 
 596:Generated_Source\PSoC4/mADC_Adc.c **** 
 597:Generated_Source\PSoC4/mADC_Adc.c **** /*******************************************************************************
 598:Generated_Source\PSoC4/mADC_Adc.c **** * Function Name: mADC_IsBusy
 599:Generated_Source\PSoC4/mADC_Adc.c **** ****************************************************************************//**
 600:Generated_Source\PSoC4/mADC_Adc.c **** *
 601:Generated_Source\PSoC4/mADC_Adc.c **** * \brief
 602:Generated_Source\PSoC4/mADC_Adc.c **** *   The function returns the status of the ADC's operation.
 603:Generated_Source\PSoC4/mADC_Adc.c **** *
 604:Generated_Source\PSoC4/mADC_Adc.c **** * \details
 605:Generated_Source\PSoC4/mADC_Adc.c **** *   The function returns the status of the ADC's operation. A new conversion or
 606:Generated_Source\PSoC4/mADC_Adc.c **** *   calibration must not be started unless the ADC is in the IDLE state.
 607:Generated_Source\PSoC4/mADC_Adc.c **** *
 608:Generated_Source\PSoC4/mADC_Adc.c **** * \return
 609:Generated_Source\PSoC4/mADC_Adc.c **** *  The function returns the status of the ADC's operation.
 610:Generated_Source\PSoC4/mADC_Adc.c **** *    - mADC_STATUS_IDLE - The ADC is not busy,
 611:Generated_Source\PSoC4/mADC_Adc.c **** *       a new conversion can be initiated.
 612:Generated_Source\PSoC4/mADC_Adc.c **** *    - mADC_STATUS_CONVERTING - A previously
 613:Generated_Source\PSoC4/mADC_Adc.c **** *       initiated conversion is in progress.
 614:Generated_Source\PSoC4/mADC_Adc.c **** *    - mADC_STATUS_CALIBPH1 - The ADC is in the
 615:Generated_Source\PSoC4/mADC_Adc.c **** *      first phase (of 3) of calibration.
 616:Generated_Source\PSoC4/mADC_Adc.c **** *    - mADC_STATUS_CALIBPH2 - The ADC is in the
 617:Generated_Source\PSoC4/mADC_Adc.c **** *      second phase (of 3) of calibration.
 618:Generated_Source\PSoC4/mADC_Adc.c **** *    - mADC_STATUS_CALIBPH3 - The ADC is in the
 619:Generated_Source\PSoC4/mADC_Adc.c **** *      third phase (of 3) of calibration.
 620:Generated_Source\PSoC4/mADC_Adc.c **** *    - mADC_STATUS_OVERFLOW - The most recent
 621:Generated_Source\PSoC4/mADC_Adc.c **** *      measurement caused an overflow. The root cause of the overflow may be
 622:Generated_Source\PSoC4/mADC_Adc.c **** *      the previous calibration values being invalid or the VDDA setting in cydwr
 623:Generated_Source\PSoC4/mADC_Adc.c **** *      and hardware do not match. Perform re-calibration or set the
 624:Generated_Source\PSoC4/mADC_Adc.c **** *      appropriate VDDA value in cydwr to avoid this error condition.
 625:Generated_Source\PSoC4/mADC_Adc.c **** *
 626:Generated_Source\PSoC4/mADC_Adc.c **** *******************************************************************************/
 627:Generated_Source\PSoC4/mADC_Adc.c **** uint8 mADC_IsBusy(void)
ARM GAS  C:\Users\PC\AppData\Local\Temp\ccNJoPe4.s 			page 18


 628:Generated_Source\PSoC4/mADC_Adc.c **** {
 342              		.loc 1 628 0
 343              		.cfi_startproc
 344              		@ args = 0, pretend = 0, frame = 0
 345              		@ frame_needed = 0, uses_anonymous_args = 0
 346              		@ link register save eliminated.
 629:Generated_Source\PSoC4/mADC_Adc.c ****     uint8 tmpStatus;
 630:Generated_Source\PSoC4/mADC_Adc.c **** 
 631:Generated_Source\PSoC4/mADC_Adc.c ****     if (0u != (mADC_ADC_RES_REG & mADC_ADC_RES_OVERFLOW_MASK))
 347              		.loc 1 631 0
 348 0000 054B     		ldr	r3, .L22
 349 0002 1B68     		ldr	r3, [r3]
 350 0004 5B00     		lsls	r3, r3, #1
 351 0006 04D4     		bmi	.L21
 632:Generated_Source\PSoC4/mADC_Adc.c ****     {
 633:Generated_Source\PSoC4/mADC_Adc.c ****         tmpStatus = mADC_STATUS_OVERFLOW;
 634:Generated_Source\PSoC4/mADC_Adc.c ****     }
 635:Generated_Source\PSoC4/mADC_Adc.c ****     else
 636:Generated_Source\PSoC4/mADC_Adc.c ****     {
 637:Generated_Source\PSoC4/mADC_Adc.c ****         tmpStatus = (uint8)((*(volatile uint8 *)&mADC_dsRam.adcStatus) & mADC_STATUS_FSM_MASK);
 352              		.loc 1 637 0
 353 0008 044B     		ldr	r3, .L22+4
 354 000a 187A     		ldrb	r0, [r3, #8]
 355 000c 0F23     		movs	r3, #15
 356 000e 9843     		bics	r0, r3
 357              	.LVL35:
 358 0010 00E0     		b	.L20
 359              	.LVL36:
 360              	.L21:
 633:Generated_Source\PSoC4/mADC_Adc.c ****     }
 361              		.loc 1 633 0
 362 0012 8020     		movs	r0, #128
 363              	.L20:
 364              	.LVL37:
 638:Generated_Source\PSoC4/mADC_Adc.c ****     }
 639:Generated_Source\PSoC4/mADC_Adc.c **** 
 640:Generated_Source\PSoC4/mADC_Adc.c ****     return tmpStatus;
 641:Generated_Source\PSoC4/mADC_Adc.c **** }
 365              		.loc 1 641 0
 366              		@ sp needed
 367 0014 7047     		bx	lr
 368              	.L23:
 369 0016 C046     		.align	2
 370              	.L22:
 371 0018 E0000B40 		.word	1074462944
 372 001c 00000000 		.word	mADC_dsRam
 373              		.cfi_endproc
 374              	.LFE11:
 375              		.size	mADC_IsBusy, .-mADC_IsBusy
 376              		.section	.text.mADC_GetResult_mVolts,"ax",%progbits
 377              		.align	2
 378              		.global	mADC_GetResult_mVolts
 379              		.code	16
 380              		.thumb_func
 381              		.type	mADC_GetResult_mVolts, %function
 382              	mADC_GetResult_mVolts:
 383              	.LFB13:
ARM GAS  C:\Users\PC\AppData\Local\Temp\ccNJoPe4.s 			page 19


 642:Generated_Source\PSoC4/mADC_Adc.c **** 
 643:Generated_Source\PSoC4/mADC_Adc.c **** 
 644:Generated_Source\PSoC4/mADC_Adc.c **** /*******************************************************************************
 645:Generated_Source\PSoC4/mADC_Adc.c **** * Function Name: mADC_ReadResult_mVolts
 646:Generated_Source\PSoC4/mADC_Adc.c **** ****************************************************************************//**
 647:Generated_Source\PSoC4/mADC_Adc.c **** *
 648:Generated_Source\PSoC4/mADC_Adc.c **** * \brief
 649:Generated_Source\PSoC4/mADC_Adc.c **** *  This is a blocking API. It initiates a conversion, waits for completion and
 650:Generated_Source\PSoC4/mADC_Adc.c **** *  returns the result.
 651:Generated_Source\PSoC4/mADC_Adc.c **** *
 652:Generated_Source\PSoC4/mADC_Adc.c **** * \details
 653:Generated_Source\PSoC4/mADC_Adc.c **** *  This is a blocking API. Internally, it starts a conversion using
 654:Generated_Source\PSoC4/mADC_Adc.c **** *  mADC_StartConvert(), checks the status using
 655:Generated_Source\PSoC4/mADC_Adc.c **** *  mADC_IsBusy(), waits until the conversion is
 656:Generated_Source\PSoC4/mADC_Adc.c **** *  completed and returns the result.
 657:Generated_Source\PSoC4/mADC_Adc.c **** *
 658:Generated_Source\PSoC4/mADC_Adc.c **** * \param chId
 659:Generated_Source\PSoC4/mADC_Adc.c **** *  The ID of the channel to be measured
 660:Generated_Source\PSoC4/mADC_Adc.c **** *
 661:Generated_Source\PSoC4/mADC_Adc.c **** * \return
 662:Generated_Source\PSoC4/mADC_Adc.c **** *  The function returns voltage in millivolts or
 663:Generated_Source\PSoC4/mADC_Adc.c **** *  mADC_VALUE_BAD_RESULT if:
 664:Generated_Source\PSoC4/mADC_Adc.c **** *   - chId is invalid
 665:Generated_Source\PSoC4/mADC_Adc.c **** *   - The ADC conversion is not started
 666:Generated_Source\PSoC4/mADC_Adc.c **** *   - The ADC conversion watch-dog triggered.
 667:Generated_Source\PSoC4/mADC_Adc.c **** *
 668:Generated_Source\PSoC4/mADC_Adc.c **** *******************************************************************************/
 669:Generated_Source\PSoC4/mADC_Adc.c **** uint16 mADC_ReadResult_mVolts(uint8 chId)
 670:Generated_Source\PSoC4/mADC_Adc.c **** {
 671:Generated_Source\PSoC4/mADC_Adc.c ****     cystatus convertStatus;
 672:Generated_Source\PSoC4/mADC_Adc.c ****     uint16 tmpValue;
 673:Generated_Source\PSoC4/mADC_Adc.c ****     uint32 watchdogAdcCounter;
 674:Generated_Source\PSoC4/mADC_Adc.c **** 
 675:Generated_Source\PSoC4/mADC_Adc.c ****     convertStatus = mADC_StartConvert(chId);
 676:Generated_Source\PSoC4/mADC_Adc.c ****     if (CYRET_SUCCESS == convertStatus)
 677:Generated_Source\PSoC4/mADC_Adc.c ****     {
 678:Generated_Source\PSoC4/mADC_Adc.c ****         /* Initialize Watchdog Counter with time interval which is enough to ADC conversion is comp
 679:Generated_Source\PSoC4/mADC_Adc.c ****         watchdogAdcCounter = mADC_CAL_WATCHDOG_CYCLES_NUM;
 680:Generated_Source\PSoC4/mADC_Adc.c ****         while ((mADC_IsBusy() != mADC_STATUS_IDLE) &&
 681:Generated_Source\PSoC4/mADC_Adc.c ****                (0u != watchdogAdcCounter))
 682:Generated_Source\PSoC4/mADC_Adc.c ****         {
 683:Generated_Source\PSoC4/mADC_Adc.c ****             /* Wait until conversion complete and decrement Watchdog Counter to prevent unending lo
 684:Generated_Source\PSoC4/mADC_Adc.c ****             watchdogAdcCounter--;
 685:Generated_Source\PSoC4/mADC_Adc.c ****         }
 686:Generated_Source\PSoC4/mADC_Adc.c ****         if (0u != watchdogAdcCounter)
 687:Generated_Source\PSoC4/mADC_Adc.c ****         {
 688:Generated_Source\PSoC4/mADC_Adc.c ****             tmpValue = mADC_GetResult_mVolts(chId);
 689:Generated_Source\PSoC4/mADC_Adc.c ****         }
 690:Generated_Source\PSoC4/mADC_Adc.c ****         else
 691:Generated_Source\PSoC4/mADC_Adc.c ****         {
 692:Generated_Source\PSoC4/mADC_Adc.c ****             tmpValue = (uint16) mADC_VALUE_BAD_RESULT;
 693:Generated_Source\PSoC4/mADC_Adc.c ****         }
 694:Generated_Source\PSoC4/mADC_Adc.c ****     }
 695:Generated_Source\PSoC4/mADC_Adc.c ****     else
 696:Generated_Source\PSoC4/mADC_Adc.c ****     {
 697:Generated_Source\PSoC4/mADC_Adc.c ****         tmpValue = (uint16) mADC_VALUE_BAD_RESULT;
 698:Generated_Source\PSoC4/mADC_Adc.c ****     }
ARM GAS  C:\Users\PC\AppData\Local\Temp\ccNJoPe4.s 			page 20


 699:Generated_Source\PSoC4/mADC_Adc.c **** 
 700:Generated_Source\PSoC4/mADC_Adc.c ****     return tmpValue;
 701:Generated_Source\PSoC4/mADC_Adc.c **** }
 702:Generated_Source\PSoC4/mADC_Adc.c **** 
 703:Generated_Source\PSoC4/mADC_Adc.c **** 
 704:Generated_Source\PSoC4/mADC_Adc.c **** /*******************************************************************************
 705:Generated_Source\PSoC4/mADC_Adc.c **** * Function Name: mADC_GetResult_mVolts
 706:Generated_Source\PSoC4/mADC_Adc.c **** ****************************************************************************//**
 707:Generated_Source\PSoC4/mADC_Adc.c **** *
 708:Generated_Source\PSoC4/mADC_Adc.c **** * \brief
 709:Generated_Source\PSoC4/mADC_Adc.c **** *  This API does not perform an ADC conversion and returns the last valid result
 710:Generated_Source\PSoC4/mADC_Adc.c **** *  for the specified channel.
 711:Generated_Source\PSoC4/mADC_Adc.c **** *
 712:Generated_Source\PSoC4/mADC_Adc.c **** * \details
 713:Generated_Source\PSoC4/mADC_Adc.c **** *  Returns the last valid result from the data structure for the specified channel.
 714:Generated_Source\PSoC4/mADC_Adc.c **** *  This function can be used to read a previous result of any channel even if the
 715:Generated_Source\PSoC4/mADC_Adc.c **** *  ADC is busy or a conversion is in progress. However, it is highly recommended
 716:Generated_Source\PSoC4/mADC_Adc.c **** *  not to use this function with a channel that is in an active conversion.
 717:Generated_Source\PSoC4/mADC_Adc.c **** *
 718:Generated_Source\PSoC4/mADC_Adc.c **** * \param chId
 719:Generated_Source\PSoC4/mADC_Adc.c **** *  The ID of the channel to be measured
 720:Generated_Source\PSoC4/mADC_Adc.c **** *
 721:Generated_Source\PSoC4/mADC_Adc.c **** * \return
 722:Generated_Source\PSoC4/mADC_Adc.c **** *  The function returns a voltage in millivolts or
 723:Generated_Source\PSoC4/mADC_Adc.c **** *  mADC_VALUE_BAD_CHAN_ID if chId is invalid.
 724:Generated_Source\PSoC4/mADC_Adc.c **** *
 725:Generated_Source\PSoC4/mADC_Adc.c **** *******************************************************************************/
 726:Generated_Source\PSoC4/mADC_Adc.c **** uint16 mADC_GetResult_mVolts(uint8 chId)
 727:Generated_Source\PSoC4/mADC_Adc.c **** {
 384              		.loc 1 727 0
 385              		.cfi_startproc
 386              		@ args = 0, pretend = 0, frame = 0
 387              		@ frame_needed = 0, uses_anonymous_args = 0
 388              		@ link register save eliminated.
 389              	.LVL38:
 728:Generated_Source\PSoC4/mADC_Adc.c ****     uint32 tmpRetVal = mADC_VALUE_BAD_CHAN_ID;
 729:Generated_Source\PSoC4/mADC_Adc.c **** 
 730:Generated_Source\PSoC4/mADC_Adc.c ****     if(chId < mADC_ADC_TOTAL_CHANNELS)
 390              		.loc 1 730 0
 391 0000 0128     		cmp	r0, #1
 392 0002 03D8     		bhi	.L26
 731:Generated_Source\PSoC4/mADC_Adc.c ****     {
 732:Generated_Source\PSoC4/mADC_Adc.c ****         tmpRetVal = mADC_dsRam.adcResult[chId];
 393              		.loc 1 732 0
 394 0004 4000     		lsls	r0, r0, #1
 395              	.LVL39:
 396 0006 034B     		ldr	r3, .L27
 397 0008 C05A     		ldrh	r0, [r0, r3]
 398              	.LVL40:
 399 000a 00E0     		b	.L25
 400              	.LVL41:
 401              	.L26:
 728:Generated_Source\PSoC4/mADC_Adc.c ****     uint32 tmpRetVal = mADC_VALUE_BAD_CHAN_ID;
 402              		.loc 1 728 0
 403 000c 0248     		ldr	r0, .L27+4
 404              	.LVL42:
 405              	.L25:
ARM GAS  C:\Users\PC\AppData\Local\Temp\ccNJoPe4.s 			page 21


 733:Generated_Source\PSoC4/mADC_Adc.c ****     }
 734:Generated_Source\PSoC4/mADC_Adc.c ****     return (uint16)tmpRetVal;
 406              		.loc 1 734 0
 407 000e 80B2     		uxth	r0, r0
 408              	.LVL43:
 735:Generated_Source\PSoC4/mADC_Adc.c **** }
 409              		.loc 1 735 0
 410              		@ sp needed
 411 0010 7047     		bx	lr
 412              	.L28:
 413 0012 C046     		.align	2
 414              	.L27:
 415 0014 00000000 		.word	mADC_dsRam
 416 0018 FFFF0000 		.word	65535
 417              		.cfi_endproc
 418              	.LFE13:
 419              		.size	mADC_GetResult_mVolts, .-mADC_GetResult_mVolts
 420              		.section	.text.mADC_Stop,"ax",%progbits
 421              		.align	2
 422              		.global	mADC_Stop
 423              		.code	16
 424              		.thumb_func
 425              		.type	mADC_Stop, %function
 426              	mADC_Stop:
 427              	.LFB16:
 736:Generated_Source\PSoC4/mADC_Adc.c **** 
 737:Generated_Source\PSoC4/mADC_Adc.c **** 
 738:Generated_Source\PSoC4/mADC_Adc.c **** /*******************************************************************************
 739:Generated_Source\PSoC4/mADC_Adc.c **** * Function Name: mADC_Calibrate
 740:Generated_Source\PSoC4/mADC_Adc.c **** ****************************************************************************//**
 741:Generated_Source\PSoC4/mADC_Adc.c **** *
 742:Generated_Source\PSoC4/mADC_Adc.c **** * \brief
 743:Generated_Source\PSoC4/mADC_Adc.c **** *  Performs calibration of the ADC module.
 744:Generated_Source\PSoC4/mADC_Adc.c **** *
 745:Generated_Source\PSoC4/mADC_Adc.c **** * \details
 746:Generated_Source\PSoC4/mADC_Adc.c **** *  Performs calibration for the ADC to identify the appropriate hardware configuration
 747:Generated_Source\PSoC4/mADC_Adc.c **** *  to produce accurate results. It is recommended to run the calibration
 748:Generated_Source\PSoC4/mADC_Adc.c **** *  periodically (for example every 10 seconds) for accuracy and compensations.
 749:Generated_Source\PSoC4/mADC_Adc.c **** *
 750:Generated_Source\PSoC4/mADC_Adc.c **** * \return
 751:Generated_Source\PSoC4/mADC_Adc.c **** *  The function returns cystatus of its operation.
 752:Generated_Source\PSoC4/mADC_Adc.c **** *    - CYRET_SUCCESS - The block is configured for the ADC use.
 753:Generated_Source\PSoC4/mADC_Adc.c **** *    - CYRET_LOCKED - The hardware is already in-use by a previously initialized
 754:Generated_Source\PSoC4/mADC_Adc.c **** *      conversion or other functionality. No new conversion is started by this API.
 755:Generated_Source\PSoC4/mADC_Adc.c **** *
 756:Generated_Source\PSoC4/mADC_Adc.c **** *******************************************************************************/
 757:Generated_Source\PSoC4/mADC_Adc.c **** cystatus mADC_Calibrate(void)
 758:Generated_Source\PSoC4/mADC_Adc.c **** {
 759:Generated_Source\PSoC4/mADC_Adc.c ****     uint32 tmpStatus;
 760:Generated_Source\PSoC4/mADC_Adc.c ****     uint32 watchdogAdcCounter;
 761:Generated_Source\PSoC4/mADC_Adc.c ****     uint32 tmpVrefCal;
 762:Generated_Source\PSoC4/mADC_Adc.c **** 
 763:Generated_Source\PSoC4/mADC_Adc.c ****     tmpStatus = mADC_AdcCaptureResources();
 764:Generated_Source\PSoC4/mADC_Adc.c **** 
 765:Generated_Source\PSoC4/mADC_Adc.c ****     if(mADC_STATUS_IDLE != (mADC_dsRam.adcStatus
 766:Generated_Source\PSoC4/mADC_Adc.c ****         & mADC_STATUS_FSM_MASK))
 767:Generated_Source\PSoC4/mADC_Adc.c ****     {
ARM GAS  C:\Users\PC\AppData\Local\Temp\ccNJoPe4.s 			page 22


 768:Generated_Source\PSoC4/mADC_Adc.c ****         tmpStatus = CYRET_LOCKED;
 769:Generated_Source\PSoC4/mADC_Adc.c ****     }
 770:Generated_Source\PSoC4/mADC_Adc.c **** 
 771:Generated_Source\PSoC4/mADC_Adc.c ****     if (CYRET_SUCCESS == tmpStatus)
 772:Generated_Source\PSoC4/mADC_Adc.c ****     {
 773:Generated_Source\PSoC4/mADC_Adc.c ****         #if(mADC_ADC_ANALOG_STARTUP_DELAY_US > 0uL)
 774:Generated_Source\PSoC4/mADC_Adc.c ****             CyDelayUs(mADC_ADC_ANALOG_STARTUP_DELAY_US);
 775:Generated_Source\PSoC4/mADC_Adc.c ****         #endif /* (mADC_ADC_ANALOG_STARTUP_DELAY_US > 0uL) */
 776:Generated_Source\PSoC4/mADC_Adc.c **** 
 777:Generated_Source\PSoC4/mADC_Adc.c ****         /* Disconnect a channel if connected */
 778:Generated_Source\PSoC4/mADC_Adc.c ****         if (mADC_NO_CHANNEL != mADC_dsRam.adcActiveCh)
 779:Generated_Source\PSoC4/mADC_Adc.c ****         {
 780:Generated_Source\PSoC4/mADC_Adc.c ****             mADC_SetAdcChannel(mADC_dsRam.adcActiveCh, mADC_CHAN_DISCONNECT);
 781:Generated_Source\PSoC4/mADC_Adc.c ****             mADC_dsRam.adcActiveCh = mADC_NO_CHANNEL;
 782:Generated_Source\PSoC4/mADC_Adc.c ****         }
 783:Generated_Source\PSoC4/mADC_Adc.c **** 
 784:Generated_Source\PSoC4/mADC_Adc.c ****         /* Get Vref trim-value */
 785:Generated_Source\PSoC4/mADC_Adc.c ****         tmpVrefCal = (uint32)CY_GET_REG8(CYREG_SFLASH_CSDV2_CSD0_ADC_TRIM1) |
 786:Generated_Source\PSoC4/mADC_Adc.c ****             (((uint32)CY_GET_REG8(CYREG_SFLASH_CSDV2_CSD0_ADC_TRIM2)) << 8u);
 787:Generated_Source\PSoC4/mADC_Adc.c **** 
 788:Generated_Source\PSoC4/mADC_Adc.c ****         /* Update nominal Vref to real Vref */
 789:Generated_Source\PSoC4/mADC_Adc.c ****         tmpVrefCal *= mADC_ADC_VREF_MV;
 790:Generated_Source\PSoC4/mADC_Adc.c ****         tmpVrefCal /= mADC_VREFCALIB_BASE;
 791:Generated_Source\PSoC4/mADC_Adc.c **** 
 792:Generated_Source\PSoC4/mADC_Adc.c ****         mADC_adcVrefMv = (uint16)tmpVrefCal;
 793:Generated_Source\PSoC4/mADC_Adc.c **** 
 794:Generated_Source\PSoC4/mADC_Adc.c ****         mADC_dsRam.adcIdac = (uint8)mADC_ADC_IDAC_DEFAULT;
 795:Generated_Source\PSoC4/mADC_Adc.c ****         CY_SET_REG32(mADC_CSD_IDACB_PTR, mADC_IDACB_CONFIG |
 796:Generated_Source\PSoC4/mADC_Adc.c ****                                                      mADC_dsRam.adcIdac);
 797:Generated_Source\PSoC4/mADC_Adc.c **** 
 798:Generated_Source\PSoC4/mADC_Adc.c ****         mADC_dsRam.adcStatus = (mADC_STATUS_CALIBPH1);
 799:Generated_Source\PSoC4/mADC_Adc.c **** 
 800:Generated_Source\PSoC4/mADC_Adc.c ****         /* Un-mask ADC_RES interrupt (enable interrupt) */
 801:Generated_Source\PSoC4/mADC_Adc.c ****         CY_SET_REG32(mADC_INTR_MASK_PTR, mADC_INTR_MASK_ADC_RES_MASK);
 802:Generated_Source\PSoC4/mADC_Adc.c ****         mADC_StartAdcFSM(mADC_MEASMODE_VREF);
 803:Generated_Source\PSoC4/mADC_Adc.c **** 
 804:Generated_Source\PSoC4/mADC_Adc.c ****         /* Global CRC update */
 805:Generated_Source\PSoC4/mADC_Adc.c ****         #if (mADC_ENABLE == mADC_SELF_TEST_EN)
 806:Generated_Source\PSoC4/mADC_Adc.c ****             #if (mADC_ENABLE ==mADC_TST_GLOBAL_CRC_EN)
 807:Generated_Source\PSoC4/mADC_Adc.c ****                 mADC_DsUpdateGlobalCrc();
 808:Generated_Source\PSoC4/mADC_Adc.c ****             #endif /* (mADC_ENABLE == mADC_TST_GLOBAL_CRC_EN) */
 809:Generated_Source\PSoC4/mADC_Adc.c ****         #endif /* (mADC_ENABLE == mADC_SELF_TEST_EN) */
 810:Generated_Source\PSoC4/mADC_Adc.c **** 
 811:Generated_Source\PSoC4/mADC_Adc.c ****         /* Initialize Watchdog Counter with time interval which is enough to ADC calibration is com
 812:Generated_Source\PSoC4/mADC_Adc.c ****         watchdogAdcCounter = mADC_CAL_WATCHDOG_CYCLES_NUM;
 813:Generated_Source\PSoC4/mADC_Adc.c ****         while (((*(volatile uint8 *)&mADC_dsRam.adcStatus & mADC_STATUS_FSM_MASK)
 814:Generated_Source\PSoC4/mADC_Adc.c ****                 != 0u) &&  (0u != watchdogAdcCounter))
 815:Generated_Source\PSoC4/mADC_Adc.c ****         {
 816:Generated_Source\PSoC4/mADC_Adc.c ****             /* Wait until scan complete and decrement Watchdog Counter to prevent unending loop */
 817:Generated_Source\PSoC4/mADC_Adc.c ****             watchdogAdcCounter--;
 818:Generated_Source\PSoC4/mADC_Adc.c ****         }
 819:Generated_Source\PSoC4/mADC_Adc.c ****     }
 820:Generated_Source\PSoC4/mADC_Adc.c **** 
 821:Generated_Source\PSoC4/mADC_Adc.c ****     return tmpStatus;
 822:Generated_Source\PSoC4/mADC_Adc.c **** }
 823:Generated_Source\PSoC4/mADC_Adc.c **** 
 824:Generated_Source\PSoC4/mADC_Adc.c **** 
ARM GAS  C:\Users\PC\AppData\Local\Temp\ccNJoPe4.s 			page 23


 825:Generated_Source\PSoC4/mADC_Adc.c **** /*******************************************************************************
 826:Generated_Source\PSoC4/mADC_Adc.c **** * Function Name: mADC_Initialize
 827:Generated_Source\PSoC4/mADC_Adc.c **** ****************************************************************************//**
 828:Generated_Source\PSoC4/mADC_Adc.c **** *
 829:Generated_Source\PSoC4/mADC_Adc.c **** * \brief
 830:Generated_Source\PSoC4/mADC_Adc.c **** *   Configures the hardware to ADC mode and begins a calibration.
 831:Generated_Source\PSoC4/mADC_Adc.c **** *
 832:Generated_Source\PSoC4/mADC_Adc.c **** * \details
 833:Generated_Source\PSoC4/mADC_Adc.c **** *   Configures the hardware to ADC mode and begins a calibration.
 834:Generated_Source\PSoC4/mADC_Adc.c **** *
 835:Generated_Source\PSoC4/mADC_Adc.c **** *******************************************************************************/
 836:Generated_Source\PSoC4/mADC_Adc.c **** void mADC_Initialize(void)
 837:Generated_Source\PSoC4/mADC_Adc.c **** {
 838:Generated_Source\PSoC4/mADC_Adc.c ****     mADC_ConfigAdcResources();
 839:Generated_Source\PSoC4/mADC_Adc.c ****     (void)mADC_Calibrate();
 840:Generated_Source\PSoC4/mADC_Adc.c **** }
 841:Generated_Source\PSoC4/mADC_Adc.c **** 
 842:Generated_Source\PSoC4/mADC_Adc.c **** 
 843:Generated_Source\PSoC4/mADC_Adc.c **** /*******************************************************************************
 844:Generated_Source\PSoC4/mADC_Adc.c **** * Function Name: mADC_Stop
 845:Generated_Source\PSoC4/mADC_Adc.c **** ****************************************************************************//**
 846:Generated_Source\PSoC4/mADC_Adc.c **** *
 847:Generated_Source\PSoC4/mADC_Adc.c **** * \brief
 848:Generated_Source\PSoC4/mADC_Adc.c **** *   Disables the hardware sub-blocks that are in use while in the ADC mode,
 849:Generated_Source\PSoC4/mADC_Adc.c **** *   and frees the routing.
 850:Generated_Source\PSoC4/mADC_Adc.c **** *
 851:Generated_Source\PSoC4/mADC_Adc.c **** * \details
 852:Generated_Source\PSoC4/mADC_Adc.c **** *   This function stops the Component operation. No ADC conversion can be
 853:Generated_Source\PSoC4/mADC_Adc.c **** *   initiated when the Component is stopped. Once stopped, the hardware block
 854:Generated_Source\PSoC4/mADC_Adc.c **** *   may be reconfigured by the application program for any other special usage.
 855:Generated_Source\PSoC4/mADC_Adc.c **** *   The ADC operation can be resumed by calling the
 856:Generated_Source\PSoC4/mADC_Adc.c **** *   mADC_Resume() function or the Component can
 857:Generated_Source\PSoC4/mADC_Adc.c **** *   be reset by calling the mADC_Start() function.
 858:Generated_Source\PSoC4/mADC_Adc.c **** *   This function is called when no ADC conversion is in progress.
 859:Generated_Source\PSoC4/mADC_Adc.c **** *
 860:Generated_Source\PSoC4/mADC_Adc.c **** *******************************************************************************/
 861:Generated_Source\PSoC4/mADC_Adc.c **** void mADC_Stop(void)
 862:Generated_Source\PSoC4/mADC_Adc.c **** {
 428              		.loc 1 862 0
 429              		.cfi_startproc
 430              		@ args = 0, pretend = 0, frame = 0
 431              		@ frame_needed = 0, uses_anonymous_args = 0
 432              		@ link register save eliminated.
 863:Generated_Source\PSoC4/mADC_Adc.c ****     #if (mADC_ENABLE != mADC_ADC_STANDALONE_EN)
 864:Generated_Source\PSoC4/mADC_Adc.c ****         (void)mADC_AdcReleaseResources();
 865:Generated_Source\PSoC4/mADC_Adc.c ****     #endif /* (mADC_ENABLE != mADC_ADC_STANDALONE_EN) */
 866:Generated_Source\PSoC4/mADC_Adc.c ****     mADC_initVar = mADC_INIT_NEEDED;
 433              		.loc 1 866 0
 434 0000 0022     		movs	r2, #0
 435 0002 014B     		ldr	r3, .L30
 436 0004 1A70     		strb	r2, [r3]
 867:Generated_Source\PSoC4/mADC_Adc.c **** }
 437              		.loc 1 867 0
 438              		@ sp needed
 439 0006 7047     		bx	lr
 440              	.L31:
 441              		.align	2
ARM GAS  C:\Users\PC\AppData\Local\Temp\ccNJoPe4.s 			page 24


 442              	.L30:
 443 0008 00000000 		.word	.LANCHOR0
 444              		.cfi_endproc
 445              	.LFE16:
 446              		.size	mADC_Stop, .-mADC_Stop
 447              		.section	.text.mADC_ClearAdcChannels,"ax",%progbits
 448              		.align	2
 449              		.global	mADC_ClearAdcChannels
 450              		.code	16
 451              		.thumb_func
 452              		.type	mADC_ClearAdcChannels, %function
 453              	mADC_ClearAdcChannels:
 454              	.LFB18:
 868:Generated_Source\PSoC4/mADC_Adc.c **** 
 869:Generated_Source\PSoC4/mADC_Adc.c **** 
 870:Generated_Source\PSoC4/mADC_Adc.c **** /*******************************************************************************
 871:Generated_Source\PSoC4/mADC_Adc.c **** * Function Name: mADC_Resume
 872:Generated_Source\PSoC4/mADC_Adc.c **** ****************************************************************************//**
 873:Generated_Source\PSoC4/mADC_Adc.c **** *
 874:Generated_Source\PSoC4/mADC_Adc.c **** * \brief
 875:Generated_Source\PSoC4/mADC_Adc.c **** *   Resumes the ADC operation after a stop call.
 876:Generated_Source\PSoC4/mADC_Adc.c **** *
 877:Generated_Source\PSoC4/mADC_Adc.c **** * \details
 878:Generated_Source\PSoC4/mADC_Adc.c **** *   Resumes the ADC operation if the operation is stopped
 879:Generated_Source\PSoC4/mADC_Adc.c **** *   previously by the mADC_Stop() API.
 880:Generated_Source\PSoC4/mADC_Adc.c **** *
 881:Generated_Source\PSoC4/mADC_Adc.c **** *******************************************************************************/
 882:Generated_Source\PSoC4/mADC_Adc.c **** void mADC_Resume(void)
 883:Generated_Source\PSoC4/mADC_Adc.c **** {
 884:Generated_Source\PSoC4/mADC_Adc.c ****     mADC_Initialize();
 885:Generated_Source\PSoC4/mADC_Adc.c **** }
 886:Generated_Source\PSoC4/mADC_Adc.c **** 
 887:Generated_Source\PSoC4/mADC_Adc.c **** 
 888:Generated_Source\PSoC4/mADC_Adc.c **** /*******************************************************************************
 889:Generated_Source\PSoC4/mADC_Adc.c **** * Function Name: mADC_ClearAdcChannels
 890:Generated_Source\PSoC4/mADC_Adc.c **** ****************************************************************************//**
 891:Generated_Source\PSoC4/mADC_Adc.c **** *
 892:Generated_Source\PSoC4/mADC_Adc.c **** * \brief
 893:Generated_Source\PSoC4/mADC_Adc.c **** *  Resets all the ADC channels to disconnected state.
 894:Generated_Source\PSoC4/mADC_Adc.c **** *
 895:Generated_Source\PSoC4/mADC_Adc.c **** * \details
 896:Generated_Source\PSoC4/mADC_Adc.c **** *   The function goes through all the ADC channels and disconnects the pin
 897:Generated_Source\PSoC4/mADC_Adc.c **** *   and the analog muxbus B.  Sets the drive mode of the pin as well.
 898:Generated_Source\PSoC4/mADC_Adc.c **** *
 899:Generated_Source\PSoC4/mADC_Adc.c **** *******************************************************************************/
 900:Generated_Source\PSoC4/mADC_Adc.c **** void mADC_ClearAdcChannels(void)
 901:Generated_Source\PSoC4/mADC_Adc.c **** {
 455              		.loc 1 901 0
 456              		.cfi_startproc
 457              		@ args = 0, pretend = 0, frame = 0
 458              		@ frame_needed = 0, uses_anonymous_args = 0
 459 0000 10B5     		push	{r4, lr}
 460              		.cfi_def_cfa_offset 8
 461              		.cfi_offset 4, -8
 462              		.cfi_offset 14, -4
 463              	.LVL44:
 902:Generated_Source\PSoC4/mADC_Adc.c ****     uint32 chId;
ARM GAS  C:\Users\PC\AppData\Local\Temp\ccNJoPe4.s 			page 25


 903:Generated_Source\PSoC4/mADC_Adc.c **** 
 904:Generated_Source\PSoC4/mADC_Adc.c ****     for (chId = 0u; chId < mADC_ADC_TOTAL_CHANNELS; chId++)
 464              		.loc 1 904 0
 465 0002 0024     		movs	r4, #0
 466 0004 04E0     		b	.L33
 467              	.LVL45:
 468              	.L34:
 905:Generated_Source\PSoC4/mADC_Adc.c ****     {
 906:Generated_Source\PSoC4/mADC_Adc.c ****         mADC_SetAdcChannel((uint8)chId, mADC_CHAN_DISCONNECT);
 469              		.loc 1 906 0 discriminator 3
 470 0006 E0B2     		uxtb	r0, r4
 471 0008 0021     		movs	r1, #0
 472 000a FFF7FEFF 		bl	mADC_SetAdcChannel
 473              	.LVL46:
 904:Generated_Source\PSoC4/mADC_Adc.c ****     {
 474              		.loc 1 904 0 discriminator 3
 475 000e 0134     		adds	r4, r4, #1
 476              	.LVL47:
 477              	.L33:
 904:Generated_Source\PSoC4/mADC_Adc.c ****     {
 478              		.loc 1 904 0 is_stmt 0 discriminator 1
 479 0010 012C     		cmp	r4, #1
 480 0012 F8D9     		bls	.L34
 907:Generated_Source\PSoC4/mADC_Adc.c ****     }
 908:Generated_Source\PSoC4/mADC_Adc.c ****     mADC_dsRam.adcActiveCh = mADC_NO_CHANNEL;
 481              		.loc 1 908 0 is_stmt 1
 482 0014 FF22     		movs	r2, #255
 483 0016 014B     		ldr	r3, .L35
 484 0018 9A72     		strb	r2, [r3, #10]
 909:Generated_Source\PSoC4/mADC_Adc.c **** }
 485              		.loc 1 909 0
 486              		@ sp needed
 487              	.LVL48:
 488 001a 10BD     		pop	{r4, pc}
 489              	.L36:
 490              		.align	2
 491              	.L35:
 492 001c 00000000 		.word	mADC_dsRam
 493              		.cfi_endproc
 494              	.LFE18:
 495              		.size	mADC_ClearAdcChannels, .-mADC_ClearAdcChannels
 496              		.section	.text.mADC_AdcReleaseResources,"ax",%progbits
 497              		.align	2
 498              		.global	mADC_AdcReleaseResources
 499              		.code	16
 500              		.thumb_func
 501              		.type	mADC_AdcReleaseResources, %function
 502              	mADC_AdcReleaseResources:
 503              	.LFB9:
 456:Generated_Source\PSoC4/mADC_Adc.c ****     uint8  interruptState;
 504              		.loc 1 456 0
 505              		.cfi_startproc
 506              		@ args = 0, pretend = 0, frame = 0
 507              		@ frame_needed = 0, uses_anonymous_args = 0
 508 0000 10B5     		push	{r4, lr}
 509              		.cfi_def_cfa_offset 8
 510              		.cfi_offset 4, -8
ARM GAS  C:\Users\PC\AppData\Local\Temp\ccNJoPe4.s 			page 26


 511              		.cfi_offset 14, -4
 460:Generated_Source\PSoC4/mADC_Adc.c ****     {
 512              		.loc 1 460 0
 513 0002 1D4B     		ldr	r3, .L40
 514 0004 1B78     		ldrb	r3, [r3]
 515 0006 012B     		cmp	r3, #1
 516 0008 34D1     		bne	.L38
 463:Generated_Source\PSoC4/mADC_Adc.c ****                             & mADC_STATUS_FSM_MASK))
 517              		.loc 1 463 0
 518 000a 1C4B     		ldr	r3, .L40+4
 519 000c 1B7A     		ldrb	r3, [r3, #8]
 520 000e 0F22     		movs	r2, #15
 521 0010 9343     		bics	r3, r2
 522 0012 0BD0     		beq	.L39
 466:Generated_Source\PSoC4/mADC_Adc.c ****             mADC_SetAdcChannel((mADC_dsRam.adcStatus
 523              		.loc 1 466 0
 524 0014 0020     		movs	r0, #0
 525 0016 FFF7FEFF 		bl	mADC_StartAdcFSM
 526              	.LVL49:
 467:Generated_Source\PSoC4/mADC_Adc.c ****                             & (uint8)(mADC_STATUS_LASTCHAN_MASK)),
 527              		.loc 1 467 0
 528 001a 184C     		ldr	r4, .L40+4
 529 001c 207A     		ldrb	r0, [r4, #8]
 530 001e 0F23     		movs	r3, #15
 531 0020 1840     		ands	r0, r3
 532 0022 0021     		movs	r1, #0
 533 0024 FFF7FEFF 		bl	mADC_SetAdcChannel
 534              	.LVL50:
 470:Generated_Source\PSoC4/mADC_Adc.c ****         }
 535              		.loc 1 470 0
 536 0028 0023     		movs	r3, #0
 537 002a 2372     		strb	r3, [r4, #8]
 538              	.L39:
 474:Generated_Source\PSoC4/mADC_Adc.c ****         CY_SET_REG32(mADC_REFGEN_PTR, 0u);
 539              		.loc 1 474 0
 540 002c 0024     		movs	r4, #0
 541 002e 144B     		ldr	r3, .L40+8
 542 0030 1C60     		str	r4, [r3]
 475:Generated_Source\PSoC4/mADC_Adc.c ****         CY_SET_REG32(mADC_AMBUF_PTR, 0u);
 543              		.loc 1 475 0
 544 0032 144B     		ldr	r3, .L40+12
 545 0034 1C60     		str	r4, [r3]
 476:Generated_Source\PSoC4/mADC_Adc.c ****         CY_SET_REG32(mADC_HSCMP_PTR, 0u);
 546              		.loc 1 476 0
 547 0036 144B     		ldr	r3, .L40+16
 548 0038 1C60     		str	r4, [r3]
 477:Generated_Source\PSoC4/mADC_Adc.c **** 
 549              		.loc 1 477 0
 550 003a 144B     		ldr	r3, .L40+20
 551 003c 1C60     		str	r4, [r3]
 480:Generated_Source\PSoC4/mADC_Adc.c ****         CY_SET_REG32(mADC_SW_HS_N_SEL_PTR, 0u);
 552              		.loc 1 480 0
 553 003e 144B     		ldr	r3, .L40+24
 554 0040 1C60     		str	r4, [r3]
 481:Generated_Source\PSoC4/mADC_Adc.c ****         CY_SET_REG32(mADC_SW_SHIELD_SEL_PTR, 0u);
 555              		.loc 1 481 0
 556 0042 144B     		ldr	r3, .L40+28
ARM GAS  C:\Users\PC\AppData\Local\Temp\ccNJoPe4.s 			page 27


 557 0044 1C60     		str	r4, [r3]
 482:Generated_Source\PSoC4/mADC_Adc.c ****         CY_SET_REG32(mADC_SW_CMP_P_SEL_PTR, 0u);
 558              		.loc 1 482 0
 559 0046 144B     		ldr	r3, .L40+32
 560 0048 1C60     		str	r4, [r3]
 483:Generated_Source\PSoC4/mADC_Adc.c ****         CY_SET_REG32(mADC_SW_CMP_N_SEL_PTR, 0u);
 561              		.loc 1 483 0
 562 004a 144B     		ldr	r3, .L40+36
 563 004c 1C60     		str	r4, [r3]
 484:Generated_Source\PSoC4/mADC_Adc.c ****         CY_SET_REG32(mADC_SW_FW_MOD_SEL_PTR, 0u);
 564              		.loc 1 484 0
 565 004e 144B     		ldr	r3, .L40+40
 566 0050 1C60     		str	r4, [r3]
 485:Generated_Source\PSoC4/mADC_Adc.c ****         CY_SET_REG32(mADC_SW_FW_TANK_SEL_PTR, 0u);
 567              		.loc 1 485 0
 568 0052 144B     		ldr	r3, .L40+44
 569 0054 1C60     		str	r4, [r3]
 486:Generated_Source\PSoC4/mADC_Adc.c **** 
 570              		.loc 1 486 0
 571 0056 144B     		ldr	r3, .L40+48
 572 0058 1C60     		str	r4, [r3]
 488:Generated_Source\PSoC4/mADC_Adc.c ****         newRegValue = CY_GET_REG32(mADC_SW_BYP_SEL_PTR);
 573              		.loc 1 488 0
 574 005a FFF7FEFF 		bl	CyEnterCriticalSection
 575              	.LVL51:
 489:Generated_Source\PSoC4/mADC_Adc.c ****         newRegValue &= (uint32)(~mADC_SW_BYP_DEFAULT);
 576              		.loc 1 489 0
 577 005e 134A     		ldr	r2, .L40+52
 578 0060 1168     		ldr	r1, [r2]
 579              	.LVL52:
 490:Generated_Source\PSoC4/mADC_Adc.c ****         CY_SET_REG32(mADC_SW_BYP_SEL_PTR, newRegValue);
 580              		.loc 1 490 0
 581 0062 134B     		ldr	r3, .L40+56
 582 0064 0B40     		ands	r3, r1
 583              	.LVL53:
 491:Generated_Source\PSoC4/mADC_Adc.c ****         CyExitCriticalSection(interruptState);
 584              		.loc 1 491 0
 585 0066 1360     		str	r3, [r2]
 492:Generated_Source\PSoC4/mADC_Adc.c **** 
 586              		.loc 1 492 0
 587 0068 FFF7FEFF 		bl	CyExitCriticalSection
 588              	.LVL54:
 495:Generated_Source\PSoC4/mADC_Adc.c **** 
 589              		.loc 1 495 0
 590 006c FFF7FEFF 		bl	mADC_ClearAdcChannels
 591              	.LVL55:
 497:Generated_Source\PSoC4/mADC_Adc.c ****     }
 592              		.loc 1 497 0
 593 0070 014B     		ldr	r3, .L40
 594 0072 1C70     		strb	r4, [r3]
 595              	.L38:
 501:Generated_Source\PSoC4/mADC_Adc.c **** 
 596              		.loc 1 501 0
 597 0074 0020     		movs	r0, #0
 598              		@ sp needed
 599 0076 10BD     		pop	{r4, pc}
 600              	.L41:
ARM GAS  C:\Users\PC\AppData\Local\Temp\ccNJoPe4.s 			page 28


 601              		.align	2
 602              	.L40:
 603 0078 00000000 		.word	.LANCHOR0
 604 007c 00000000 		.word	mADC_dsRam
 605 0080 C4010B40 		.word	1074463172
 606 0084 88010B40 		.word	1074463112
 607 0088 84010B40 		.word	1074463108
 608 008c 80010B40 		.word	1074463104
 609 0090 80020B40 		.word	1074463360
 610 0094 84020B40 		.word	1074463364
 611 0098 88020B40 		.word	1074463368
 612 009c A0020B40 		.word	1074463392
 613 00a0 A4020B40 		.word	1074463396
 614 00a4 B0020B40 		.word	1074463408
 615 00a8 B4020B40 		.word	1074463412
 616 00ac 94020B40 		.word	1074463380
 617 00b0 FFFFEEFF 		.word	-1114113
 618              		.cfi_endproc
 619              	.LFE9:
 620              		.size	mADC_AdcReleaseResources, .-mADC_AdcReleaseResources
 621              		.section	.text.mADC_SetModClkClockDivider,"ax",%progbits
 622              		.align	2
 623              		.global	mADC_SetModClkClockDivider
 624              		.code	16
 625              		.thumb_func
 626              		.type	mADC_SetModClkClockDivider, %function
 627              	mADC_SetModClkClockDivider:
 628              	.LFB19:
 910:Generated_Source\PSoC4/mADC_Adc.c **** 
 911:Generated_Source\PSoC4/mADC_Adc.c **** /*******************************************************************************
 912:Generated_Source\PSoC4/mADC_Adc.c **** * Function Name: mADC_SetModClkClockDivider
 913:Generated_Source\PSoC4/mADC_Adc.c **** ****************************************************************************//**
 914:Generated_Source\PSoC4/mADC_Adc.c **** *
 915:Generated_Source\PSoC4/mADC_Adc.c **** * \brief
 916:Generated_Source\PSoC4/mADC_Adc.c **** *   Sets the divider values for the modulator clock and then starts
 917:Generated_Source\PSoC4/mADC_Adc.c **** *   the modulator clock.
 918:Generated_Source\PSoC4/mADC_Adc.c **** *
 919:Generated_Source\PSoC4/mADC_Adc.c **** * \details
 920:Generated_Source\PSoC4/mADC_Adc.c **** *   It is not recommended to call this function directly by the application layer.
 921:Generated_Source\PSoC4/mADC_Adc.c **** *   It is used by initialization to enable the clocks.
 922:Generated_Source\PSoC4/mADC_Adc.c **** *
 923:Generated_Source\PSoC4/mADC_Adc.c **** * \param
 924:Generated_Source\PSoC4/mADC_Adc.c **** *   modClk The divider value for the modulator clock.
 925:Generated_Source\PSoC4/mADC_Adc.c **** *
 926:Generated_Source\PSoC4/mADC_Adc.c **** *******************************************************************************/
 927:Generated_Source\PSoC4/mADC_Adc.c **** void mADC_SetModClkClockDivider(uint32 modClk)
 928:Generated_Source\PSoC4/mADC_Adc.c **** {
 629              		.loc 1 928 0
 630              		.cfi_startproc
 631              		@ args = 0, pretend = 0, frame = 0
 632              		@ frame_needed = 0, uses_anonymous_args = 0
 633              		@ link register save eliminated.
 634              	.LVL56:
 929:Generated_Source\PSoC4/mADC_Adc.c ****     /* Stop modulator clock   */
 930:Generated_Source\PSoC4/mADC_Adc.c ****     CY_SET_REG32(mADC_MODCLK_CMD_PTR,
 635              		.loc 1 930 0
 636 0000 074A     		ldr	r2, .L44
ARM GAS  C:\Users\PC\AppData\Local\Temp\ccNJoPe4.s 			page 29


 637 0002 084B     		ldr	r3, .L44+4
 638 0004 1A60     		str	r2, [r3]
 931:Generated_Source\PSoC4/mADC_Adc.c ****                  ((uint32)mADC_ModClk__DIV_ID <<
 932:Generated_Source\PSoC4/mADC_Adc.c ****                  mADC_MODCLK_CMD_DIV_SHIFT)|
 933:Generated_Source\PSoC4/mADC_Adc.c ****                  ((uint32)mADC_MODCLK_CMD_DISABLE_MASK));
 934:Generated_Source\PSoC4/mADC_Adc.c **** 
 935:Generated_Source\PSoC4/mADC_Adc.c ****     /*
 936:Generated_Source\PSoC4/mADC_Adc.c ****      * Set divider value for modClk.
 937:Generated_Source\PSoC4/mADC_Adc.c ****      * 1u is subtracted from modClk because Divider register value 0 corresponds
 938:Generated_Source\PSoC4/mADC_Adc.c ****      * to dividing by 1.
 939:Generated_Source\PSoC4/mADC_Adc.c ****      */
 940:Generated_Source\PSoC4/mADC_Adc.c ****     CY_SET_REG32(mADC_MODCLK_DIV_PTR, ((modClk - 1u) << 8u));
 639              		.loc 1 940 0
 640 0006 0138     		subs	r0, r0, #1
 641              	.LVL57:
 642 0008 0002     		lsls	r0, r0, #8
 643              	.LVL58:
 644 000a 074B     		ldr	r3, .L44+8
 645 000c 1860     		str	r0, [r3]
 646              	.L43:
 941:Generated_Source\PSoC4/mADC_Adc.c **** 
 942:Generated_Source\PSoC4/mADC_Adc.c ****     /* Check whether previous modulator clock start command has finished. */
 943:Generated_Source\PSoC4/mADC_Adc.c ****     while(0u != (CY_GET_REG32(mADC_MODCLK_CMD_PTR) & mADC_MODCLK_CMD_ENABLE_MASK))
 647              		.loc 1 943 0 discriminator 1
 648 000e 054B     		ldr	r3, .L44+4
 649 0010 1B68     		ldr	r3, [r3]
 650 0012 002B     		cmp	r3, #0
 651 0014 FBDB     		blt	.L43
 944:Generated_Source\PSoC4/mADC_Adc.c ****     {
 945:Generated_Source\PSoC4/mADC_Adc.c ****         /* Wait until previous modulator clock start command has finished. */
 946:Generated_Source\PSoC4/mADC_Adc.c ****     }
 947:Generated_Source\PSoC4/mADC_Adc.c **** 
 948:Generated_Source\PSoC4/mADC_Adc.c ****     /* Start modulator clock, aligned to HFCLK */
 949:Generated_Source\PSoC4/mADC_Adc.c ****     CY_SET_REG32(mADC_MODCLK_CMD_PTR,
 652              		.loc 1 949 0
 653 0016 054A     		ldr	r2, .L44+12
 654 0018 024B     		ldr	r3, .L44+4
 655 001a 1A60     		str	r2, [r3]
 950:Generated_Source\PSoC4/mADC_Adc.c ****                  (uint32)(((uint32)mADC_ModClk__DIV_ID << mADC_MODCLK_CMD_DIV_SHIFT) |
 951:Generated_Source\PSoC4/mADC_Adc.c ****                   ((uint32)mADC_ModClk__PA_DIV_ID << mADC_MODCLK_CMD_PA_DIV_SHIFT) |
 952:Generated_Source\PSoC4/mADC_Adc.c ****                   mADC_MODCLK_CMD_ENABLE_MASK));
 953:Generated_Source\PSoC4/mADC_Adc.c **** }
 656              		.loc 1 953 0
 657              		@ sp needed
 658 001c 7047     		bx	lr
 659              	.L45:
 660 001e C046     		.align	2
 661              	.L44:
 662 0020 40000040 		.word	1073741888
 663 0024 00000140 		.word	1073807360
 664 0028 00030140 		.word	1073808128
 665 002c 40FF0080 		.word	-2147418304
 666              		.cfi_endproc
 667              	.LFE19:
 668              		.size	mADC_SetModClkClockDivider, .-mADC_SetModClkClockDivider
 669              		.section	.text.mADC_ConfigAdcResources,"ax",%progbits
 670              		.align	2
ARM GAS  C:\Users\PC\AppData\Local\Temp\ccNJoPe4.s 			page 30


 671              		.global	mADC_ConfigAdcResources
 672              		.code	16
 673              		.thumb_func
 674              		.type	mADC_ConfigAdcResources, %function
 675              	mADC_ConfigAdcResources:
 676              	.LFB6:
 277:Generated_Source\PSoC4/mADC_Adc.c ****     uint8  interruptState;
 677              		.loc 1 277 0
 678              		.cfi_startproc
 679              		@ args = 0, pretend = 0, frame = 0
 680              		@ frame_needed = 0, uses_anonymous_args = 0
 681 0000 70B5     		push	{r4, r5, r6, lr}
 682              		.cfi_def_cfa_offset 16
 683              		.cfi_offset 4, -16
 684              		.cfi_offset 5, -12
 685              		.cfi_offset 6, -8
 686              		.cfi_offset 14, -4
 282:Generated_Source\PSoC4/mADC_Adc.c ****     CY_SET_REG32(mADC_SENSE_PERIOD_PTR, (mADC_SENSE_DIV_DEFAULT - 1uL));
 687              		.loc 1 282 0
 688 0002 0120     		movs	r0, #1
 689 0004 FFF7FEFF 		bl	mADC_SetModClkClockDivider
 690              	.LVL59:
 283:Generated_Source\PSoC4/mADC_Adc.c **** 
 691              		.loc 1 283 0
 692 0008 0322     		movs	r2, #3
 693 000a 274B     		ldr	r3, .L47
 694 000c 1A60     		str	r2, [r3]
 286:Generated_Source\PSoC4/mADC_Adc.c ****     CY_SET_REG32(mADC_CSD_IDACB_PTR, mADC_IDACB_CONFIG | mADC_dsRam.adcIdac);
 695              		.loc 1 286 0
 696 000e 274A     		ldr	r2, .L47+4
 697 0010 274B     		ldr	r3, .L47+8
 698 0012 1A60     		str	r2, [r3]
 287:Generated_Source\PSoC4/mADC_Adc.c **** 
 699              		.loc 1 287 0
 700 0014 274B     		ldr	r3, .L47+12
 701 0016 5B7A     		ldrb	r3, [r3, #9]
 702 0018 274A     		ldr	r2, .L47+16
 703 001a 1343     		orrs	r3, r2
 704 001c 274A     		ldr	r2, .L47+20
 705 001e 1360     		str	r3, [r2]
 290:Generated_Source\PSoC4/mADC_Adc.c **** 
 706              		.loc 1 290 0
 707 0020 1D22     		movs	r2, #29
 708 0022 274B     		ldr	r3, .L47+24
 709 0024 1A60     		str	r2, [r3]
 292:Generated_Source\PSoC4/mADC_Adc.c ****     CY_SET_REG32(mADC_SW_DSI_SEL_PTR, 0uL);
 710              		.loc 1 292 0
 711 0026 0024     		movs	r4, #0
 712 0028 264B     		ldr	r3, .L47+28
 713 002a 1C60     		str	r4, [r3]
 293:Generated_Source\PSoC4/mADC_Adc.c **** 
 714              		.loc 1 293 0
 715 002c 264B     		ldr	r3, .L47+32
 716 002e 1C60     		str	r4, [r3]
 295:Generated_Source\PSoC4/mADC_Adc.c ****     CY_SET_REG32(mADC_SEQ_INIT_CNT_PTR, 1uL);
 717              		.loc 1 295 0
 718 0030 264B     		ldr	r3, .L47+36
ARM GAS  C:\Users\PC\AppData\Local\Temp\ccNJoPe4.s 			page 31


 719 0032 1C60     		str	r4, [r3]
 296:Generated_Source\PSoC4/mADC_Adc.c ****     CY_SET_REG32(mADC_SEQ_NORM_CNT_PTR, 2uL);
 720              		.loc 1 296 0
 721 0034 0125     		movs	r5, #1
 722 0036 264B     		ldr	r3, .L47+40
 723 0038 1D60     		str	r5, [r3]
 297:Generated_Source\PSoC4/mADC_Adc.c **** 
 724              		.loc 1 297 0
 725 003a 1B3A     		subs	r2, r2, #27
 726 003c 254B     		ldr	r3, .L47+44
 727 003e 1A60     		str	r2, [r3]
 300:Generated_Source\PSoC4/mADC_Adc.c ****     CY_SET_REG32(mADC_SW_HS_N_SEL_PTR, mADC_SW_HSN_DEFAULT);
 728              		.loc 1 300 0
 729 0040 8023     		movs	r3, #128
 730 0042 5B05     		lsls	r3, r3, #21
 731 0044 244A     		ldr	r2, .L47+48
 732 0046 1360     		str	r3, [r2]
 301:Generated_Source\PSoC4/mADC_Adc.c ****     CY_SET_REG32(mADC_SW_SHIELD_SEL_PTR, mADC_SW_SHIELD_DEFAULT);
 733              		.loc 1 301 0
 734 0048 8021     		movs	r1, #128
 735 004a 4903     		lsls	r1, r1, #13
 736 004c 234A     		ldr	r2, .L47+52
 737 004e 1160     		str	r1, [r2]
 302:Generated_Source\PSoC4/mADC_Adc.c ****     CY_SET_REG32(mADC_SW_CMP_P_SEL_PTR, mADC_SW_CMPP_DEFAULT);
 738              		.loc 1 302 0
 739 0050 234A     		ldr	r2, .L47+56
 740 0052 1460     		str	r4, [r2]
 303:Generated_Source\PSoC4/mADC_Adc.c ****     CY_SET_REG32(mADC_SW_CMP_N_SEL_PTR, mADC_SW_CMPN_DEFAULT);
 741              		.loc 1 303 0
 742 0054 234A     		ldr	r2, .L47+60
 743 0056 1460     		str	r4, [r2]
 304:Generated_Source\PSoC4/mADC_Adc.c ****     CY_SET_REG32(mADC_SW_FW_MOD_SEL_PTR, mADC_SW_FWMOD_DEFAULT);
 744              		.loc 1 304 0
 745 0058 234A     		ldr	r2, .L47+64
 746 005a 1460     		str	r4, [r2]
 305:Generated_Source\PSoC4/mADC_Adc.c ****     CY_SET_REG32(mADC_SW_FW_TANK_SEL_PTR, mADC_SW_FWTANK_DEFAULT);
 747              		.loc 1 305 0
 748 005c 8822     		movs	r2, #136
 749 005e 5204     		lsls	r2, r2, #17
 750 0060 2249     		ldr	r1, .L47+68
 751 0062 0A60     		str	r2, [r1]
 306:Generated_Source\PSoC4/mADC_Adc.c ****     CY_SET_REG32(mADC_SW_REFGEN_SEL_PTR, mADC_SW_REFGEN_DEFAULT);
 752              		.loc 1 306 0
 753 0064 2249     		ldr	r1, .L47+72
 754 0066 0A60     		str	r2, [r1]
 307:Generated_Source\PSoC4/mADC_Adc.c **** 
 755              		.loc 1 307 0
 756 0068 224A     		ldr	r2, .L47+76
 757 006a 1360     		str	r3, [r2]
 309:Generated_Source\PSoC4/mADC_Adc.c ****     newRegValue = CY_GET_REG32(mADC_SW_BYP_SEL_PTR);
 758              		.loc 1 309 0
 759 006c FFF7FEFF 		bl	CyEnterCriticalSection
 760              	.LVL60:
 310:Generated_Source\PSoC4/mADC_Adc.c ****     newRegValue |= mADC_SW_BYP_DEFAULT;
 761              		.loc 1 310 0
 762 0070 214A     		ldr	r2, .L47+80
 763 0072 1368     		ldr	r3, [r2]
ARM GAS  C:\Users\PC\AppData\Local\Temp\ccNJoPe4.s 			page 32


 764              	.LVL61:
 311:Generated_Source\PSoC4/mADC_Adc.c ****     CY_SET_REG32(mADC_SW_BYP_SEL_PTR, newRegValue);
 765              		.loc 1 311 0
 766 0074 8821     		movs	r1, #136
 767 0076 4903     		lsls	r1, r1, #13
 768 0078 0B43     		orrs	r3, r1
 769              	.LVL62:
 312:Generated_Source\PSoC4/mADC_Adc.c ****     CyExitCriticalSection(interruptState);
 770              		.loc 1 312 0
 771 007a 1360     		str	r3, [r2]
 313:Generated_Source\PSoC4/mADC_Adc.c **** 
 772              		.loc 1 313 0
 773 007c FFF7FEFF 		bl	CyExitCriticalSection
 774              	.LVL63:
 322:Generated_Source\PSoC4/mADC_Adc.c ****         CY_SET_REG32(mADC_SW_AMUXBUF_SEL_PTR, mADC_SW_AMUBUF_NORM);
 775              		.loc 1 322 0
 776 0080 1E4A     		ldr	r2, .L47+84
 777 0082 1F4B     		ldr	r3, .L47+88
 778 0084 1A60     		str	r2, [r3]
 323:Generated_Source\PSoC4/mADC_Adc.c ****     #endif /* mADC__CYDEV_VDDA_MV < mADC_LVTHRESH */
 779              		.loc 1 323 0
 780 0086 1F4B     		ldr	r3, .L47+92
 781 0088 1C60     		str	r4, [r3]
 327:Generated_Source\PSoC4/mADC_Adc.c **** 
 782              		.loc 1 327 0
 783 008a 1F4A     		ldr	r2, .L47+96
 784 008c 1F4B     		ldr	r3, .L47+100
 785 008e 1A60     		str	r2, [r3]
 330:Generated_Source\PSoC4/mADC_Adc.c **** 
 786              		.loc 1 330 0
 787 0090 8322     		movs	r2, #131
 788 0092 5200     		lsls	r2, r2, #1
 789 0094 1E4B     		ldr	r3, .L47+104
 790 0096 1A60     		str	r2, [r3]
 333:Generated_Source\PSoC4/mADC_Adc.c **** 
 791              		.loc 1 333 0
 792 0098 1E4B     		ldr	r3, .L47+108
 793 009a 1C60     		str	r4, [r3]
 336:Generated_Source\PSoC4/mADC_Adc.c **** 
 794              		.loc 1 336 0
 795 009c 1E48     		ldr	r0, .L47+112
 796 009e FFF7FEFF 		bl	mADC_ISR_StartEx
 797              	.LVL64:
 339:Generated_Source\PSoC4/mADC_Adc.c **** }
 798              		.loc 1 339 0
 799 00a2 1E4B     		ldr	r3, .L47+116
 800 00a4 1D70     		strb	r5, [r3]
 340:Generated_Source\PSoC4/mADC_Adc.c **** 
 801              		.loc 1 340 0
 802              		@ sp needed
 803 00a6 70BD     		pop	{r4, r5, r6, pc}
 804              	.L48:
 805              		.align	2
 806              	.L47:
 807 00a8 00020B40 		.word	1074463232
 808 00ac 02100085 		.word	-2063593470
 809 00b0 00000B40 		.word	1074462720
ARM GAS  C:\Users\PC\AppData\Local\Temp\ccNJoPe4.s 			page 33


 810 00b4 00000000 		.word	mADC_dsRam
 811 00b8 80000004 		.word	67108992
 812 00bc C4010B40 		.word	1074463172
 813 00c0 00030B40 		.word	1074463488
 814 00c4 8C010B40 		.word	1074463116
 815 00c8 C0020B40 		.word	1074463424
 816 00cc 04020B40 		.word	1074463236
 817 00d0 10030B40 		.word	1074463504
 818 00d4 14030B40 		.word	1074463508
 819 00d8 80020B40 		.word	1074463360
 820 00dc 84020B40 		.word	1074463364
 821 00e0 88020B40 		.word	1074463368
 822 00e4 A0020B40 		.word	1074463392
 823 00e8 A4020B40 		.word	1074463396
 824 00ec B0020B40 		.word	1074463408
 825 00f0 B4020B40 		.word	1074463412
 826 00f4 A8020B40 		.word	1074463400
 827 00f8 94020B40 		.word	1074463380
 828 00fc 41110000 		.word	4417
 829 0100 88010B40 		.word	1074463112
 830 0104 90020B40 		.word	1074463376
 831 0108 01000080 		.word	-2147483647
 832 010c 80010B40 		.word	1074463104
 833 0110 F0000B40 		.word	1074462960
 834 0114 F8000B40 		.word	1074462968
 835 0118 00000000 		.word	mADC_IntrHandler
 836 011c 00000000 		.word	.LANCHOR0
 837              		.cfi_endproc
 838              	.LFE6:
 839              		.size	mADC_ConfigAdcResources, .-mADC_ConfigAdcResources
 840              		.section	.text.mADC_AdcCaptureResources,"ax",%progbits
 841              		.align	2
 842              		.global	mADC_AdcCaptureResources
 843              		.code	16
 844              		.thumb_func
 845              		.type	mADC_AdcCaptureResources, %function
 846              	mADC_AdcCaptureResources:
 847              	.LFB8:
 413:Generated_Source\PSoC4/mADC_Adc.c ****     cystatus tmpStatus = CYRET_SUCCESS;
 848              		.loc 1 413 0
 849              		.cfi_startproc
 850              		@ args = 0, pretend = 0, frame = 0
 851              		@ frame_needed = 0, uses_anonymous_args = 0
 852 0000 10B5     		push	{r4, lr}
 853              		.cfi_def_cfa_offset 8
 854              		.cfi_offset 4, -8
 855              		.cfi_offset 14, -4
 856              	.LVL65:
 431:Generated_Source\PSoC4/mADC_Adc.c ****         {
 857              		.loc 1 431 0
 858 0002 044B     		ldr	r3, .L51
 859 0004 1B78     		ldrb	r3, [r3]
 860 0006 002B     		cmp	r3, #0
 861 0008 01D1     		bne	.L50
 433:Generated_Source\PSoC4/mADC_Adc.c ****         }
 862              		.loc 1 433 0
 863 000a FFF7FEFF 		bl	mADC_ConfigAdcResources
ARM GAS  C:\Users\PC\AppData\Local\Temp\ccNJoPe4.s 			page 34


 864              	.LVL66:
 865              	.L50:
 438:Generated_Source\PSoC4/mADC_Adc.c **** 
 866              		.loc 1 438 0
 867 000e 0020     		movs	r0, #0
 868              		@ sp needed
 869 0010 10BD     		pop	{r4, pc}
 870              	.L52:
 871 0012 C046     		.align	2
 872              	.L51:
 873 0014 00000000 		.word	.LANCHOR0
 874              		.cfi_endproc
 875              	.LFE8:
 876              		.size	mADC_AdcCaptureResources, .-mADC_AdcCaptureResources
 877              		.global	__aeabi_uidiv
 878              		.section	.text.mADC_Calibrate,"ax",%progbits
 879              		.align	2
 880              		.global	mADC_Calibrate
 881              		.code	16
 882              		.thumb_func
 883              		.type	mADC_Calibrate, %function
 884              	mADC_Calibrate:
 885              	.LFB14:
 758:Generated_Source\PSoC4/mADC_Adc.c ****     uint32 tmpStatus;
 886              		.loc 1 758 0
 887              		.cfi_startproc
 888              		@ args = 0, pretend = 0, frame = 0
 889              		@ frame_needed = 0, uses_anonymous_args = 0
 890 0000 10B5     		push	{r4, lr}
 891              		.cfi_def_cfa_offset 8
 892              		.cfi_offset 4, -8
 893              		.cfi_offset 14, -4
 763:Generated_Source\PSoC4/mADC_Adc.c **** 
 894              		.loc 1 763 0
 895 0002 FFF7FEFF 		bl	mADC_AdcCaptureResources
 896              	.LVL67:
 897 0006 0400     		movs	r4, r0
 898              	.LVL68:
 765:Generated_Source\PSoC4/mADC_Adc.c ****         & mADC_STATUS_FSM_MASK))
 899              		.loc 1 765 0
 900 0008 1E4B     		ldr	r3, .L60
 901 000a 1B7A     		ldrb	r3, [r3, #8]
 902 000c 0F22     		movs	r2, #15
 903 000e 9343     		bics	r3, r2
 904 0010 00D0     		beq	.L54
 768:Generated_Source\PSoC4/mADC_Adc.c ****     }
 905              		.loc 1 768 0
 906 0012 0424     		movs	r4, #4
 907              	.L54:
 908              	.LVL69:
 771:Generated_Source\PSoC4/mADC_Adc.c ****     {
 909              		.loc 1 771 0
 910 0014 002C     		cmp	r4, #0
 911 0016 33D1     		bne	.L55
 774:Generated_Source\PSoC4/mADC_Adc.c ****         #endif /* (mADC_ADC_ANALOG_STARTUP_DELAY_US > 0uL) */
 912              		.loc 1 774 0
 913 0018 0520     		movs	r0, #5
ARM GAS  C:\Users\PC\AppData\Local\Temp\ccNJoPe4.s 			page 35


 914 001a FFF7FEFF 		bl	CyDelayUs
 915              	.LVL70:
 778:Generated_Source\PSoC4/mADC_Adc.c ****         {
 916              		.loc 1 778 0
 917 001e 194B     		ldr	r3, .L60
 918 0020 987A     		ldrb	r0, [r3, #10]
 919 0022 FF28     		cmp	r0, #255
 920 0024 05D0     		beq	.L56
 780:Generated_Source\PSoC4/mADC_Adc.c ****             mADC_dsRam.adcActiveCh = mADC_NO_CHANNEL;
 921              		.loc 1 780 0
 922 0026 0021     		movs	r1, #0
 923 0028 FFF7FEFF 		bl	mADC_SetAdcChannel
 924              	.LVL71:
 781:Generated_Source\PSoC4/mADC_Adc.c ****         }
 925              		.loc 1 781 0
 926 002c FF22     		movs	r2, #255
 927 002e 154B     		ldr	r3, .L60
 928 0030 9A72     		strb	r2, [r3, #10]
 929              	.L56:
 785:Generated_Source\PSoC4/mADC_Adc.c ****             (((uint32)CY_GET_REG8(CYREG_SFLASH_CSDV2_CSD0_ADC_TRIM2)) << 8u);
 930              		.loc 1 785 0
 931 0032 154B     		ldr	r3, .L60+4
 932 0034 1B78     		ldrb	r3, [r3]
 786:Generated_Source\PSoC4/mADC_Adc.c **** 
 933              		.loc 1 786 0
 934 0036 154A     		ldr	r2, .L60+8
 935 0038 1078     		ldrb	r0, [r2]
 936 003a 0002     		lsls	r0, r0, #8
 785:Generated_Source\PSoC4/mADC_Adc.c ****             (((uint32)CY_GET_REG8(CYREG_SFLASH_CSDV2_CSD0_ADC_TRIM2)) << 8u);
 937              		.loc 1 785 0
 938 003c 1843     		orrs	r0, r3
 939              	.LVL72:
 789:Generated_Source\PSoC4/mADC_Adc.c ****         tmpVrefCal /= mADC_VREFCALIB_BASE;
 940              		.loc 1 789 0
 941 003e 144B     		ldr	r3, .L60+12
 942 0040 5843     		muls	r0, r3
 943              	.LVL73:
 790:Generated_Source\PSoC4/mADC_Adc.c **** 
 944              		.loc 1 790 0
 945 0042 9621     		movs	r1, #150
 946 0044 0901     		lsls	r1, r1, #4
 947 0046 FFF7FEFF 		bl	__aeabi_uidiv
 948              	.LVL74:
 792:Generated_Source\PSoC4/mADC_Adc.c **** 
 949              		.loc 1 792 0
 950 004a 124B     		ldr	r3, .L60+16
 951 004c 1880     		strh	r0, [r3]
 794:Generated_Source\PSoC4/mADC_Adc.c ****         CY_SET_REG32(mADC_CSD_IDACB_PTR, mADC_IDACB_CONFIG |
 952              		.loc 1 794 0
 953 004e 0D4B     		ldr	r3, .L60
 954 0050 0F22     		movs	r2, #15
 955 0052 5A72     		strb	r2, [r3, #9]
 795:Generated_Source\PSoC4/mADC_Adc.c ****                                                      mADC_dsRam.adcIdac);
 956              		.loc 1 795 0
 957 0054 1049     		ldr	r1, .L60+20
 958 0056 114A     		ldr	r2, .L60+24
 959 0058 1160     		str	r1, [r2]
ARM GAS  C:\Users\PC\AppData\Local\Temp\ccNJoPe4.s 			page 36


 798:Generated_Source\PSoC4/mADC_Adc.c **** 
 960              		.loc 1 798 0
 961 005a 1022     		movs	r2, #16
 962 005c 1A72     		strb	r2, [r3, #8]
 801:Generated_Source\PSoC4/mADC_Adc.c ****         mADC_StartAdcFSM(mADC_MEASMODE_VREF);
 963              		.loc 1 801 0
 964 005e F032     		adds	r2, r2, #240
 965 0060 0F4B     		ldr	r3, .L60+28
 966 0062 1A60     		str	r2, [r3]
 802:Generated_Source\PSoC4/mADC_Adc.c **** 
 967              		.loc 1 802 0
 968 0064 8020     		movs	r0, #128
 969              	.LVL75:
 970 0066 4002     		lsls	r0, r0, #9
 971 0068 FFF7FEFF 		bl	mADC_StartAdcFSM
 972              	.LVL76:
 812:Generated_Source\PSoC4/mADC_Adc.c ****         while (((*(volatile uint8 *)&mADC_dsRam.adcStatus & mADC_STATUS_FSM_MASK)
 973              		.loc 1 812 0
 974 006c 0D4A     		ldr	r2, .L60+32
 813:Generated_Source\PSoC4/mADC_Adc.c ****                 != 0u) &&  (0u != watchdogAdcCounter))
 975              		.loc 1 813 0
 976 006e 00E0     		b	.L57
 977              	.LVL77:
 978              	.L58:
 817:Generated_Source\PSoC4/mADC_Adc.c ****         }
 979              		.loc 1 817 0
 980 0070 013A     		subs	r2, r2, #1
 981              	.LVL78:
 982              	.L57:
 813:Generated_Source\PSoC4/mADC_Adc.c ****                 != 0u) &&  (0u != watchdogAdcCounter))
 983              		.loc 1 813 0
 984 0072 044B     		ldr	r3, .L60
 985 0074 1B7A     		ldrb	r3, [r3, #8]
 986 0076 0F21     		movs	r1, #15
 987 0078 8B43     		bics	r3, r1
 988 007a 01D0     		beq	.L55
 814:Generated_Source\PSoC4/mADC_Adc.c ****         {
 989              		.loc 1 814 0
 990 007c 002A     		cmp	r2, #0
 991 007e F7D1     		bne	.L58
 992              	.LVL79:
 993              	.L55:
 822:Generated_Source\PSoC4/mADC_Adc.c **** 
 994              		.loc 1 822 0
 995 0080 2000     		movs	r0, r4
 996              		@ sp needed
 997              	.LVL80:
 998 0082 10BD     		pop	{r4, pc}
 999              	.L61:
 1000              		.align	2
 1001              	.L60:
 1002 0084 00000000 		.word	mADC_dsRam
 1003 0088 60F1FF0F 		.word	268431712
 1004 008c 61F1FF0F 		.word	268431713
 1005 0090 55080000 		.word	2133
 1006 0094 00000000 		.word	.LANCHOR1
 1007 0098 8F000004 		.word	67109007
ARM GAS  C:\Users\PC\AppData\Local\Temp\ccNJoPe4.s 			page 37


 1008 009c C4010B40 		.word	1074463172
 1009 00a0 F8000B40 		.word	1074462968
 1010 00a4 FFFF0000 		.word	65535
 1011              		.cfi_endproc
 1012              	.LFE14:
 1013              		.size	mADC_Calibrate, .-mADC_Calibrate
 1014              		.section	.text.mADC_Start,"ax",%progbits
 1015              		.align	2
 1016              		.global	mADC_Start
 1017              		.code	16
 1018              		.thumb_func
 1019              		.type	mADC_Start, %function
 1020              	mADC_Start:
 1021              	.LFB1:
  91:Generated_Source\PSoC4/mADC_Adc.c ****         mADC_ClearAdcChannels();
 1022              		.loc 1 91 0
 1023              		.cfi_startproc
 1024              		@ args = 0, pretend = 0, frame = 0
 1025              		@ frame_needed = 0, uses_anonymous_args = 0
 1026 0000 10B5     		push	{r4, lr}
 1027              		.cfi_def_cfa_offset 8
 1028              		.cfi_offset 4, -8
 1029              		.cfi_offset 14, -4
  92:Generated_Source\PSoC4/mADC_Adc.c **** 
 1030              		.loc 1 92 0
 1031 0002 FFF7FEFF 		bl	mADC_ClearAdcChannels
 1032              	.LVL81:
  94:Generated_Source\PSoC4/mADC_Adc.c ****         {
 1033              		.loc 1 94 0
 1034 0006 054B     		ldr	r3, .L64
 1035 0008 1B78     		ldrb	r3, [r3]
 1036 000a 012B     		cmp	r3, #1
 1037 000c 01D0     		beq	.L63
  96:Generated_Source\PSoC4/mADC_Adc.c ****         }
 1038              		.loc 1 96 0
 1039 000e FFF7FEFF 		bl	mADC_DsInitialize
 1040              	.LVL82:
 1041              	.L63:
  98:Generated_Source\PSoC4/mADC_Adc.c ****         (void) mADC_Calibrate();
 1042              		.loc 1 98 0
 1043 0012 FFF7FEFF 		bl	mADC_ConfigAdcResources
 1044              	.LVL83:
  99:Generated_Source\PSoC4/mADC_Adc.c ****     }
 1045              		.loc 1 99 0
 1046 0016 FFF7FEFF 		bl	mADC_Calibrate
 1047              	.LVL84:
 100:Generated_Source\PSoC4/mADC_Adc.c **** 
 1048              		.loc 1 100 0
 1049              		@ sp needed
 1050 001a 10BD     		pop	{r4, pc}
 1051              	.L65:
 1052              		.align	2
 1053              	.L64:
 1054 001c 00000000 		.word	.LANCHOR0
 1055              		.cfi_endproc
 1056              	.LFE1:
 1057              		.size	mADC_Start, .-mADC_Start
ARM GAS  C:\Users\PC\AppData\Local\Temp\ccNJoPe4.s 			page 38


 1058              		.section	.text.mADC_StartConvert,"ax",%progbits
 1059              		.align	2
 1060              		.global	mADC_StartConvert
 1061              		.code	16
 1062              		.thumb_func
 1063              		.type	mADC_StartConvert, %function
 1064              	mADC_StartConvert:
 1065              	.LFB10:
 533:Generated_Source\PSoC4/mADC_Adc.c ****     uint32 tmpStatus = CYRET_SUCCESS;
 1066              		.loc 1 533 0
 1067              		.cfi_startproc
 1068              		@ args = 0, pretend = 0, frame = 0
 1069              		@ frame_needed = 0, uses_anonymous_args = 0
 1070              	.LVL85:
 1071 0000 70B5     		push	{r4, r5, r6, lr}
 1072              		.cfi_def_cfa_offset 16
 1073              		.cfi_offset 4, -16
 1074              		.cfi_offset 5, -12
 1075              		.cfi_offset 6, -8
 1076              		.cfi_offset 14, -4
 1077 0002 0500     		movs	r5, r0
 1078              	.LVL86:
 543:Generated_Source\PSoC4/mADC_Adc.c ****         {
 1079              		.loc 1 543 0
 1080 0004 1A4B     		ldr	r3, .L75
 1081 0006 1B78     		ldrb	r3, [r3]
 1082 0008 002B     		cmp	r3, #0
 1083 000a 01D1     		bne	.L67
 545:Generated_Source\PSoC4/mADC_Adc.c ****         }
 1084              		.loc 1 545 0
 1085 000c FFF7FEFF 		bl	mADC_ConfigAdcResources
 1086              	.LVL87:
 1087              	.L67:
 549:Generated_Source\PSoC4/mADC_Adc.c ****     {
 1088              		.loc 1 549 0
 1089 0010 012D     		cmp	r5, #1
 1090 0012 01D8     		bhi	.L73
 534:Generated_Source\PSoC4/mADC_Adc.c **** 
 1091              		.loc 1 534 0
 1092 0014 0024     		movs	r4, #0
 1093 0016 00E0     		b	.L68
 1094              	.L73:
 551:Generated_Source\PSoC4/mADC_Adc.c ****     }
 1095              		.loc 1 551 0
 1096 0018 0124     		movs	r4, #1
 1097              	.L68:
 1098              	.LVL88:
 554:Generated_Source\PSoC4/mADC_Adc.c ****     {
 1099              		.loc 1 554 0
 1100 001a 002C     		cmp	r4, #0
 1101 001c 25D1     		bne	.L69
 556:Generated_Source\PSoC4/mADC_Adc.c ****         {
 1102              		.loc 1 556 0
 1103 001e 154B     		ldr	r3, .L75+4
 1104 0020 1B7A     		ldrb	r3, [r3, #8]
 1105 0022 0F22     		movs	r2, #15
 1106 0024 9343     		bics	r3, r2
ARM GAS  C:\Users\PC\AppData\Local\Temp\ccNJoPe4.s 			page 39


 1107 0026 00D0     		beq	.L70
 558:Generated_Source\PSoC4/mADC_Adc.c ****         }
 1108              		.loc 1 558 0
 1109 0028 0434     		adds	r4, r4, #4
 1110              	.LVL89:
 1111              	.L70:
 561:Generated_Source\PSoC4/mADC_Adc.c ****         {
 1112              		.loc 1 561 0
 1113 002a 002C     		cmp	r4, #0
 1114 002c 1DD1     		bne	.L69
 564:Generated_Source\PSoC4/mADC_Adc.c ****             #endif /* (mADC_ADC_ANALOG_STARTUP_DELAY_US > 0uL) */
 1115              		.loc 1 564 0
 1116 002e 0520     		movs	r0, #5
 1117 0030 FFF7FEFF 		bl	CyDelayUs
 1118              	.LVL90:
 568:Generated_Source\PSoC4/mADC_Adc.c **** 
 1119              		.loc 1 568 0
 1120 0034 4023     		movs	r3, #64
 1121 0036 2B43     		orrs	r3, r5
 1122 0038 DBB2     		uxtb	r3, r3
 1123 003a 0E4A     		ldr	r2, .L75+4
 1124 003c 1372     		strb	r3, [r2, #8]
 571:Generated_Source\PSoC4/mADC_Adc.c ****             {
 1125              		.loc 1 571 0
 1126 003e 907A     		ldrb	r0, [r2, #10]
 1127 0040 8542     		cmp	r5, r0
 1128 0042 0AD0     		beq	.L71
 573:Generated_Source\PSoC4/mADC_Adc.c ****                 {
 1129              		.loc 1 573 0
 1130 0044 FF28     		cmp	r0, #255
 1131 0046 02D0     		beq	.L72
 576:Generated_Source\PSoC4/mADC_Adc.c ****                 }
 1132              		.loc 1 576 0
 1133 0048 0021     		movs	r1, #0
 1134 004a FFF7FEFF 		bl	mADC_SetAdcChannel
 1135              	.LVL91:
 1136              	.L72:
 579:Generated_Source\PSoC4/mADC_Adc.c ****                 mADC_dsRam.adcActiveCh = chId;
 1137              		.loc 1 579 0
 1138 004e 0121     		movs	r1, #1
 1139 0050 2800     		movs	r0, r5
 1140 0052 FFF7FEFF 		bl	mADC_SetAdcChannel
 1141              	.LVL92:
 580:Generated_Source\PSoC4/mADC_Adc.c ****             }
 1142              		.loc 1 580 0
 1143 0056 074B     		ldr	r3, .L75+4
 1144 0058 9D72     		strb	r5, [r3, #10]
 1145              	.L71:
 584:Generated_Source\PSoC4/mADC_Adc.c ****             mADC_StartAdcFSM(mADC_MEASMODE_VIN);
 1146              		.loc 1 584 0
 1147 005a 8022     		movs	r2, #128
 1148 005c 5200     		lsls	r2, r2, #1
 1149 005e 064B     		ldr	r3, .L75+8
 1150 0060 1A60     		str	r2, [r3]
 585:Generated_Source\PSoC4/mADC_Adc.c ****         }
 1151              		.loc 1 585 0
 1152 0062 C020     		movs	r0, #192
ARM GAS  C:\Users\PC\AppData\Local\Temp\ccNJoPe4.s 			page 40


 1153 0064 8002     		lsls	r0, r0, #10
 1154 0066 FFF7FEFF 		bl	mADC_StartAdcFSM
 1155              	.LVL93:
 1156              	.L69:
 594:Generated_Source\PSoC4/mADC_Adc.c **** 
 1157              		.loc 1 594 0
 1158 006a 2000     		movs	r0, r4
 1159              		@ sp needed
 1160              	.LVL94:
 1161 006c 70BD     		pop	{r4, r5, r6, pc}
 1162              	.L76:
 1163 006e C046     		.align	2
 1164              	.L75:
 1165 0070 00000000 		.word	.LANCHOR0
 1166 0074 00000000 		.word	mADC_dsRam
 1167 0078 F8000B40 		.word	1074462968
 1168              		.cfi_endproc
 1169              	.LFE10:
 1170              		.size	mADC_StartConvert, .-mADC_StartConvert
 1171              		.section	.text.mADC_ReadResult_mVolts,"ax",%progbits
 1172              		.align	2
 1173              		.global	mADC_ReadResult_mVolts
 1174              		.code	16
 1175              		.thumb_func
 1176              		.type	mADC_ReadResult_mVolts, %function
 1177              	mADC_ReadResult_mVolts:
 1178              	.LFB12:
 670:Generated_Source\PSoC4/mADC_Adc.c ****     cystatus convertStatus;
 1179              		.loc 1 670 0
 1180              		.cfi_startproc
 1181              		@ args = 0, pretend = 0, frame = 0
 1182              		@ frame_needed = 0, uses_anonymous_args = 0
 1183              	.LVL95:
 1184 0000 70B5     		push	{r4, r5, r6, lr}
 1185              		.cfi_def_cfa_offset 16
 1186              		.cfi_offset 4, -16
 1187              		.cfi_offset 5, -12
 1188              		.cfi_offset 6, -8
 1189              		.cfi_offset 14, -4
 1190 0002 0500     		movs	r5, r0
 675:Generated_Source\PSoC4/mADC_Adc.c ****     if (CYRET_SUCCESS == convertStatus)
 1191              		.loc 1 675 0
 1192 0004 FFF7FEFF 		bl	mADC_StartConvert
 1193              	.LVL96:
 676:Generated_Source\PSoC4/mADC_Adc.c ****     {
 1194              		.loc 1 676 0
 1195 0008 0028     		cmp	r0, #0
 1196 000a 03D0     		beq	.L82
 697:Generated_Source\PSoC4/mADC_Adc.c ****     }
 1197              		.loc 1 697 0
 1198 000c 0948     		ldr	r0, .L84
 1199              	.LVL97:
 1200 000e 0FE0     		b	.L79
 1201              	.LVL98:
 1202              	.L81:
 684:Generated_Source\PSoC4/mADC_Adc.c ****         }
 1203              		.loc 1 684 0
ARM GAS  C:\Users\PC\AppData\Local\Temp\ccNJoPe4.s 			page 41


 1204 0010 013C     		subs	r4, r4, #1
 1205              	.LVL99:
 1206 0012 00E0     		b	.L78
 1207              	.LVL100:
 1208              	.L82:
 1209 0014 074C     		ldr	r4, .L84
 1210              	.LVL101:
 1211              	.L78:
 680:Generated_Source\PSoC4/mADC_Adc.c ****                (0u != watchdogAdcCounter))
 1212              		.loc 1 680 0
 1213 0016 FFF7FEFF 		bl	mADC_IsBusy
 1214              	.LVL102:
 1215 001a 0028     		cmp	r0, #0
 1216 001c 01D0     		beq	.L80
 680:Generated_Source\PSoC4/mADC_Adc.c ****                (0u != watchdogAdcCounter))
 1217              		.loc 1 680 0 is_stmt 0 discriminator 1
 1218 001e 002C     		cmp	r4, #0
 1219 0020 F6D1     		bne	.L81
 1220              	.L80:
 686:Generated_Source\PSoC4/mADC_Adc.c ****         {
 1221              		.loc 1 686 0 is_stmt 1
 1222 0022 002C     		cmp	r4, #0
 1223 0024 03D0     		beq	.L83
 688:Generated_Source\PSoC4/mADC_Adc.c ****         }
 1224              		.loc 1 688 0
 1225 0026 2800     		movs	r0, r5
 1226 0028 FFF7FEFF 		bl	mADC_GetResult_mVolts
 1227              	.LVL103:
 1228 002c 00E0     		b	.L79
 1229              	.LVL104:
 1230              	.L83:
 692:Generated_Source\PSoC4/mADC_Adc.c ****         }
 1231              		.loc 1 692 0
 1232 002e 0148     		ldr	r0, .L84
 1233              	.LVL105:
 1234              	.L79:
 701:Generated_Source\PSoC4/mADC_Adc.c **** 
 1235              		.loc 1 701 0
 1236              		@ sp needed
 1237 0030 70BD     		pop	{r4, r5, r6, pc}
 1238              	.L85:
 1239 0032 C046     		.align	2
 1240              	.L84:
 1241 0034 FFFF0000 		.word	65535
 1242              		.cfi_endproc
 1243              	.LFE12:
 1244              		.size	mADC_ReadResult_mVolts, .-mADC_ReadResult_mVolts
 1245              		.section	.text.mADC_Initialize,"ax",%progbits
 1246              		.align	2
 1247              		.global	mADC_Initialize
 1248              		.code	16
 1249              		.thumb_func
 1250              		.type	mADC_Initialize, %function
 1251              	mADC_Initialize:
 1252              	.LFB15:
 837:Generated_Source\PSoC4/mADC_Adc.c ****     mADC_ConfigAdcResources();
 1253              		.loc 1 837 0
ARM GAS  C:\Users\PC\AppData\Local\Temp\ccNJoPe4.s 			page 42


 1254              		.cfi_startproc
 1255              		@ args = 0, pretend = 0, frame = 0
 1256              		@ frame_needed = 0, uses_anonymous_args = 0
 1257 0000 10B5     		push	{r4, lr}
 1258              		.cfi_def_cfa_offset 8
 1259              		.cfi_offset 4, -8
 1260              		.cfi_offset 14, -4
 838:Generated_Source\PSoC4/mADC_Adc.c ****     (void)mADC_Calibrate();
 1261              		.loc 1 838 0
 1262 0002 FFF7FEFF 		bl	mADC_ConfigAdcResources
 1263              	.LVL106:
 839:Generated_Source\PSoC4/mADC_Adc.c **** }
 1264              		.loc 1 839 0
 1265 0006 FFF7FEFF 		bl	mADC_Calibrate
 1266              	.LVL107:
 840:Generated_Source\PSoC4/mADC_Adc.c **** 
 1267              		.loc 1 840 0
 1268              		@ sp needed
 1269 000a 10BD     		pop	{r4, pc}
 1270              		.cfi_endproc
 1271              	.LFE15:
 1272              		.size	mADC_Initialize, .-mADC_Initialize
 1273              		.section	.text.mADC_Resume,"ax",%progbits
 1274              		.align	2
 1275              		.global	mADC_Resume
 1276              		.code	16
 1277              		.thumb_func
 1278              		.type	mADC_Resume, %function
 1279              	mADC_Resume:
 1280              	.LFB17:
 883:Generated_Source\PSoC4/mADC_Adc.c ****     mADC_Initialize();
 1281              		.loc 1 883 0
 1282              		.cfi_startproc
 1283              		@ args = 0, pretend = 0, frame = 0
 1284              		@ frame_needed = 0, uses_anonymous_args = 0
 1285 0000 10B5     		push	{r4, lr}
 1286              		.cfi_def_cfa_offset 8
 1287              		.cfi_offset 4, -8
 1288              		.cfi_offset 14, -4
 884:Generated_Source\PSoC4/mADC_Adc.c **** }
 1289              		.loc 1 884 0
 1290 0002 FFF7FEFF 		bl	mADC_Initialize
 1291              	.LVL108:
 885:Generated_Source\PSoC4/mADC_Adc.c **** 
 1292              		.loc 1 885 0
 1293              		@ sp needed
 1294 0006 10BD     		pop	{r4, pc}
 1295              		.cfi_endproc
 1296              	.LFE17:
 1297              		.size	mADC_Resume, .-mADC_Resume
 1298              		.global	mADC_adcVrefMv
 1299              		.data
 1300              		.align	1
 1301              		.set	.LANCHOR1,. + 0
 1302              		.type	mADC_adcVrefMv, %object
 1303              		.size	mADC_adcVrefMv, 2
 1304              	mADC_adcVrefMv:
ARM GAS  C:\Users\PC\AppData\Local\Temp\ccNJoPe4.s 			page 43


 1305 0000 5508     		.short	2133
 1306              		.bss
 1307              		.set	.LANCHOR0,. + 0
 1308              		.type	mADC_initVar, %object
 1309              		.size	mADC_initVar, 1
 1310              	mADC_initVar:
 1311 0000 00       		.space	1
 1312              		.text
 1313              	.Letext0:
 1314              		.file 2 "Generated_Source\\PSoC4/cytypes.h"
 1315              		.file 3 "Generated_Source\\PSoC4\\mADC_Structure.h"
 1316              		.file 4 "Generated_Source\\PSoC4\\CyLib.h"
 1317              		.file 5 "Generated_Source\\PSoC4\\mADC_ISR.h"