ARM GAS  C:\Users\PC\AppData\Local\Temp\ccfE62Ib.s 			page 1


   1              		.syntax unified
   2              		.cpu cortex-m0plus
   3              		.fpu softvfp
   4              		.eabi_attribute 20, 1
   5              		.eabi_attribute 21, 1
   6              		.eabi_attribute 23, 3
   7              		.eabi_attribute 24, 1
   8              		.eabi_attribute 25, 1
   9              		.eabi_attribute 26, 1
  10              		.eabi_attribute 30, 1
  11              		.eabi_attribute 34, 0
  12              		.eabi_attribute 18, 4
  13              		.thumb
  14              		.syntax unified
  15              		.file	"main.c"
  16              		.text
  17              	.Ltext0:
  18              		.cfi_sections	.debug_frame
  19              		.section	.text.println,"ax",%progbits
  20              		.align	2
  21              		.global	println
  22              		.code	16
  23              		.thumb_func
  24              		.type	println, %function
  25              	println:
  26              	.LFB34:
  27              		.file 1 "main.c"
   1:main.c        **** /* ========================================
   2:main.c        ****  *
   3:main.c        ****  * Copyright YOUR COMPANY, THE YEAR
   4:main.c        ****  * All Rights Reserved
   5:main.c        ****  * UNPUBLISHED, LICENSED SOFTWARE.
   6:main.c        ****  *
   7:main.c        ****  * CONFIDENTIAL AND PROPRIETARY INFORMATION
   8:main.c        ****  * WHICH IS THE PROPERTY OF your company.
   9:main.c        ****  *
  10:main.c        ****  * ========================================
  11:main.c        **** */
  12:main.c        **** #include <stdio.h>
  13:main.c        **** #include <math.h>
  14:main.c        **** #include "project.h"
  15:main.c        **** 
  16:main.c        **** typedef char *String;
  17:main.c        **** 
  18:main.c        **** void println(String str){
  28              		.loc 1 18 0
  29              		.cfi_startproc
  30              		@ args = 0, pretend = 0, frame = 0
  31              		@ frame_needed = 0, uses_anonymous_args = 0
  32              	.LVL0:
  33 0000 10B5     		push	{r4, lr}
  34              		.cfi_def_cfa_offset 8
  35              		.cfi_offset 4, -8
  36              		.cfi_offset 14, -4
  19:main.c        ****     mUART_UartPutString(str);
  37              		.loc 1 19 0
  38 0002 FFF7FEFF 		bl	mUART_UartPutString
ARM GAS  C:\Users\PC\AppData\Local\Temp\ccfE62Ib.s 			page 2


  39              	.LVL1:
  20:main.c        ****     mUART_UartPutString("\n");
  40              		.loc 1 20 0
  41 0006 0248     		ldr	r0, .L2
  42 0008 FFF7FEFF 		bl	mUART_UartPutString
  43              	.LVL2:
  21:main.c        **** }
  44              		.loc 1 21 0
  45              		@ sp needed
  46 000c 10BD     		pop	{r4, pc}
  47              	.L3:
  48 000e C046     		.align	2
  49              	.L2:
  50 0010 00000000 		.word	.LC0
  51              		.cfi_endproc
  52              	.LFE34:
  53              		.size	println, .-println
  54              		.section	.text.publicSetUp,"ax",%progbits
  55              		.align	2
  56              		.global	publicSetUp
  57              		.code	16
  58              		.thumb_func
  59              		.type	publicSetUp, %function
  60              	publicSetUp:
  61              	.LFB35:
  22:main.c        **** 
  23:main.c        **** typedef struct _System{
  24:main.c        ****     struct _IN{   
  25:main.c        ****     
  26:main.c        ****     }in;
  27:main.c        ****     struct _OUT{
  28:main.c        ****         void (*println)(String);
  29:main.c        ****     }out;
  30:main.c        **** }system;
  31:main.c        **** 
  32:main.c        **** void publicSetUp(system *System){
  62              		.loc 1 32 0
  63              		.cfi_startproc
  64              		@ args = 0, pretend = 0, frame = 0
  65              		@ frame_needed = 0, uses_anonymous_args = 0
  66              		@ link register save eliminated.
  67              	.LVL3:
  33:main.c        ****     System->out.println = println;
  68              		.loc 1 33 0
  69 0000 014B     		ldr	r3, .L5
  70 0002 0360     		str	r3, [r0]
  34:main.c        **** }
  71              		.loc 1 34 0
  72              		@ sp needed
  73 0004 7047     		bx	lr
  74              	.L6:
  75 0006 C046     		.align	2
  76              	.L5:
  77 0008 00000000 		.word	println
  78              		.cfi_endproc
  79              	.LFE35:
  80              		.size	publicSetUp, .-publicSetUp
ARM GAS  C:\Users\PC\AppData\Local\Temp\ccfE62Ib.s 			page 3


  81              		.section	.text.privateSetUp,"ax",%progbits
  82              		.align	2
  83              		.global	privateSetUp
  84              		.code	16
  85              		.thumb_func
  86              		.type	privateSetUp, %function
  87              	privateSetUp:
  88              	.LFB36:
  35:main.c        **** 
  36:main.c        **** void privateSetUp(system *System){
  89              		.loc 1 36 0
  90              		.cfi_startproc
  91              		@ args = 0, pretend = 0, frame = 0
  92              		@ frame_needed = 0, uses_anonymous_args = 0
  93              	.LVL4:
  94 0000 10B5     		push	{r4, lr}
  95              		.cfi_def_cfa_offset 8
  96              		.cfi_offset 4, -8
  97              		.cfi_offset 14, -4
  37:main.c        ****     publicSetUp(System);
  98              		.loc 1 37 0
  99 0002 FFF7FEFF 		bl	publicSetUp
 100              	.LVL5:
  38:main.c        **** }
 101              		.loc 1 38 0
 102              		@ sp needed
 103 0006 10BD     		pop	{r4, pc}
 104              		.cfi_endproc
 105              	.LFE36:
 106              		.size	privateSetUp, .-privateSetUp
 107              		.global	__aeabi_dadd
 108              		.global	__aeabi_dcmpge
 109              		.global	__aeabi_dsub
 110              		.global	__aeabi_dmul
 111              		.global	__aeabi_ddiv
 112              		.global	__aeabi_d2iz
 113              		.section	.text.main,"ax",%progbits
 114              		.align	2
 115              		.global	main
 116              		.code	16
 117              		.thumb_func
 118              		.type	main, %function
 119              	main:
 120              	.LFB37:
  39:main.c        **** 
  40:main.c        **** int main(void)
  41:main.c        **** {
 121              		.loc 1 41 0
 122              		.cfi_startproc
 123              		@ args = 0, pretend = 0, frame = 64
 124              		@ frame_needed = 0, uses_anonymous_args = 0
 125 0000 F0B5     		push	{r4, r5, r6, r7, lr}
 126              		.cfi_def_cfa_offset 20
 127              		.cfi_offset 4, -20
 128              		.cfi_offset 5, -16
 129              		.cfi_offset 6, -12
 130              		.cfi_offset 7, -8
ARM GAS  C:\Users\PC\AppData\Local\Temp\ccfE62Ib.s 			page 4


 131              		.cfi_offset 14, -4
 132 0002 93B0     		sub	sp, sp, #76
 133              		.cfi_def_cfa_offset 96
  42:main.c        ****     CyGlobalIntEnable; /* Enable global interrupts. */
 134              		.loc 1 42 0
 135              		.syntax divided
 136              	@ 42 "main.c" 1
 137 0004 62B6     		CPSIE   i
 138              	@ 0 "" 2
 139              	.LVL6:
  43:main.c        ****     
  44:main.c        ****     system System;
  45:main.c        ****     double angleR = 0,angleG = 120, angleB = 240;
  46:main.c        ****     
  47:main.c        ****     /* Place your initialization/startup code here (e.g. MyInst_Start()) */
  48:main.c        ****     publicSetUp(&System);
 140              		.loc 1 48 0
 141              		.thumb
 142              		.syntax unified
 143 0006 11A8     		add	r0, sp, #68
 144 0008 FFF7FEFF 		bl	publicSetUp
 145              	.LVL7:
  49:main.c        ****     mUART_Start();
 146              		.loc 1 49 0
 147 000c FFF7FEFF 		bl	mUART_Start
 148              	.LVL8:
  50:main.c        ****     mPWM0_Start();
 149              		.loc 1 50 0
 150 0010 FFF7FEFF 		bl	mPWM0_Start
 151              	.LVL9:
  51:main.c        ****     mPWM1_Start();
 152              		.loc 1 51 0
 153 0014 FFF7FEFF 		bl	mPWM1_Start
 154              	.LVL10:
  52:main.c        ****     mPWM2_Start();
 155              		.loc 1 52 0
 156 0018 FFF7FEFF 		bl	mPWM2_Start
 157              	.LVL11:
  45:main.c        ****     
 158              		.loc 1 45 0
 159 001c 0023     		movs	r3, #0
 160 001e 584C     		ldr	r4, .L19
 161 0020 0293     		str	r3, [sp, #8]
 162 0022 0394     		str	r4, [sp, #12]
 163 0024 0026     		movs	r6, #0
 164 0026 574F     		ldr	r7, .L19+4
 165 0028 0023     		movs	r3, #0
 166 002a 0024     		movs	r4, #0
 167 002c 0493     		str	r3, [sp, #16]
 168 002e 0594     		str	r4, [sp, #20]
 169              	.LVL12:
 170              	.L15:
 171              	.LBB2:
  53:main.c        ****     for(;;)
  54:main.c        ****     {   
  55:main.c        ****         angleR++;
 172              		.loc 1 55 0
ARM GAS  C:\Users\PC\AppData\Local\Temp\ccfE62Ib.s 			page 5


 173 0030 0022     		movs	r2, #0
 174 0032 554B     		ldr	r3, .L19+8
 175 0034 0498     		ldr	r0, [sp, #16]
 176 0036 0599     		ldr	r1, [sp, #20]
 177 0038 FFF7FEFF 		bl	__aeabi_dadd
 178              	.LVL13:
 179 003c 0400     		movs	r4, r0
 180 003e 0D00     		movs	r5, r1
 181 0040 0494     		str	r4, [sp, #16]
 182 0042 0595     		str	r5, [sp, #20]
 183              	.LVL14:
  56:main.c        ****         angleG++;
 184              		.loc 1 56 0
 185 0044 0022     		movs	r2, #0
 186 0046 504B     		ldr	r3, .L19+8
 187 0048 3000     		movs	r0, r6
 188 004a 3900     		movs	r1, r7
 189 004c FFF7FEFF 		bl	__aeabi_dadd
 190              	.LVL15:
 191 0050 0600     		movs	r6, r0
 192              	.LVL16:
 193 0052 0F00     		movs	r7, r1
 194              	.LVL17:
  57:main.c        ****         angleB++;
 195              		.loc 1 57 0
 196 0054 0022     		movs	r2, #0
 197 0056 4C4B     		ldr	r3, .L19+8
 198 0058 0298     		ldr	r0, [sp, #8]
 199 005a 0399     		ldr	r1, [sp, #12]
 200 005c FFF7FEFF 		bl	__aeabi_dadd
 201              	.LVL18:
 202 0060 0290     		str	r0, [sp, #8]
 203 0062 0391     		str	r1, [sp, #12]
 204              	.LVL19:
  58:main.c        ****         if(angleR >= 360) angleR -= 360;
 205              		.loc 1 58 0
 206 0064 0022     		movs	r2, #0
 207 0066 494B     		ldr	r3, .L19+12
 208 0068 2000     		movs	r0, r4
 209              	.LVL20:
 210 006a 2900     		movs	r1, r5
 211 006c FFF7FEFF 		bl	__aeabi_dcmpge
 212              	.LVL21:
 213 0070 0028     		cmp	r0, #0
 214 0072 07D0     		beq	.L9
 215              		.loc 1 58 0 is_stmt 0 discriminator 1
 216 0074 0022     		movs	r2, #0
 217 0076 454B     		ldr	r3, .L19+12
 218 0078 2000     		movs	r0, r4
 219 007a 2900     		movs	r1, r5
 220 007c FFF7FEFF 		bl	__aeabi_dsub
 221              	.LVL22:
 222 0080 0490     		str	r0, [sp, #16]
 223 0082 0591     		str	r1, [sp, #20]
 224              	.LVL23:
 225              	.L9:
  59:main.c        ****         if(angleG >= 360) angleG -= 360; 
ARM GAS  C:\Users\PC\AppData\Local\Temp\ccfE62Ib.s 			page 6


 226              		.loc 1 59 0 is_stmt 1
 227 0084 0022     		movs	r2, #0
 228 0086 414B     		ldr	r3, .L19+12
 229 0088 3000     		movs	r0, r6
 230 008a 3900     		movs	r1, r7
 231 008c FFF7FEFF 		bl	__aeabi_dcmpge
 232              	.LVL24:
 233 0090 0028     		cmp	r0, #0
 234 0092 07D0     		beq	.L11
 235              		.loc 1 59 0 is_stmt 0 discriminator 1
 236 0094 0022     		movs	r2, #0
 237 0096 3D4B     		ldr	r3, .L19+12
 238 0098 3000     		movs	r0, r6
 239 009a 3900     		movs	r1, r7
 240 009c FFF7FEFF 		bl	__aeabi_dsub
 241              	.LVL25:
 242 00a0 0600     		movs	r6, r0
 243              	.LVL26:
 244 00a2 0F00     		movs	r7, r1
 245              	.LVL27:
 246              	.L11:
  60:main.c        ****         if(angleB >= 360) angleB -= 360;
 247              		.loc 1 60 0 is_stmt 1
 248 00a4 0022     		movs	r2, #0
 249 00a6 394B     		ldr	r3, .L19+12
 250 00a8 029C     		ldr	r4, [sp, #8]
 251 00aa 039D     		ldr	r5, [sp, #12]
 252 00ac 2000     		movs	r0, r4
 253 00ae 2900     		movs	r1, r5
 254 00b0 FFF7FEFF 		bl	__aeabi_dcmpge
 255              	.LVL28:
 256 00b4 0028     		cmp	r0, #0
 257 00b6 07D0     		beq	.L13
 258              		.loc 1 60 0 is_stmt 0 discriminator 1
 259 00b8 0022     		movs	r2, #0
 260 00ba 344B     		ldr	r3, .L19+12
 261 00bc 2000     		movs	r0, r4
 262 00be 2900     		movs	r1, r5
 263 00c0 FFF7FEFF 		bl	__aeabi_dsub
 264              	.LVL29:
 265 00c4 0290     		str	r0, [sp, #8]
 266 00c6 0391     		str	r1, [sp, #12]
 267              	.LVL30:
 268              	.L13:
  61:main.c        ****         int valR = (int)(sin(angleR * 3.14 / 180) * 500 + 500);
 269              		.loc 1 61 0 is_stmt 1
 270 00c8 314A     		ldr	r2, .L19+16
 271 00ca 324B     		ldr	r3, .L19+20
 272 00cc 0498     		ldr	r0, [sp, #16]
 273 00ce 0599     		ldr	r1, [sp, #20]
 274 00d0 FFF7FEFF 		bl	__aeabi_dmul
 275              	.LVL31:
 276 00d4 0022     		movs	r2, #0
 277 00d6 304B     		ldr	r3, .L19+24
 278 00d8 FFF7FEFF 		bl	__aeabi_ddiv
 279              	.LVL32:
 280 00dc FFF7FEFF 		bl	sin
ARM GAS  C:\Users\PC\AppData\Local\Temp\ccfE62Ib.s 			page 7


 281              	.LVL33:
 282 00e0 0022     		movs	r2, #0
 283 00e2 2E4B     		ldr	r3, .L19+28
 284 00e4 FFF7FEFF 		bl	__aeabi_dmul
 285              	.LVL34:
 286 00e8 0022     		movs	r2, #0
 287 00ea 2C4B     		ldr	r3, .L19+28
 288 00ec FFF7FEFF 		bl	__aeabi_dadd
 289              	.LVL35:
 290 00f0 FFF7FEFF 		bl	__aeabi_d2iz
 291              	.LVL36:
 292 00f4 0790     		str	r0, [sp, #28]
 293              	.LVL37:
  62:main.c        ****         int valG = (int)(sin(angleG * 3.14 / 180) * 500 + 500);
 294              		.loc 1 62 0
 295 00f6 264A     		ldr	r2, .L19+16
 296 00f8 264B     		ldr	r3, .L19+20
 297 00fa 3000     		movs	r0, r6
 298              	.LVL38:
 299 00fc 3900     		movs	r1, r7
 300 00fe FFF7FEFF 		bl	__aeabi_dmul
 301              	.LVL39:
 302 0102 0022     		movs	r2, #0
 303 0104 244B     		ldr	r3, .L19+24
 304 0106 FFF7FEFF 		bl	__aeabi_ddiv
 305              	.LVL40:
 306 010a FFF7FEFF 		bl	sin
 307              	.LVL41:
 308 010e 0022     		movs	r2, #0
 309 0110 224B     		ldr	r3, .L19+28
 310 0112 FFF7FEFF 		bl	__aeabi_dmul
 311              	.LVL42:
 312 0116 0022     		movs	r2, #0
 313 0118 204B     		ldr	r3, .L19+28
 314 011a FFF7FEFF 		bl	__aeabi_dadd
 315              	.LVL43:
 316 011e FFF7FEFF 		bl	__aeabi_d2iz
 317              	.LVL44:
 318 0122 0500     		movs	r5, r0
 319              	.LVL45:
  63:main.c        ****         int valB = (int)(sin(angleB * 3.14 / 180) * 500 + 500);
 320              		.loc 1 63 0
 321 0124 1A4A     		ldr	r2, .L19+16
 322 0126 1B4B     		ldr	r3, .L19+20
 323 0128 0298     		ldr	r0, [sp, #8]
 324 012a 0399     		ldr	r1, [sp, #12]
 325              	.LVL46:
 326 012c FFF7FEFF 		bl	__aeabi_dmul
 327              	.LVL47:
 328 0130 0022     		movs	r2, #0
 329 0132 194B     		ldr	r3, .L19+24
 330 0134 FFF7FEFF 		bl	__aeabi_ddiv
 331              	.LVL48:
 332 0138 FFF7FEFF 		bl	sin
 333              	.LVL49:
 334 013c 0022     		movs	r2, #0
 335 013e 174B     		ldr	r3, .L19+28
ARM GAS  C:\Users\PC\AppData\Local\Temp\ccfE62Ib.s 			page 8


 336 0140 FFF7FEFF 		bl	__aeabi_dmul
 337              	.LVL50:
 338 0144 0022     		movs	r2, #0
 339 0146 154B     		ldr	r3, .L19+28
 340 0148 FFF7FEFF 		bl	__aeabi_dadd
 341              	.LVL51:
 342 014c FFF7FEFF 		bl	__aeabi_d2iz
 343              	.LVL52:
 344 0150 0400     		movs	r4, r0
 345              	.LVL53:
  64:main.c        ****         mPWM0_WriteCompare(valR);
 346              		.loc 1 64 0
 347 0152 0798     		ldr	r0, [sp, #28]
 348              	.LVL54:
 349 0154 FFF7FEFF 		bl	mPWM0_WriteCompare
 350              	.LVL55:
  65:main.c        ****         mPWM1_WriteCompare(valG);
 351              		.loc 1 65 0
 352 0158 2800     		movs	r0, r5
 353 015a FFF7FEFF 		bl	mPWM1_WriteCompare
 354              	.LVL56:
  66:main.c        ****         mPWM2_WriteCompare(valB);
 355              		.loc 1 66 0
 356 015e 2000     		movs	r0, r4
 357 0160 FFF7FEFF 		bl	mPWM2_WriteCompare
 358              	.LVL57:
  67:main.c        ****         CyDelay(1);
 359              		.loc 1 67 0
 360 0164 0120     		movs	r0, #1
 361 0166 FFF7FEFF 		bl	CyDelay
 362              	.LVL58:
  68:main.c        ****         char str[30];
  69:main.c        ****         sprintf(str, "%d %d %d", valR, valG, valB);
 363              		.loc 1 69 0
 364 016a 0094     		str	r4, [sp]
 365 016c 2B00     		movs	r3, r5
 366 016e 079A     		ldr	r2, [sp, #28]
 367 0170 0B49     		ldr	r1, .L19+32
 368 0172 09A8     		add	r0, sp, #36
 369 0174 FFF7FEFF 		bl	sprintf
 370              	.LVL59:
  70:main.c        ****         System.out.println(str);
 371              		.loc 1 70 0
 372 0178 09A8     		add	r0, sp, #36
 373 017a 119B     		ldr	r3, [sp, #68]
 374 017c 9847     		blx	r3
 375              	.LVL60:
 376              	.LBE2:
  71:main.c        ****     }
 377              		.loc 1 71 0
 378 017e 57E7     		b	.L15
 379              	.L20:
 380              		.align	2
 381              	.L19:
 382 0180 00006E40 		.word	1080950784
 383 0184 00005E40 		.word	1079902208
 384 0188 0000F03F 		.word	1072693248
ARM GAS  C:\Users\PC\AppData\Local\Temp\ccfE62Ib.s 			page 9


 385 018c 00807640 		.word	1081507840
 386 0190 1F85EB51 		.word	1374389535
 387 0194 B81E0940 		.word	1074339512
 388 0198 00806640 		.word	1080459264
 389 019c 00407F40 		.word	1082081280
 390 01a0 04000000 		.word	.LC3
 391              		.cfi_endproc
 392              	.LFE37:
 393              		.size	main, .-main
 394              		.section	.rodata.str1.4,"aMS",%progbits,1
 395              		.align	2
 396              	.LC0:
 397 0000 0A00     		.ascii	"\012\000"
 398 0002 0000     		.space	2
 399              	.LC3:
 400 0004 25642025 		.ascii	"%d %d %d\000"
 400      64202564 
 400      00
 401              		.text
 402              	.Letext0:
 403              		.file 2 "Generated_Source\\PSoC4/mUART_SPI_UART.h"
 404              		.file 3 "Generated_Source\\PSoC4/mPWM0.h"
 405              		.file 4 "Generated_Source\\PSoC4/mPWM1.h"
 406              		.file 5 "Generated_Source\\PSoC4/mPWM2.h"
 407              		.file 6 "Generated_Source\\PSoC4/CyLib.h"
 408              		.file 7 "c:\\program files (x86)\\cypress\\psoc creator\\4.4\\psoc creator\\import\\gnu\\arm\\5.4.
 409              		.file 8 "Generated_Source\\PSoC4/mUART.h"
 410              		.file 9 "c:\\program files (x86)\\cypress\\psoc creator\\4.4\\psoc creator\\import\\gnu\\arm\\5.4.