ARM GAS  C:\Users\PC\AppData\Local\Temp\ccF7GaWd.s 			page 1


   1              		.syntax unified
   2              		.cpu cortex-m0plus
   3              		.fpu softvfp
   4              		.eabi_attribute 20, 1
   5              		.eabi_attribute 21, 1
   6              		.eabi_attribute 23, 3
   7              		.eabi_attribute 24, 1
   8              		.eabi_attribute 25, 1
   9              		.eabi_attribute 26, 1
  10              		.eabi_attribute 30, 4
  11              		.eabi_attribute 34, 0
  12              		.eabi_attribute 18, 4
  13              		.thumb
  14              		.syntax unified
  15              		.file	"GFX_Library.c"
  16              		.text
  17              	.Ltext0:
  18              		.cfi_sections	.debug_frame
  19              		.section	.text.writeLine,"ax",%progbits
  20              		.align	1
  21              		.global	writeLine
  22              		.code	16
  23              		.thumb_func
  24              		.type	writeLine, %function
  25              	writeLine:
  26              	.LFB33:
  27              		.file 1 "GFX_Library.c"
   1:GFX_Library.c **** 
   2:GFX_Library.c **** ///////////////////////////////////////////////////////////////////////////
   3:GFX_Library.c **** ////                                                                   ////
   4:GFX_Library.c **** ////                            GFX_Library.c                          ////
   5:GFX_Library.c **** ////                                                                   ////
   6:GFX_Library.c **** ////                 Graphics library for CCS C compiler.              ////
   7:GFX_Library.c **** ////                                                                   ////
   8:GFX_Library.c **** ///////////////////////////////////////////////////////////////////////////
   9:GFX_Library.c **** ////                                                                   ////
  10:GFX_Library.c **** ////               This is a free software with NO WARRANTY.           ////
  11:GFX_Library.c **** ////                     https://simple-circuit.com/                   ////
  12:GFX_Library.c **** ////                                                                   ////
  13:GFX_Library.c **** ///////////////////////////////////////////////////////////////////////////
  14:GFX_Library.c **** /*
  15:GFX_Library.c **** This is the core graphics library for all our displays, providing a common
  16:GFX_Library.c **** set of graphics primitives (points, lines, circles, etc.).  It needs to be
  17:GFX_Library.c **** paired with a hardware-specific library for each display device we carry
  18:GFX_Library.c **** (to handle the lower-level functions).
  19:GFX_Library.c **** 
  20:GFX_Library.c **** Adafruit invests time and resources providing this open source code, please
  21:GFX_Library.c **** support Adafruit & open-source hardware by purchasing products from Adafruit!
  22:GFX_Library.c **** 
  23:GFX_Library.c **** Copyright (c) 2013 Adafruit Industries.  All rights reserved.
  24:GFX_Library.c **** 
  25:GFX_Library.c **** Redistribution and use in source and binary forms, with or without
  26:GFX_Library.c **** modification, are permitted provided that the following conditions are met:
  27:GFX_Library.c **** 
  28:GFX_Library.c **** - Redistributions of source code must retain the above copyright notice,
  29:GFX_Library.c ****   this list of conditions and the following disclaimer.
  30:GFX_Library.c **** - Redistributions in binary form must reproduce the above copyright notice,
ARM GAS  C:\Users\PC\AppData\Local\Temp\ccF7GaWd.s 			page 2


  31:GFX_Library.c ****   this list of conditions and the following disclaimer in the documentation
  32:GFX_Library.c ****   and/or other materials provided with the distribution.
  33:GFX_Library.c **** 
  34:GFX_Library.c **** THIS SOFTWARE IS PROVIDED BY THE COPYRIGHT HOLDERS AND CONTRIBUTORS "AS IS"
  35:GFX_Library.c **** AND ANY EXPRESS OR IMPLIED WARRANTIES, INCLUDING, BUT NOT LIMITED TO, THE
  36:GFX_Library.c **** IMPLIED WARRANTIES OF MERCHANTABILITY AND FITNESS FOR A PARTICULAR PURPOSE
  37:GFX_Library.c **** ARE DISCLAIMED. IN NO EVENT SHALL THE COPYRIGHT HOLDER OR CONTRIBUTORS BE
  38:GFX_Library.c **** LIABLE FOR ANY DIRECT, INDIRECT, INCIDENTAL, SPECIAL, EXEMPLARY, OR
  39:GFX_Library.c **** CONSEQUENTIAL DAMAGES (INCLUDING, BUT NOT LIMITED TO, PROCUREMENT OF
  40:GFX_Library.c **** SUBSTITUTE GOODS OR SERVICES; LOSS OF USE, DATA, OR PROFITS; OR BUSINESS
  41:GFX_Library.c **** INTERRUPTION) HOWEVER CAUSED AND ON ANY THEORY OF LIABILITY, WHETHER IN
  42:GFX_Library.c **** CONTRACT, STRICT LIABILITY, OR TORT (INCLUDING NEGLIGENCE OR OTHERWISE)
  43:GFX_Library.c **** ARISING IN ANY WAY OUT OF THE USE OF THIS SOFTWARE, EVEN IF ADVISED OF THE
  44:GFX_Library.c **** POSSIBILITY OF SUCH DAMAGE.
  45:GFX_Library.c ****  */
  46:GFX_Library.c **** ///////////////////////////////////////////////////////////////////////////////
  47:GFX_Library.c **** 
  48:GFX_Library.c **** #include "ssd1306.h"
  49:GFX_Library.c **** #include "GFX_Library.h"
  50:GFX_Library.c **** 
  51:GFX_Library.c **** //************************* Non User Functions *************************//
  52:GFX_Library.c **** void writeLine(uint16_t x0, uint16_t y0, uint16_t x1, uint16_t y1, uint16_t color);
  53:GFX_Library.c **** //////////////////////////////////////////////////////////////////////////
  54:GFX_Library.c **** 
  55:GFX_Library.c **** #ifndef min
  56:GFX_Library.c **** #define min(a,b) (((a) < (b)) ? (a) : (b))
  57:GFX_Library.c **** #endif
  58:GFX_Library.c **** #ifndef _swap_int16_t
  59:GFX_Library.c **** #define _swap_int16_t(a, b) { int16_t t = a; a = b; b = t; }
  60:GFX_Library.c **** #endif
  61:GFX_Library.c **** 
  62:GFX_Library.c **** #define display_width   _width
  63:GFX_Library.c **** #define display_height  _height
  64:GFX_Library.c **** 
  65:GFX_Library.c **** #define display_drawPixel   drawPixel
  66:GFX_Library.c **** #define display_drawVLine   drawVLine
  67:GFX_Library.c **** #define display_drawHLine   drawHLine
  68:GFX_Library.c **** #define display_fillScreen  fillScreen
  69:GFX_Library.c **** #define display_fillRect    fillRect
  70:GFX_Library.c **** #define display_setRotation setRotation
  71:GFX_Library.c **** #define display_invert      invertDisplay
  72:GFX_Library.c **** 
  73:GFX_Library.c **** 
  74:GFX_Library.c **** int16_t
  75:GFX_Library.c ****   cursor_x = 0,          ///< x location to start print()ing text
  76:GFX_Library.c ****   cursor_y = 0;          ///< y location to start print()ing text
  77:GFX_Library.c **** uint16_t
  78:GFX_Library.c ****   textcolor = 0xFFFF,    ///< 16-bit background color for print()
  79:GFX_Library.c ****   textbgcolor = 0xFFFF;  ///< 16-bit text color for print()
  80:GFX_Library.c **** uint8_t
  81:GFX_Library.c ****   textsize = 1;          ///< Desired magnification of text to print()
  82:GFX_Library.c **** bool
  83:GFX_Library.c ****   wrap = true;           ///< If set, 'wrap' text at right edge of display
  84:GFX_Library.c **** 
  85:GFX_Library.c **** // Standard ASCII 5x7 font
  86:GFX_Library.c **** #ifndef FONT5X7_H
  87:GFX_Library.c **** static const uint8_t font[256][5] = {
ARM GAS  C:\Users\PC\AppData\Local\Temp\ccF7GaWd.s 			page 3


  88:GFX_Library.c ****    0x00, 0x00, 0x00, 0x00, 0x00,
  89:GFX_Library.c ****    0x3E, 0x5B, 0x4F, 0x5B, 0x3E,
  90:GFX_Library.c ****    0x3E, 0x6B, 0x4F, 0x6B, 0x3E,
  91:GFX_Library.c ****    0x1C, 0x3E, 0x7C, 0x3E, 0x1C,
  92:GFX_Library.c ****    0x18, 0x3C, 0x7E, 0x3C, 0x18,
  93:GFX_Library.c ****    0x1C, 0x57, 0x7D, 0x57, 0x1C,
  94:GFX_Library.c ****    0x1C, 0x5E, 0x7F, 0x5E, 0x1C,
  95:GFX_Library.c ****    0x00, 0x18, 0x3C, 0x18, 0x00,
  96:GFX_Library.c ****    0xFF, 0xE7, 0xC3, 0xE7, 0xFF,
  97:GFX_Library.c ****    0x00, 0x18, 0x24, 0x18, 0x00,
  98:GFX_Library.c ****    0xFF, 0xE7, 0xDB, 0xE7, 0xFF,
  99:GFX_Library.c ****    0x30, 0x48, 0x3A, 0x06, 0x0E,
 100:GFX_Library.c ****    0x26, 0x29, 0x79, 0x29, 0x26,
 101:GFX_Library.c ****    0x40, 0x7F, 0x05, 0x05, 0x07,
 102:GFX_Library.c ****    0x40, 0x7F, 0x05, 0x25, 0x3F,
 103:GFX_Library.c ****    0x5A, 0x3C, 0xE7, 0x3C, 0x5A,
 104:GFX_Library.c ****    0x7F, 0x3E, 0x1C, 0x1C, 0x08,
 105:GFX_Library.c ****    0x08, 0x1C, 0x1C, 0x3E, 0x7F,
 106:GFX_Library.c ****    0x14, 0x22, 0x7F, 0x22, 0x14,
 107:GFX_Library.c ****    0x5F, 0x5F, 0x00, 0x5F, 0x5F,
 108:GFX_Library.c ****    0x06, 0x09, 0x7F, 0x01, 0x7F,
 109:GFX_Library.c ****    0x00, 0x66, 0x89, 0x95, 0x6A,
 110:GFX_Library.c ****    0x60, 0x60, 0x60, 0x60, 0x60,
 111:GFX_Library.c ****    0x94, 0xA2, 0xFF, 0xA2, 0x94,
 112:GFX_Library.c ****    0x08, 0x04, 0x7E, 0x04, 0x08,
 113:GFX_Library.c ****    0x10, 0x20, 0x7E, 0x20, 0x10,
 114:GFX_Library.c ****    0x08, 0x08, 0x2A, 0x1C, 0x08,
 115:GFX_Library.c ****    0x08, 0x1C, 0x2A, 0x08, 0x08,
 116:GFX_Library.c ****    0x1E, 0x10, 0x10, 0x10, 0x10,
 117:GFX_Library.c ****    0x0C, 0x1E, 0x0C, 0x1E, 0x0C,
 118:GFX_Library.c ****    0x30, 0x38, 0x3E, 0x38, 0x30,
 119:GFX_Library.c ****    0x06, 0x0E, 0x3E, 0x0E, 0x06,
 120:GFX_Library.c ****    0x00, 0x00, 0x00, 0x00, 0x00,
 121:GFX_Library.c ****    0x00, 0x00, 0x5F, 0x00, 0x00,
 122:GFX_Library.c ****    0x00, 0x07, 0x00, 0x07, 0x00,
 123:GFX_Library.c ****    0x14, 0x7F, 0x14, 0x7F, 0x14,
 124:GFX_Library.c ****    0x24, 0x2A, 0x7F, 0x2A, 0x12,
 125:GFX_Library.c ****    0x23, 0x13, 0x08, 0x64, 0x62,
 126:GFX_Library.c ****    0x36, 0x49, 0x56, 0x20, 0x50,
 127:GFX_Library.c ****    0x00, 0x08, 0x07, 0x03, 0x00,
 128:GFX_Library.c ****    0x00, 0x1C, 0x22, 0x41, 0x00,
 129:GFX_Library.c ****    0x00, 0x41, 0x22, 0x1C, 0x00,
 130:GFX_Library.c ****    0x2A, 0x1C, 0x7F, 0x1C, 0x2A,
 131:GFX_Library.c ****    0x08, 0x08, 0x3E, 0x08, 0x08,
 132:GFX_Library.c ****    0x00, 0x80, 0x70, 0x30, 0x00,
 133:GFX_Library.c ****    0x08, 0x08, 0x08, 0x08, 0x08,
 134:GFX_Library.c ****    0x00, 0x00, 0x60, 0x60, 0x00,
 135:GFX_Library.c ****    0x20, 0x10, 0x08, 0x04, 0x02,
 136:GFX_Library.c ****    0x3E, 0x51, 0x49, 0x45, 0x3E,
 137:GFX_Library.c ****    0x00, 0x42, 0x7F, 0x40, 0x00,
 138:GFX_Library.c ****    0x72, 0x49, 0x49, 0x49, 0x46,
 139:GFX_Library.c ****    0x21, 0x41, 0x49, 0x4D, 0x33,
 140:GFX_Library.c ****    0x18, 0x14, 0x12, 0x7F, 0x10,
 141:GFX_Library.c ****    0x27, 0x45, 0x45, 0x45, 0x39,
 142:GFX_Library.c ****    0x3C, 0x4A, 0x49, 0x49, 0x31,
 143:GFX_Library.c ****    0x41, 0x21, 0x11, 0x09, 0x07,
 144:GFX_Library.c ****    0x36, 0x49, 0x49, 0x49, 0x36,
ARM GAS  C:\Users\PC\AppData\Local\Temp\ccF7GaWd.s 			page 4


 145:GFX_Library.c ****    0x46, 0x49, 0x49, 0x29, 0x1E,
 146:GFX_Library.c ****    0x00, 0x00, 0x14, 0x00, 0x00,
 147:GFX_Library.c ****    0x00, 0x40, 0x34, 0x00, 0x00,
 148:GFX_Library.c ****    0x00, 0x08, 0x14, 0x22, 0x41,
 149:GFX_Library.c ****    0x14, 0x14, 0x14, 0x14, 0x14,
 150:GFX_Library.c ****    0x00, 0x41, 0x22, 0x14, 0x08,
 151:GFX_Library.c ****    0x02, 0x01, 0x59, 0x09, 0x06,
 152:GFX_Library.c ****    0x3E, 0x41, 0x5D, 0x59, 0x4E,
 153:GFX_Library.c ****    0x7C, 0x12, 0x11, 0x12, 0x7C,
 154:GFX_Library.c ****    0x7F, 0x49, 0x49, 0x49, 0x36,
 155:GFX_Library.c ****    0x3E, 0x41, 0x41, 0x41, 0x22,
 156:GFX_Library.c ****    0x7F, 0x41, 0x41, 0x41, 0x3E,
 157:GFX_Library.c ****    0x7F, 0x49, 0x49, 0x49, 0x41,
 158:GFX_Library.c ****    0x7F, 0x09, 0x09, 0x09, 0x01,
 159:GFX_Library.c ****    0x3E, 0x41, 0x41, 0x51, 0x73,
 160:GFX_Library.c ****    0x7F, 0x08, 0x08, 0x08, 0x7F,
 161:GFX_Library.c ****    0x00, 0x41, 0x7F, 0x41, 0x00,
 162:GFX_Library.c ****    0x20, 0x40, 0x41, 0x3F, 0x01,
 163:GFX_Library.c ****    0x7F, 0x08, 0x14, 0x22, 0x41,
 164:GFX_Library.c ****    0x7F, 0x40, 0x40, 0x40, 0x40,
 165:GFX_Library.c ****    0x7F, 0x02, 0x1C, 0x02, 0x7F,
 166:GFX_Library.c ****    0x7F, 0x04, 0x08, 0x10, 0x7F,
 167:GFX_Library.c ****    0x3E, 0x41, 0x41, 0x41, 0x3E,
 168:GFX_Library.c ****    0x7F, 0x09, 0x09, 0x09, 0x06,
 169:GFX_Library.c ****    0x3E, 0x41, 0x51, 0x21, 0x5E,
 170:GFX_Library.c ****    0x7F, 0x09, 0x19, 0x29, 0x46,
 171:GFX_Library.c ****    0x26, 0x49, 0x49, 0x49, 0x32,
 172:GFX_Library.c ****    0x03, 0x01, 0x7F, 0x01, 0x03,
 173:GFX_Library.c ****    0x3F, 0x40, 0x40, 0x40, 0x3F,
 174:GFX_Library.c ****    0x1F, 0x20, 0x40, 0x20, 0x1F,
 175:GFX_Library.c ****    0x3F, 0x40, 0x38, 0x40, 0x3F,
 176:GFX_Library.c ****    0x63, 0x14, 0x08, 0x14, 0x63,
 177:GFX_Library.c ****    0x03, 0x04, 0x78, 0x04, 0x03,
 178:GFX_Library.c ****    0x61, 0x59, 0x49, 0x4D, 0x43,
 179:GFX_Library.c ****    0x00, 0x7F, 0x41, 0x41, 0x41,
 180:GFX_Library.c ****    0x02, 0x04, 0x08, 0x10, 0x20,
 181:GFX_Library.c ****    0x00, 0x41, 0x41, 0x41, 0x7F,
 182:GFX_Library.c ****    0x04, 0x02, 0x01, 0x02, 0x04,
 183:GFX_Library.c ****    0x40, 0x40, 0x40, 0x40, 0x40,
 184:GFX_Library.c ****    0x00, 0x03, 0x07, 0x08, 0x00,
 185:GFX_Library.c ****    0x20, 0x54, 0x54, 0x78, 0x40,
 186:GFX_Library.c ****    0x7F, 0x28, 0x44, 0x44, 0x38,
 187:GFX_Library.c ****    0x38, 0x44, 0x44, 0x44, 0x28,
 188:GFX_Library.c ****    0x38, 0x44, 0x44, 0x28, 0x7F,
 189:GFX_Library.c ****    0x38, 0x54, 0x54, 0x54, 0x18,
 190:GFX_Library.c ****    0x00, 0x08, 0x7E, 0x09, 0x02,
 191:GFX_Library.c ****    0x18, 0xA4, 0xA4, 0x9C, 0x78,
 192:GFX_Library.c ****    0x7F, 0x08, 0x04, 0x04, 0x78,
 193:GFX_Library.c ****    0x00, 0x44, 0x7D, 0x40, 0x00,
 194:GFX_Library.c ****    0x20, 0x40, 0x40, 0x3D, 0x00,
 195:GFX_Library.c ****    0x7F, 0x10, 0x28, 0x44, 0x00,
 196:GFX_Library.c ****    0x00, 0x41, 0x7F, 0x40, 0x00,
 197:GFX_Library.c ****    0x7C, 0x04, 0x78, 0x04, 0x78,
 198:GFX_Library.c ****    0x7C, 0x08, 0x04, 0x04, 0x78,
 199:GFX_Library.c ****    0x38, 0x44, 0x44, 0x44, 0x38,
 200:GFX_Library.c ****    0xFC, 0x18, 0x24, 0x24, 0x18,
 201:GFX_Library.c ****    0x18, 0x24, 0x24, 0x18, 0xFC,
ARM GAS  C:\Users\PC\AppData\Local\Temp\ccF7GaWd.s 			page 5


 202:GFX_Library.c ****    0x7C, 0x08, 0x04, 0x04, 0x08,
 203:GFX_Library.c ****    0x48, 0x54, 0x54, 0x54, 0x24,
 204:GFX_Library.c ****    0x04, 0x04, 0x3F, 0x44, 0x24,
 205:GFX_Library.c ****    0x3C, 0x40, 0x40, 0x20, 0x7C,
 206:GFX_Library.c ****    0x1C, 0x20, 0x40, 0x20, 0x1C,
 207:GFX_Library.c ****    0x3C, 0x40, 0x30, 0x40, 0x3C,
 208:GFX_Library.c ****    0x44, 0x28, 0x10, 0x28, 0x44,
 209:GFX_Library.c ****    0x4C, 0x90, 0x90, 0x90, 0x7C,
 210:GFX_Library.c ****    0x44, 0x64, 0x54, 0x4C, 0x44,
 211:GFX_Library.c ****    0x00, 0x08, 0x36, 0x41, 0x00,
 212:GFX_Library.c ****    0x00, 0x00, 0x77, 0x00, 0x00,
 213:GFX_Library.c ****    0x00, 0x41, 0x36, 0x08, 0x00,
 214:GFX_Library.c ****    0x02, 0x01, 0x02, 0x04, 0x02,
 215:GFX_Library.c ****    0x3C, 0x26, 0x23, 0x26, 0x3C,
 216:GFX_Library.c ****    0x1E, 0xA1, 0xA1, 0x61, 0x12,
 217:GFX_Library.c ****    0x3A, 0x40, 0x40, 0x20, 0x7A,
 218:GFX_Library.c ****    0x38, 0x54, 0x54, 0x55, 0x59,
 219:GFX_Library.c ****    0x21, 0x55, 0x55, 0x79, 0x41,
 220:GFX_Library.c ****    0x22, 0x54, 0x54, 0x78, 0x42, // a-umlaut
 221:GFX_Library.c ****    0x21, 0x55, 0x54, 0x78, 0x40,
 222:GFX_Library.c ****    0x20, 0x54, 0x55, 0x79, 0x40,
 223:GFX_Library.c ****    0x0C, 0x1E, 0x52, 0x72, 0x12,
 224:GFX_Library.c ****    0x39, 0x55, 0x55, 0x55, 0x59,
 225:GFX_Library.c ****    0x39, 0x54, 0x54, 0x54, 0x59,
 226:GFX_Library.c ****    0x39, 0x55, 0x54, 0x54, 0x58,
 227:GFX_Library.c ****    0x00, 0x00, 0x45, 0x7C, 0x41,
 228:GFX_Library.c ****    0x00, 0x02, 0x45, 0x7D, 0x42,
 229:GFX_Library.c ****    0x00, 0x01, 0x45, 0x7C, 0x40,
 230:GFX_Library.c ****    0x7D, 0x12, 0x11, 0x12, 0x7D, // A-umlaut
 231:GFX_Library.c ****    0xF0, 0x28, 0x25, 0x28, 0xF0,
 232:GFX_Library.c ****    0x7C, 0x54, 0x55, 0x45, 0x00,
 233:GFX_Library.c ****    0x20, 0x54, 0x54, 0x7C, 0x54,
 234:GFX_Library.c ****    0x7C, 0x0A, 0x09, 0x7F, 0x49,
 235:GFX_Library.c ****    0x32, 0x49, 0x49, 0x49, 0x32,
 236:GFX_Library.c ****    0x3A, 0x44, 0x44, 0x44, 0x3A, // o-umlaut
 237:GFX_Library.c ****    0x32, 0x4A, 0x48, 0x48, 0x30,
 238:GFX_Library.c ****    0x3A, 0x41, 0x41, 0x21, 0x7A,
 239:GFX_Library.c ****    0x3A, 0x42, 0x40, 0x20, 0x78,
 240:GFX_Library.c ****    0x00, 0x9D, 0xA0, 0xA0, 0x7D,
 241:GFX_Library.c ****    0x3D, 0x42, 0x42, 0x42, 0x3D, // O-umlaut
 242:GFX_Library.c ****    0x3D, 0x40, 0x40, 0x40, 0x3D,
 243:GFX_Library.c ****    0x3C, 0x24, 0xFF, 0x24, 0x24,
 244:GFX_Library.c ****    0x48, 0x7E, 0x49, 0x43, 0x66,
 245:GFX_Library.c ****    0x2B, 0x2F, 0xFC, 0x2F, 0x2B,
 246:GFX_Library.c ****    0xFF, 0x09, 0x29, 0xF6, 0x20,
 247:GFX_Library.c ****    0xC0, 0x88, 0x7E, 0x09, 0x03,
 248:GFX_Library.c ****    0x20, 0x54, 0x54, 0x79, 0x41,
 249:GFX_Library.c ****    0x00, 0x00, 0x44, 0x7D, 0x41,
 250:GFX_Library.c ****    0x30, 0x48, 0x48, 0x4A, 0x32,
 251:GFX_Library.c ****    0x38, 0x40, 0x40, 0x22, 0x7A,
 252:GFX_Library.c ****    0x00, 0x7A, 0x0A, 0x0A, 0x72,
 253:GFX_Library.c ****    0x7D, 0x0D, 0x19, 0x31, 0x7D,
 254:GFX_Library.c ****    0x26, 0x29, 0x29, 0x2F, 0x28,
 255:GFX_Library.c ****    0x26, 0x29, 0x29, 0x29, 0x26,
 256:GFX_Library.c ****    0x30, 0x48, 0x4D, 0x40, 0x20,
 257:GFX_Library.c ****    0x38, 0x08, 0x08, 0x08, 0x08,
 258:GFX_Library.c ****    0x08, 0x08, 0x08, 0x08, 0x38,
ARM GAS  C:\Users\PC\AppData\Local\Temp\ccF7GaWd.s 			page 6


 259:GFX_Library.c ****    0x2F, 0x10, 0xC8, 0xAC, 0xBA,
 260:GFX_Library.c ****    0x2F, 0x10, 0x28, 0x34, 0xFA,
 261:GFX_Library.c ****    0x00, 0x00, 0x7B, 0x00, 0x00,
 262:GFX_Library.c ****    0x08, 0x14, 0x2A, 0x14, 0x22,
 263:GFX_Library.c ****    0x22, 0x14, 0x2A, 0x14, 0x08,
 264:GFX_Library.c ****    0x55, 0x00, 0x55, 0x00, 0x55, // #176 (25% block) missing in old code
 265:GFX_Library.c ****    0xAA, 0x55, 0xAA, 0x55, 0xAA, // 50% block
 266:GFX_Library.c ****    0xFF, 0x55, 0xFF, 0x55, 0xFF, // 75% block
 267:GFX_Library.c ****    0x00, 0x00, 0x00, 0xFF, 0x00,
 268:GFX_Library.c ****    0x10, 0x10, 0x10, 0xFF, 0x00,
 269:GFX_Library.c ****    0x14, 0x14, 0x14, 0xFF, 0x00,
 270:GFX_Library.c ****    0x10, 0x10, 0xFF, 0x00, 0xFF,
 271:GFX_Library.c ****    0x10, 0x10, 0xF0, 0x10, 0xF0,
 272:GFX_Library.c ****    0x14, 0x14, 0x14, 0xFC, 0x00,
 273:GFX_Library.c ****    0x14, 0x14, 0xF7, 0x00, 0xFF,
 274:GFX_Library.c ****    0x00, 0x00, 0xFF, 0x00, 0xFF,
 275:GFX_Library.c ****    0x14, 0x14, 0xF4, 0x04, 0xFC,
 276:GFX_Library.c ****    0x14, 0x14, 0x17, 0x10, 0x1F,
 277:GFX_Library.c ****    0x10, 0x10, 0x1F, 0x10, 0x1F,
 278:GFX_Library.c ****    0x14, 0x14, 0x14, 0x1F, 0x00,
 279:GFX_Library.c ****    0x10, 0x10, 0x10, 0xF0, 0x00,
 280:GFX_Library.c ****    0x00, 0x00, 0x00, 0x1F, 0x10,
 281:GFX_Library.c ****    0x10, 0x10, 0x10, 0x1F, 0x10,
 282:GFX_Library.c ****    0x10, 0x10, 0x10, 0xF0, 0x10,
 283:GFX_Library.c ****    0x00, 0x00, 0x00, 0xFF, 0x10,
 284:GFX_Library.c ****    0x10, 0x10, 0x10, 0x10, 0x10,
 285:GFX_Library.c ****    0x10, 0x10, 0x10, 0xFF, 0x10,
 286:GFX_Library.c ****    0x00, 0x00, 0x00, 0xFF, 0x14,
 287:GFX_Library.c ****    0x00, 0x00, 0xFF, 0x00, 0xFF,
 288:GFX_Library.c ****    0x00, 0x00, 0x1F, 0x10, 0x17,
 289:GFX_Library.c ****    0x00, 0x00, 0xFC, 0x04, 0xF4,
 290:GFX_Library.c ****    0x14, 0x14, 0x17, 0x10, 0x17,
 291:GFX_Library.c ****    0x14, 0x14, 0xF4, 0x04, 0xF4,
 292:GFX_Library.c ****    0x00, 0x00, 0xFF, 0x00, 0xF7,
 293:GFX_Library.c ****    0x14, 0x14, 0x14, 0x14, 0x14,
 294:GFX_Library.c ****    0x14, 0x14, 0xF7, 0x00, 0xF7,
 295:GFX_Library.c ****    0x14, 0x14, 0x14, 0x17, 0x14,
 296:GFX_Library.c ****    0x10, 0x10, 0x1F, 0x10, 0x1F,
 297:GFX_Library.c ****    0x14, 0x14, 0x14, 0xF4, 0x14,
 298:GFX_Library.c ****    0x10, 0x10, 0xF0, 0x10, 0xF0,
 299:GFX_Library.c ****    0x00, 0x00, 0x1F, 0x10, 0x1F,
 300:GFX_Library.c ****    0x00, 0x00, 0x00, 0x1F, 0x14,
 301:GFX_Library.c ****    0x00, 0x00, 0x00, 0xFC, 0x14,
 302:GFX_Library.c ****    0x00, 0x00, 0xF0, 0x10, 0xF0,
 303:GFX_Library.c ****    0x10, 0x10, 0xFF, 0x10, 0xFF,
 304:GFX_Library.c ****    0x14, 0x14, 0x14, 0xFF, 0x14,
 305:GFX_Library.c ****    0x10, 0x10, 0x10, 0x1F, 0x00,
 306:GFX_Library.c ****    0x00, 0x00, 0x00, 0xF0, 0x10,
 307:GFX_Library.c ****    0xFF, 0xFF, 0xFF, 0xFF, 0xFF,
 308:GFX_Library.c ****    0xF0, 0xF0, 0xF0, 0xF0, 0xF0,
 309:GFX_Library.c ****    0xFF, 0xFF, 0xFF, 0x00, 0x00,
 310:GFX_Library.c ****    0x00, 0x00, 0x00, 0xFF, 0xFF,
 311:GFX_Library.c ****    0x0F, 0x0F, 0x0F, 0x0F, 0x0F,
 312:GFX_Library.c ****    0x38, 0x44, 0x44, 0x38, 0x44,
 313:GFX_Library.c ****    0xFC, 0x4A, 0x4A, 0x4A, 0x34, // sharp-s or beta
 314:GFX_Library.c ****    0x7E, 0x02, 0x02, 0x06, 0x06,
 315:GFX_Library.c ****    0x02, 0x7E, 0x02, 0x7E, 0x02,
ARM GAS  C:\Users\PC\AppData\Local\Temp\ccF7GaWd.s 			page 7


 316:GFX_Library.c ****    0x63, 0x55, 0x49, 0x41, 0x63,
 317:GFX_Library.c ****    0x38, 0x44, 0x44, 0x3C, 0x04,
 318:GFX_Library.c ****    0x40, 0x7E, 0x20, 0x1E, 0x20,
 319:GFX_Library.c ****    0x06, 0x02, 0x7E, 0x02, 0x02,
 320:GFX_Library.c ****    0x99, 0xA5, 0xE7, 0xA5, 0x99,
 321:GFX_Library.c ****    0x1C, 0x2A, 0x49, 0x2A, 0x1C,
 322:GFX_Library.c ****    0x4C, 0x72, 0x01, 0x72, 0x4C,
 323:GFX_Library.c ****    0x30, 0x4A, 0x4D, 0x4D, 0x30,
 324:GFX_Library.c ****    0x30, 0x48, 0x78, 0x48, 0x30,
 325:GFX_Library.c ****    0xBC, 0x62, 0x5A, 0x46, 0x3D,
 326:GFX_Library.c ****    0x3E, 0x49, 0x49, 0x49, 0x00,
 327:GFX_Library.c ****    0x7E, 0x01, 0x01, 0x01, 0x7E,
 328:GFX_Library.c ****    0x2A, 0x2A, 0x2A, 0x2A, 0x2A,
 329:GFX_Library.c ****    0x44, 0x44, 0x5F, 0x44, 0x44,
 330:GFX_Library.c ****    0x40, 0x51, 0x4A, 0x44, 0x40,
 331:GFX_Library.c ****    0x40, 0x44, 0x4A, 0x51, 0x40,
 332:GFX_Library.c ****    0x00, 0x00, 0xFF, 0x01, 0x03,
 333:GFX_Library.c ****    0xE0, 0x80, 0xFF, 0x00, 0x00,
 334:GFX_Library.c ****    0x08, 0x08, 0x6B, 0x6B, 0x08,
 335:GFX_Library.c ****    0x36, 0x12, 0x36, 0x24, 0x36,
 336:GFX_Library.c ****    0x06, 0x0F, 0x09, 0x0F, 0x06,
 337:GFX_Library.c ****    0x00, 0x00, 0x18, 0x18, 0x00,
 338:GFX_Library.c ****    0x00, 0x00, 0x10, 0x10, 0x00,
 339:GFX_Library.c ****    0x30, 0x40, 0xFF, 0x01, 0x01,
 340:GFX_Library.c ****    0x00, 0x1F, 0x01, 0x01, 0x1E,
 341:GFX_Library.c ****    0x00, 0x19, 0x1D, 0x17, 0x12,
 342:GFX_Library.c ****    0x00, 0x3C, 0x3C, 0x3C, 0x3C,
 343:GFX_Library.c ****    0x00, 0x00, 0x00, 0x00, 0x00  // #255 NBSP
 344:GFX_Library.c **** };
 345:GFX_Library.c **** #endif // FONT5X7_H
 346:GFX_Library.c **** 
 347:GFX_Library.c **** /**************************************************************************/
 348:GFX_Library.c **** /*!
 349:GFX_Library.c ****    @brief    Write a line.  Bresenham's algorithm - thx wikpedia
 350:GFX_Library.c ****     @param    x0  Start point x coordinate
 351:GFX_Library.c ****     @param    y0  Start point y coordinate
 352:GFX_Library.c ****     @param    x1  End point x coordinate
 353:GFX_Library.c ****     @param    y1  End point y coordinate
 354:GFX_Library.c ****     @param    color 16-bit 5-6-5 Color to draw with
 355:GFX_Library.c **** */
 356:GFX_Library.c **** /**************************************************************************/
 357:GFX_Library.c **** void writeLine(uint16_t x0, uint16_t y0, uint16_t x1, uint16_t y1, uint16_t color) {
  28              		.loc 1 357 0
  29              		.cfi_startproc
  30              		@ args = 4, pretend = 0, frame = 24
  31              		@ frame_needed = 0, uses_anonymous_args = 0
  32              	.LVL0:
  33 0000 F0B5     		push	{r4, r5, r6, r7, lr}
  34              		.cfi_def_cfa_offset 20
  35              		.cfi_offset 4, -20
  36              		.cfi_offset 5, -16
  37              		.cfi_offset 6, -12
  38              		.cfi_offset 7, -8
  39              		.cfi_offset 14, -4
  40 0002 1700     		movs	r7, r2
  41 0004 87B0     		sub	sp, sp, #28
  42              		.cfi_def_cfa_offset 48
ARM GAS  C:\Users\PC\AppData\Local\Temp\ccF7GaWd.s 			page 8


  43              		.loc 1 357 0
  44 0006 0CAA     		add	r2, sp, #48
  45              	.LVL1:
  46 0008 1288     		ldrh	r2, [r2]
  47              	.LVL2:
  48 000a 0D00     		movs	r5, r1
  49 000c 0592     		str	r2, [sp, #20]
 358:GFX_Library.c ****     bool steep = abs((int16_t)(y1 - y0)) > abs((int16_t)(x1 - x0));
  50              		.loc 1 358 0
  51 000e 5A1A     		subs	r2, r3, r1
  52 0010 12B2     		sxth	r2, r2
  53 0012 D117     		asrs	r1, r2, #31
  54              	.LVL3:
  55 0014 5218     		adds	r2, r2, r1
  56 0016 4A40     		eors	r2, r1
  57 0018 0092     		str	r2, [sp]
  58 001a 3A1A     		subs	r2, r7, r0
  59 001c 12B2     		sxth	r2, r2
  60 001e D117     		asrs	r1, r2, #31
  61 0020 5218     		adds	r2, r2, r1
  62 0022 4A40     		eors	r2, r1
  63 0024 0192     		str	r2, [sp, #4]
  64              	.LVL4:
 359:GFX_Library.c ****     if (steep) {
  65              		.loc 1 359 0
  66 0026 0199     		ldr	r1, [sp, #4]
  67 0028 009A     		ldr	r2, [sp]
  68              	.LVL5:
 357:GFX_Library.c ****     bool steep = abs((int16_t)(y1 - y0)) > abs((int16_t)(x1 - x0));
  69              		.loc 1 357 0
  70 002a 0400     		movs	r4, r0
  71              		.loc 1 359 0
  72 002c 8A42     		cmp	r2, r1
  73 002e 04DD     		ble	.L2
  74 0030 3A00     		movs	r2, r7
  75              	.LBB11:
 360:GFX_Library.c ****         _swap_int16_t(x0, y0);
  76              		.loc 1 360 0
  77 0032 2C00     		movs	r4, r5
  78              	.LBE11:
  79              	.LBB12:
 361:GFX_Library.c ****         _swap_int16_t(x1, y1);
  80              		.loc 1 361 0
  81 0034 1F00     		movs	r7, r3
  82              	.LBE12:
  83              	.LBB13:
 360:GFX_Library.c ****         _swap_int16_t(x0, y0);
  84              		.loc 1 360 0
  85 0036 0500     		movs	r5, r0
  86              	.LBE13:
  87              	.LBB14:
  88              		.loc 1 361 0
  89 0038 1300     		movs	r3, r2
  90              	.LVL6:
  91              	.L2:
  92              	.LBE14:
 362:GFX_Library.c ****     }
ARM GAS  C:\Users\PC\AppData\Local\Temp\ccF7GaWd.s 			page 9


 363:GFX_Library.c **** 
 364:GFX_Library.c ****     if (x0 > x1) {
  93              		.loc 1 364 0
  94 003a BC42     		cmp	r4, r7
  95 003c 05D9     		bls	.L3
  96 003e 2A00     		movs	r2, r5
  97              	.LBB15:
 365:GFX_Library.c ****         _swap_int16_t(x0, x1);
 366:GFX_Library.c ****         _swap_int16_t(y0, y1);
  98              		.loc 1 366 0
  99 0040 1D00     		movs	r5, r3
 100              	.LVL7:
 101 0042 1300     		movs	r3, r2
 102              	.LVL8:
 103              	.LBE15:
 364:GFX_Library.c ****         _swap_int16_t(x0, x1);
 104              		.loc 1 364 0
 105 0044 2200     		movs	r2, r4
 106 0046 3C00     		movs	r4, r7
 107              	.LVL9:
 108 0048 1700     		movs	r7, r2
 109              	.LVL10:
 110              	.L3:
 367:GFX_Library.c ****     }
 368:GFX_Library.c **** 
 369:GFX_Library.c ****     int16_t dx, dy;
 370:GFX_Library.c ****     dx = x1 - x0;
 111              		.loc 1 370 0
 112 004a 3A1B     		subs	r2, r7, r4
 113 004c 92B2     		uxth	r2, r2
 114 004e 0292     		str	r2, [sp, #8]
 115              	.LVL11:
 371:GFX_Library.c ****     dy = abs((int16_t)(y1 - y0));
 116              		.loc 1 371 0
 117 0050 5A1B     		subs	r2, r3, r5
 118 0052 12B2     		sxth	r2, r2
 119 0054 D117     		asrs	r1, r2, #31
 120              	.LVL12:
 121 0056 5218     		adds	r2, r2, r1
 122 0058 4A40     		eors	r2, r1
 123 005a 0492     		str	r2, [sp, #16]
 124              	.LVL13:
 372:GFX_Library.c **** 
 373:GFX_Library.c ****     int16_t err = dx / 2;
 125              		.loc 1 373 0
 126 005c 6A46     		mov	r2, sp
 127 005e 0826     		movs	r6, #8
 128 0060 965F     		ldrsh	r6, [r2, r6]
 129 0062 F20F     		lsrs	r2, r6, #31
 130 0064 9619     		adds	r6, r2, r6
 374:GFX_Library.c ****     int16_t ystep;
 375:GFX_Library.c **** 
 376:GFX_Library.c ****     if (y0 < y1) {
 377:GFX_Library.c ****         ystep = 1;
 378:GFX_Library.c ****     } else {
 379:GFX_Library.c ****         ystep = -1;
 131              		.loc 1 379 0
ARM GAS  C:\Users\PC\AppData\Local\Temp\ccF7GaWd.s 			page 10


 132 0066 0022     		movs	r2, #0
 133 0068 9D42     		cmp	r5, r3
 134 006a 5241     		adcs	r2, r2, r2
 135 006c 0123     		movs	r3, #1
 136              	.LVL14:
 137 006e 5242     		rsbs	r2, r2, #0
 138 0070 1343     		orrs	r3, r2
 373:GFX_Library.c ****     int16_t ystep;
 139              		.loc 1 373 0
 140 0072 7610     		asrs	r6, r6, #1
 141              	.LVL15:
 142              		.loc 1 379 0
 143 0074 0393     		str	r3, [sp, #12]
 144              	.L5:
 145              	.LVL16:
 380:GFX_Library.c ****     }
 381:GFX_Library.c **** 
 382:GFX_Library.c ****     for (; x0<=x1; x0++) {
 146              		.loc 1 382 0 discriminator 1
 147 0076 BC42     		cmp	r4, r7
 148 0078 1BD8     		bhi	.L13
 149 007a 6B46     		mov	r3, sp
 383:GFX_Library.c ****         if (steep) {
 150              		.loc 1 383 0
 151 007c 0199     		ldr	r1, [sp, #4]
 152 007e 1A7D     		ldrb	r2, [r3, #20]
 153 0080 009B     		ldr	r3, [sp]
 154 0082 8B42     		cmp	r3, r1
 155 0084 02DD     		ble	.L6
 384:GFX_Library.c ****             display_drawPixel(y0, x0, color);
 156              		.loc 1 384 0
 157 0086 E1B2     		uxtb	r1, r4
 158 0088 E8B2     		uxtb	r0, r5
 159 008a 01E0     		b	.L11
 160              	.L6:
 385:GFX_Library.c ****         } else {
 386:GFX_Library.c ****             display_drawPixel(x0, y0, color);
 161              		.loc 1 386 0
 162 008c E9B2     		uxtb	r1, r5
 163 008e E0B2     		uxtb	r0, r4
 164              	.L11:
 165 0090 FFF7FEFF 		bl	drawPixel
 166              	.LVL17:
 387:GFX_Library.c ****         }
 388:GFX_Library.c ****         err -= dy;
 167              		.loc 1 388 0
 168 0094 049B     		ldr	r3, [sp, #16]
 169 0096 F61A     		subs	r6, r6, r3
 170              	.LVL18:
 171 0098 B3B2     		uxth	r3, r6
 172 009a 1EB2     		sxth	r6, r3
 173              	.LVL19:
 389:GFX_Library.c ****         if (err < 0) {
 174              		.loc 1 389 0
 175 009c 002E     		cmp	r6, #0
 176 009e 05DA     		bge	.L8
 390:GFX_Library.c ****             y0 += ystep;
ARM GAS  C:\Users\PC\AppData\Local\Temp\ccF7GaWd.s 			page 11


 177              		.loc 1 390 0
 178 00a0 039A     		ldr	r2, [sp, #12]
 179 00a2 AD18     		adds	r5, r5, r2
 180              	.LVL20:
 391:GFX_Library.c ****             err += dx;
 181              		.loc 1 391 0
 182 00a4 029A     		ldr	r2, [sp, #8]
 390:GFX_Library.c ****             y0 += ystep;
 183              		.loc 1 390 0
 184 00a6 ADB2     		uxth	r5, r5
 185              	.LVL21:
 186              		.loc 1 391 0
 187 00a8 D318     		adds	r3, r2, r3
 188 00aa 1EB2     		sxth	r6, r3
 189              	.LVL22:
 190              	.L8:
 382:GFX_Library.c ****         if (steep) {
 191              		.loc 1 382 0
 192 00ac 0134     		adds	r4, r4, #1
 193              	.LVL23:
 194 00ae A4B2     		uxth	r4, r4
 195              	.LVL24:
 196 00b0 E1E7     		b	.L5
 197              	.L13:
 392:GFX_Library.c ****         }
 393:GFX_Library.c ****     }
 394:GFX_Library.c **** }
 198              		.loc 1 394 0
 199 00b2 07B0     		add	sp, sp, #28
 200              	.LVL25:
 201              		@ sp needed
 202              	.LVL26:
 203              	.LVL27:
 204              	.LVL28:
 205              	.LVL29:
 206 00b4 F0BD     		pop	{r4, r5, r6, r7, pc}
 207              		.cfi_endproc
 208              	.LFE33:
 209              		.size	writeLine, .-writeLine
 210              		.section	.text.display_drawLine,"ax",%progbits
 211              		.align	1
 212              		.global	display_drawLine
 213              		.code	16
 214              		.thumb_func
 215              		.type	display_drawLine, %function
 216              	display_drawLine:
 217              	.LFB34:
 395:GFX_Library.c **** 
 396:GFX_Library.c **** /**************************************************************************/
 397:GFX_Library.c **** /*!
 398:GFX_Library.c ****    @brief    Draw a line
 399:GFX_Library.c ****     @param    x0  Start point x coordinate
 400:GFX_Library.c ****     @param    y0  Start point y coordinate
 401:GFX_Library.c ****     @param    x1  End point x coordinate
 402:GFX_Library.c ****     @param    y1  End point y coordinate
 403:GFX_Library.c ****     @param    color 16-bit 5-6-5 Color to draw with
 404:GFX_Library.c **** */
ARM GAS  C:\Users\PC\AppData\Local\Temp\ccF7GaWd.s 			page 12


 405:GFX_Library.c **** /**************************************************************************/
 406:GFX_Library.c **** void display_drawLine(uint16_t x0, uint16_t y0, uint16_t x1, uint16_t y1, uint16_t color) {
 218              		.loc 1 406 0
 219              		.cfi_startproc
 220              		@ args = 4, pretend = 0, frame = 0
 221              		@ frame_needed = 0, uses_anonymous_args = 0
 222              	.LVL30:
 223 0000 13B5     		push	{r0, r1, r4, lr}
 224              		.cfi_def_cfa_offset 16
 225              		.cfi_offset 0, -16
 226              		.cfi_offset 1, -12
 227              		.cfi_offset 4, -8
 228              		.cfi_offset 14, -4
 229              		.loc 1 406 0
 230 0002 04AC     		add	r4, sp, #16
 231              	.LVL31:
 232 0004 2488     		ldrh	r4, [r4]
 233              	.LVL32:
 407:GFX_Library.c ****     // Update in subclasses if desired!
 408:GFX_Library.c ****     if(x0 == x1){
 234              		.loc 1 408 0
 235 0006 9042     		cmp	r0, r2
 236 0008 0ED1     		bne	.L15
 237              	.LVL33:
 238              	.LBB21:
 239              	.LBB22:
 409:GFX_Library.c ****         if(y0 > y1) _swap_int16_t(y0, y1);
 240              		.loc 1 409 0
 241 000a 9942     		cmp	r1, r3
 242 000c 02D9     		bls	.L16
 243 000e 0A00     		movs	r2, r1
 244              	.LVL34:
 245 0010 1900     		movs	r1, r3
 246              	.LVL35:
 247 0012 1300     		movs	r3, r2
 248              	.LVL36:
 249              	.L16:
 410:GFX_Library.c ****         display_drawVLine(x0, y0, y1 - y0 + 1, color);
 250              		.loc 1 410 0
 251 0014 C9B2     		uxtb	r1, r1
 252              	.LVL37:
 253 0016 5A1C     		adds	r2, r3, #1
 254 0018 E4B2     		uxtb	r4, r4
 255              	.LVL38:
 256 001a 521A     		subs	r2, r2, r1
 257 001c D2B2     		uxtb	r2, r2
 258 001e C0B2     		uxtb	r0, r0
 259              	.LVL39:
 260 0020 2300     		movs	r3, r4
 261              	.LVL40:
 262 0022 FFF7FEFF 		bl	drawVLine
 263              	.LVL41:
 264 0026 12E0     		b	.L14
 265              	.LVL42:
 266              	.L15:
 267              	.LBE22:
 268              	.LBE21:
ARM GAS  C:\Users\PC\AppData\Local\Temp\ccF7GaWd.s 			page 13


 411:GFX_Library.c ****     } else if(y0 == y1){
 269              		.loc 1 411 0
 270 0028 9942     		cmp	r1, r3
 271 002a 0DD1     		bne	.L18
 412:GFX_Library.c ****         if(x0 > x1) _swap_int16_t(x0, x1);
 272              		.loc 1 412 0
 273 002c 9042     		cmp	r0, r2
 274 002e 02D9     		bls	.L19
 275 0030 0300     		movs	r3, r0
 276              	.LVL43:
 277 0032 1000     		movs	r0, r2
 278              	.LVL44:
 279 0034 1A00     		movs	r2, r3
 280              	.LVL45:
 281              	.L19:
 413:GFX_Library.c ****         display_drawHLine(x0, y0, x1 - x0 + 1, color);
 282              		.loc 1 413 0
 283 0036 C0B2     		uxtb	r0, r0
 284              	.LVL46:
 285 0038 0132     		adds	r2, r2, #1
 286              	.LVL47:
 287 003a 121A     		subs	r2, r2, r0
 288 003c E3B2     		uxtb	r3, r4
 289 003e D2B2     		uxtb	r2, r2
 290 0040 C9B2     		uxtb	r1, r1
 291              	.LVL48:
 292 0042 FFF7FEFF 		bl	drawHLine
 293              	.LVL49:
 294 0046 02E0     		b	.L14
 295              	.LVL50:
 296              	.L18:
 414:GFX_Library.c ****     } else {
 415:GFX_Library.c ****         writeLine(x0, y0, x1, y1, color);
 297              		.loc 1 415 0
 298 0048 0094     		str	r4, [sp]
 299 004a FFF7FEFF 		bl	writeLine
 300              	.LVL51:
 301              	.L14:
 416:GFX_Library.c ****     }
 417:GFX_Library.c **** }
 302              		.loc 1 417 0
 303              		@ sp needed
 304 004e 13BD     		pop	{r0, r1, r4, pc}
 305              		.cfi_endproc
 306              	.LFE34:
 307              		.size	display_drawLine, .-display_drawLine
 308              		.section	.text.display_drawCircle,"ax",%progbits
 309              		.align	1
 310              		.global	display_drawCircle
 311              		.code	16
 312              		.thumb_func
 313              		.type	display_drawCircle, %function
 314              	display_drawCircle:
 315              	.LFB35:
 418:GFX_Library.c **** 
 419:GFX_Library.c **** /**************************************************************************/
 420:GFX_Library.c **** /*!
ARM GAS  C:\Users\PC\AppData\Local\Temp\ccF7GaWd.s 			page 14


 421:GFX_Library.c ****    @brief    Draw a circle outline
 422:GFX_Library.c ****     @param    x0   Center-point x coordinate
 423:GFX_Library.c ****     @param    y0   Center-point y coordinate
 424:GFX_Library.c ****     @param    r   Radius of circle
 425:GFX_Library.c ****     @param    color 16-bit 5-6-5 Color to draw with
 426:GFX_Library.c **** */
 427:GFX_Library.c **** /**************************************************************************/
 428:GFX_Library.c **** void display_drawCircle(uint16_t x0, uint16_t y0, uint16_t r, uint16_t color) {
 316              		.loc 1 428 0
 317              		.cfi_startproc
 318              		@ args = 0, pretend = 0, frame = 32
 319              		@ frame_needed = 0, uses_anonymous_args = 0
 320              	.LVL52:
 321 0000 F0B5     		push	{r4, r5, r6, r7, lr}
 322              		.cfi_def_cfa_offset 20
 323              		.cfi_offset 4, -20
 324              		.cfi_offset 5, -16
 325              		.cfi_offset 6, -12
 326              		.cfi_offset 7, -8
 327              		.cfi_offset 14, -4
 429:GFX_Library.c ****     int16_t f = 1 - r;
 328              		.loc 1 429 0
 329 0002 0124     		movs	r4, #1
 430:GFX_Library.c ****     int16_t ddF_x = 1;
 431:GFX_Library.c ****     int16_t ddF_y = -2 * r;
 330              		.loc 1 431 0
 331 0004 5500     		lsls	r5, r2, #1
 429:GFX_Library.c ****     int16_t f = 1 - r;
 332              		.loc 1 429 0
 333 0006 A41A     		subs	r4, r4, r2
 428:GFX_Library.c ****     int16_t f = 1 - r;
 334              		.loc 1 428 0
 335 0008 89B0     		sub	sp, sp, #36
 336              		.cfi_def_cfa_offset 56
 429:GFX_Library.c ****     int16_t f = 1 - r;
 337              		.loc 1 429 0
 338 000a 24B2     		sxth	r4, r4
 339              		.loc 1 431 0
 340 000c 6D42     		rsbs	r5, r5, #0
 429:GFX_Library.c ****     int16_t f = 1 - r;
 341              		.loc 1 429 0
 342 000e 0294     		str	r4, [sp, #8]
 343              	.LVL53:
 344              		.loc 1 431 0
 345 0010 2CB2     		sxth	r4, r5
 346 0012 0794     		str	r4, [sp, #28]
 347              	.LVL54:
 432:GFX_Library.c ****     int16_t x = 0;
 433:GFX_Library.c ****     int16_t y = r;
 434:GFX_Library.c **** 
 435:GFX_Library.c ****     display_drawPixel(x0  , y0+r, color);
 348              		.loc 1 435 0
 349 0014 D5B2     		uxtb	r5, r2
 433:GFX_Library.c **** 
 350              		.loc 1 433 0
 351 0016 14B2     		sxth	r4, r2
 352              		.loc 1 435 0
ARM GAS  C:\Users\PC\AppData\Local\Temp\ccF7GaWd.s 			page 15


 353 0018 C9B2     		uxtb	r1, r1
 354              	.LVL55:
 433:GFX_Library.c **** 
 355              		.loc 1 433 0
 356 001a 0394     		str	r4, [sp, #12]
 357              	.LVL56:
 358              		.loc 1 435 0
 359 001c 0191     		str	r1, [sp, #4]
 360 001e DCB2     		uxtb	r4, r3
 361 0020 4919     		adds	r1, r1, r5
 362 0022 C0B2     		uxtb	r0, r0
 363              	.LVL57:
 364 0024 C9B2     		uxtb	r1, r1
 365 0026 2200     		movs	r2, r4
 366              	.LVL58:
 367 0028 0090     		str	r0, [sp]
 368 002a FFF7FEFF 		bl	drawPixel
 369              	.LVL59:
 436:GFX_Library.c ****     display_drawPixel(x0  , y0-r, color);
 370              		.loc 1 436 0
 371 002e 019B     		ldr	r3, [sp, #4]
 372 0030 2200     		movs	r2, r4
 373 0032 591B     		subs	r1, r3, r5
 374 0034 C9B2     		uxtb	r1, r1
 375 0036 0098     		ldr	r0, [sp]
 376 0038 FFF7FEFF 		bl	drawPixel
 377              	.LVL60:
 437:GFX_Library.c ****     display_drawPixel(x0+r, y0  , color);
 378              		.loc 1 437 0
 379 003c 009B     		ldr	r3, [sp]
 380 003e 2200     		movs	r2, r4
 381 0040 5819     		adds	r0, r3, r5
 382 0042 C0B2     		uxtb	r0, r0
 383 0044 0199     		ldr	r1, [sp, #4]
 384 0046 FFF7FEFF 		bl	drawPixel
 385              	.LVL61:
 438:GFX_Library.c ****     display_drawPixel(x0-r, y0  , color);
 386              		.loc 1 438 0
 387 004a 009B     		ldr	r3, [sp]
 388 004c 2200     		movs	r2, r4
 389 004e 581B     		subs	r0, r3, r5
 390 0050 C0B2     		uxtb	r0, r0
 391 0052 0199     		ldr	r1, [sp, #4]
 392 0054 FFF7FEFF 		bl	drawPixel
 393              	.LVL62:
 432:GFX_Library.c ****     int16_t y = r;
 394              		.loc 1 432 0
 395 0058 0023     		movs	r3, #0
 396 005a 0693     		str	r3, [sp, #24]
 397              	.LVL63:
 398              	.L21:
 439:GFX_Library.c **** 
 440:GFX_Library.c ****     while (x<y) {
 399              		.loc 1 440 0
 400 005c 069B     		ldr	r3, [sp, #24]
 401 005e 039A     		ldr	r2, [sp, #12]
 402 0060 9342     		cmp	r3, r2
ARM GAS  C:\Users\PC\AppData\Local\Temp\ccF7GaWd.s 			page 16


 403 0062 68DA     		bge	.L24
 441:GFX_Library.c ****         if (f >= 0) {
 404              		.loc 1 441 0
 405 0064 029B     		ldr	r3, [sp, #8]
 406 0066 002B     		cmp	r3, #0
 407 0068 0CDB     		blt	.L22
 442:GFX_Library.c ****             y--;
 408              		.loc 1 442 0
 409 006a 039B     		ldr	r3, [sp, #12]
 410 006c 013B     		subs	r3, r3, #1
 411 006e 1BB2     		sxth	r3, r3
 412 0070 0393     		str	r3, [sp, #12]
 413              	.LVL64:
 443:GFX_Library.c ****             ddF_y += 2;
 414              		.loc 1 443 0
 415 0072 079B     		ldr	r3, [sp, #28]
 416 0074 0233     		adds	r3, r3, #2
 417 0076 9BB2     		uxth	r3, r3
 418 0078 1AB2     		sxth	r2, r3
 419 007a 0792     		str	r2, [sp, #28]
 420              	.LVL65:
 444:GFX_Library.c ****             f += ddF_y;
 421              		.loc 1 444 0
 422 007c 029A     		ldr	r2, [sp, #8]
 423 007e 9B18     		adds	r3, r3, r2
 424 0080 1BB2     		sxth	r3, r3
 425 0082 0293     		str	r3, [sp, #8]
 426              	.LVL66:
 427              	.L22:
 428 0084 069E     		ldr	r6, [sp, #24]
 445:GFX_Library.c ****         }
 446:GFX_Library.c ****         x++;
 447:GFX_Library.c ****         ddF_x += 2;
 448:GFX_Library.c ****         f += ddF_x;
 429              		.loc 1 448 0
 430 0086 029A     		ldr	r2, [sp, #8]
 431 0088 0136     		adds	r6, r6, #1
 432 008a B6B2     		uxth	r6, r6
 433 008c 33B2     		sxth	r3, r6
 434 008e 0693     		str	r3, [sp, #24]
 435              	.LVL67:
 436 0090 7300     		lsls	r3, r6, #1
 437 0092 0133     		adds	r3, r3, #1
 438 0094 9B18     		adds	r3, r3, r2
 439 0096 1BB2     		sxth	r3, r3
 440 0098 0293     		str	r3, [sp, #8]
 441              	.LVL68:
 442 009a F3B2     		uxtb	r3, r6
 443 009c 0593     		str	r3, [sp, #20]
 444 009e 059A     		ldr	r2, [sp, #20]
 445 00a0 009B     		ldr	r3, [sp]
 446 00a2 9F18     		adds	r7, r3, r2
 449:GFX_Library.c **** 
 450:GFX_Library.c ****         display_drawPixel(x0 + x, y0 + y, color);
 447              		.loc 1 450 0
 448 00a4 6B46     		mov	r3, sp
 449 00a6 1B7B     		ldrb	r3, [r3, #12]
ARM GAS  C:\Users\PC\AppData\Local\Temp\ccF7GaWd.s 			page 17


 450 00a8 FFB2     		uxtb	r7, r7
 451 00aa 0493     		str	r3, [sp, #16]
 452 00ac 049A     		ldr	r2, [sp, #16]
 453 00ae 019B     		ldr	r3, [sp, #4]
 454 00b0 3800     		movs	r0, r7
 455 00b2 9E18     		adds	r6, r3, r2
 456 00b4 F6B2     		uxtb	r6, r6
 457 00b6 2200     		movs	r2, r4
 458 00b8 3100     		movs	r1, r6
 459 00ba FFF7FEFF 		bl	drawPixel
 460              	.LVL69:
 461 00be 009B     		ldr	r3, [sp]
 462 00c0 059A     		ldr	r2, [sp, #20]
 451:GFX_Library.c ****         display_drawPixel(x0 - x, y0 + y, color);
 463              		.loc 1 451 0
 464 00c2 3100     		movs	r1, r6
 465 00c4 9D1A     		subs	r5, r3, r2
 466 00c6 EDB2     		uxtb	r5, r5
 467 00c8 2200     		movs	r2, r4
 468 00ca 2800     		movs	r0, r5
 469 00cc FFF7FEFF 		bl	drawPixel
 470              	.LVL70:
 452:GFX_Library.c ****         display_drawPixel(x0 + x, y0 - y, color);
 471              		.loc 1 452 0
 472 00d0 019B     		ldr	r3, [sp, #4]
 473 00d2 049A     		ldr	r2, [sp, #16]
 474 00d4 3800     		movs	r0, r7
 475 00d6 9E1A     		subs	r6, r3, r2
 476 00d8 F6B2     		uxtb	r6, r6
 477 00da 2200     		movs	r2, r4
 478 00dc 3100     		movs	r1, r6
 479 00de FFF7FEFF 		bl	drawPixel
 480              	.LVL71:
 453:GFX_Library.c ****         display_drawPixel(x0 - x, y0 - y, color);
 481              		.loc 1 453 0
 482 00e2 2200     		movs	r2, r4
 483 00e4 3100     		movs	r1, r6
 484 00e6 2800     		movs	r0, r5
 485 00e8 FFF7FEFF 		bl	drawPixel
 486              	.LVL72:
 454:GFX_Library.c ****         display_drawPixel(x0 + y, y0 + x, color);
 487              		.loc 1 454 0
 488 00ec 009B     		ldr	r3, [sp]
 489 00ee 049A     		ldr	r2, [sp, #16]
 490 00f0 9F18     		adds	r7, r3, r2
 491 00f2 019B     		ldr	r3, [sp, #4]
 492 00f4 059A     		ldr	r2, [sp, #20]
 493 00f6 FFB2     		uxtb	r7, r7
 494 00f8 9E18     		adds	r6, r3, r2
 495 00fa F6B2     		uxtb	r6, r6
 496 00fc 2200     		movs	r2, r4
 497 00fe 3100     		movs	r1, r6
 498 0100 3800     		movs	r0, r7
 499 0102 FFF7FEFF 		bl	drawPixel
 500              	.LVL73:
 455:GFX_Library.c ****         display_drawPixel(x0 - y, y0 + x, color);
 501              		.loc 1 455 0
ARM GAS  C:\Users\PC\AppData\Local\Temp\ccF7GaWd.s 			page 18


 502 0106 009B     		ldr	r3, [sp]
 503 0108 049A     		ldr	r2, [sp, #16]
 504 010a 3100     		movs	r1, r6
 505 010c 9D1A     		subs	r5, r3, r2
 506 010e EDB2     		uxtb	r5, r5
 507 0110 2200     		movs	r2, r4
 508 0112 2800     		movs	r0, r5
 509 0114 FFF7FEFF 		bl	drawPixel
 510              	.LVL74:
 511 0118 059A     		ldr	r2, [sp, #20]
 512 011a 019B     		ldr	r3, [sp, #4]
 456:GFX_Library.c ****         display_drawPixel(x0 + y, y0 - x, color);
 513              		.loc 1 456 0
 514 011c 3800     		movs	r0, r7
 515 011e 9E1A     		subs	r6, r3, r2
 516 0120 F6B2     		uxtb	r6, r6
 517 0122 2200     		movs	r2, r4
 518 0124 3100     		movs	r1, r6
 519 0126 FFF7FEFF 		bl	drawPixel
 520              	.LVL75:
 457:GFX_Library.c ****         display_drawPixel(x0 - y, y0 - x, color);
 521              		.loc 1 457 0
 522 012a 2200     		movs	r2, r4
 523 012c 3100     		movs	r1, r6
 524 012e 2800     		movs	r0, r5
 525 0130 FFF7FEFF 		bl	drawPixel
 526              	.LVL76:
 527 0134 92E7     		b	.L21
 528              	.L24:
 458:GFX_Library.c ****     }
 459:GFX_Library.c **** }
 529              		.loc 1 459 0
 530 0136 09B0     		add	sp, sp, #36
 531              		@ sp needed
 532 0138 F0BD     		pop	{r4, r5, r6, r7, pc}
 533              		.cfi_endproc
 534              	.LFE35:
 535              		.size	display_drawCircle, .-display_drawCircle
 536              		.section	.text.display_drawCircleHelper,"ax",%progbits
 537              		.align	1
 538              		.global	display_drawCircleHelper
 539              		.code	16
 540              		.thumb_func
 541              		.type	display_drawCircleHelper, %function
 542              	display_drawCircleHelper:
 543              	.LFB36:
 460:GFX_Library.c **** 
 461:GFX_Library.c **** /**************************************************************************/
 462:GFX_Library.c **** /*!
 463:GFX_Library.c ****     @brief    Quarter-circle drawer, used to do circles and roundrects
 464:GFX_Library.c ****     @param    x0   Center-point x coordinate
 465:GFX_Library.c ****     @param    y0   Center-point y coordinate
 466:GFX_Library.c ****     @param    r   Radius of circle
 467:GFX_Library.c ****     @param    cornername  Mask bit #1 or bit #2 to indicate which quarters of the circle we're doin
 468:GFX_Library.c ****     @param    color 16-bit 5-6-5 Color to draw with
 469:GFX_Library.c **** */
 470:GFX_Library.c **** /**************************************************************************/
ARM GAS  C:\Users\PC\AppData\Local\Temp\ccF7GaWd.s 			page 19


 471:GFX_Library.c **** void display_drawCircleHelper(uint16_t x0, uint16_t y0, uint16_t r, uint8_t cornername, uint16_t co
 544              		.loc 1 471 0
 545              		.cfi_startproc
 546              		@ args = 4, pretend = 0, frame = 40
 547              		@ frame_needed = 0, uses_anonymous_args = 0
 548              	.LVL77:
 549 0000 F0B5     		push	{r4, r5, r6, r7, lr}
 550              		.cfi_def_cfa_offset 20
 551              		.cfi_offset 4, -20
 552              		.cfi_offset 5, -16
 553              		.cfi_offset 6, -12
 554              		.cfi_offset 7, -8
 555              		.cfi_offset 14, -4
 556 0002 8BB0     		sub	sp, sp, #44
 557              		.cfi_def_cfa_offset 64
 558              		.loc 1 471 0
 559 0004 0693     		str	r3, [sp, #24]
 560 0006 10AB     		add	r3, sp, #64
 561              	.LVL78:
 562 0008 1B88     		ldrh	r3, [r3]
 563              	.LVL79:
 564 000a CCB2     		uxtb	r4, r1
 565 000c 0793     		str	r3, [sp, #28]
 472:GFX_Library.c ****     int16_t f     = 1 - r;
 566              		.loc 1 472 0
 567 000e 0123     		movs	r3, #1
 568 0010 9B1A     		subs	r3, r3, r2
 569 0012 1BB2     		sxth	r3, r3
 570 0014 0493     		str	r3, [sp, #16]
 571              	.LVL80:
 473:GFX_Library.c ****     int16_t ddF_x = 1;
 474:GFX_Library.c ****     int16_t ddF_y = -2 * r;
 572              		.loc 1 474 0
 573 0016 5300     		lsls	r3, r2, #1
 574 0018 5B42     		rsbs	r3, r3, #0
 575 001a 1BB2     		sxth	r3, r3
 576 001c 0993     		str	r3, [sp, #36]
 577              	.LVL81:
 475:GFX_Library.c ****     int16_t x     = 0;
 476:GFX_Library.c ****     int16_t y     = r;
 578              		.loc 1 476 0
 579 001e 13B2     		sxth	r3, r2
 580 0020 0193     		str	r3, [sp, #4]
 581              	.LVL82:
 582 0022 631E     		subs	r3, r4, #1
 583 0024 DBB2     		uxtb	r3, r3
 584 0026 0393     		str	r3, [sp, #12]
 585 0028 631C     		adds	r3, r4, #1
 586 002a DBB2     		uxtb	r3, r3
 587 002c 0293     		str	r3, [sp, #8]
 475:GFX_Library.c ****     int16_t x     = 0;
 588              		.loc 1 475 0
 589 002e 0023     		movs	r3, #0
 471:GFX_Library.c ****     int16_t f     = 1 - r;
 590              		.loc 1 471 0
 591 0030 0590     		str	r0, [sp, #20]
 475:GFX_Library.c ****     int16_t x     = 0;
ARM GAS  C:\Users\PC\AppData\Local\Temp\ccF7GaWd.s 			page 20


 592              		.loc 1 475 0
 593 0032 0893     		str	r3, [sp, #32]
 594              	.LVL83:
 595              	.L26:
 477:GFX_Library.c **** 
 478:GFX_Library.c ****     while (x<y) {
 596              		.loc 1 478 0
 597 0034 089B     		ldr	r3, [sp, #32]
 598 0036 019A     		ldr	r2, [sp, #4]
 599 0038 9342     		cmp	r3, r2
 600 003a 7DDA     		bge	.L45
 479:GFX_Library.c ****         if (f >= 0) {
 601              		.loc 1 479 0
 602 003c 049B     		ldr	r3, [sp, #16]
 603 003e 002B     		cmp	r3, #0
 604 0040 0CDB     		blt	.L27
 480:GFX_Library.c ****             y--;
 605              		.loc 1 480 0
 606 0042 019A     		ldr	r2, [sp, #4]
 607 0044 013A     		subs	r2, r2, #1
 608 0046 13B2     		sxth	r3, r2
 609 0048 0193     		str	r3, [sp, #4]
 610              	.LVL84:
 481:GFX_Library.c ****             ddF_y += 2;
 611              		.loc 1 481 0
 612 004a 099B     		ldr	r3, [sp, #36]
 613 004c 0233     		adds	r3, r3, #2
 614 004e 9BB2     		uxth	r3, r3
 615 0050 1AB2     		sxth	r2, r3
 616 0052 0992     		str	r2, [sp, #36]
 617              	.LVL85:
 482:GFX_Library.c ****             f     += ddF_y;
 618              		.loc 1 482 0
 619 0054 049A     		ldr	r2, [sp, #16]
 620 0056 9B18     		adds	r3, r3, r2
 621 0058 1BB2     		sxth	r3, r3
 622 005a 0493     		str	r3, [sp, #16]
 623              	.LVL86:
 624              	.L27:
 625 005c 089B     		ldr	r3, [sp, #32]
 626 005e 0133     		adds	r3, r3, #1
 627 0060 9BB2     		uxth	r3, r3
 628 0062 1AB2     		sxth	r2, r3
 629 0064 0892     		str	r2, [sp, #32]
 630              	.LVL87:
 483:GFX_Library.c ****         }
 484:GFX_Library.c ****         x++;
 485:GFX_Library.c ****         ddF_x += 2;
 486:GFX_Library.c ****         f     += ddF_x;
 631              		.loc 1 486 0
 632 0066 5B00     		lsls	r3, r3, #1
 633 0068 049A     		ldr	r2, [sp, #16]
 634 006a 0133     		adds	r3, r3, #1
 635 006c 9B18     		adds	r3, r3, r2
 487:GFX_Library.c ****         if (cornername & 0x4) {
 636              		.loc 1 487 0
 637 006e 0422     		movs	r2, #4
ARM GAS  C:\Users\PC\AppData\Local\Temp\ccF7GaWd.s 			page 21


 486:GFX_Library.c ****         if (cornername & 0x4) {
 638              		.loc 1 486 0
 639 0070 1BB2     		sxth	r3, r3
 640 0072 0493     		str	r3, [sp, #16]
 641              	.LVL88:
 642              		.loc 1 487 0
 643 0074 069B     		ldr	r3, [sp, #24]
 644 0076 1342     		tst	r3, r2
 645 0078 12D0     		beq	.L28
 488:GFX_Library.c ****             display_drawPixel(x0 + x, y0 + y, color);
 646              		.loc 1 488 0
 647 007a 6B46     		mov	r3, sp
 648 007c 1F7D     		ldrb	r7, [r3, #20]
 649 007e 1D79     		ldrb	r5, [r3, #4]
 650 0080 1E7F     		ldrb	r6, [r3, #28]
 651 0082 029B     		ldr	r3, [sp, #8]
 652 0084 381B     		subs	r0, r7, r4
 653 0086 2919     		adds	r1, r5, r4
 654 0088 1818     		adds	r0, r3, r0
 655 008a C9B2     		uxtb	r1, r1
 656 008c C0B2     		uxtb	r0, r0
 657 008e 3200     		movs	r2, r6
 489:GFX_Library.c ****             display_drawPixel(x0 + y, y0 + x, color);
 658              		.loc 1 489 0
 659 0090 7D19     		adds	r5, r7, r5
 488:GFX_Library.c ****             display_drawPixel(x0 + x, y0 + y, color);
 660              		.loc 1 488 0
 661 0092 FFF7FEFF 		bl	drawPixel
 662              	.LVL89:
 663              		.loc 1 489 0
 664 0096 E8B2     		uxtb	r0, r5
 665 0098 3200     		movs	r2, r6
 666 009a 0299     		ldr	r1, [sp, #8]
 667 009c FFF7FEFF 		bl	drawPixel
 668              	.LVL90:
 669              	.L28:
 490:GFX_Library.c ****         }
 491:GFX_Library.c ****         if (cornername & 0x2) {
 670              		.loc 1 491 0
 671 00a0 0222     		movs	r2, #2
 672 00a2 069B     		ldr	r3, [sp, #24]
 673 00a4 1342     		tst	r3, r2
 674 00a6 12D0     		beq	.L29
 492:GFX_Library.c ****             display_drawPixel(x0 + x, y0 - y, color);
 675              		.loc 1 492 0
 676 00a8 6B46     		mov	r3, sp
 677 00aa 1F7D     		ldrb	r7, [r3, #20]
 678 00ac 1D79     		ldrb	r5, [r3, #4]
 679 00ae 1E7F     		ldrb	r6, [r3, #28]
 680 00b0 029B     		ldr	r3, [sp, #8]
 681 00b2 381B     		subs	r0, r7, r4
 682 00b4 611B     		subs	r1, r4, r5
 683 00b6 1818     		adds	r0, r3, r0
 684 00b8 C9B2     		uxtb	r1, r1
 685 00ba C0B2     		uxtb	r0, r0
 686 00bc 3200     		movs	r2, r6
 493:GFX_Library.c ****             display_drawPixel(x0 + y, y0 - x, color);
ARM GAS  C:\Users\PC\AppData\Local\Temp\ccF7GaWd.s 			page 22


 687              		.loc 1 493 0
 688 00be 7D19     		adds	r5, r7, r5
 492:GFX_Library.c ****             display_drawPixel(x0 + x, y0 - y, color);
 689              		.loc 1 492 0
 690 00c0 FFF7FEFF 		bl	drawPixel
 691              	.LVL91:
 692              		.loc 1 493 0
 693 00c4 E8B2     		uxtb	r0, r5
 694 00c6 3200     		movs	r2, r6
 695 00c8 0399     		ldr	r1, [sp, #12]
 696 00ca FFF7FEFF 		bl	drawPixel
 697              	.LVL92:
 698              	.L29:
 494:GFX_Library.c ****         }
 495:GFX_Library.c ****         if (cornername & 0x8) {
 699              		.loc 1 495 0
 700 00ce 069B     		ldr	r3, [sp, #24]
 701 00d0 1B07     		lsls	r3, r3, #28
 702 00d2 12D5     		bpl	.L30
 496:GFX_Library.c ****             display_drawPixel(x0 - y, y0 + x, color);
 703              		.loc 1 496 0
 704 00d4 6B46     		mov	r3, sp
 705 00d6 1D7D     		ldrb	r5, [r3, #20]
 706 00d8 1E79     		ldrb	r6, [r3, #4]
 707 00da 1F7F     		ldrb	r7, [r3, #28]
 708 00dc A81B     		subs	r0, r5, r6
 709 00de C0B2     		uxtb	r0, r0
 710 00e0 3A00     		movs	r2, r7
 711 00e2 0299     		ldr	r1, [sp, #8]
 712 00e4 FFF7FEFF 		bl	drawPixel
 713              	.LVL93:
 497:GFX_Library.c ****             display_drawPixel(x0 - x, y0 + y, color);
 714              		.loc 1 497 0
 715 00e8 039B     		ldr	r3, [sp, #12]
 716 00ea 281B     		subs	r0, r5, r4
 717 00ec A619     		adds	r6, r4, r6
 718 00ee 1D18     		adds	r5, r3, r0
 719 00f0 F1B2     		uxtb	r1, r6
 720 00f2 E8B2     		uxtb	r0, r5
 721 00f4 3A00     		movs	r2, r7
 722 00f6 FFF7FEFF 		bl	drawPixel
 723              	.LVL94:
 724              	.L30:
 498:GFX_Library.c ****         }
 499:GFX_Library.c ****         if (cornername & 0x1) {
 725              		.loc 1 499 0
 726 00fa 069B     		ldr	r3, [sp, #24]
 727 00fc DB07     		lsls	r3, r3, #31
 728 00fe 12D5     		bpl	.L31
 500:GFX_Library.c ****             display_drawPixel(x0 - y, y0 - x, color);
 729              		.loc 1 500 0
 730 0100 6B46     		mov	r3, sp
 731 0102 1D7D     		ldrb	r5, [r3, #20]
 732 0104 1E79     		ldrb	r6, [r3, #4]
 733 0106 1F7F     		ldrb	r7, [r3, #28]
 734 0108 A81B     		subs	r0, r5, r6
 735 010a C0B2     		uxtb	r0, r0
ARM GAS  C:\Users\PC\AppData\Local\Temp\ccF7GaWd.s 			page 23


 736 010c 3A00     		movs	r2, r7
 737 010e 0399     		ldr	r1, [sp, #12]
 738 0110 FFF7FEFF 		bl	drawPixel
 739              	.LVL95:
 501:GFX_Library.c ****             display_drawPixel(x0 - x, y0 - y, color);
 740              		.loc 1 501 0
 741 0114 039B     		ldr	r3, [sp, #12]
 742 0116 281B     		subs	r0, r5, r4
 743 0118 A11B     		subs	r1, r4, r6
 744 011a 1D18     		adds	r5, r3, r0
 745 011c C9B2     		uxtb	r1, r1
 746 011e E8B2     		uxtb	r0, r5
 747 0120 3A00     		movs	r2, r7
 748 0122 FFF7FEFF 		bl	drawPixel
 749              	.LVL96:
 750              	.L31:
 751 0126 039B     		ldr	r3, [sp, #12]
 752 0128 013B     		subs	r3, r3, #1
 753 012a DBB2     		uxtb	r3, r3
 754 012c 0393     		str	r3, [sp, #12]
 755 012e 029B     		ldr	r3, [sp, #8]
 756 0130 0133     		adds	r3, r3, #1
 757 0132 DBB2     		uxtb	r3, r3
 758 0134 0293     		str	r3, [sp, #8]
 759 0136 7DE7     		b	.L26
 760              	.L45:
 502:GFX_Library.c ****         }
 503:GFX_Library.c ****     }
 504:GFX_Library.c **** }
 761              		.loc 1 504 0
 762 0138 0BB0     		add	sp, sp, #44
 763              		@ sp needed
 764 013a F0BD     		pop	{r4, r5, r6, r7, pc}
 765              		.cfi_endproc
 766              	.LFE36:
 767              		.size	display_drawCircleHelper, .-display_drawCircleHelper
 768              		.section	.text.display_fillCircleHelper,"ax",%progbits
 769              		.align	1
 770              		.global	display_fillCircleHelper
 771              		.code	16
 772              		.thumb_func
 773              		.type	display_fillCircleHelper, %function
 774              	display_fillCircleHelper:
 775              	.LFB38:
 505:GFX_Library.c **** 
 506:GFX_Library.c **** /**************************************************************************/
 507:GFX_Library.c **** /*!
 508:GFX_Library.c ****    @brief    Draw a circle with filled color
 509:GFX_Library.c ****     @param    x0   Center-point x coordinate
 510:GFX_Library.c ****     @param    y0   Center-point y coordinate
 511:GFX_Library.c ****     @param    r   Radius of circle
 512:GFX_Library.c ****     @param    color 16-bit 5-6-5 Color to fill with
 513:GFX_Library.c **** */
 514:GFX_Library.c **** /**************************************************************************/
 515:GFX_Library.c **** void display_fillCircle(uint16_t x0, uint16_t y0, uint16_t r, uint16_t color) {
 516:GFX_Library.c ****     display_drawVLine(x0, y0-r, 2*r+1, color);
 517:GFX_Library.c ****     display_fillCircleHelper(x0, y0, r, 3, 0, color);
ARM GAS  C:\Users\PC\AppData\Local\Temp\ccF7GaWd.s 			page 24


 518:GFX_Library.c **** }
 519:GFX_Library.c **** 
 520:GFX_Library.c **** 
 521:GFX_Library.c **** /**************************************************************************/
 522:GFX_Library.c **** /*!
 523:GFX_Library.c ****     @brief  Quarter-circle drawer with fill, used for circles and roundrects
 524:GFX_Library.c ****     @param  x0       Center-point x coordinate
 525:GFX_Library.c ****     @param  y0       Center-point y coordinate
 526:GFX_Library.c ****     @param  r        Radius of circle
 527:GFX_Library.c ****     @param  corners  Mask bits indicating which quarters we're doing
 528:GFX_Library.c ****     @param  delta    Offset from center-point, used for round-rects
 529:GFX_Library.c ****     @param  color    16-bit 5-6-5 Color to fill with
 530:GFX_Library.c **** */
 531:GFX_Library.c **** /**************************************************************************/
 532:GFX_Library.c **** void display_fillCircleHelper(uint16_t x0, uint16_t y0, uint16_t r, uint8_t corners, uint16_t delta
 776              		.loc 1 532 0
 777              		.cfi_startproc
 778              		@ args = 8, pretend = 0, frame = 32
 779              		@ frame_needed = 0, uses_anonymous_args = 0
 780              	.LVL97:
 781 0000 F0B5     		push	{r4, r5, r6, r7, lr}
 782              		.cfi_def_cfa_offset 20
 783              		.cfi_offset 4, -20
 784              		.cfi_offset 5, -16
 785              		.cfi_offset 6, -12
 786              		.cfi_offset 7, -8
 787              		.cfi_offset 14, -4
 788 0002 89B0     		sub	sp, sp, #36
 789              		.cfi_def_cfa_offset 56
 790              		.loc 1 532 0
 791 0004 0290     		str	r0, [sp, #8]
 533:GFX_Library.c ****     int16_t f     = 1 - r;
 792              		.loc 1 533 0
 793 0006 0120     		movs	r0, #1
 794              	.LVL98:
 532:GFX_Library.c ****     int16_t f     = 1 - r;
 795              		.loc 1 532 0
 796 0008 0493     		str	r3, [sp, #16]
 797 000a 0EAB     		add	r3, sp, #56
 798              	.LVL99:
 799 000c 1B88     		ldrh	r3, [r3]
 800              	.LVL100:
 534:GFX_Library.c ****     int16_t ddF_x = 1;
 535:GFX_Library.c ****     int16_t ddF_y = -2 * r;
 536:GFX_Library.c ****     int16_t x     = 0;
 537:GFX_Library.c ****     int16_t y     = r;
 801              		.loc 1 537 0
 802 000e 15B2     		sxth	r5, r2
 538:GFX_Library.c ****     int16_t px    = x;
 539:GFX_Library.c ****     int16_t py    = y;
 540:GFX_Library.c **** 
 541:GFX_Library.c ****     delta++; // Avoid some +1's in the loop
 803              		.loc 1 541 0
 804 0010 1B18     		adds	r3, r3, r0
 805 0012 9BB2     		uxth	r3, r3
 806 0014 0193     		str	r3, [sp, #4]
 536:GFX_Library.c ****     int16_t y     = r;
ARM GAS  C:\Users\PC\AppData\Local\Temp\ccF7GaWd.s 			page 25


 807              		.loc 1 536 0
 808 0016 0023     		movs	r3, #0
 539:GFX_Library.c **** 
 809              		.loc 1 539 0
 810 0018 2E00     		movs	r6, r5
 532:GFX_Library.c ****     int16_t f     = 1 - r;
 811              		.loc 1 532 0
 812 001a 0391     		str	r1, [sp, #12]
 813 001c 0FA9     		add	r1, sp, #60
 814              	.LVL101:
 815 001e 0988     		ldrh	r1, [r1]
 816              	.LVL102:
 533:GFX_Library.c ****     int16_t ddF_x = 1;
 817              		.loc 1 533 0
 818 0020 871A     		subs	r7, r0, r2
 532:GFX_Library.c ****     int16_t f     = 1 - r;
 819              		.loc 1 532 0
 820 0022 0591     		str	r1, [sp, #20]
 535:GFX_Library.c ****     int16_t x     = 0;
 821              		.loc 1 535 0
 822 0024 5100     		lsls	r1, r2, #1
 823 0026 4942     		rsbs	r1, r1, #0
 824 0028 09B2     		sxth	r1, r1
 533:GFX_Library.c ****     int16_t ddF_x = 1;
 825              		.loc 1 533 0
 826 002a 3FB2     		sxth	r7, r7
 827              	.LVL103:
 535:GFX_Library.c ****     int16_t x     = 0;
 828              		.loc 1 535 0
 829 002c 0691     		str	r1, [sp, #24]
 830              	.LVL104:
 536:GFX_Library.c ****     int16_t y     = r;
 831              		.loc 1 536 0
 832 002e 0093     		str	r3, [sp]
 542:GFX_Library.c **** 
 543:GFX_Library.c ****     while(x < y) {
 544:GFX_Library.c ****         if (f >= 0) {
 545:GFX_Library.c ****             y--;
 546:GFX_Library.c ****             ddF_y += 2;
 547:GFX_Library.c ****             f     += ddF_y;
 548:GFX_Library.c ****         }
 549:GFX_Library.c ****         x++;
 550:GFX_Library.c ****         ddF_x += 2;
 551:GFX_Library.c ****         f     += ddF_x;
 552:GFX_Library.c ****         // These checks avoid double-drawing certain lines, important
 553:GFX_Library.c ****         // for the SSD1306 library which has an INVERT drawing mode.
 554:GFX_Library.c ****         if(x < (y + 1)) {
 555:GFX_Library.c ****             if(corners & 1) display_drawVLine(x0+x, y0-y, 2*y+delta, color);
 833              		.loc 1 555 0
 834 0030 0790     		str	r0, [sp, #28]
 835              	.LVL105:
 836              	.L47:
 543:GFX_Library.c ****         if (f >= 0) {
 837              		.loc 1 543 0
 838 0032 009B     		ldr	r3, [sp]
 839 0034 AB42     		cmp	r3, r5
 840 0036 68DA     		bge	.L66
ARM GAS  C:\Users\PC\AppData\Local\Temp\ccF7GaWd.s 			page 26


 544:GFX_Library.c ****             y--;
 841              		.loc 1 544 0
 842 0038 002F     		cmp	r7, #0
 843 003a 08DB     		blt	.L48
 546:GFX_Library.c ****             f     += ddF_y;
 844              		.loc 1 546 0
 845 003c 069B     		ldr	r3, [sp, #24]
 545:GFX_Library.c ****             ddF_y += 2;
 846              		.loc 1 545 0
 847 003e 013D     		subs	r5, r5, #1
 848              	.LVL106:
 546:GFX_Library.c ****             f     += ddF_y;
 849              		.loc 1 546 0
 850 0040 0233     		adds	r3, r3, #2
 851 0042 9BB2     		uxth	r3, r3
 852 0044 1AB2     		sxth	r2, r3
 547:GFX_Library.c ****         }
 853              		.loc 1 547 0
 854 0046 DF19     		adds	r7, r3, r7
 855              	.LVL107:
 545:GFX_Library.c ****             ddF_y += 2;
 856              		.loc 1 545 0
 857 0048 2DB2     		sxth	r5, r5
 858              	.LVL108:
 546:GFX_Library.c ****             f     += ddF_y;
 859              		.loc 1 546 0
 860 004a 0692     		str	r2, [sp, #24]
 861              	.LVL109:
 547:GFX_Library.c ****         }
 862              		.loc 1 547 0
 863 004c 3FB2     		sxth	r7, r7
 864              	.LVL110:
 865              	.L48:
 866 004e 009C     		ldr	r4, [sp]
 867 0050 0134     		adds	r4, r4, #1
 868 0052 A4B2     		uxth	r4, r4
 869 0054 23B2     		sxth	r3, r4
 870 0056 0093     		str	r3, [sp]
 871              	.LVL111:
 551:GFX_Library.c ****         // These checks avoid double-drawing certain lines, important
 872              		.loc 1 551 0
 873 0058 6300     		lsls	r3, r4, #1
 874 005a 0133     		adds	r3, r3, #1
 875 005c DF19     		adds	r7, r3, r7
 876              	.LVL112:
 554:GFX_Library.c ****             if(corners & 1) display_drawVLine(x0+x, y0-y, 2*y+delta, color);
 877              		.loc 1 554 0
 878 005e 009B     		ldr	r3, [sp]
 551:GFX_Library.c ****         // These checks avoid double-drawing certain lines, important
 879              		.loc 1 551 0
 880 0060 3FB2     		sxth	r7, r7
 881              	.LVL113:
 554:GFX_Library.c ****             if(corners & 1) display_drawVLine(x0+x, y0-y, 2*y+delta, color);
 882              		.loc 1 554 0
 883 0062 9D42     		cmp	r5, r3
 884 0064 25DB     		blt	.L50
 885              		.loc 1 555 0
ARM GAS  C:\Users\PC\AppData\Local\Temp\ccF7GaWd.s 			page 27


 886 0066 049B     		ldr	r3, [sp, #16]
 887 0068 079A     		ldr	r2, [sp, #28]
 888 006a 1342     		tst	r3, r2
 889 006c 0ED0     		beq	.L51
 890              		.loc 1 555 0 is_stmt 0 discriminator 1
 891 006e 6B46     		mov	r3, sp
 892 0070 E9B2     		uxtb	r1, r5
 893 0072 0198     		ldr	r0, [sp, #4]
 894 0074 4A00     		lsls	r2, r1, #1
 895 0076 1218     		adds	r2, r2, r0
 896 0078 0398     		ldr	r0, [sp, #12]
 897 007a 1B7D     		ldrb	r3, [r3, #20]
 898 007c 411A     		subs	r1, r0, r1
 899 007e 0298     		ldr	r0, [sp, #8]
 900 0080 D2B2     		uxtb	r2, r2
 901 0082 0019     		adds	r0, r0, r4
 902 0084 C9B2     		uxtb	r1, r1
 903 0086 C0B2     		uxtb	r0, r0
 904 0088 FFF7FEFF 		bl	drawVLine
 905              	.LVL114:
 906              	.L51:
 556:GFX_Library.c ****             if(corners & 2) display_drawVLine(x0-x, y0-y, 2*y+delta, color);
 907              		.loc 1 556 0 is_stmt 1
 908 008c 0222     		movs	r2, #2
 909 008e 049B     		ldr	r3, [sp, #16]
 910 0090 1342     		tst	r3, r2
 911 0092 0ED0     		beq	.L50
 912              		.loc 1 556 0 is_stmt 0 discriminator 1
 913 0094 6B46     		mov	r3, sp
 914 0096 E9B2     		uxtb	r1, r5
 915 0098 0198     		ldr	r0, [sp, #4]
 916 009a 4A00     		lsls	r2, r1, #1
 917 009c 1218     		adds	r2, r2, r0
 918 009e 0398     		ldr	r0, [sp, #12]
 919 00a0 1B7D     		ldrb	r3, [r3, #20]
 920 00a2 411A     		subs	r1, r0, r1
 921 00a4 0298     		ldr	r0, [sp, #8]
 922 00a6 D2B2     		uxtb	r2, r2
 923 00a8 001B     		subs	r0, r0, r4
 924 00aa C9B2     		uxtb	r1, r1
 925 00ac C0B2     		uxtb	r0, r0
 926 00ae FFF7FEFF 		bl	drawVLine
 927              	.LVL115:
 928              	.L50:
 557:GFX_Library.c ****         }
 558:GFX_Library.c ****         if(y != py) {
 929              		.loc 1 558 0 is_stmt 1
 930 00b2 B542     		cmp	r5, r6
 931 00b4 BDD0     		beq	.L47
 559:GFX_Library.c ****             if(corners & 1) display_drawVLine(x0+py, y0-px, 2*px+delta, color);
 932              		.loc 1 559 0
 933 00b6 049B     		ldr	r3, [sp, #16]
 934 00b8 079A     		ldr	r2, [sp, #28]
 935 00ba 1342     		tst	r3, r2
 936 00bc 0FD0     		beq	.L54
 937              		.loc 1 559 0 is_stmt 0 discriminator 1
 938 00be 6B46     		mov	r3, sp
ARM GAS  C:\Users\PC\AppData\Local\Temp\ccF7GaWd.s 			page 28


 939 00c0 611E     		subs	r1, r4, #1
 940 00c2 C9B2     		uxtb	r1, r1
 941 00c4 0198     		ldr	r0, [sp, #4]
 942 00c6 4A00     		lsls	r2, r1, #1
 943 00c8 1218     		adds	r2, r2, r0
 944 00ca 0398     		ldr	r0, [sp, #12]
 945 00cc 1B7D     		ldrb	r3, [r3, #20]
 946 00ce 411A     		subs	r1, r0, r1
 947 00d0 0298     		ldr	r0, [sp, #8]
 948 00d2 D2B2     		uxtb	r2, r2
 949 00d4 8019     		adds	r0, r0, r6
 950 00d6 C9B2     		uxtb	r1, r1
 951 00d8 C0B2     		uxtb	r0, r0
 952 00da FFF7FEFF 		bl	drawVLine
 953              	.LVL116:
 954              	.L54:
 560:GFX_Library.c ****             if(corners & 2) display_drawVLine(x0-py, y0-px, 2*px+delta, color);
 955              		.loc 1 560 0 is_stmt 1
 956 00de 0222     		movs	r2, #2
 957 00e0 049B     		ldr	r3, [sp, #16]
 958 00e2 1342     		tst	r3, r2
 959 00e4 0FD0     		beq	.L56
 960              		.loc 1 560 0 is_stmt 0 discriminator 1
 961 00e6 6B46     		mov	r3, sp
 962 00e8 013C     		subs	r4, r4, #1
 963 00ea E4B2     		uxtb	r4, r4
 964 00ec 0199     		ldr	r1, [sp, #4]
 965 00ee 6200     		lsls	r2, r4, #1
 966 00f0 5218     		adds	r2, r2, r1
 967 00f2 0298     		ldr	r0, [sp, #8]
 968 00f4 0399     		ldr	r1, [sp, #12]
 969 00f6 801B     		subs	r0, r0, r6
 970 00f8 091B     		subs	r1, r1, r4
 971 00fa 1B7D     		ldrb	r3, [r3, #20]
 972 00fc D2B2     		uxtb	r2, r2
 973 00fe C9B2     		uxtb	r1, r1
 974 0100 C0B2     		uxtb	r0, r0
 975 0102 FFF7FEFF 		bl	drawVLine
 976              	.LVL117:
 977              	.L56:
 978 0106 2E00     		movs	r6, r5
 979              	.LVL118:
 980 0108 93E7     		b	.L47
 981              	.LVL119:
 982              	.L66:
 561:GFX_Library.c ****             py = y;
 562:GFX_Library.c ****         }
 563:GFX_Library.c ****         px = x;
 564:GFX_Library.c ****     }
 565:GFX_Library.c **** }
 983              		.loc 1 565 0 is_stmt 1
 984 010a 09B0     		add	sp, sp, #36
 985              	.LVL120:
 986              		@ sp needed
 987              	.LVL121:
 988              	.LVL122:
 989              	.LVL123:
ARM GAS  C:\Users\PC\AppData\Local\Temp\ccF7GaWd.s 			page 29


 990 010c F0BD     		pop	{r4, r5, r6, r7, pc}
 991              		.cfi_endproc
 992              	.LFE38:
 993              		.size	display_fillCircleHelper, .-display_fillCircleHelper
 994              		.section	.text.display_fillCircle,"ax",%progbits
 995              		.align	1
 996              		.global	display_fillCircle
 997              		.code	16
 998              		.thumb_func
 999              		.type	display_fillCircle, %function
 1000              	display_fillCircle:
 1001              	.LFB37:
 515:GFX_Library.c ****     display_drawVLine(x0, y0-r, 2*r+1, color);
 1002              		.loc 1 515 0
 1003              		.cfi_startproc
 1004              		@ args = 0, pretend = 0, frame = 0
 1005              		@ frame_needed = 0, uses_anonymous_args = 0
 1006              	.LVL124:
 1007 0000 F7B5     		push	{r0, r1, r2, r4, r5, r6, r7, lr}
 1008              		.cfi_def_cfa_offset 32
 1009              		.cfi_offset 0, -32
 1010              		.cfi_offset 1, -28
 1011              		.cfi_offset 2, -24
 1012              		.cfi_offset 4, -20
 1013              		.cfi_offset 5, -16
 1014              		.cfi_offset 6, -12
 1015              		.cfi_offset 7, -8
 1016              		.cfi_offset 14, -4
 515:GFX_Library.c ****     display_drawVLine(x0, y0-r, 2*r+1, color);
 1017              		.loc 1 515 0
 1018 0002 0D00     		movs	r5, r1
 516:GFX_Library.c ****     display_fillCircleHelper(x0, y0, r, 3, 0, color);
 1019              		.loc 1 516 0
 1020 0004 D1B2     		uxtb	r1, r2
 1021              	.LVL125:
 515:GFX_Library.c ****     display_drawVLine(x0, y0-r, 2*r+1, color);
 1022              		.loc 1 515 0
 1023 0006 1600     		movs	r6, r2
 516:GFX_Library.c ****     display_fillCircleHelper(x0, y0, r, 3, 0, color);
 1024              		.loc 1 516 0
 1025 0008 4A00     		lsls	r2, r1, #1
 1026              	.LVL126:
 1027 000a 0132     		adds	r2, r2, #1
 1028 000c 691A     		subs	r1, r5, r1
 515:GFX_Library.c ****     display_drawVLine(x0, y0-r, 2*r+1, color);
 1029              		.loc 1 515 0
 1030 000e 1F00     		movs	r7, r3
 1031 0010 0400     		movs	r4, r0
 516:GFX_Library.c ****     display_fillCircleHelper(x0, y0, r, 3, 0, color);
 1032              		.loc 1 516 0
 1033 0012 DBB2     		uxtb	r3, r3
 1034              	.LVL127:
 1035 0014 D2B2     		uxtb	r2, r2
 1036 0016 C9B2     		uxtb	r1, r1
 1037 0018 C0B2     		uxtb	r0, r0
 1038              	.LVL128:
 1039 001a FFF7FEFF 		bl	drawVLine
ARM GAS  C:\Users\PC\AppData\Local\Temp\ccF7GaWd.s 			page 30


 1040              	.LVL129:
 517:GFX_Library.c **** }
 1041              		.loc 1 517 0
 1042 001e 0023     		movs	r3, #0
 1043 0020 0197     		str	r7, [sp, #4]
 1044 0022 0093     		str	r3, [sp]
 1045 0024 3200     		movs	r2, r6
 1046 0026 2900     		movs	r1, r5
 1047 0028 0333     		adds	r3, r3, #3
 1048 002a 2000     		movs	r0, r4
 1049 002c FFF7FEFF 		bl	display_fillCircleHelper
 1050              	.LVL130:
 518:GFX_Library.c **** 
 1051              		.loc 1 518 0
 1052              		@ sp needed
 1053 0030 F7BD     		pop	{r0, r1, r2, r4, r5, r6, r7, pc}
 1054              		.cfi_endproc
 1055              	.LFE37:
 1056              		.size	display_fillCircle, .-display_fillCircle
 1057              		.section	.text.display_drawRect,"ax",%progbits
 1058              		.align	1
 1059              		.global	display_drawRect
 1060              		.code	16
 1061              		.thumb_func
 1062              		.type	display_drawRect, %function
 1063              	display_drawRect:
 1064              	.LFB39:
 566:GFX_Library.c **** 
 567:GFX_Library.c **** /**************************************************************************/
 568:GFX_Library.c **** /*!
 569:GFX_Library.c ****    @brief   Draw a rectangle with no fill color
 570:GFX_Library.c ****     @param    x   Top left corner x coordinate
 571:GFX_Library.c ****     @param    y   Top left corner y coordinate
 572:GFX_Library.c ****     @param    w   Width in pixels
 573:GFX_Library.c ****     @param    h   Height in pixels
 574:GFX_Library.c ****     @param    color 16-bit 5-6-5 Color to draw with
 575:GFX_Library.c **** */
 576:GFX_Library.c **** /**************************************************************************/
 577:GFX_Library.c **** void display_drawRect(uint16_t x, uint16_t y, uint16_t w, uint16_t h, uint16_t color) {
 1065              		.loc 1 577 0
 1066              		.cfi_startproc
 1067              		@ args = 4, pretend = 0, frame = 8
 1068              		@ frame_needed = 0, uses_anonymous_args = 0
 1069              	.LVL131:
 1070 0000 F7B5     		push	{r0, r1, r2, r4, r5, r6, r7, lr}
 1071              		.cfi_def_cfa_offset 32
 1072              		.cfi_offset 0, -32
 1073              		.cfi_offset 1, -28
 1074              		.cfi_offset 2, -24
 1075              		.cfi_offset 4, -20
 1076              		.cfi_offset 5, -16
 1077              		.cfi_offset 6, -12
 1078              		.cfi_offset 7, -8
 1079              		.cfi_offset 14, -4
 1080              		.loc 1 577 0
 1081 0002 1E00     		movs	r6, r3
 578:GFX_Library.c ****     display_drawHLine(x, y, w, color);
ARM GAS  C:\Users\PC\AppData\Local\Temp\ccF7GaWd.s 			page 31


 1082              		.loc 1 578 0
 1083 0004 D3B2     		uxtb	r3, r2
 1084              	.LVL132:
 1085 0006 0193     		str	r3, [sp, #4]
 1086 0008 08AB     		add	r3, sp, #32
 1087              	.LVL133:
 1088 000a 1F78     		ldrb	r7, [r3]
 1089 000c CCB2     		uxtb	r4, r1
 1090 000e C5B2     		uxtb	r5, r0
 579:GFX_Library.c ****     display_drawHLine(x, y+h-1, w, color);
 1091              		.loc 1 579 0
 1092 0010 F6B2     		uxtb	r6, r6
 578:GFX_Library.c ****     display_drawHLine(x, y, w, color);
 1093              		.loc 1 578 0
 1094 0012 3B00     		movs	r3, r7
 1095              	.LVL134:
 1096 0014 019A     		ldr	r2, [sp, #4]
 1097              	.LVL135:
 1098 0016 2100     		movs	r1, r4
 1099              	.LVL136:
 1100 0018 2800     		movs	r0, r5
 1101              	.LVL137:
 1102 001a FFF7FEFF 		bl	drawHLine
 1103              	.LVL138:
 1104              		.loc 1 579 0
 1105 001e 711E     		subs	r1, r6, #1
 1106 0020 6118     		adds	r1, r4, r1
 1107 0022 3B00     		movs	r3, r7
 1108 0024 019A     		ldr	r2, [sp, #4]
 1109 0026 2800     		movs	r0, r5
 1110 0028 C9B2     		uxtb	r1, r1
 1111 002a FFF7FEFF 		bl	drawHLine
 1112              	.LVL139:
 580:GFX_Library.c ****     display_drawVLine(x, y, h, color);
 1113              		.loc 1 580 0
 1114 002e 3B00     		movs	r3, r7
 1115 0030 3200     		movs	r2, r6
 1116 0032 2100     		movs	r1, r4
 1117 0034 2800     		movs	r0, r5
 1118 0036 FFF7FEFF 		bl	drawVLine
 1119              	.LVL140:
 581:GFX_Library.c ****     display_drawVLine(x+w-1, y, h, color);
 1120              		.loc 1 581 0
 1121 003a 019B     		ldr	r3, [sp, #4]
 1122 003c 3200     		movs	r2, r6
 1123 003e 581E     		subs	r0, r3, #1
 1124 0040 2D18     		adds	r5, r5, r0
 1125 0042 E8B2     		uxtb	r0, r5
 1126 0044 3B00     		movs	r3, r7
 1127 0046 2100     		movs	r1, r4
 1128 0048 FFF7FEFF 		bl	drawVLine
 1129              	.LVL141:
 582:GFX_Library.c **** }
 1130              		.loc 1 582 0
 1131              		@ sp needed
 1132 004c F7BD     		pop	{r0, r1, r2, r4, r5, r6, r7, pc}
 1133              		.cfi_endproc
ARM GAS  C:\Users\PC\AppData\Local\Temp\ccF7GaWd.s 			page 32


 1134              	.LFE39:
 1135              		.size	display_drawRect, .-display_drawRect
 1136              		.section	.text.display_drawRoundRect,"ax",%progbits
 1137              		.align	1
 1138              		.global	display_drawRoundRect
 1139              		.code	16
 1140              		.thumb_func
 1141              		.type	display_drawRoundRect, %function
 1142              	display_drawRoundRect:
 1143              	.LFB40:
 583:GFX_Library.c **** 
 584:GFX_Library.c **** /**************************************************************************/
 585:GFX_Library.c **** /*!
 586:GFX_Library.c ****    @brief   Draw a rounded rectangle with no fill color
 587:GFX_Library.c ****     @param    x   Top left corner x coordinate
 588:GFX_Library.c ****     @param    y   Top left corner y coordinate
 589:GFX_Library.c ****     @param    w   Width in pixels
 590:GFX_Library.c ****     @param    h   Height in pixels
 591:GFX_Library.c ****     @param    r   Radius of corner rounding
 592:GFX_Library.c ****     @param    color 16-bit 5-6-5 Color to draw with
 593:GFX_Library.c **** */
 594:GFX_Library.c **** /**************************************************************************/
 595:GFX_Library.c **** void display_drawRoundRect(uint16_t x, uint16_t y, uint16_t w, uint16_t h, uint16_t r, uint16_t col
 1144              		.loc 1 595 0
 1145              		.cfi_startproc
 1146              		@ args = 8, pretend = 0, frame = 40
 1147              		@ frame_needed = 0, uses_anonymous_args = 0
 1148              	.LVL142:
 1149 0000 F0B5     		push	{r4, r5, r6, r7, lr}
 1150              		.cfi_def_cfa_offset 20
 1151              		.cfi_offset 4, -20
 1152              		.cfi_offset 5, -16
 1153              		.cfi_offset 6, -12
 1154              		.cfi_offset 7, -8
 1155              		.cfi_offset 14, -4
 1156 0002 8DB0     		sub	sp, sp, #52
 1157              		.cfi_def_cfa_offset 72
 1158              		.loc 1 595 0
 1159 0004 0493     		str	r3, [sp, #16]
 1160 0006 12AB     		add	r3, sp, #72
 1161              	.LVL143:
 1162 0008 1C88     		ldrh	r4, [r3]
 1163 000a 13AB     		add	r3, sp, #76
 1164              	.LVL144:
 1165 000c 1B88     		ldrh	r3, [r3]
 1166              	.LVL145:
 1167 000e 0392     		str	r2, [sp, #12]
 1168 0010 0293     		str	r3, [sp, #8]
 596:GFX_Library.c ****     int16_t max_radius = ((w < h) ? w : h) / 2; // 1/2 minor axis
 1169              		.loc 1 596 0
 1170 0012 6B46     		mov	r3, sp
 595:GFX_Library.c ****     int16_t max_radius = ((w < h) ? w : h) / 2; // 1/2 minor axis
 1171              		.loc 1 595 0
 1172 0014 0891     		str	r1, [sp, #32]
 1173              		.loc 1 596 0
 1174 0016 049A     		ldr	r2, [sp, #16]
 1175              	.LVL146:
ARM GAS  C:\Users\PC\AppData\Local\Temp\ccF7GaWd.s 			page 33


 1176 0018 0399     		ldr	r1, [sp, #12]
 1177              	.LVL147:
 595:GFX_Library.c ****     int16_t max_radius = ((w < h) ? w : h) / 2; // 1/2 minor axis
 1178              		.loc 1 595 0
 1179 001a 0790     		str	r0, [sp, #28]
 1180              		.loc 1 596 0
 1181 001c 1B8A     		ldrh	r3, [r3, #16]
 1182 001e 8A42     		cmp	r2, r1
 1183 0020 01D9     		bls	.L70
 1184 0022 6B46     		mov	r3, sp
 1185 0024 9B89     		ldrh	r3, [r3, #12]
 1186              	.L70:
 1187 0026 9BB2     		uxth	r3, r3
 1188 0028 5B10     		asrs	r3, r3, #1
 1189              	.LVL148:
 597:GFX_Library.c ****     if(r > max_radius) r = max_radius;
 1190              		.loc 1 597 0
 1191 002a A342     		cmp	r3, r4
 1192 002c 00DA     		bge	.L71
 1193              		.loc 1 597 0 is_stmt 0 discriminator 1
 1194 002e 9CB2     		uxth	r4, r3
 1195              	.LVL149:
 1196              	.L71:
 598:GFX_Library.c ****     // smarter version
 599:GFX_Library.c ****     display_drawHLine(x+r  , y    , w-2*r, color); // Top
 1197              		.loc 1 599 0 is_stmt 1
 1198 0030 6B46     		mov	r3, sp
 1199              	.LVL150:
 1200 0032 1B7F     		ldrb	r3, [r3, #28]
 1201 0034 E2B2     		uxtb	r2, r4
 1202 0036 0593     		str	r3, [sp, #20]
 1203 0038 9B18     		adds	r3, r3, r2
 1204 003a DBB2     		uxtb	r3, r3
 1205 003c 0993     		str	r3, [sp, #36]
 1206 003e 2022     		movs	r2, #32
 1207 0040 6B46     		mov	r3, sp
 1208 0042 9B18     		adds	r3, r3, r2
 1209 0044 1B78     		ldrb	r3, [r3]
 1210 0046 0998     		ldr	r0, [sp, #36]
 1211              	.LVL151:
 1212 0048 0693     		str	r3, [sp, #24]
 1213 004a 6B46     		mov	r3, sp
 1214 004c 1B7B     		ldrb	r3, [r3, #12]
 1215 004e 0699     		ldr	r1, [sp, #24]
 1216 0050 0A93     		str	r3, [sp, #40]
 1217 0052 E3B2     		uxtb	r3, r4
 1218 0054 5D00     		lsls	r5, r3, #1
 1219 0056 EBB2     		uxtb	r3, r5
 1220 0058 0B93     		str	r3, [sp, #44]
 1221 005a 0B9A     		ldr	r2, [sp, #44]
 1222 005c 0A9B     		ldr	r3, [sp, #40]
 1223 005e 9F1A     		subs	r7, r3, r2
 1224 0060 6B46     		mov	r3, sp
 1225 0062 1E7A     		ldrb	r6, [r3, #8]
 1226 0064 FFB2     		uxtb	r7, r7
 1227 0066 3300     		movs	r3, r6
 1228 0068 3A00     		movs	r2, r7
ARM GAS  C:\Users\PC\AppData\Local\Temp\ccF7GaWd.s 			page 34


 1229 006a FFF7FEFF 		bl	drawHLine
 1230              	.LVL152:
 600:GFX_Library.c ****     display_drawHLine(x+r  , y+h-1, w-2*r, color); // Bottom
 1231              		.loc 1 600 0
 1232 006e 6B46     		mov	r3, sp
 1233 0070 1D7C     		ldrb	r5, [r3, #16]
 1234 0072 069B     		ldr	r3, [sp, #24]
 1235 0074 3A00     		movs	r2, r7
 1236 0076 591E     		subs	r1, r3, #1
 1237 0078 6918     		adds	r1, r5, r1
 1238 007a 3300     		movs	r3, r6
 1239 007c 0998     		ldr	r0, [sp, #36]
 1240 007e C9B2     		uxtb	r1, r1
 1241 0080 FFF7FEFF 		bl	drawHLine
 1242              	.LVL153:
 601:GFX_Library.c ****     display_drawVLine(x    , y+r  , h-2*r, color); // Left
 1243              		.loc 1 601 0
 1244 0084 069A     		ldr	r2, [sp, #24]
 1245 0086 E3B2     		uxtb	r3, r4
 1246 0088 9446     		mov	ip, r2
 1247 008a 6344     		add	r3, r3, ip
 1248 008c DFB2     		uxtb	r7, r3
 1249 008e 0B9B     		ldr	r3, [sp, #44]
 1250 0090 3900     		movs	r1, r7
 1251 0092 ED1A     		subs	r5, r5, r3
 1252 0094 EDB2     		uxtb	r5, r5
 1253 0096 3300     		movs	r3, r6
 1254 0098 2A00     		movs	r2, r5
 1255 009a 0598     		ldr	r0, [sp, #20]
 1256 009c FFF7FEFF 		bl	drawVLine
 1257              	.LVL154:
 602:GFX_Library.c ****     display_drawVLine(x+w-1, y+r  , h-2*r, color); // Right
 1258              		.loc 1 602 0
 1259 00a0 059B     		ldr	r3, [sp, #20]
 1260 00a2 2A00     		movs	r2, r5
 1261 00a4 581E     		subs	r0, r3, #1
 1262 00a6 0A9B     		ldr	r3, [sp, #40]
 1263 00a8 3900     		movs	r1, r7
 1264 00aa 1818     		adds	r0, r3, r0
 1265 00ac C0B2     		uxtb	r0, r0
 1266 00ae 3300     		movs	r3, r6
 1267 00b0 FFF7FEFF 		bl	drawVLine
 1268              	.LVL155:
 603:GFX_Library.c ****     // draw four corners
 604:GFX_Library.c ****     display_drawCircleHelper(x+r    , y+r    , r, 1, color);
 1269              		.loc 1 604 0
 1270 00b4 079B     		ldr	r3, [sp, #28]
 1271 00b6 2200     		movs	r2, r4
 1272 00b8 E518     		adds	r5, r4, r3
 1273 00ba 089B     		ldr	r3, [sp, #32]
 1274 00bc ADB2     		uxth	r5, r5
 1275 00be E618     		adds	r6, r4, r3
 1276 00c0 029B     		ldr	r3, [sp, #8]
 1277 00c2 B6B2     		uxth	r6, r6
 1278 00c4 0093     		str	r3, [sp]
 1279 00c6 3100     		movs	r1, r6
 1280 00c8 2800     		movs	r0, r5
ARM GAS  C:\Users\PC\AppData\Local\Temp\ccF7GaWd.s 			page 35


 1281 00ca 0123     		movs	r3, #1
 1282 00cc FFF7FEFF 		bl	display_drawCircleHelper
 1283              	.LVL156:
 605:GFX_Library.c ****     display_drawCircleHelper(x+w-r-1, y+r    , r, 2, color);
 1284              		.loc 1 605 0
 1285 00d0 079B     		ldr	r3, [sp, #28]
 1286 00d2 2200     		movs	r2, r4
 1287 00d4 5F1E     		subs	r7, r3, #1
 1288 00d6 039B     		ldr	r3, [sp, #12]
 1289 00d8 3100     		movs	r1, r6
 1290 00da DF19     		adds	r7, r3, r7
 1291 00dc 3F1B     		subs	r7, r7, r4
 1292 00de 029B     		ldr	r3, [sp, #8]
 1293 00e0 BFB2     		uxth	r7, r7
 1294 00e2 0093     		str	r3, [sp]
 1295 00e4 3800     		movs	r0, r7
 1296 00e6 0223     		movs	r3, #2
 1297 00e8 FFF7FEFF 		bl	display_drawCircleHelper
 1298              	.LVL157:
 606:GFX_Library.c ****     display_drawCircleHelper(x+w-r-1, y+h-r-1, r, 4, color);
 1299              		.loc 1 606 0
 1300 00ec 089B     		ldr	r3, [sp, #32]
 1301 00ee 2200     		movs	r2, r4
 1302 00f0 5E1E     		subs	r6, r3, #1
 1303 00f2 049B     		ldr	r3, [sp, #16]
 1304 00f4 3800     		movs	r0, r7
 1305 00f6 9E19     		adds	r6, r3, r6
 1306 00f8 361B     		subs	r6, r6, r4
 1307 00fa 029B     		ldr	r3, [sp, #8]
 1308 00fc B6B2     		uxth	r6, r6
 1309 00fe 0093     		str	r3, [sp]
 1310 0100 3100     		movs	r1, r6
 1311 0102 0423     		movs	r3, #4
 1312 0104 FFF7FEFF 		bl	display_drawCircleHelper
 1313              	.LVL158:
 607:GFX_Library.c ****     display_drawCircleHelper(x+r    , y+h-r-1, r, 8, color);
 1314              		.loc 1 607 0
 1315 0108 029B     		ldr	r3, [sp, #8]
 1316 010a 2200     		movs	r2, r4
 1317 010c 0093     		str	r3, [sp]
 1318 010e 3100     		movs	r1, r6
 1319 0110 0823     		movs	r3, #8
 1320 0112 2800     		movs	r0, r5
 1321 0114 FFF7FEFF 		bl	display_drawCircleHelper
 1322              	.LVL159:
 608:GFX_Library.c **** }
 1323              		.loc 1 608 0
 1324 0118 0DB0     		add	sp, sp, #52
 1325              		@ sp needed
 1326              	.LVL160:
 1327 011a F0BD     		pop	{r4, r5, r6, r7, pc}
 1328              		.cfi_endproc
 1329              	.LFE40:
 1330              		.size	display_drawRoundRect, .-display_drawRoundRect
 1331              		.section	.text.display_fillRoundRect,"ax",%progbits
 1332              		.align	1
 1333              		.global	display_fillRoundRect
ARM GAS  C:\Users\PC\AppData\Local\Temp\ccF7GaWd.s 			page 36


 1334              		.code	16
 1335              		.thumb_func
 1336              		.type	display_fillRoundRect, %function
 1337              	display_fillRoundRect:
 1338              	.LFB41:
 609:GFX_Library.c **** 
 610:GFX_Library.c **** /**************************************************************************/
 611:GFX_Library.c **** /*!
 612:GFX_Library.c ****    @brief   Draw a rounded rectangle with fill color
 613:GFX_Library.c ****     @param    x   Top left corner x coordinate
 614:GFX_Library.c ****     @param    y   Top left corner y coordinate
 615:GFX_Library.c ****     @param    w   Width in pixels
 616:GFX_Library.c ****     @param    h   Height in pixels
 617:GFX_Library.c ****     @param    r   Radius of corner rounding
 618:GFX_Library.c ****     @param    color 16-bit 5-6-5 Color to draw/fill with
 619:GFX_Library.c **** */
 620:GFX_Library.c **** /**************************************************************************/
 621:GFX_Library.c **** void display_fillRoundRect(uint16_t x, uint16_t y, uint16_t w,
 622:GFX_Library.c ****   uint16_t h, uint16_t r, uint16_t color) {
 1339              		.loc 1 622 0
 1340              		.cfi_startproc
 1341              		@ args = 8, pretend = 0, frame = 16
 1342              		@ frame_needed = 0, uses_anonymous_args = 0
 1343              	.LVL161:
 1344 0000 F0B5     		push	{r4, r5, r6, r7, lr}
 1345              		.cfi_def_cfa_offset 20
 1346              		.cfi_offset 4, -20
 1347              		.cfi_offset 5, -16
 1348              		.cfi_offset 6, -12
 1349              		.cfi_offset 7, -8
 1350              		.cfi_offset 14, -4
 1351 0002 1C00     		movs	r4, r3
 1352 0004 87B0     		sub	sp, sp, #28
 1353              		.cfi_def_cfa_offset 48
 1354              		.loc 1 622 0
 1355 0006 0CAB     		add	r3, sp, #48
 1356              	.LVL162:
 1357 0008 1D88     		ldrh	r5, [r3]
 1358 000a 0DAB     		add	r3, sp, #52
 1359              	.LVL163:
 1360 000c 1B88     		ldrh	r3, [r3]
 1361              	.LVL164:
 1362 000e 0490     		str	r0, [sp, #16]
 1363 0010 0393     		str	r3, [sp, #12]
 1364 0012 0E00     		movs	r6, r1
 1365 0014 1700     		movs	r7, r2
 623:GFX_Library.c ****     int16_t max_radius = ((w < h) ? w : h) / 2; // 1/2 minor axis
 1366              		.loc 1 623 0
 1367 0016 231C     		adds	r3, r4, #0
 1368 0018 9442     		cmp	r4, r2
 1369 001a 00D9     		bls	.L73
 1370 001c 131C     		adds	r3, r2, #0
 1371              	.L73:
 1372 001e 9BB2     		uxth	r3, r3
 1373 0020 5B10     		asrs	r3, r3, #1
 1374              	.LVL165:
 624:GFX_Library.c ****     if(r > max_radius) r = max_radius;
ARM GAS  C:\Users\PC\AppData\Local\Temp\ccF7GaWd.s 			page 37


 1375              		.loc 1 624 0
 1376 0022 AB42     		cmp	r3, r5
 1377 0024 00DA     		bge	.L74
 1378              		.loc 1 624 0 is_stmt 0 discriminator 1
 1379 0026 9DB2     		uxth	r5, r3
 1380              	.LVL166:
 1381              	.L74:
 625:GFX_Library.c ****     // smarter version
 626:GFX_Library.c ****     display_FillRect(x+r, y, w-2*r, h, color);
 1382              		.loc 1 626 0 is_stmt 1
 1383 0028 6B00     		lsls	r3, r5, #1
 1384              	.LVL167:
 1385 002a FA1A     		subs	r2, r7, r3
 1386              	.LVL168:
 1387 002c 049B     		ldr	r3, [sp, #16]
 1388 002e 3100     		movs	r1, r6
 1389              	.LVL169:
 1390 0030 5B19     		adds	r3, r3, r5
 1391 0032 0593     		str	r3, [sp, #20]
 1392 0034 039B     		ldr	r3, [sp, #12]
 1393 0036 0598     		ldr	r0, [sp, #20]
 1394              	.LVL170:
 1395 0038 0093     		str	r3, [sp]
 1396 003a 2300     		movs	r3, r4
 1397 003c FFF7FEFF 		bl	display_FillRect
 1398              	.LVL171:
 627:GFX_Library.c ****     // draw four corners
 628:GFX_Library.c ****     display_fillCircleHelper(x+w-r-1, y+r, r, 1, h-2*r-1, color);
 1399              		.loc 1 628 0
 1400 0040 013C     		subs	r4, r4, #1
 1401 0042 6B00     		lsls	r3, r5, #1
 1402 0044 E41A     		subs	r4, r4, r3
 1403 0046 049B     		ldr	r3, [sp, #16]
 1404 0048 AE19     		adds	r6, r5, r6
 1405 004a 581E     		subs	r0, r3, #1
 1406 004c 3F18     		adds	r7, r7, r0
 1407 004e 039B     		ldr	r3, [sp, #12]
 1408 0050 B6B2     		uxth	r6, r6
 1409 0052 A4B2     		uxth	r4, r4
 1410 0054 781B     		subs	r0, r7, r5
 1411 0056 0193     		str	r3, [sp, #4]
 1412 0058 2A00     		movs	r2, r5
 1413 005a 3100     		movs	r1, r6
 1414 005c 80B2     		uxth	r0, r0
 1415 005e 0094     		str	r4, [sp]
 1416 0060 0123     		movs	r3, #1
 1417 0062 FFF7FEFF 		bl	display_fillCircleHelper
 1418              	.LVL172:
 629:GFX_Library.c ****     //display_fillCircleHelper(94, 18, 8, 1, 43, color);
 630:GFX_Library.c ****     display_fillCircleHelper(x+r    , y+r, r, 2, h-2*r-1, color);
 1419              		.loc 1 630 0
 1420 0066 6B46     		mov	r3, sp
 1421 0068 988A     		ldrh	r0, [r3, #20]
 1422 006a 039B     		ldr	r3, [sp, #12]
 1423 006c 0094     		str	r4, [sp]
 1424 006e 0193     		str	r3, [sp, #4]
 1425 0070 2A00     		movs	r2, r5
ARM GAS  C:\Users\PC\AppData\Local\Temp\ccF7GaWd.s 			page 38


 1426 0072 0223     		movs	r3, #2
 1427 0074 3100     		movs	r1, r6
 1428 0076 FFF7FEFF 		bl	display_fillCircleHelper
 1429              	.LVL173:
 631:GFX_Library.c **** }
 1430              		.loc 1 631 0
 1431 007a 07B0     		add	sp, sp, #28
 1432              		@ sp needed
 1433              	.LVL174:
 1434 007c F0BD     		pop	{r4, r5, r6, r7, pc}
 1435              		.cfi_endproc
 1436              	.LFE41:
 1437              		.size	display_fillRoundRect, .-display_fillRoundRect
 1438              		.section	.text.display_drawTriangle,"ax",%progbits
 1439              		.align	1
 1440              		.global	display_drawTriangle
 1441              		.code	16
 1442              		.thumb_func
 1443              		.type	display_drawTriangle, %function
 1444              	display_drawTriangle:
 1445              	.LFB42:
 632:GFX_Library.c **** 
 633:GFX_Library.c **** /**************************************************************************/
 634:GFX_Library.c **** /*!
 635:GFX_Library.c ****    @brief   Draw a triangle with no fill color
 636:GFX_Library.c ****     @param    x0  Vertex #0 x coordinate
 637:GFX_Library.c ****     @param    y0  Vertex #0 y coordinate
 638:GFX_Library.c ****     @param    x1  Vertex #1 x coordinate
 639:GFX_Library.c ****     @param    y1  Vertex #1 y coordinate
 640:GFX_Library.c ****     @param    x2  Vertex #2 x coordinate
 641:GFX_Library.c ****     @param    y2  Vertex #2 y coordinate
 642:GFX_Library.c ****     @param    color 16-bit 5-6-5 Color to draw with
 643:GFX_Library.c **** */
 644:GFX_Library.c **** /**************************************************************************/
 645:GFX_Library.c **** void display_drawTriangle(uint16_t x0, uint16_t y0, uint16_t x1, uint16_t y1,
 646:GFX_Library.c ****   uint16_t x2, uint16_t y2, uint16_t color) {
 1446              		.loc 1 646 0
 1447              		.cfi_startproc
 1448              		@ args = 12, pretend = 0, frame = 16
 1449              		@ frame_needed = 0, uses_anonymous_args = 0
 1450              	.LVL175:
 1451 0000 F0B5     		push	{r4, r5, r6, r7, lr}
 1452              		.cfi_def_cfa_offset 20
 1453              		.cfi_offset 4, -20
 1454              		.cfi_offset 5, -16
 1455              		.cfi_offset 6, -12
 1456              		.cfi_offset 7, -8
 1457              		.cfi_offset 14, -4
 1458 0002 1F00     		movs	r7, r3
 1459 0004 1600     		movs	r6, r2
 1460 0006 0D00     		movs	r5, r1
 1461 0008 87B0     		sub	sp, sp, #28
 1462              		.cfi_def_cfa_offset 48
 1463              		.loc 1 646 0
 1464 000a 0CAB     		add	r3, sp, #48
 1465              	.LVL176:
 1466 000c 1B88     		ldrh	r3, [r3]
ARM GAS  C:\Users\PC\AppData\Local\Temp\ccF7GaWd.s 			page 39


 1467              	.LVL177:
 1468 000e 0390     		str	r0, [sp, #12]
 1469 0010 0493     		str	r3, [sp, #16]
 1470 0012 0DAB     		add	r3, sp, #52
 1471              	.LVL178:
 1472 0014 1B88     		ldrh	r3, [r3]
 1473              	.LVL179:
 1474 0016 0593     		str	r3, [sp, #20]
 1475 0018 0EAB     		add	r3, sp, #56
 1476              	.LVL180:
 1477 001a 1C88     		ldrh	r4, [r3]
 647:GFX_Library.c ****     display_drawLine(x0, y0, x1, y1, color);
 1478              		.loc 1 647 0
 1479 001c 3B00     		movs	r3, r7
 1480              	.LVL181:
 1481 001e 0094     		str	r4, [sp]
 1482 0020 FFF7FEFF 		bl	display_drawLine
 1483              	.LVL182:
 648:GFX_Library.c ****     display_drawLine(x1, y1, x2, y2, color);
 1484              		.loc 1 648 0
 1485 0024 059B     		ldr	r3, [sp, #20]
 1486 0026 049A     		ldr	r2, [sp, #16]
 1487 0028 3900     		movs	r1, r7
 1488 002a 3000     		movs	r0, r6
 1489 002c 0094     		str	r4, [sp]
 1490 002e FFF7FEFF 		bl	display_drawLine
 1491              	.LVL183:
 649:GFX_Library.c ****     display_drawLine(x2, y2, x0, y0, color);
 1492              		.loc 1 649 0
 1493 0032 0094     		str	r4, [sp]
 1494 0034 2B00     		movs	r3, r5
 1495 0036 039A     		ldr	r2, [sp, #12]
 1496 0038 0599     		ldr	r1, [sp, #20]
 1497 003a 0498     		ldr	r0, [sp, #16]
 1498 003c FFF7FEFF 		bl	display_drawLine
 1499              	.LVL184:
 650:GFX_Library.c **** }
 1500              		.loc 1 650 0
 1501 0040 07B0     		add	sp, sp, #28
 1502              		@ sp needed
 1503 0042 F0BD     		pop	{r4, r5, r6, r7, pc}
 1504              		.cfi_endproc
 1505              	.LFE42:
 1506              		.size	display_drawTriangle, .-display_drawTriangle
 1507              		.global	__aeabi_idiv
 1508              		.section	.text.display_fillTriangle,"ax",%progbits
 1509              		.align	1
 1510              		.global	display_fillTriangle
 1511              		.code	16
 1512              		.thumb_func
 1513              		.type	display_fillTriangle, %function
 1514              	display_fillTriangle:
 1515              	.LFB43:
 651:GFX_Library.c **** 
 652:GFX_Library.c **** /**************************************************************************/
 653:GFX_Library.c **** /*!
 654:GFX_Library.c ****    @brief     Draw a triangle with color-fill
ARM GAS  C:\Users\PC\AppData\Local\Temp\ccF7GaWd.s 			page 40


 655:GFX_Library.c ****     @param    x0  Vertex #0 x coordinate
 656:GFX_Library.c ****     @param    y0  Vertex #0 y coordinate
 657:GFX_Library.c ****     @param    x1  Vertex #1 x coordinate
 658:GFX_Library.c ****     @param    y1  Vertex #1 y coordinate
 659:GFX_Library.c ****     @param    x2  Vertex #2 x coordinate
 660:GFX_Library.c ****     @param    y2  Vertex #2 y coordinate
 661:GFX_Library.c ****     @param    color 16-bit 5-6-5 Color to fill/draw with
 662:GFX_Library.c **** */
 663:GFX_Library.c **** /**************************************************************************/
 664:GFX_Library.c **** void display_fillTriangle(uint16_t x0, uint16_t y0, uint16_t x1, uint16_t y1,
 665:GFX_Library.c ****   uint16_t x2, uint16_t y2, uint16_t color) {
 1516              		.loc 1 665 0
 1517              		.cfi_startproc
 1518              		@ args = 12, pretend = 0, frame = 56
 1519              		@ frame_needed = 0, uses_anonymous_args = 0
 1520              	.LVL185:
 1521 0000 F0B5     		push	{r4, r5, r6, r7, lr}
 1522              		.cfi_def_cfa_offset 20
 1523              		.cfi_offset 4, -20
 1524              		.cfi_offset 5, -16
 1525              		.cfi_offset 6, -12
 1526              		.cfi_offset 7, -8
 1527              		.cfi_offset 14, -4
 1528 0002 8FB0     		sub	sp, sp, #60
 1529              		.cfi_def_cfa_offset 80
 1530              		.loc 1 665 0
 1531 0004 1600     		movs	r6, r2
 1532 0006 15AA     		add	r2, sp, #84
 1533              	.LVL186:
 1534 0008 1288     		ldrh	r2, [r2]
 1535              	.LVL187:
 1536 000a 1D00     		movs	r5, r3
 1537 000c 0192     		str	r2, [sp, #4]
 1538 000e 16AA     		add	r2, sp, #88
 1539              	.LVL188:
 1540 0010 1288     		ldrh	r2, [r2]
 1541              	.LVL189:
 1542 0012 14AB     		add	r3, sp, #80
 1543              	.LVL190:
 1544 0014 0792     		str	r2, [sp, #28]
 1545 0016 0700     		movs	r7, r0
 1546 0018 0C00     		movs	r4, r1
 1547 001a 1B88     		ldrh	r3, [r3]
 1548              	.LVL191:
 666:GFX_Library.c ****     int16_t a, b, y, last;
 667:GFX_Library.c **** 
 668:GFX_Library.c ****     // Sort coordinates by Y order (y2 >= y1 >= y0)
 669:GFX_Library.c ****     if (y0 > y1) {
 670:GFX_Library.c ****         _swap_int16_t(y0, y1); _swap_int16_t(x0, x1);
 671:GFX_Library.c ****     }
 672:GFX_Library.c ****     if (y1 > y2) {
 1549              		.loc 1 672 0
 1550 001c 019A     		ldr	r2, [sp, #4]
 669:GFX_Library.c ****         _swap_int16_t(y0, y1); _swap_int16_t(x0, x1);
 1551              		.loc 1 669 0
 1552 001e A942     		cmp	r1, r5
 1553 0020 10D9     		bls	.L77
ARM GAS  C:\Users\PC\AppData\Local\Temp\ccF7GaWd.s 			page 41


 1554              	.LVL192:
 1555              		.loc 1 672 0
 1556 0022 9142     		cmp	r1, r2
 1557 0024 07D9     		bls	.L94
 1558 0026 2A00     		movs	r2, r5
 1559 0028 019D     		ldr	r5, [sp, #4]
 1560              	.LVL193:
 1561 002a 1400     		movs	r4, r2
 1562 002c 0191     		str	r1, [sp, #4]
 1563 002e 3200     		movs	r2, r6
 1564              	.LBB23:
 673:GFX_Library.c ****         _swap_int16_t(y2, y1); _swap_int16_t(x2, x1);
 1565              		.loc 1 673 0
 1566 0030 1E00     		movs	r6, r3
 1567              	.LVL194:
 1568              	.LBE23:
 1569              	.LBB24:
 670:GFX_Library.c ****     }
 1570              		.loc 1 670 0
 1571 0032 0300     		movs	r3, r0
 1572 0034 04E0     		b	.L97
 1573              	.LVL195:
 1574              	.L94:
 1575              	.LBE24:
 1576 0036 2A00     		movs	r2, r5
 1577 0038 0D00     		movs	r5, r1
 1578              	.LVL196:
 1579 003a 1400     		movs	r4, r2
 1580 003c 3200     		movs	r2, r6
 1581              	.LBB25:
 1582 003e 0600     		movs	r6, r0
 1583              	.LVL197:
 1584              	.L97:
 1585 0040 1700     		movs	r7, r2
 1586 0042 07E0     		b	.L78
 1587              	.LVL198:
 1588              	.L77:
 1589              	.LBE25:
 672:GFX_Library.c ****         _swap_int16_t(y2, y1); _swap_int16_t(x2, x1);
 1590              		.loc 1 672 0
 1591 0044 9542     		cmp	r5, r2
 1592 0046 0DD9     		bls	.L79
 1593 0048 2A00     		movs	r2, r5
 1594 004a 019D     		ldr	r5, [sp, #4]
 1595              	.LVL199:
 1596 004c 0192     		str	r2, [sp, #4]
 1597 004e 3200     		movs	r2, r6
 1598              	.LBB26:
 1599              		.loc 1 673 0
 1600 0050 1E00     		movs	r6, r3
 1601              	.LVL200:
 1602              	.LBE26:
 672:GFX_Library.c ****         _swap_int16_t(y2, y1); _swap_int16_t(x2, x1);
 1603              		.loc 1 672 0
 1604 0052 1300     		movs	r3, r2
 1605              	.LVL201:
 1606              	.L78:
ARM GAS  C:\Users\PC\AppData\Local\Temp\ccF7GaWd.s 			page 42


 674:GFX_Library.c ****     }
 675:GFX_Library.c ****     if (y0 > y1) {
 1607              		.loc 1 675 0
 1608 0054 A542     		cmp	r5, r4
 1609 0056 05D2     		bcs	.L79
 1610 0058 2200     		movs	r2, r4
 1611 005a 2C00     		movs	r4, r5
 1612 005c 1500     		movs	r5, r2
 1613              	.LVL202:
 1614 005e 3A00     		movs	r2, r7
 1615 0060 3700     		movs	r7, r6
 1616 0062 1600     		movs	r6, r2
 1617              	.LVL203:
 1618              	.L79:
 676:GFX_Library.c ****         _swap_int16_t(y0, y1); _swap_int16_t(x0, x1);
 677:GFX_Library.c ****     }
 678:GFX_Library.c **** 
 679:GFX_Library.c ****     if(y0 == y2) { // Handle awkward all-on-same-line case as its own thing
 1619              		.loc 1 679 0
 1620 0064 019A     		ldr	r2, [sp, #4]
 1621 0066 9442     		cmp	r4, r2
 1622 0068 19D1     		bne	.L80
 680:GFX_Library.c ****         a = b = x0;
 1623              		.loc 1 680 0
 1624 006a 38B2     		sxth	r0, r7
 1625              	.LVL204:
 1626 006c 0200     		movs	r2, r0
 681:GFX_Library.c ****         if(x1 < a)      a = x1;
 1627              		.loc 1 681 0
 1628 006e 8642     		cmp	r6, r0
 1629 0070 01DA     		bge	.L81
 1630              	.LVL205:
 1631              		.loc 1 681 0 is_stmt 0 discriminator 1
 1632 0072 30B2     		sxth	r0, r6
 1633              	.LVL206:
 1634 0074 02E0     		b	.L82
 1635              	.LVL207:
 1636              	.L81:
 682:GFX_Library.c ****         else if(x1 > b) b = x1;
 1637              		.loc 1 682 0 is_stmt 1
 1638 0076 8642     		cmp	r6, r0
 1639 0078 00DD     		ble	.L82
 1640              		.loc 1 682 0 is_stmt 0 discriminator 1
 1641 007a 32B2     		sxth	r2, r6
 1642              	.LVL208:
 1643              	.L82:
 683:GFX_Library.c ****         if(x2 < a)      a = x2;
 1644              		.loc 1 683 0 is_stmt 1
 1645 007c 8342     		cmp	r3, r0
 1646 007e 01DA     		bge	.L83
 1647              		.loc 1 683 0 is_stmt 0 discriminator 1
 1648 0080 18B2     		sxth	r0, r3
 1649              	.LVL209:
 1650 0082 02E0     		b	.L84
 1651              	.L83:
 684:GFX_Library.c ****         else if(x2 > b) b = x2;
 1652              		.loc 1 684 0 is_stmt 1
ARM GAS  C:\Users\PC\AppData\Local\Temp\ccF7GaWd.s 			page 43


 1653 0084 9342     		cmp	r3, r2
 1654 0086 00DD     		ble	.L84
 1655              		.loc 1 684 0 is_stmt 0 discriminator 1
 1656 0088 1AB2     		sxth	r2, r3
 1657              	.LVL210:
 1658              	.L84:
 685:GFX_Library.c ****         display_drawHLine(a, y0, b-a+1, color);
 1659              		.loc 1 685 0 is_stmt 1
 1660 008a 6B46     		mov	r3, sp
 1661 008c C0B2     		uxtb	r0, r0
 1662              	.LVL211:
 1663 008e 0132     		adds	r2, r2, #1
 1664              	.LVL212:
 1665 0090 121A     		subs	r2, r2, r0
 1666 0092 1B7F     		ldrb	r3, [r3, #28]
 1667 0094 D2B2     		uxtb	r2, r2
 1668 0096 E1B2     		uxtb	r1, r4
 1669 0098 FFF7FEFF 		bl	drawHLine
 1670              	.LVL213:
 686:GFX_Library.c ****         return;
 1671              		.loc 1 686 0
 1672 009c 82E0     		b	.L76
 1673              	.L80:
 687:GFX_Library.c ****     }
 688:GFX_Library.c **** 
 689:GFX_Library.c ****     int16_t
 690:GFX_Library.c ****     dx01 = x1 - x0,
 1674              		.loc 1 690 0
 1675 009e F21B     		subs	r2, r6, r7
 1676 00a0 12B2     		sxth	r2, r2
 1677 00a2 0B92     		str	r2, [sp, #44]
 1678              	.LVL214:
 691:GFX_Library.c ****     dy01 = y1 - y0,
 1679              		.loc 1 691 0
 1680 00a4 2A1B     		subs	r2, r5, r4
 1681 00a6 12B2     		sxth	r2, r2
 1682 00a8 0C92     		str	r2, [sp, #48]
 1683              	.LVL215:
 692:GFX_Library.c ****     dx02 = x2 - x0,
 1684              		.loc 1 692 0
 1685 00aa DA1B     		subs	r2, r3, r7
 693:GFX_Library.c ****     dy02 = y2 - y0,
 694:GFX_Library.c ****     dx12 = x2 - x1,
 1686              		.loc 1 694 0
 1687 00ac 9B1B     		subs	r3, r3, r6
 1688 00ae 1BB2     		sxth	r3, r3
 1689 00b0 0A93     		str	r3, [sp, #40]
 695:GFX_Library.c ****     dy12 = y2 - y1;
 1690              		.loc 1 695 0
 1691 00b2 019B     		ldr	r3, [sp, #4]
 692:GFX_Library.c ****     dx02 = x2 - x0,
 1692              		.loc 1 692 0
 1693 00b4 12B2     		sxth	r2, r2
 1694 00b6 0692     		str	r2, [sp, #24]
 1695              	.LVL216:
 1696              		.loc 1 695 0
 1697 00b8 5B1B     		subs	r3, r3, r5
ARM GAS  C:\Users\PC\AppData\Local\Temp\ccF7GaWd.s 			page 44


 693:GFX_Library.c ****     dy02 = y2 - y0,
 1698              		.loc 1 693 0
 1699 00ba 019A     		ldr	r2, [sp, #4]
 1700              		.loc 1 695 0
 1701 00bc 1BB2     		sxth	r3, r3
 693:GFX_Library.c ****     dy02 = y2 - y0,
 1702              		.loc 1 693 0
 1703 00be 121B     		subs	r2, r2, r4
 1704              		.loc 1 695 0
 1705 00c0 0D93     		str	r3, [sp, #52]
 696:GFX_Library.c ****     int32_t
 697:GFX_Library.c ****     sa   = 0,
 698:GFX_Library.c ****     sb   = 0;
 699:GFX_Library.c **** 
 700:GFX_Library.c ****     // For upper part of triangle, find scanline crossings for segments
 701:GFX_Library.c ****     // 0-1 and 0-2.  If y1=y2 (flat-bottomed triangle), the scanline y1
 702:GFX_Library.c ****     // is included here (and second loop will be skipped, avoiding a /0
 703:GFX_Library.c ****     // error there), otherwise scanline y1 is skipped here and handled
 704:GFX_Library.c ****     // in the second loop...which also avoids a /0 error here if y0=y1
 705:GFX_Library.c ****     // (flat-topped triangle).
 706:GFX_Library.c ****     if(y1 == y2) last = y1;   // Include y1 scanline
 1706              		.loc 1 706 0
 1707 00c2 019B     		ldr	r3, [sp, #4]
 693:GFX_Library.c ****     dx12 = x2 - x1,
 1708              		.loc 1 693 0
 1709 00c4 12B2     		sxth	r2, r2
 1710 00c6 0992     		str	r2, [sp, #36]
 1711              	.LVL217:
 1712              		.loc 1 706 0
 1713 00c8 9D42     		cmp	r5, r3
 1714 00ca 01D1     		bne	.L86
 1715              		.loc 1 706 0 is_stmt 0 discriminator 1
 1716 00cc 2BB2     		sxth	r3, r5
 1717 00ce 01E0     		b	.L98
 1718              	.L86:
 707:GFX_Library.c ****     else         last = y1-1; // Skip it
 1719              		.loc 1 707 0 is_stmt 1
 1720 00d0 6B1E     		subs	r3, r5, #1
 1721 00d2 1BB2     		sxth	r3, r3
 1722              	.L98:
 1723 00d4 0893     		str	r3, [sp, #32]
 1724              	.LVL218:
 708:GFX_Library.c **** 
 709:GFX_Library.c ****     for(y=y0; y<=last; y++) {
 1725              		.loc 1 709 0
 1726 00d6 23B2     		sxth	r3, r4
 1727 00d8 0293     		str	r3, [sp, #8]
 1728              	.LVL219:
 698:GFX_Library.c **** 
 1729              		.loc 1 698 0
 1730 00da 0023     		movs	r3, #0
 1731 00dc 0593     		str	r3, [sp, #20]
 697:GFX_Library.c ****     sb   = 0;
 1732              		.loc 1 697 0
 1733 00de 0493     		str	r3, [sp, #16]
 1734              	.LVL220:
 1735              	.L88:
ARM GAS  C:\Users\PC\AppData\Local\Temp\ccF7GaWd.s 			page 45


 1736              		.loc 1 709 0 discriminator 1
 1737 00e0 029B     		ldr	r3, [sp, #8]
 1738 00e2 089A     		ldr	r2, [sp, #32]
 1739 00e4 9342     		cmp	r3, r2
 1740 00e6 2ADC     		bgt	.L99
 710:GFX_Library.c ****         a   = x0 + sa / dy01;
 1741              		.loc 1 710 0
 1742 00e8 0C99     		ldr	r1, [sp, #48]
 1743 00ea 0498     		ldr	r0, [sp, #16]
 1744 00ec FFF7FEFF 		bl	__aeabi_idiv
 1745              	.LVL221:
 1746 00f0 3818     		adds	r0, r7, r0
 1747 00f2 03B2     		sxth	r3, r0
 711:GFX_Library.c ****         b   = x0 + sb / dy02;
 1748              		.loc 1 711 0
 1749 00f4 0999     		ldr	r1, [sp, #36]
 1750 00f6 0598     		ldr	r0, [sp, #20]
 710:GFX_Library.c ****         a   = x0 + sa / dy01;
 1751              		.loc 1 710 0
 1752 00f8 0393     		str	r3, [sp, #12]
 1753              	.LVL222:
 1754              		.loc 1 711 0
 1755 00fa FFF7FEFF 		bl	__aeabi_idiv
 1756              	.LVL223:
 1757 00fe 0B99     		ldr	r1, [sp, #44]
 1758 0100 049B     		ldr	r3, [sp, #16]
 1759 0102 8C46     		mov	ip, r1
 1760 0104 0699     		ldr	r1, [sp, #24]
 1761 0106 6344     		add	r3, r3, ip
 1762 0108 8C46     		mov	ip, r1
 1763 010a 0493     		str	r3, [sp, #16]
 1764              	.LVL224:
 1765 010c 059B     		ldr	r3, [sp, #20]
 1766 010e 3818     		adds	r0, r7, r0
 1767 0110 6344     		add	r3, r3, ip
 1768 0112 0593     		str	r3, [sp, #20]
 1769              	.LVL225:
 712:GFX_Library.c ****         sa += dx01;
 713:GFX_Library.c ****         sb += dx02;
 714:GFX_Library.c ****         /* longhand:
 715:GFX_Library.c ****         a = x0 + (x1 - x0) * (y - y0) / (y1 - y0);
 716:GFX_Library.c ****         b = x0 + (x2 - x0) * (y - y0) / (y2 - y0);
 717:GFX_Library.c ****         */
 718:GFX_Library.c ****         if(a > b) _swap_int16_t(a,b);
 1770              		.loc 1 718 0
 1771 0114 039B     		ldr	r3, [sp, #12]
 711:GFX_Library.c ****         b   = x0 + sb / dy02;
 1772              		.loc 1 711 0
 1773 0116 02B2     		sxth	r2, r0
 1774              	.LVL226:
 1775              		.loc 1 718 0
 1776 0118 9342     		cmp	r3, r2
 1777 011a 01DD     		ble	.L89
 1778 011c 0392     		str	r2, [sp, #12]
 1779              	.LVL227:
 1780 011e 1A00     		movs	r2, r3
 1781              	.LVL228:
ARM GAS  C:\Users\PC\AppData\Local\Temp\ccF7GaWd.s 			page 46


 1782              	.L89:
 719:GFX_Library.c ****         display_drawHLine(a, y, b-a+1, color);
 1783              		.loc 1 719 0 discriminator 2
 1784 0120 6B46     		mov	r3, sp
 1785 0122 6946     		mov	r1, sp
 1786 0124 187B     		ldrb	r0, [r3, #12]
 1787 0126 0132     		adds	r2, r2, #1
 1788              	.LVL229:
 1789 0128 121A     		subs	r2, r2, r0
 1790 012a 1B7F     		ldrb	r3, [r3, #28]
 1791 012c D2B2     		uxtb	r2, r2
 1792 012e 097A     		ldrb	r1, [r1, #8]
 1793 0130 FFF7FEFF 		bl	drawHLine
 1794              	.LVL230:
 1795 0134 029B     		ldr	r3, [sp, #8]
 1796 0136 0133     		adds	r3, r3, #1
 1797 0138 1BB2     		sxth	r3, r3
 1798 013a 0293     		str	r3, [sp, #8]
 1799              	.LVL231:
 1800 013c D0E7     		b	.L88
 1801              	.LVL232:
 1802              	.L99:
 720:GFX_Library.c ****     }
 721:GFX_Library.c **** 
 722:GFX_Library.c ****     // For lower part of triangle, find scanline crossings for segments
 723:GFX_Library.c ****     // 0-2 and 1-2.  This loop is skipped if y1=y2.
 724:GFX_Library.c ****     sa = dx12 * (y - y1);
 1803              		.loc 1 724 0
 1804 013e 0A9A     		ldr	r2, [sp, #40]
 1805 0140 5B1B     		subs	r3, r3, r5
 1806 0142 5A43     		muls	r2, r3
 725:GFX_Library.c ****     sb = dx02 * (y - y0);
 1807              		.loc 1 725 0
 1808 0144 029B     		ldr	r3, [sp, #8]
 724:GFX_Library.c ****     sb = dx02 * (y - y0);
 1809              		.loc 1 724 0
 1810 0146 0392     		str	r2, [sp, #12]
 1811              	.LVL233:
 1812              		.loc 1 725 0
 1813 0148 1D1B     		subs	r5, r3, r4
 1814              	.LVL234:
 1815 014a 069B     		ldr	r3, [sp, #24]
 1816 014c 5D43     		muls	r5, r3
 1817              	.LVL235:
 1818              	.L91:
 726:GFX_Library.c ****     for(; y<=y2; y++) {
 1819              		.loc 1 726 0 discriminator 1
 1820 014e 029B     		ldr	r3, [sp, #8]
 1821 0150 019A     		ldr	r2, [sp, #4]
 1822 0152 9342     		cmp	r3, r2
 1823 0154 26DC     		bgt	.L76
 727:GFX_Library.c ****         a   = x1 + sa / dy12;
 1824              		.loc 1 727 0
 1825 0156 0D99     		ldr	r1, [sp, #52]
 1826 0158 0398     		ldr	r0, [sp, #12]
 1827 015a FFF7FEFF 		bl	__aeabi_idiv
 1828              	.LVL236:
ARM GAS  C:\Users\PC\AppData\Local\Temp\ccF7GaWd.s 			page 47


 1829 015e 3018     		adds	r0, r6, r0
 728:GFX_Library.c ****         b   = x0 + sb / dy02;
 1830              		.loc 1 728 0
 1831 0160 0999     		ldr	r1, [sp, #36]
 727:GFX_Library.c ****         a   = x1 + sa / dy12;
 1832              		.loc 1 727 0
 1833 0162 04B2     		sxth	r4, r0
 1834              	.LVL237:
 1835              		.loc 1 728 0
 1836 0164 2800     		movs	r0, r5
 1837 0166 FFF7FEFF 		bl	__aeabi_idiv
 1838              	.LVL238:
 729:GFX_Library.c ****         sa += dx12;
 1839              		.loc 1 729 0
 1840 016a 0A99     		ldr	r1, [sp, #40]
 1841 016c 039B     		ldr	r3, [sp, #12]
 1842 016e 8C46     		mov	ip, r1
 1843 0170 6344     		add	r3, r3, ip
 728:GFX_Library.c ****         b   = x0 + sb / dy02;
 1844              		.loc 1 728 0
 1845 0172 3818     		adds	r0, r7, r0
 1846              		.loc 1 729 0
 1847 0174 0393     		str	r3, [sp, #12]
 1848              	.LVL239:
 730:GFX_Library.c ****         sb += dx02;
 1849              		.loc 1 730 0
 1850 0176 069B     		ldr	r3, [sp, #24]
 728:GFX_Library.c ****         b   = x0 + sb / dy02;
 1851              		.loc 1 728 0
 1852 0178 02B2     		sxth	r2, r0
 1853              	.LVL240:
 1854              		.loc 1 730 0
 1855 017a ED18     		adds	r5, r5, r3
 1856              	.LVL241:
 731:GFX_Library.c ****         /* longhand:
 732:GFX_Library.c ****         a = x1 + (x2 - x1) * (y - y1) / (y2 - y1);
 733:GFX_Library.c ****         b = x0 + (x2 - x0) * (y - y0) / (y2 - y0);
 734:GFX_Library.c ****         */
 735:GFX_Library.c ****         if(a > b) _swap_int16_t(a,b);
 1857              		.loc 1 735 0
 1858 017c 9442     		cmp	r4, r2
 1859 017e 02DD     		ble	.L92
 1860 0180 2300     		movs	r3, r4
 1861 0182 1400     		movs	r4, r2
 1862              	.LVL242:
 1863 0184 1A00     		movs	r2, r3
 1864              	.LVL243:
 1865              	.L92:
 736:GFX_Library.c ****         display_drawHLine(a, y, b-a+1, color);
 1866              		.loc 1 736 0
 1867 0186 6B46     		mov	r3, sp
 1868 0188 6946     		mov	r1, sp
 1869 018a E0B2     		uxtb	r0, r4
 1870 018c 0132     		adds	r2, r2, #1
 1871              	.LVL244:
 1872 018e 121A     		subs	r2, r2, r0
 1873 0190 1B7F     		ldrb	r3, [r3, #28]
ARM GAS  C:\Users\PC\AppData\Local\Temp\ccF7GaWd.s 			page 48


 1874 0192 D2B2     		uxtb	r2, r2
 1875 0194 097A     		ldrb	r1, [r1, #8]
 1876 0196 FFF7FEFF 		bl	drawHLine
 1877              	.LVL245:
 1878 019a 029B     		ldr	r3, [sp, #8]
 1879 019c 0133     		adds	r3, r3, #1
 1880 019e 1BB2     		sxth	r3, r3
 1881 01a0 0293     		str	r3, [sp, #8]
 1882              	.LVL246:
 1883 01a2 D4E7     		b	.L91
 1884              	.LVL247:
 1885              	.L76:
 737:GFX_Library.c ****     }
 738:GFX_Library.c **** }
 1886              		.loc 1 738 0
 1887 01a4 0FB0     		add	sp, sp, #60
 1888              		@ sp needed
 1889              	.LVL248:
 1890              	.LVL249:
 1891 01a6 F0BD     		pop	{r4, r5, r6, r7, pc}
 1892              		.cfi_endproc
 1893              	.LFE43:
 1894              		.size	display_fillTriangle, .-display_fillTriangle
 1895              		.section	.text.display_print,"ax",%progbits
 1896              		.align	1
 1897              		.global	display_print
 1898              		.code	16
 1899              		.thumb_func
 1900              		.type	display_print, %function
 1901              	display_print:
 1902              	.LFB44:
 739:GFX_Library.c **** 
 740:GFX_Library.c **** /**************************************************************************/
 741:GFX_Library.c **** /*!
 742:GFX_Library.c ****     @brief  Print one byte/character of data
 743:GFX_Library.c ****     @param  c  The 8-bit ascii character to write
 744:GFX_Library.c **** */
 745:GFX_Library.c **** /**************************************************************************/
 746:GFX_Library.c **** void display_print(uint8_t c) {
 1903              		.loc 1 746 0
 1904              		.cfi_startproc
 1905              		@ args = 0, pretend = 0, frame = 8
 1906              		@ frame_needed = 0, uses_anonymous_args = 0
 1907              	.LVL250:
 1908 0000 F0B5     		push	{r4, r5, r6, r7, lr}
 1909              		.cfi_def_cfa_offset 20
 1910              		.cfi_offset 4, -20
 1911              		.cfi_offset 5, -16
 1912              		.cfi_offset 6, -12
 1913              		.cfi_offset 7, -8
 1914              		.cfi_offset 14, -4
 1915 0002 85B0     		sub	sp, sp, #20
 1916              		.cfi_def_cfa_offset 40
 747:GFX_Library.c **** 
 748:GFX_Library.c ****   if (c == ' ' && cursor_x == 0 && wrap)
 1917              		.loc 1 748 0
 1918 0004 2028     		cmp	r0, #32
ARM GAS  C:\Users\PC\AppData\Local\Temp\ccF7GaWd.s 			page 49


 1919 0006 10D1     		bne	.L101
 1920              		.loc 1 748 0 is_stmt 0 discriminator 1
 1921 0008 5D4B     		ldr	r3, .L126
 1922 000a 0022     		movs	r2, #0
 1923 000c 9B5E     		ldrsh	r3, [r3, r2]
 1924 000e 002B     		cmp	r3, #0
 1925 0010 04D1     		bne	.L102
 1926              		.loc 1 748 0 discriminator 2
 1927 0012 5C4B     		ldr	r3, .L126+4
 1928 0014 1B78     		ldrb	r3, [r3]
 1929 0016 002B     		cmp	r3, #0
 1930 0018 00D0     		beq	.LCB2048
 1931 001a AEE0     		b	.L100	@long jump
 1932              	.LCB2048:
 1933              	.L102:
 1934 001c 0523     		movs	r3, #5
 1935 001e 5843     		muls	r0, r3
 1936              	.LVL251:
 1937 0020 594B     		ldr	r3, .L126+8
 746:GFX_Library.c **** 
 1938              		.loc 1 746 0 is_stmt 1
 1939 0022 0025     		movs	r5, #0
 1940 0024 1B18     		adds	r3, r3, r0
 1941 0026 0393     		str	r3, [sp, #12]
 1942 0028 1FE0     		b	.L104
 1943              	.LVL252:
 1944              	.L101:
 749:GFX_Library.c ****     return;
 750:GFX_Library.c ****   if(c == '\r') {
 1945              		.loc 1 750 0
 1946 002a 0D28     		cmp	r0, #13
 1947 002c 03D1     		bne	.L106
 751:GFX_Library.c ****     cursor_x = 0;
 1948              		.loc 1 751 0
 1949 002e 0022     		movs	r2, #0
 1950 0030 534B     		ldr	r3, .L126
 1951 0032 1A80     		strh	r2, [r3]
 752:GFX_Library.c ****     return;
 1952              		.loc 1 752 0
 1953 0034 A1E0     		b	.L100
 1954              	.L106:
 753:GFX_Library.c ****   }
 754:GFX_Library.c ****   if(c == '\n') {
 1955              		.loc 1 754 0
 1956 0036 0A28     		cmp	r0, #10
 1957 0038 F0D1     		bne	.L102
 755:GFX_Library.c ****     cursor_y += textsize * 8;
 1958              		.loc 1 755 0
 1959 003a 524B     		ldr	r3, .L126+4
 1960 003c 5049     		ldr	r1, .L126
 1961 003e 5B78     		ldrb	r3, [r3, #1]
 1962 0040 4A88     		ldrh	r2, [r1, #2]
 1963 0042 DB00     		lsls	r3, r3, #3
 1964 0044 9B18     		adds	r3, r3, r2
 1965 0046 4B80     		strh	r3, [r1, #2]
 756:GFX_Library.c ****     return;
 1966              		.loc 1 756 0
ARM GAS  C:\Users\PC\AppData\Local\Temp\ccF7GaWd.s 			page 50


 1967 0048 97E0     		b	.L100
 1968              	.LVL253:
 1969              	.L112:
 1970              	.LBB33:
 1971              	.LBB34:
 1972              	.LBB35:
 1973              	.LBB36:
 1974              	.LBB37:
 757:GFX_Library.c ****   }
 758:GFX_Library.c **** 
 759:GFX_Library.c ****   for(uint8_t i = 0; i < 5; i++ ) {
 760:GFX_Library.c ****     uint8_t line = font[c][i];
 761:GFX_Library.c ****     for(uint8_t j = 0; j < 8; j++, line >>= 1) {
 762:GFX_Library.c ****       if(line & 1) {
 1975              		.loc 1 762 0
 1976 004a 0123     		movs	r3, #1
 1977 004c 1F42     		tst	r7, r3
 1978 004e 11D1     		bne	.L123
 763:GFX_Library.c ****         if(textsize == 1)
 764:GFX_Library.c ****           display_drawPixel(cursor_x + i, cursor_y + j, textcolor);
 765:GFX_Library.c ****         else
 766:GFX_Library.c ****           display_fillRect(cursor_x + i * textsize, cursor_y + j * textsize, textsize, textsize, te
 767:GFX_Library.c ****       } 
 768:GFX_Library.c ****       else 
 769:GFX_Library.c ****         if(textbgcolor != textcolor) {
 1979              		.loc 1 769 0
 1980 0050 4C4B     		ldr	r3, .L126+4
 1981 0052 9A88     		ldrh	r2, [r3, #4]
 1982 0054 5B88     		ldrh	r3, [r3, #2]
 1983 0056 9342     		cmp	r3, r2
 1984 0058 28D1     		bne	.L124
 1985              	.L110:
 761:GFX_Library.c ****       if(line & 1) {
 1986              		.loc 1 761 0
 1987 005a 0136     		adds	r6, r6, #1
 1988              	.LVL254:
 1989 005c F6B2     		uxtb	r6, r6
 1990              	.LVL255:
 1991 005e 7F08     		lsrs	r7, r7, #1
 1992              	.LVL256:
 1993 0060 082E     		cmp	r6, #8
 1994 0062 F2D1     		bne	.L112
 1995              	.LVL257:
 1996 0064 0135     		adds	r5, r5, #1
 1997              	.LVL258:
 1998              	.LBE37:
 1999              	.LBE36:
 759:GFX_Library.c ****     uint8_t line = font[c][i];
 2000              		.loc 1 759 0
 2001 0066 052D     		cmp	r5, #5
 2002 0068 41D0     		beq	.L125
 2003              	.LVL259:
 2004              	.L104:
 2005              	.LBB39:
 760:GFX_Library.c ****     for(uint8_t j = 0; j < 8; j++, line >>= 1) {
 2006              		.loc 1 760 0
 2007 006a 039B     		ldr	r3, [sp, #12]
ARM GAS  C:\Users\PC\AppData\Local\Temp\ccF7GaWd.s 			page 51


 2008 006c ECB2     		uxtb	r4, r5
 2009              	.LVL260:
 2010 006e 5F5D     		ldrb	r7, [r3, r5]
 2011              	.LVL261:
 2012              	.LBB38:
 761:GFX_Library.c ****       if(line & 1) {
 2013              		.loc 1 761 0
 2014 0070 0026     		movs	r6, #0
 2015 0072 EAE7     		b	.L112
 2016              	.LVL262:
 2017              	.L123:
 763:GFX_Library.c ****           display_drawPixel(cursor_x + i, cursor_y + j, textcolor);
 2018              		.loc 1 763 0
 2019 0074 434B     		ldr	r3, .L126+4
 2020 0076 4248     		ldr	r0, .L126
 2021 0078 5A78     		ldrb	r2, [r3, #1]
 2022 007a 5B88     		ldrh	r3, [r3, #2]
 2023 007c 012A     		cmp	r2, #1
 2024 007e 05D1     		bne	.L109
 764:GFX_Library.c ****         else
 2025              		.loc 1 764 0
 2026 0080 4188     		ldrh	r1, [r0, #2]
 2027 0082 DAB2     		uxtb	r2, r3
 2028 0084 7118     		adds	r1, r6, r1
 2029 0086 C9B2     		uxtb	r1, r1
 2030 0088 0088     		ldrh	r0, [r0]
 2031 008a 1BE0     		b	.L121
 2032              	.L109:
 766:GFX_Library.c ****       } 
 2033              		.loc 1 766 0
 2034 008c 4188     		ldrh	r1, [r0, #2]
 2035 008e 0088     		ldrh	r0, [r0]
 2036 0090 8C46     		mov	ip, r1
 2037 0092 3100     		movs	r1, r6
 2038 0094 5143     		muls	r1, r2
 2039 0096 6144     		add	r1, r1, ip
 2040 0098 8446     		mov	ip, r0
 2041 009a 2000     		movs	r0, r4
 2042 009c 5043     		muls	r0, r2
 2043 009e DBB2     		uxtb	r3, r3
 2044 00a0 6044     		add	r0, r0, ip
 2045 00a2 0093     		str	r3, [sp]
 2046 00a4 C9B2     		uxtb	r1, r1
 2047 00a6 C0B2     		uxtb	r0, r0
 2048 00a8 1300     		movs	r3, r2
 2049 00aa 1DE0     		b	.L122
 2050              	.L124:
 770:GFX_Library.c ****           if(textsize == 1)
 2051              		.loc 1 770 0
 2052 00ac 354B     		ldr	r3, .L126+4
 2053 00ae D2B2     		uxtb	r2, r2
 2054 00b0 5B78     		ldrb	r3, [r3, #1]
 2055 00b2 9C46     		mov	ip, r3
 2056 00b4 6146     		mov	r1, ip
 2057 00b6 324B     		ldr	r3, .L126
 2058 00b8 0129     		cmp	r1, #1
 2059 00ba 08D1     		bne	.L111
ARM GAS  C:\Users\PC\AppData\Local\Temp\ccF7GaWd.s 			page 52


 771:GFX_Library.c ****             display_drawPixel(cursor_x + i, cursor_y + j, textbgcolor);
 2060              		.loc 1 771 0
 2061 00bc 5988     		ldrh	r1, [r3, #2]
 2062 00be 1888     		ldrh	r0, [r3]
 2063 00c0 7118     		adds	r1, r6, r1
 2064 00c2 C9B2     		uxtb	r1, r1
 2065              	.L121:
 2066 00c4 2018     		adds	r0, r4, r0
 2067 00c6 C0B2     		uxtb	r0, r0
 2068 00c8 FFF7FEFF 		bl	drawPixel
 2069              	.LVL263:
 2070 00cc C5E7     		b	.L110
 2071              	.L111:
 772:GFX_Library.c ****           else
 773:GFX_Library.c ****             display_fillRect(cursor_x + i * textsize, cursor_y + j * textsize, textsize, textsize, 
 2072              		.loc 1 773 0
 2073 00ce 6146     		mov	r1, ip
 2074 00d0 7143     		muls	r1, r6
 2075 00d2 5888     		ldrh	r0, [r3, #2]
 2076 00d4 4118     		adds	r1, r0, r1
 2077 00d6 1888     		ldrh	r0, [r3]
 2078 00d8 6346     		mov	r3, ip
 2079 00da 6343     		muls	r3, r4
 2080 00dc 0092     		str	r2, [sp]
 2081 00de C018     		adds	r0, r0, r3
 2082 00e0 6246     		mov	r2, ip
 2083 00e2 6346     		mov	r3, ip
 2084 00e4 C9B2     		uxtb	r1, r1
 2085 00e6 C0B2     		uxtb	r0, r0
 2086              	.L122:
 2087 00e8 FFF7FEFF 		bl	fillRect
 2088              	.LVL264:
 2089 00ec B5E7     		b	.L110
 2090              	.LVL265:
 2091              	.L125:
 2092              	.LBE38:
 2093              	.LBE39:
 2094              	.LBE35:
 774:GFX_Library.c ****         }
 775:GFX_Library.c ****     }
 776:GFX_Library.c ****   }
 777:GFX_Library.c **** 
 778:GFX_Library.c ****   if(textbgcolor != textcolor) {  // If opaque, draw vertical line for last column
 2095              		.loc 1 778 0
 2096 00ee 254F     		ldr	r7, .L126+4
 2097              	.LVL266:
 2098 00f0 234C     		ldr	r4, .L126
 2099              	.LVL267:
 2100 00f2 BB88     		ldrh	r3, [r7, #4]
 2101 00f4 7A88     		ldrh	r2, [r7, #2]
 2102 00f6 9A42     		cmp	r2, r3
 2103 00f8 16D0     		beq	.L113
 779:GFX_Library.c ****     if(textsize == 1)  display_drawVLine(cursor_x + 5, cursor_y, 8, textbgcolor);
 2104              		.loc 1 779 0
 2105 00fa 7A78     		ldrb	r2, [r7, #1]
 2106 00fc DBB2     		uxtb	r3, r3
 2107 00fe 012A     		cmp	r2, #1
ARM GAS  C:\Users\PC\AppData\Local\Temp\ccF7GaWd.s 			page 53


 2108 0100 07D1     		bne	.L114
 2109 0102 2088     		ldrh	r0, [r4]
 2110 0104 A178     		ldrb	r1, [r4, #2]
 2111 0106 0530     		adds	r0, r0, #5
 2112 0108 C0B2     		uxtb	r0, r0
 2113 010a 3200     		movs	r2, r6
 2114 010c FFF7FEFF 		bl	drawVLine
 2115              	.LVL268:
 2116 0110 0AE0     		b	.L113
 2117              	.L114:
 780:GFX_Library.c ****     else               display_fillRect(cursor_x + 5 * textsize, cursor_y, textsize, 8 * textsize, 
 2118              		.loc 1 780 0
 2119 0112 5543     		muls	r5, r2
 2120 0114 2088     		ldrh	r0, [r4]
 2121 0116 D600     		lsls	r6, r2, #3
 2122              	.LVL269:
 2123 0118 F6B2     		uxtb	r6, r6
 2124 011a 4519     		adds	r5, r0, r5
 2125 011c A178     		ldrb	r1, [r4, #2]
 2126 011e E8B2     		uxtb	r0, r5
 2127 0120 0093     		str	r3, [sp]
 2128 0122 3300     		movs	r3, r6
 2129 0124 FFF7FEFF 		bl	fillRect
 2130              	.LVL270:
 2131              	.L113:
 781:GFX_Library.c ****   }
 782:GFX_Library.c **** 
 783:GFX_Library.c ****   cursor_x += textsize * 6;
 2132              		.loc 1 783 0
 2133 0128 0621     		movs	r1, #6
 2134 012a 0D00     		movs	r5, r1
 2135 012c 154B     		ldr	r3, .L126+4
 2136 012e 2088     		ldrh	r0, [r4]
 2137 0130 5B78     		ldrb	r3, [r3, #1]
 2138 0132 9AB2     		uxth	r2, r3
 2139 0134 5543     		muls	r5, r2
 784:GFX_Library.c **** 
 785:GFX_Library.c ****   if( cursor_x > ((uint16_t)display_width + textsize * 6) )
 2140              		.loc 1 785 0
 2141 0136 5943     		muls	r1, r3
 783:GFX_Library.c **** 
 2142              		.loc 1 783 0
 2143 0138 2818     		adds	r0, r5, r0
 2144              		.loc 1 785 0
 2145 013a 144D     		ldr	r5, .L126+12
 783:GFX_Library.c **** 
 2146              		.loc 1 783 0
 2147 013c 00B2     		sxth	r0, r0
 2148              		.loc 1 785 0
 2149 013e 2D78     		ldrb	r5, [r5]
 783:GFX_Library.c **** 
 2150              		.loc 1 783 0
 2151 0140 2080     		strh	r0, [r4]
 2152              		.loc 1 785 0
 2153 0142 4919     		adds	r1, r1, r5
 2154 0144 8842     		cmp	r0, r1
 2155 0146 00DD     		ble	.L115
ARM GAS  C:\Users\PC\AppData\Local\Temp\ccF7GaWd.s 			page 54


 786:GFX_Library.c ****     cursor_x = display_width;
 2156              		.loc 1 786 0
 2157 0148 2580     		strh	r5, [r4]
 2158              	.L115:
 787:GFX_Library.c **** 
 788:GFX_Library.c ****   if (wrap && (cursor_x + (textsize * 5)) > display_width)
 2159              		.loc 1 788 0
 2160 014a 3978     		ldrb	r1, [r7]
 2161 014c 0029     		cmp	r1, #0
 2162 014e 14D0     		beq	.L100
 2163 0150 0021     		movs	r1, #0
 2164 0152 605E     		ldrsh	r0, [r4, r1]
 2165 0154 0521     		movs	r1, #5
 2166 0156 5943     		muls	r1, r3
 2167 0158 4118     		adds	r1, r0, r1
 2168 015a 8D42     		cmp	r5, r1
 2169 015c 0DDA     		bge	.L100
 789:GFX_Library.c ****   {
 790:GFX_Library.c ****     cursor_x = 0;
 2170              		.loc 1 790 0
 2171 015e 0021     		movs	r1, #0
 2172 0160 2180     		strh	r1, [r4]
 791:GFX_Library.c ****     cursor_y += textsize * 8;
 2173              		.loc 1 791 0
 2174 0162 6188     		ldrh	r1, [r4, #2]
 2175 0164 D200     		lsls	r2, r2, #3
 2176 0166 5218     		adds	r2, r2, r1
 792:GFX_Library.c ****     if( cursor_y > ((uint16_t)display_height + textsize * 8) )
 2177              		.loc 1 792 0
 2178 0168 0949     		ldr	r1, .L126+16
 2179 016a DB00     		lsls	r3, r3, #3
 2180 016c 0978     		ldrb	r1, [r1]
 791:GFX_Library.c ****     cursor_y += textsize * 8;
 2181              		.loc 1 791 0
 2182 016e 12B2     		sxth	r2, r2
 2183              		.loc 1 792 0
 2184 0170 5B18     		adds	r3, r3, r1
 791:GFX_Library.c ****     cursor_y += textsize * 8;
 2185              		.loc 1 791 0
 2186 0172 6280     		strh	r2, [r4, #2]
 2187              		.loc 1 792 0
 2188 0174 9A42     		cmp	r2, r3
 2189 0176 00DD     		ble	.L100
 793:GFX_Library.c ****       cursor_y = display_height;
 2190              		.loc 1 793 0
 2191 0178 6180     		strh	r1, [r4, #2]
 2192              	.L100:
 2193              	.LBE34:
 2194              	.LBE33:
 794:GFX_Library.c ****   }
 795:GFX_Library.c **** }
 2195              		.loc 1 795 0
 2196 017a 05B0     		add	sp, sp, #20
 2197              		@ sp needed
 2198 017c F0BD     		pop	{r4, r5, r6, r7, pc}
 2199              	.L127:
 2200 017e C046     		.align	2
ARM GAS  C:\Users\PC\AppData\Local\Temp\ccF7GaWd.s 			page 55


 2201              	.L126:
 2202 0180 00000000 		.word	.LANCHOR0
 2203 0184 00000000 		.word	.LANCHOR1
 2204 0188 00000000 		.word	.LANCHOR2
 2205 018c 00000000 		.word	_width
 2206 0190 00000000 		.word	_height
 2207              		.cfi_endproc
 2208              	.LFE44:
 2209              		.size	display_print, .-display_print
 2210              		.section	.text.display_string,"ax",%progbits
 2211              		.align	1
 2212              		.global	display_string
 2213              		.code	16
 2214              		.thumb_func
 2215              		.type	display_string, %function
 2216              	display_string:
 2217              	.LFB45:
 796:GFX_Library.c **** 
 797:GFX_Library.c **** void display_string(char *str) {
 2218              		.loc 1 797 0
 2219              		.cfi_startproc
 2220              		@ args = 0, pretend = 0, frame = 0
 2221              		@ frame_needed = 0, uses_anonymous_args = 0
 2222              	.LVL271:
 2223 0000 10B5     		push	{r4, lr}
 2224              		.cfi_def_cfa_offset 8
 2225              		.cfi_offset 4, -8
 2226              		.cfi_offset 14, -4
 2227 0002 0400     		movs	r4, r0
 2228              	.LVL272:
 2229              	.L129:
 798:GFX_Library.c ****     while(*str != 0) {
 2230              		.loc 1 798 0
 2231 0004 2078     		ldrb	r0, [r4]
 2232 0006 0028     		cmp	r0, #0
 2233 0008 03D0     		beq	.L131
 799:GFX_Library.c ****         display_print(*str);
 2234              		.loc 1 799 0
 2235 000a FFF7FEFF 		bl	display_print
 2236              	.LVL273:
 800:GFX_Library.c ****         str++;
 2237              		.loc 1 800 0
 2238 000e 0134     		adds	r4, r4, #1
 2239              	.LVL274:
 2240 0010 F8E7     		b	.L129
 2241              	.L131:
 801:GFX_Library.c ****     }
 802:GFX_Library.c **** }
 2242              		.loc 1 802 0
 2243              		@ sp needed
 2244              	.LVL275:
 2245 0012 10BD     		pop	{r4, pc}
 2246              		.cfi_endproc
 2247              	.LFE45:
 2248              		.size	display_string, .-display_string
 2249              		.section	.text.display_customChar,"ax",%progbits
 2250              		.align	1
ARM GAS  C:\Users\PC\AppData\Local\Temp\ccF7GaWd.s 			page 56


 2251              		.global	display_customChar
 2252              		.code	16
 2253              		.thumb_func
 2254              		.type	display_customChar, %function
 2255              	display_customChar:
 2256              	.LFB46:
 803:GFX_Library.c **** 
 804:GFX_Library.c **** // print custom char (dimension: 7x5 or 8x5 pixel)
 805:GFX_Library.c **** void display_customChar(const uint8_t *c) {
 2257              		.loc 1 805 0
 2258              		.cfi_startproc
 2259              		@ args = 0, pretend = 0, frame = 8
 2260              		@ frame_needed = 0, uses_anonymous_args = 0
 2261              	.LVL276:
 2262 0000 F0B5     		push	{r4, r5, r6, r7, lr}
 2263              		.cfi_def_cfa_offset 20
 2264              		.cfi_offset 4, -20
 2265              		.cfi_offset 5, -16
 2266              		.cfi_offset 6, -12
 2267              		.cfi_offset 7, -8
 2268              		.cfi_offset 14, -4
 2269 0002 0025     		movs	r5, #0
 2270 0004 85B0     		sub	sp, sp, #20
 2271              		.cfi_def_cfa_offset 40
 2272              		.loc 1 805 0
 2273 0006 0390     		str	r0, [sp, #12]
 2274              	.LVL277:
 2275              	.L138:
 2276              	.LBB40:
 2277              	.LBB41:
 2278              	.LBB42:
 806:GFX_Library.c **** 
 807:GFX_Library.c ****   for(uint8_t i = 0; i < 5; i++ ) {
 808:GFX_Library.c ****     uint8_t line = c[i];
 809:GFX_Library.c ****     for(uint8_t j = 0; j < 8; j++, line >>= 1) {
 2279              		.loc 1 809 0
 2280 0008 0026     		movs	r6, #0
 2281              	.LBE42:
 808:GFX_Library.c ****     for(uint8_t j = 0; j < 8; j++, line >>= 1) {
 2282              		.loc 1 808 0
 2283 000a 039B     		ldr	r3, [sp, #12]
 2284 000c ECB2     		uxtb	r4, r5
 2285              	.LVL278:
 2286 000e 5F5D     		ldrb	r7, [r3, r5]
 2287              	.LVL279:
 2288              	.L137:
 2289              	.LBB43:
 810:GFX_Library.c ****       if(line & 1) {
 2290              		.loc 1 810 0
 2291 0010 0123     		movs	r3, #1
 2292 0012 1F42     		tst	r7, r3
 2293 0014 1BD0     		beq	.L133
 811:GFX_Library.c ****         if(textsize == 1)
 2294              		.loc 1 811 0
 2295 0016 484B     		ldr	r3, .L149
 2296 0018 4848     		ldr	r0, .L149+4
 2297 001a 5A78     		ldrb	r2, [r3, #1]
ARM GAS  C:\Users\PC\AppData\Local\Temp\ccF7GaWd.s 			page 57


 2298 001c 5B88     		ldrh	r3, [r3, #2]
 2299 001e 012A     		cmp	r2, #1
 2300 0020 05D1     		bne	.L134
 812:GFX_Library.c ****           display_drawPixel(cursor_x + i, cursor_y + j, textcolor);
 2301              		.loc 1 812 0
 2302 0022 4188     		ldrh	r1, [r0, #2]
 2303 0024 DAB2     		uxtb	r2, r3
 2304 0026 7118     		adds	r1, r6, r1
 2305 0028 C9B2     		uxtb	r1, r1
 2306 002a 0088     		ldrh	r0, [r0]
 2307 002c 20E0     		b	.L147
 2308              	.L134:
 813:GFX_Library.c ****         else
 814:GFX_Library.c ****           display_fillRect(cursor_x + i * textsize, cursor_y + j * textsize, textsize, textsize, te
 2309              		.loc 1 814 0
 2310 002e 4188     		ldrh	r1, [r0, #2]
 2311 0030 0088     		ldrh	r0, [r0]
 2312 0032 8C46     		mov	ip, r1
 2313 0034 3100     		movs	r1, r6
 2314 0036 5143     		muls	r1, r2
 2315 0038 6144     		add	r1, r1, ip
 2316 003a 8446     		mov	ip, r0
 2317 003c 2000     		movs	r0, r4
 2318 003e 5043     		muls	r0, r2
 2319 0040 DBB2     		uxtb	r3, r3
 2320 0042 6044     		add	r0, r0, ip
 2321 0044 0093     		str	r3, [sp]
 2322 0046 C9B2     		uxtb	r1, r1
 2323 0048 C0B2     		uxtb	r0, r0
 2324 004a 1300     		movs	r3, r2
 2325 004c 22E0     		b	.L148
 2326              	.L133:
 815:GFX_Library.c ****       } 
 816:GFX_Library.c ****       else 
 817:GFX_Library.c ****         if(textbgcolor != textcolor) {
 2327              		.loc 1 817 0
 2328 004e 3A4B     		ldr	r3, .L149
 2329 0050 9A88     		ldrh	r2, [r3, #4]
 2330 0052 5B88     		ldrh	r3, [r3, #2]
 2331 0054 9342     		cmp	r3, r2
 2332 0056 1FD0     		beq	.L135
 818:GFX_Library.c ****           if(textsize == 1)
 2333              		.loc 1 818 0
 2334 0058 374B     		ldr	r3, .L149
 2335 005a D2B2     		uxtb	r2, r2
 2336 005c 5B78     		ldrb	r3, [r3, #1]
 2337 005e 9C46     		mov	ip, r3
 2338 0060 6146     		mov	r1, ip
 2339 0062 364B     		ldr	r3, .L149+4
 2340 0064 0129     		cmp	r1, #1
 2341 0066 08D1     		bne	.L136
 819:GFX_Library.c ****             display_drawPixel(cursor_x + i, cursor_y + j, textbgcolor);
 2342              		.loc 1 819 0
 2343 0068 5988     		ldrh	r1, [r3, #2]
 2344 006a 1888     		ldrh	r0, [r3]
 2345 006c 7118     		adds	r1, r6, r1
 2346 006e C9B2     		uxtb	r1, r1
ARM GAS  C:\Users\PC\AppData\Local\Temp\ccF7GaWd.s 			page 58


 2347              	.L147:
 2348 0070 2018     		adds	r0, r4, r0
 2349 0072 C0B2     		uxtb	r0, r0
 2350 0074 FFF7FEFF 		bl	drawPixel
 2351              	.LVL280:
 2352 0078 0EE0     		b	.L135
 2353              	.L136:
 820:GFX_Library.c ****           else
 821:GFX_Library.c ****             display_fillRect(cursor_x + i * textsize, cursor_y + j * textsize, textsize, textsize, 
 2354              		.loc 1 821 0
 2355 007a 6146     		mov	r1, ip
 2356 007c 7143     		muls	r1, r6
 2357 007e 5888     		ldrh	r0, [r3, #2]
 2358 0080 4118     		adds	r1, r0, r1
 2359 0082 1888     		ldrh	r0, [r3]
 2360 0084 6346     		mov	r3, ip
 2361 0086 6343     		muls	r3, r4
 2362 0088 0092     		str	r2, [sp]
 2363 008a C018     		adds	r0, r0, r3
 2364 008c 6246     		mov	r2, ip
 2365 008e 6346     		mov	r3, ip
 2366 0090 C9B2     		uxtb	r1, r1
 2367 0092 C0B2     		uxtb	r0, r0
 2368              	.L148:
 2369 0094 FFF7FEFF 		bl	fillRect
 2370              	.LVL281:
 2371              	.L135:
 809:GFX_Library.c ****       if(line & 1) {
 2372              		.loc 1 809 0 discriminator 2
 2373 0098 0136     		adds	r6, r6, #1
 2374              	.LVL282:
 2375 009a F6B2     		uxtb	r6, r6
 2376              	.LVL283:
 2377 009c 7F08     		lsrs	r7, r7, #1
 2378              	.LVL284:
 2379 009e 082E     		cmp	r6, #8
 2380 00a0 B6D1     		bne	.L137
 2381              	.LVL285:
 2382 00a2 0135     		adds	r5, r5, #1
 2383              	.LVL286:
 2384              	.LBE43:
 2385              	.LBE41:
 807:GFX_Library.c ****     uint8_t line = c[i];
 2386              		.loc 1 807 0 discriminator 2
 2387 00a4 052D     		cmp	r5, #5
 2388 00a6 AFD1     		bne	.L138
 2389              	.LBE40:
 822:GFX_Library.c ****         }
 823:GFX_Library.c ****     }
 824:GFX_Library.c ****   }
 825:GFX_Library.c **** 
 826:GFX_Library.c ****   if(textbgcolor != textcolor) {  // If opaque, draw vertical line for last column
 2390              		.loc 1 826 0
 2391 00a8 234F     		ldr	r7, .L149
 2392              	.LVL287:
 2393 00aa 244C     		ldr	r4, .L149+4
 2394              	.LVL288:
ARM GAS  C:\Users\PC\AppData\Local\Temp\ccF7GaWd.s 			page 59


 2395 00ac BB88     		ldrh	r3, [r7, #4]
 2396 00ae 7A88     		ldrh	r2, [r7, #2]
 2397 00b0 9A42     		cmp	r2, r3
 2398 00b2 16D0     		beq	.L139
 827:GFX_Library.c ****     if(textsize == 1)  display_drawVLine(cursor_x + 5, cursor_y, 8, textbgcolor);
 2399              		.loc 1 827 0
 2400 00b4 7A78     		ldrb	r2, [r7, #1]
 2401 00b6 DBB2     		uxtb	r3, r3
 2402 00b8 012A     		cmp	r2, #1
 2403 00ba 07D1     		bne	.L140
 2404              		.loc 1 827 0 is_stmt 0 discriminator 1
 2405 00bc 2088     		ldrh	r0, [r4]
 2406 00be A178     		ldrb	r1, [r4, #2]
 2407 00c0 0530     		adds	r0, r0, #5
 2408 00c2 C0B2     		uxtb	r0, r0
 2409 00c4 3200     		movs	r2, r6
 2410 00c6 FFF7FEFF 		bl	drawVLine
 2411              	.LVL289:
 2412 00ca 0AE0     		b	.L139
 2413              	.L140:
 828:GFX_Library.c ****     else               display_fillRect(cursor_x + 5 * textsize, cursor_y, textsize, 8 * textsize, 
 2414              		.loc 1 828 0 is_stmt 1
 2415 00cc 5543     		muls	r5, r2
 2416 00ce 2088     		ldrh	r0, [r4]
 2417 00d0 D600     		lsls	r6, r2, #3
 2418              	.LVL290:
 2419 00d2 F6B2     		uxtb	r6, r6
 2420 00d4 4519     		adds	r5, r0, r5
 2421 00d6 A178     		ldrb	r1, [r4, #2]
 2422 00d8 E8B2     		uxtb	r0, r5
 2423 00da 0093     		str	r3, [sp]
 2424 00dc 3300     		movs	r3, r6
 2425 00de FFF7FEFF 		bl	fillRect
 2426              	.LVL291:
 2427              	.L139:
 829:GFX_Library.c ****   }
 830:GFX_Library.c **** 
 831:GFX_Library.c ****   cursor_x += textsize * 6;
 2428              		.loc 1 831 0
 2429 00e2 0621     		movs	r1, #6
 2430 00e4 0D00     		movs	r5, r1
 2431 00e6 144B     		ldr	r3, .L149
 2432 00e8 2088     		ldrh	r0, [r4]
 2433 00ea 5B78     		ldrb	r3, [r3, #1]
 2434 00ec 9AB2     		uxth	r2, r3
 2435 00ee 5543     		muls	r5, r2
 832:GFX_Library.c **** 
 833:GFX_Library.c ****   if( cursor_x > ((uint16_t)display_width + textsize * 6) )
 2436              		.loc 1 833 0
 2437 00f0 5943     		muls	r1, r3
 831:GFX_Library.c **** 
 2438              		.loc 1 831 0
 2439 00f2 2818     		adds	r0, r5, r0
 2440              		.loc 1 833 0
 2441 00f4 124D     		ldr	r5, .L149+8
 831:GFX_Library.c **** 
 2442              		.loc 1 831 0
ARM GAS  C:\Users\PC\AppData\Local\Temp\ccF7GaWd.s 			page 60


 2443 00f6 00B2     		sxth	r0, r0
 2444              		.loc 1 833 0
 2445 00f8 2D78     		ldrb	r5, [r5]
 831:GFX_Library.c **** 
 2446              		.loc 1 831 0
 2447 00fa 2080     		strh	r0, [r4]
 2448              		.loc 1 833 0
 2449 00fc 4919     		adds	r1, r1, r5
 2450 00fe 8842     		cmp	r0, r1
 2451 0100 00DD     		ble	.L141
 834:GFX_Library.c ****     cursor_x = display_width;
 2452              		.loc 1 834 0
 2453 0102 2580     		strh	r5, [r4]
 2454              	.L141:
 835:GFX_Library.c **** 
 836:GFX_Library.c ****   if (wrap && (cursor_x + (textsize * 5)) > display_width)
 2455              		.loc 1 836 0
 2456 0104 3978     		ldrb	r1, [r7]
 2457 0106 0029     		cmp	r1, #0
 2458 0108 14D0     		beq	.L132
 2459              		.loc 1 836 0 is_stmt 0 discriminator 1
 2460 010a 0021     		movs	r1, #0
 2461 010c 605E     		ldrsh	r0, [r4, r1]
 2462 010e 0521     		movs	r1, #5
 2463 0110 5943     		muls	r1, r3
 2464 0112 4118     		adds	r1, r0, r1
 2465 0114 8D42     		cmp	r5, r1
 2466 0116 0DDA     		bge	.L132
 837:GFX_Library.c ****   {
 838:GFX_Library.c ****     cursor_x = 0;
 2467              		.loc 1 838 0 is_stmt 1
 2468 0118 0021     		movs	r1, #0
 2469 011a 2180     		strh	r1, [r4]
 839:GFX_Library.c ****     cursor_y += textsize * 8;
 2470              		.loc 1 839 0
 2471 011c 6188     		ldrh	r1, [r4, #2]
 2472 011e D200     		lsls	r2, r2, #3
 2473 0120 5218     		adds	r2, r2, r1
 840:GFX_Library.c ****     if( cursor_y > ((uint16_t)display_height + textsize * 8) )
 2474              		.loc 1 840 0
 2475 0122 0849     		ldr	r1, .L149+12
 2476 0124 DB00     		lsls	r3, r3, #3
 2477 0126 0978     		ldrb	r1, [r1]
 839:GFX_Library.c ****     cursor_y += textsize * 8;
 2478              		.loc 1 839 0
 2479 0128 12B2     		sxth	r2, r2
 2480              		.loc 1 840 0
 2481 012a 5B18     		adds	r3, r3, r1
 839:GFX_Library.c ****     cursor_y += textsize * 8;
 2482              		.loc 1 839 0
 2483 012c 6280     		strh	r2, [r4, #2]
 2484              		.loc 1 840 0
 2485 012e 9A42     		cmp	r2, r3
 2486 0130 00DD     		ble	.L132
 841:GFX_Library.c ****       cursor_y = display_height;
 2487              		.loc 1 841 0
 2488 0132 6180     		strh	r1, [r4, #2]
ARM GAS  C:\Users\PC\AppData\Local\Temp\ccF7GaWd.s 			page 61


 2489              	.L132:
 842:GFX_Library.c ****   }
 843:GFX_Library.c **** }
 2490              		.loc 1 843 0
 2491 0134 05B0     		add	sp, sp, #20
 2492              		@ sp needed
 2493 0136 F0BD     		pop	{r4, r5, r6, r7, pc}
 2494              	.L150:
 2495              		.align	2
 2496              	.L149:
 2497 0138 00000000 		.word	.LANCHOR1
 2498 013c 00000000 		.word	.LANCHOR0
 2499 0140 00000000 		.word	_width
 2500 0144 00000000 		.word	_height
 2501              		.cfi_endproc
 2502              	.LFE46:
 2503              		.size	display_customChar, .-display_customChar
 2504              		.section	.text.display_setCursor,"ax",%progbits
 2505              		.align	1
 2506              		.global	display_setCursor
 2507              		.code	16
 2508              		.thumb_func
 2509              		.type	display_setCursor, %function
 2510              	display_setCursor:
 2511              	.LFB48:
 844:GFX_Library.c **** 
 845:GFX_Library.c **** /**************************************************************************/
 846:GFX_Library.c **** /*!
 847:GFX_Library.c ****    @brief   Draw a single character
 848:GFX_Library.c ****     @param    x   Bottom left corner x coordinate
 849:GFX_Library.c ****     @param    y   Bottom left corner y coordinate
 850:GFX_Library.c ****     @param    c   The 8-bit font-indexed character (likely ascii)
 851:GFX_Library.c ****     @param    color 16-bit 5-6-5 Color to draw chraracter with
 852:GFX_Library.c ****     @param    bg 16-bit 5-6-5 Color to fill background with (if same as color, no background)
 853:GFX_Library.c ****     @param    size  Font magnification level, 1 is 'original' size
 854:GFX_Library.c **** */
 855:GFX_Library.c **** /**************************************************************************/
 856:GFX_Library.c **** void display_drawChar(uint16_t x, uint16_t y, uint8_t c, uint16_t color, uint16_t bg,
 857:GFX_Library.c ****      uint8_t size) {
 858:GFX_Library.c ****   uint16_t prev_x     = cursor_x,
 859:GFX_Library.c ****            prev_y     = cursor_y,
 860:GFX_Library.c ****            prev_color = textcolor,
 861:GFX_Library.c ****            prev_bg    = textbgcolor;
 862:GFX_Library.c ****   uint8_t  prev_size  = textsize;
 863:GFX_Library.c **** 
 864:GFX_Library.c ****   display_setCursor(x, y);
 865:GFX_Library.c ****   display_setTextSize(size);
 866:GFX_Library.c ****   display_setTextColor2(color, bg);
 867:GFX_Library.c ****   display_print(c);
 868:GFX_Library.c **** 
 869:GFX_Library.c ****   cursor_x    = prev_x;
 870:GFX_Library.c ****   cursor_y    = prev_y;
 871:GFX_Library.c ****   textcolor   = prev_color;
 872:GFX_Library.c ****   textbgcolor = prev_bg;
 873:GFX_Library.c ****   textsize    = prev_size;
 874:GFX_Library.c **** }
 875:GFX_Library.c **** 
ARM GAS  C:\Users\PC\AppData\Local\Temp\ccF7GaWd.s 			page 62


 876:GFX_Library.c **** /**************************************************************************/
 877:GFX_Library.c **** /*!
 878:GFX_Library.c ****     @brief  Set text cursor location
 879:GFX_Library.c ****     @param  x    X coordinate in pixels
 880:GFX_Library.c ****     @param  y    Y coordinate in pixels
 881:GFX_Library.c **** */
 882:GFX_Library.c **** /**************************************************************************/
 883:GFX_Library.c **** void display_setCursor(uint16_t x, uint16_t y) {
 2512              		.loc 1 883 0
 2513              		.cfi_startproc
 2514              		@ args = 0, pretend = 0, frame = 0
 2515              		@ frame_needed = 0, uses_anonymous_args = 0
 2516              		@ link register save eliminated.
 2517              	.LVL292:
 884:GFX_Library.c ****     cursor_x = x;
 2518              		.loc 1 884 0
 2519 0000 014B     		ldr	r3, .L152
 885:GFX_Library.c ****     cursor_y = y;
 886:GFX_Library.c **** }
 2520              		.loc 1 886 0
 2521              		@ sp needed
 884:GFX_Library.c ****     cursor_x = x;
 2522              		.loc 1 884 0
 2523 0002 1880     		strh	r0, [r3]
 885:GFX_Library.c ****     cursor_y = y;
 2524              		.loc 1 885 0
 2525 0004 5980     		strh	r1, [r3, #2]
 2526              		.loc 1 886 0
 2527 0006 7047     		bx	lr
 2528              	.L153:
 2529              		.align	2
 2530              	.L152:
 2531 0008 00000000 		.word	.LANCHOR0
 2532              		.cfi_endproc
 2533              	.LFE48:
 2534              		.size	display_setCursor, .-display_setCursor
 2535              		.section	.text.display_getCursorX,"ax",%progbits
 2536              		.align	1
 2537              		.global	display_getCursorX
 2538              		.code	16
 2539              		.thumb_func
 2540              		.type	display_getCursorX, %function
 2541              	display_getCursorX:
 2542              	.LFB49:
 887:GFX_Library.c **** 
 888:GFX_Library.c **** /**************************************************************************/
 889:GFX_Library.c **** /*!
 890:GFX_Library.c ****     @brief  Get text cursor X location
 891:GFX_Library.c ****     @returns    X coordinate in pixels
 892:GFX_Library.c **** */
 893:GFX_Library.c **** /**************************************************************************/
 894:GFX_Library.c **** uint16_t display_getCursorX(void) {
 2543              		.loc 1 894 0
 2544              		.cfi_startproc
 2545              		@ args = 0, pretend = 0, frame = 0
 2546              		@ frame_needed = 0, uses_anonymous_args = 0
 2547              		@ link register save eliminated.
ARM GAS  C:\Users\PC\AppData\Local\Temp\ccF7GaWd.s 			page 63


 895:GFX_Library.c ****     return cursor_x;
 2548              		.loc 1 895 0
 2549 0000 014B     		ldr	r3, .L155
 896:GFX_Library.c **** }
 2550              		.loc 1 896 0
 2551              		@ sp needed
 895:GFX_Library.c ****     return cursor_x;
 2552              		.loc 1 895 0
 2553 0002 1888     		ldrh	r0, [r3]
 2554              		.loc 1 896 0
 2555 0004 7047     		bx	lr
 2556              	.L156:
 2557 0006 C046     		.align	2
 2558              	.L155:
 2559 0008 00000000 		.word	.LANCHOR0
 2560              		.cfi_endproc
 2561              	.LFE49:
 2562              		.size	display_getCursorX, .-display_getCursorX
 2563              		.section	.text.display_getCursorY,"ax",%progbits
 2564              		.align	1
 2565              		.global	display_getCursorY
 2566              		.code	16
 2567              		.thumb_func
 2568              		.type	display_getCursorY, %function
 2569              	display_getCursorY:
 2570              	.LFB50:
 897:GFX_Library.c **** 
 898:GFX_Library.c **** /**************************************************************************/
 899:GFX_Library.c **** /*!
 900:GFX_Library.c ****     @brief      Get text cursor Y location
 901:GFX_Library.c ****     @returns    Y coordinate in pixels
 902:GFX_Library.c **** */
 903:GFX_Library.c **** /**************************************************************************/
 904:GFX_Library.c **** uint16_t display_getCursorY(void) {
 2571              		.loc 1 904 0
 2572              		.cfi_startproc
 2573              		@ args = 0, pretend = 0, frame = 0
 2574              		@ frame_needed = 0, uses_anonymous_args = 0
 2575              		@ link register save eliminated.
 905:GFX_Library.c ****     return cursor_y;
 2576              		.loc 1 905 0
 2577 0000 014B     		ldr	r3, .L158
 906:GFX_Library.c **** }
 2578              		.loc 1 906 0
 2579              		@ sp needed
 905:GFX_Library.c ****     return cursor_y;
 2580              		.loc 1 905 0
 2581 0002 5888     		ldrh	r0, [r3, #2]
 2582              		.loc 1 906 0
 2583 0004 7047     		bx	lr
 2584              	.L159:
 2585 0006 C046     		.align	2
 2586              	.L158:
 2587 0008 00000000 		.word	.LANCHOR0
 2588              		.cfi_endproc
 2589              	.LFE50:
 2590              		.size	display_getCursorY, .-display_getCursorY
ARM GAS  C:\Users\PC\AppData\Local\Temp\ccF7GaWd.s 			page 64


 2591              		.section	.text.display_setTextSize,"ax",%progbits
 2592              		.align	1
 2593              		.global	display_setTextSize
 2594              		.code	16
 2595              		.thumb_func
 2596              		.type	display_setTextSize, %function
 2597              	display_setTextSize:
 2598              	.LFB51:
 907:GFX_Library.c **** 
 908:GFX_Library.c **** /**************************************************************************/
 909:GFX_Library.c **** /*!
 910:GFX_Library.c ****     @brief   Set text 'magnification' size. Each increase in s makes 1 pixel that much bigger.
 911:GFX_Library.c ****     @param  s  Desired text size. 1 is default 6x8, 2 is 12x16, 3 is 18x24, etc
 912:GFX_Library.c **** */
 913:GFX_Library.c **** /**************************************************************************/
 914:GFX_Library.c **** void display_setTextSize(uint8_t s) {
 2599              		.loc 1 914 0
 2600              		.cfi_startproc
 2601              		@ args = 0, pretend = 0, frame = 0
 2602              		@ frame_needed = 0, uses_anonymous_args = 0
 2603              		@ link register save eliminated.
 2604              	.LVL293:
 915:GFX_Library.c ****     textsize = (s > 0) ? s : 1;
 2605              		.loc 1 915 0
 2606 0000 0123     		movs	r3, #1
 2607 0002 0028     		cmp	r0, #0
 2608 0004 00D0     		beq	.L161
 2609 0006 0300     		movs	r3, r0
 2610              	.L161:
 2611              		.loc 1 915 0 is_stmt 0 discriminator 4
 2612 0008 014A     		ldr	r2, .L164
 916:GFX_Library.c **** }
 2613              		.loc 1 916 0 is_stmt 1 discriminator 4
 2614              		@ sp needed
 915:GFX_Library.c ****     textsize = (s > 0) ? s : 1;
 2615              		.loc 1 915 0 discriminator 4
 2616 000a 5370     		strb	r3, [r2, #1]
 2617              		.loc 1 916 0 discriminator 4
 2618 000c 7047     		bx	lr
 2619              	.L165:
 2620 000e C046     		.align	2
 2621              	.L164:
 2622 0010 00000000 		.word	.LANCHOR1
 2623              		.cfi_endproc
 2624              	.LFE51:
 2625              		.size	display_setTextSize, .-display_setTextSize
 2626              		.section	.text.display_drawChar,"ax",%progbits
 2627              		.align	1
 2628              		.global	display_drawChar
 2629              		.code	16
 2630              		.thumb_func
 2631              		.type	display_drawChar, %function
 2632              	display_drawChar:
 2633              	.LFB47:
 857:GFX_Library.c ****   uint16_t prev_x     = cursor_x,
 2634              		.loc 1 857 0
 2635              		.cfi_startproc
ARM GAS  C:\Users\PC\AppData\Local\Temp\ccF7GaWd.s 			page 65


 2636              		@ args = 8, pretend = 0, frame = 24
 2637              		@ frame_needed = 0, uses_anonymous_args = 0
 2638              	.LVL294:
 2639 0000 F0B5     		push	{r4, r5, r6, r7, lr}
 2640              		.cfi_def_cfa_offset 20
 2641              		.cfi_offset 4, -20
 2642              		.cfi_offset 5, -16
 2643              		.cfi_offset 6, -12
 2644              		.cfi_offset 7, -8
 2645              		.cfi_offset 14, -4
 858:GFX_Library.c ****            prev_y     = cursor_y,
 2646              		.loc 1 858 0
 2647 0002 174D     		ldr	r5, .L167
 857:GFX_Library.c ****   uint16_t prev_x     = cursor_x,
 2648              		.loc 1 857 0
 2649 0004 87B0     		sub	sp, sp, #28
 2650              		.cfi_def_cfa_offset 48
 857:GFX_Library.c ****   uint16_t prev_x     = cursor_x,
 2651              		.loc 1 857 0
 2652 0006 0493     		str	r3, [sp, #16]
 2653 0008 0CAB     		add	r3, sp, #48
 2654              	.LVL295:
 2655 000a 0392     		str	r2, [sp, #12]
 2656 000c 1B88     		ldrh	r3, [r3]
 2657              	.LVL296:
 858:GFX_Library.c ****            prev_y     = cursor_y,
 2658              		.loc 1 858 0
 2659 000e 0024     		movs	r4, #0
 2660 0010 2A5F     		ldrsh	r2, [r5, r4]
 2661              	.LVL297:
 857:GFX_Library.c ****   uint16_t prev_x     = cursor_x,
 2662              		.loc 1 857 0
 2663 0012 0593     		str	r3, [sp, #20]
 858:GFX_Library.c ****            prev_y     = cursor_y,
 2664              		.loc 1 858 0
 2665 0014 0092     		str	r2, [sp]
 2666              	.LVL298:
 857:GFX_Library.c ****   uint16_t prev_x     = cursor_x,
 2667              		.loc 1 857 0
 2668 0016 0DAB     		add	r3, sp, #52
 2669              	.LVL299:
 859:GFX_Library.c ****            prev_color = textcolor,
 2670              		.loc 1 859 0
 2671 0018 0224     		movs	r4, #2
 2672 001a 2A5F     		ldrsh	r2, [r5, r4]
 860:GFX_Library.c ****            prev_bg    = textbgcolor;
 2673              		.loc 1 860 0
 2674 001c 114C     		ldr	r4, .L167+4
 857:GFX_Library.c ****   uint16_t prev_x     = cursor_x,
 2675              		.loc 1 857 0
 2676 001e 1B78     		ldrb	r3, [r3]
 2677              	.LVL300:
 859:GFX_Library.c ****            prev_color = textcolor,
 2678              		.loc 1 859 0
 2679 0020 0192     		str	r2, [sp, #4]
 2680              	.LVL301:
 860:GFX_Library.c ****            prev_bg    = textbgcolor;
ARM GAS  C:\Users\PC\AppData\Local\Temp\ccF7GaWd.s 			page 66


 2681              		.loc 1 860 0
 2682 0022 6288     		ldrh	r2, [r4, #2]
 2683              	.LBB44:
 2684              	.LBB45:
 884:GFX_Library.c ****     cursor_y = y;
 2685              		.loc 1 884 0
 2686 0024 2880     		strh	r0, [r5]
 2687              	.LBE45:
 2688              	.LBE44:
 865:GFX_Library.c ****   display_setTextColor2(color, bg);
 2689              		.loc 1 865 0
 2690 0026 1800     		movs	r0, r3
 2691              	.LVL302:
 860:GFX_Library.c ****            prev_bg    = textbgcolor;
 2692              		.loc 1 860 0
 2693 0028 0292     		str	r2, [sp, #8]
 2694              	.LVL303:
 861:GFX_Library.c ****   uint8_t  prev_size  = textsize;
 2695              		.loc 1 861 0
 2696 002a A788     		ldrh	r7, [r4, #4]
 2697              	.LVL304:
 862:GFX_Library.c **** 
 2698              		.loc 1 862 0
 2699 002c 6678     		ldrb	r6, [r4, #1]
 2700              	.LVL305:
 2701              	.LBB47:
 2702              	.LBB46:
 885:GFX_Library.c **** }
 2703              		.loc 1 885 0
 2704 002e 6980     		strh	r1, [r5, #2]
 2705              	.LVL306:
 2706              	.LBE46:
 2707              	.LBE47:
 865:GFX_Library.c ****   display_setTextColor2(color, bg);
 2708              		.loc 1 865 0
 2709 0030 FFF7FEFF 		bl	display_setTextSize
 2710              	.LVL307:
 2711              	.LBB48:
 2712              	.LBB49:
 917:GFX_Library.c **** 
 918:GFX_Library.c **** /**************************************************************************/
 919:GFX_Library.c **** /*!
 920:GFX_Library.c ****     @brief   Set text font color with custom background color
 921:GFX_Library.c ****     @param   c   16-bit 5-6-5 Color to draw text with
 922:GFX_Library.c ****     @param   b   16-bit 5-6-5 Color to draw background/fill with
 923:GFX_Library.c **** */
 924:GFX_Library.c **** /**************************************************************************/
 925:GFX_Library.c **** void display_setTextColor2(uint16_t c, uint16_t b) {
 926:GFX_Library.c ****     textcolor   = c;
 2713              		.loc 1 926 0
 2714 0034 6B46     		mov	r3, sp
 2715 0036 1B8A     		ldrh	r3, [r3, #16]
 2716              	.LBE49:
 2717              	.LBE48:
 867:GFX_Library.c **** 
 2718              		.loc 1 867 0
 2719 0038 0398     		ldr	r0, [sp, #12]
ARM GAS  C:\Users\PC\AppData\Local\Temp\ccF7GaWd.s 			page 67


 2720              	.LBB51:
 2721              	.LBB50:
 2722              		.loc 1 926 0
 2723 003a 6380     		strh	r3, [r4, #2]
 927:GFX_Library.c ****     textbgcolor = b;
 2724              		.loc 1 927 0
 2725 003c 6B46     		mov	r3, sp
 2726 003e 9B8A     		ldrh	r3, [r3, #20]
 2727 0040 A380     		strh	r3, [r4, #4]
 2728              	.LVL308:
 2729              	.LBE50:
 2730              	.LBE51:
 867:GFX_Library.c **** 
 2731              		.loc 1 867 0
 2732 0042 FFF7FEFF 		bl	display_print
 2733              	.LVL309:
 869:GFX_Library.c ****   cursor_y    = prev_y;
 2734              		.loc 1 869 0
 2735 0046 6B46     		mov	r3, sp
 2736 0048 1B88     		ldrh	r3, [r3]
 872:GFX_Library.c ****   textsize    = prev_size;
 2737              		.loc 1 872 0
 2738 004a A780     		strh	r7, [r4, #4]
 869:GFX_Library.c ****   cursor_y    = prev_y;
 2739              		.loc 1 869 0
 2740 004c 2B80     		strh	r3, [r5]
 870:GFX_Library.c ****   textcolor   = prev_color;
 2741              		.loc 1 870 0
 2742 004e 6B46     		mov	r3, sp
 2743 0050 9B88     		ldrh	r3, [r3, #4]
 873:GFX_Library.c **** }
 2744              		.loc 1 873 0
 2745 0052 6670     		strb	r6, [r4, #1]
 870:GFX_Library.c ****   textcolor   = prev_color;
 2746              		.loc 1 870 0
 2747 0054 6B80     		strh	r3, [r5, #2]
 871:GFX_Library.c ****   textbgcolor = prev_bg;
 2748              		.loc 1 871 0
 2749 0056 6B46     		mov	r3, sp
 2750 0058 1B89     		ldrh	r3, [r3, #8]
 2751 005a 6380     		strh	r3, [r4, #2]
 874:GFX_Library.c **** 
 2752              		.loc 1 874 0
 2753 005c 07B0     		add	sp, sp, #28
 2754              	.LVL310:
 2755              		@ sp needed
 2756              	.LVL311:
 2757              	.LVL312:
 2758 005e F0BD     		pop	{r4, r5, r6, r7, pc}
 2759              	.L168:
 2760              		.align	2
 2761              	.L167:
 2762 0060 00000000 		.word	.LANCHOR0
 2763 0064 00000000 		.word	.LANCHOR1
 2764              		.cfi_endproc
 2765              	.LFE47:
 2766              		.size	display_drawChar, .-display_drawChar
ARM GAS  C:\Users\PC\AppData\Local\Temp\ccF7GaWd.s 			page 68


 2767              		.section	.text.display_setTextColor2,"ax",%progbits
 2768              		.align	1
 2769              		.global	display_setTextColor2
 2770              		.code	16
 2771              		.thumb_func
 2772              		.type	display_setTextColor2, %function
 2773              	display_setTextColor2:
 2774              	.LFB52:
 925:GFX_Library.c ****     textcolor   = c;
 2775              		.loc 1 925 0
 2776              		.cfi_startproc
 2777              		@ args = 0, pretend = 0, frame = 0
 2778              		@ frame_needed = 0, uses_anonymous_args = 0
 2779              		@ link register save eliminated.
 2780              	.LVL313:
 926:GFX_Library.c ****     textbgcolor = b;
 2781              		.loc 1 926 0
 2782 0000 014B     		ldr	r3, .L170
 928:GFX_Library.c **** }
 2783              		.loc 1 928 0
 2784              		@ sp needed
 926:GFX_Library.c ****     textbgcolor = b;
 2785              		.loc 1 926 0
 2786 0002 5880     		strh	r0, [r3, #2]
 927:GFX_Library.c **** }
 2787              		.loc 1 927 0
 2788 0004 9980     		strh	r1, [r3, #4]
 2789              		.loc 1 928 0
 2790 0006 7047     		bx	lr
 2791              	.L171:
 2792              		.align	2
 2793              	.L170:
 2794 0008 00000000 		.word	.LANCHOR1
 2795              		.cfi_endproc
 2796              	.LFE52:
 2797              		.size	display_setTextColor2, .-display_setTextColor2
 2798              		.section	.text.display_setTextColor,"ax",%progbits
 2799              		.align	1
 2800              		.global	display_setTextColor
 2801              		.code	16
 2802              		.thumb_func
 2803              		.type	display_setTextColor, %function
 2804              	display_setTextColor:
 2805              	.LFB53:
 929:GFX_Library.c **** 
 930:GFX_Library.c **** /**************************************************************************/
 931:GFX_Library.c **** /*!
 932:GFX_Library.c ****     @brief   Set text font color with transparant background
 933:GFX_Library.c ****     @param   c   16-bit 5-6-5 Color to draw text with
 934:GFX_Library.c **** */
 935:GFX_Library.c **** /**************************************************************************/
 936:GFX_Library.c **** void display_setTextColor(uint16_t c) {
 2806              		.loc 1 936 0
 2807              		.cfi_startproc
 2808              		@ args = 0, pretend = 0, frame = 0
 2809              		@ frame_needed = 0, uses_anonymous_args = 0
 2810              		@ link register save eliminated.
ARM GAS  C:\Users\PC\AppData\Local\Temp\ccF7GaWd.s 			page 69


 2811              	.LVL314:
 937:GFX_Library.c ****   textcolor = textbgcolor = c;
 2812              		.loc 1 937 0
 2813 0000 014B     		ldr	r3, .L173
 938:GFX_Library.c **** }
 2814              		.loc 1 938 0
 2815              		@ sp needed
 937:GFX_Library.c ****   textcolor = textbgcolor = c;
 2816              		.loc 1 937 0
 2817 0002 9880     		strh	r0, [r3, #4]
 2818 0004 5880     		strh	r0, [r3, #2]
 2819              		.loc 1 938 0
 2820 0006 7047     		bx	lr
 2821              	.L174:
 2822              		.align	2
 2823              	.L173:
 2824 0008 00000000 		.word	.LANCHOR1
 2825              		.cfi_endproc
 2826              	.LFE53:
 2827              		.size	display_setTextColor, .-display_setTextColor
 2828              		.section	.text.display_setTextWrap,"ax",%progbits
 2829              		.align	1
 2830              		.global	display_setTextWrap
 2831              		.code	16
 2832              		.thumb_func
 2833              		.type	display_setTextWrap, %function
 2834              	display_setTextWrap:
 2835              	.LFB54:
 939:GFX_Library.c **** 
 940:GFX_Library.c **** /**************************************************************************/
 941:GFX_Library.c **** /*!
 942:GFX_Library.c ****     @brief      Whether text that is too long should 'wrap' around to the next line.
 943:GFX_Library.c ****     @param  w Set true for wrapping, false for clipping
 944:GFX_Library.c **** */
 945:GFX_Library.c **** /**************************************************************************/
 946:GFX_Library.c **** void display_setTextWrap(bool w) {
 2836              		.loc 1 946 0
 2837              		.cfi_startproc
 2838              		@ args = 0, pretend = 0, frame = 0
 2839              		@ frame_needed = 0, uses_anonymous_args = 0
 2840              		@ link register save eliminated.
 2841              	.LVL315:
 947:GFX_Library.c ****     wrap = w;
 2842              		.loc 1 947 0
 2843 0000 014B     		ldr	r3, .L176
 948:GFX_Library.c **** }
 2844              		.loc 1 948 0
 2845              		@ sp needed
 947:GFX_Library.c ****     wrap = w;
 2846              		.loc 1 947 0
 2847 0002 1870     		strb	r0, [r3]
 2848              		.loc 1 948 0
 2849 0004 7047     		bx	lr
 2850              	.L177:
 2851 0006 C046     		.align	2
 2852              	.L176:
 2853 0008 00000000 		.word	.LANCHOR1
ARM GAS  C:\Users\PC\AppData\Local\Temp\ccF7GaWd.s 			page 70


 2854              		.cfi_endproc
 2855              	.LFE54:
 2856              		.size	display_setTextWrap, .-display_setTextWrap
 2857              		.section	.text.display_getRotation,"ax",%progbits
 2858              		.align	1
 2859              		.global	display_getRotation
 2860              		.code	16
 2861              		.thumb_func
 2862              		.type	display_getRotation, %function
 2863              	display_getRotation:
 2864              	.LFB55:
 949:GFX_Library.c **** 
 950:GFX_Library.c **** /**************************************************************************/
 951:GFX_Library.c **** /*!
 952:GFX_Library.c ****     @brief      Get rotation setting for display
 953:GFX_Library.c ****     @returns    0 thru 3 corresponding to 4 cardinal rotations
 954:GFX_Library.c **** */
 955:GFX_Library.c **** /**************************************************************************/
 956:GFX_Library.c **** uint8_t display_getRotation(void) {
 2865              		.loc 1 956 0
 2866              		.cfi_startproc
 2867              		@ args = 0, pretend = 0, frame = 0
 2868              		@ frame_needed = 0, uses_anonymous_args = 0
 2869              		@ link register save eliminated.
 957:GFX_Library.c ****     return rotation;
 2870              		.loc 1 957 0
 2871 0000 014B     		ldr	r3, .L179
 958:GFX_Library.c **** }
 2872              		.loc 1 958 0
 2873              		@ sp needed
 957:GFX_Library.c ****     return rotation;
 2874              		.loc 1 957 0
 2875 0002 1878     		ldrb	r0, [r3]
 2876              		.loc 1 958 0
 2877 0004 7047     		bx	lr
 2878              	.L180:
 2879 0006 C046     		.align	2
 2880              	.L179:
 2881 0008 00000000 		.word	rotation
 2882              		.cfi_endproc
 2883              	.LFE55:
 2884              		.size	display_getRotation, .-display_getRotation
 2885              		.section	.text.display_getWidth,"ax",%progbits
 2886              		.align	1
 2887              		.global	display_getWidth
 2888              		.code	16
 2889              		.thumb_func
 2890              		.type	display_getWidth, %function
 2891              	display_getWidth:
 2892              	.LFB56:
 959:GFX_Library.c **** 
 960:GFX_Library.c **** /**************************************************************************/
 961:GFX_Library.c **** /*!
 962:GFX_Library.c ****     @brief      Get width of the display, accounting for the current rotation
 963:GFX_Library.c ****     @returns    Width in pixels
 964:GFX_Library.c **** */
 965:GFX_Library.c **** /**************************************************************************/
ARM GAS  C:\Users\PC\AppData\Local\Temp\ccF7GaWd.s 			page 71


 966:GFX_Library.c **** uint16_t display_getWidth(void) {
 2893              		.loc 1 966 0
 2894              		.cfi_startproc
 2895              		@ args = 0, pretend = 0, frame = 0
 2896              		@ frame_needed = 0, uses_anonymous_args = 0
 2897              		@ link register save eliminated.
 967:GFX_Library.c ****     return display_width;
 2898              		.loc 1 967 0
 2899 0000 014B     		ldr	r3, .L182
 968:GFX_Library.c **** }
 2900              		.loc 1 968 0
 2901              		@ sp needed
 967:GFX_Library.c ****     return display_width;
 2902              		.loc 1 967 0
 2903 0002 1878     		ldrb	r0, [r3]
 2904              		.loc 1 968 0
 2905 0004 7047     		bx	lr
 2906              	.L183:
 2907 0006 C046     		.align	2
 2908              	.L182:
 2909 0008 00000000 		.word	_width
 2910              		.cfi_endproc
 2911              	.LFE56:
 2912              		.size	display_getWidth, .-display_getWidth
 2913              		.section	.text.display_getHeight,"ax",%progbits
 2914              		.align	1
 2915              		.global	display_getHeight
 2916              		.code	16
 2917              		.thumb_func
 2918              		.type	display_getHeight, %function
 2919              	display_getHeight:
 2920              	.LFB57:
 969:GFX_Library.c **** 
 970:GFX_Library.c **** /**************************************************************************/
 971:GFX_Library.c **** /*!
 972:GFX_Library.c ****     @brief      Get height of the display, accounting for the current rotation
 973:GFX_Library.c ****     @returns    Height in pixels
 974:GFX_Library.c **** */
 975:GFX_Library.c **** /**************************************************************************/
 976:GFX_Library.c **** uint16_t display_getHeight(void) {
 2921              		.loc 1 976 0
 2922              		.cfi_startproc
 2923              		@ args = 0, pretend = 0, frame = 0
 2924              		@ frame_needed = 0, uses_anonymous_args = 0
 2925              		@ link register save eliminated.
 977:GFX_Library.c ****     return display_height;
 2926              		.loc 1 977 0
 2927 0000 014B     		ldr	r3, .L185
 978:GFX_Library.c **** }
 2928              		.loc 1 978 0
 2929              		@ sp needed
 977:GFX_Library.c ****     return display_height;
 2930              		.loc 1 977 0
 2931 0002 1878     		ldrb	r0, [r3]
 2932              		.loc 1 978 0
 2933 0004 7047     		bx	lr
 2934              	.L186:
ARM GAS  C:\Users\PC\AppData\Local\Temp\ccF7GaWd.s 			page 72


 2935 0006 C046     		.align	2
 2936              	.L185:
 2937 0008 00000000 		.word	_height
 2938              		.cfi_endproc
 2939              	.LFE57:
 2940              		.size	display_getHeight, .-display_getHeight
 2941              		.section	.text.display_color565,"ax",%progbits
 2942              		.align	1
 2943              		.global	display_color565
 2944              		.code	16
 2945              		.thumb_func
 2946              		.type	display_color565, %function
 2947              	display_color565:
 2948              	.LFB58:
 979:GFX_Library.c **** 
 980:GFX_Library.c **** /**************************************************************************/
 981:GFX_Library.c **** /*!
 982:GFX_Library.c ****     @brief   Given 8-bit red, green and blue values, return a 'packed'
 983:GFX_Library.c ****              16-bit color value in '565' RGB format (5 bits red, 6 bits
 984:GFX_Library.c ****              green, 5 bits blue). This is just a mathematical operation,
 985:GFX_Library.c ****              no hardware is touched.
 986:GFX_Library.c ****     @param   red    8-bit red brightnesss (0 = off, 255 = max).
 987:GFX_Library.c ****     @param   green  8-bit green brightnesss (0 = off, 255 = max).
 988:GFX_Library.c ****     @param   blue   8-bit blue brightnesss (0 = off, 255 = max).
 989:GFX_Library.c ****     @return  'Packed' 16-bit color value (565 format).
 990:GFX_Library.c **** */
 991:GFX_Library.c **** /**************************************************************************/
 992:GFX_Library.c **** uint16_t display_color565(uint8_t red, uint8_t green, uint8_t blue) {
 2949              		.loc 1 992 0
 2950              		.cfi_startproc
 2951              		@ args = 0, pretend = 0, frame = 0
 2952              		@ frame_needed = 0, uses_anonymous_args = 0
 2953              		@ link register save eliminated.
 2954              	.LVL316:
 993:GFX_Library.c ****     return ((uint16_t)(red & 0xF8) << 8) | ((uint16_t)(green & 0xFC) << 3) | (blue >> 3);
 2955              		.loc 1 993 0
 2956 0000 FC23     		movs	r3, #252
 2957 0002 C900     		lsls	r1, r1, #3
 2958              	.LVL317:
 2959 0004 DB00     		lsls	r3, r3, #3
 2960 0006 1940     		ands	r1, r3
 2961 0008 D208     		lsrs	r2, r2, #3
 2962              	.LVL318:
 2963 000a C008     		lsrs	r0, r0, #3
 2964              	.LVL319:
 2965 000c 0A43     		orrs	r2, r1
 2966 000e C002     		lsls	r0, r0, #11
 2967 0010 1043     		orrs	r0, r2
 994:GFX_Library.c **** }
 2968              		.loc 1 994 0
 2969              		@ sp needed
 2970 0012 7047     		bx	lr
 2971              		.cfi_endproc
 2972              	.LFE58:
 2973              		.size	display_color565, .-display_color565
 2974              		.section	.text.display_drawBitmapV1,"ax",%progbits
 2975              		.align	1
ARM GAS  C:\Users\PC\AppData\Local\Temp\ccF7GaWd.s 			page 73


 2976              		.global	display_drawBitmapV1
 2977              		.code	16
 2978              		.thumb_func
 2979              		.type	display_drawBitmapV1, %function
 2980              	display_drawBitmapV1:
 2981              	.LFB59:
 995:GFX_Library.c **** 
 996:GFX_Library.c **** /**************************************************************************/
 997:GFX_Library.c **** /*!
 998:GFX_Library.c ****    @brief     Draw a ROM-resident 1-bit image at the specified (x,y) position,
 999:GFX_Library.c ****               using the specified foreground color (unset bits are transparent).
1000:GFX_Library.c ****     @param    x   Top left corner x coordinate
1001:GFX_Library.c ****     @param    y   Top left corner y coordinate
1002:GFX_Library.c ****     @param    bitmap  byte array with monochrome bitmap
1003:GFX_Library.c ****     @param    w   Width of bitmap in pixels
1004:GFX_Library.c ****     @param    h   Hieght of bitmap in pixels
1005:GFX_Library.c ****     @param    color 16-bit 5-6-5 Color to draw with
1006:GFX_Library.c **** */
1007:GFX_Library.c **** /**************************************************************************/
1008:GFX_Library.c **** void display_drawBitmapV1(uint16_t x, uint16_t y, const uint8_t *bitmap, uint16_t w, uint16_t h,
1009:GFX_Library.c ****      uint16_t color) {
 2982              		.loc 1 1009 0
 2983              		.cfi_startproc
 2984              		@ args = 8, pretend = 0, frame = 32
 2985              		@ frame_needed = 0, uses_anonymous_args = 0
 2986              	.LVL320:
 2987 0000 F0B5     		push	{r4, r5, r6, r7, lr}
 2988              		.cfi_def_cfa_offset 20
 2989              		.cfi_offset 4, -20
 2990              		.cfi_offset 5, -16
 2991              		.cfi_offset 6, -12
 2992              		.cfi_offset 7, -8
 2993              		.cfi_offset 14, -4
 2994              	.LBB52:
1010:GFX_Library.c ****   for( uint16_t i = 0; i < h/8; i++)
 2995              		.loc 1 1010 0
 2996 0002 0026     		movs	r6, #0
 2997              	.LBE52:
1009:GFX_Library.c ****   for( uint16_t i = 0; i < h/8; i++)
 2998              		.loc 1 1009 0
 2999 0004 1F00     		movs	r7, r3
 3000              	.LBB54:
 3001              		.loc 1 1010 0
 3002 0006 3500     		movs	r5, r6
 3003              	.LBE54:
1009:GFX_Library.c ****   for( uint16_t i = 0; i < h/8; i++)
 3004              		.loc 1 1009 0
 3005 0008 89B0     		sub	sp, sp, #36
 3006              		.cfi_def_cfa_offset 56
1009:GFX_Library.c ****   for( uint16_t i = 0; i < h/8; i++)
 3007              		.loc 1 1009 0
 3008 000a 0EAB     		add	r3, sp, #56
 3009              	.LVL321:
 3010 000c 1B88     		ldrh	r3, [r3]
 3011              	.LVL322:
 3012 000e 0692     		str	r2, [sp, #24]
 3013 0010 0FAA     		add	r2, sp, #60
ARM GAS  C:\Users\PC\AppData\Local\Temp\ccF7GaWd.s 			page 74


 3014              	.LVL323:
 3015              	.LBB55:
 3016              		.loc 1 1010 0
 3017 0012 DB08     		lsrs	r3, r3, #3
 3018              	.LBE55:
1009:GFX_Library.c ****   for( uint16_t i = 0; i < h/8; i++)
 3019              		.loc 1 1009 0
 3020 0014 1288     		ldrh	r2, [r2]
 3021              	.LVL324:
 3022              	.LBB56:
 3023              		.loc 1 1010 0
 3024 0016 0193     		str	r3, [sp, #4]
 3025 0018 FB00     		lsls	r3, r7, #3
 3026              	.LBE56:
1009:GFX_Library.c ****   for( uint16_t i = 0; i < h/8; i++)
 3027              		.loc 1 1009 0
 3028 001a 0490     		str	r0, [sp, #16]
 3029 001c 0591     		str	r1, [sp, #20]
 3030 001e 0792     		str	r2, [sp, #28]
 3031 0020 0293     		str	r3, [sp, #8]
 3032              	.LVL325:
 3033              	.L189:
 3034              	.LBB57:
 3035              		.loc 1 1010 0 discriminator 1
 3036 0022 019B     		ldr	r3, [sp, #4]
 3037 0024 9D42     		cmp	r5, r3
 3038 0026 23D0     		beq	.L188
 3039              	.LBB53:
1011:GFX_Library.c ****   {    
1012:GFX_Library.c ****     for( uint16_t j = 0; j < w * 8; j++)
1013:GFX_Library.c ****     {      
1014:GFX_Library.c ****       if( bitmap[j/8 + i*w] & (1 << (j % 8)) )
1015:GFX_Library.c ****         display_drawPixel(x + j/8, y + i*8 + (j % 8), color);
 3040              		.loc 1 1015 0
 3041 0028 0024     		movs	r4, #0
 3042 002a 059A     		ldr	r2, [sp, #20]
 3043 002c EB00     		lsls	r3, r5, #3
 3044 002e 9B18     		adds	r3, r3, r2
 3045 0030 DBB2     		uxtb	r3, r3
 3046 0032 0393     		str	r3, [sp, #12]
 3047              	.L193:
 3048              	.LVL326:
1012:GFX_Library.c ****     {      
 3049              		.loc 1 1012 0 discriminator 1
 3050 0034 029B     		ldr	r3, [sp, #8]
 3051 0036 9C42     		cmp	r4, r3
 3052 0038 16DA     		bge	.L197
1014:GFX_Library.c ****         display_drawPixel(x + j/8, y + i*8 + (j % 8), color);
 3053              		.loc 1 1014 0
 3054 003a 0721     		movs	r1, #7
 3055 003c 069B     		ldr	r3, [sp, #24]
 3056 003e E008     		lsrs	r0, r4, #3
 3057 0040 1B18     		adds	r3, r3, r0
 3058 0042 9B5D     		ldrb	r3, [r3, r6]
 3059 0044 2140     		ands	r1, r4
 3060 0046 0B41     		asrs	r3, r3, r1
 3061 0048 0122     		movs	r2, #1
ARM GAS  C:\Users\PC\AppData\Local\Temp\ccF7GaWd.s 			page 75


 3062 004a 1342     		tst	r3, r2
 3063 004c 09D0     		beq	.L190
 3064              		.loc 1 1015 0
 3065 004e 6B46     		mov	r3, sp
 3066 0050 1A7F     		ldrb	r2, [r3, #28]
 3067 0052 039B     		ldr	r3, [sp, #12]
 3068 0054 5918     		adds	r1, r3, r1
 3069 0056 049B     		ldr	r3, [sp, #16]
 3070 0058 C9B2     		uxtb	r1, r1
 3071 005a 1818     		adds	r0, r3, r0
 3072 005c C0B2     		uxtb	r0, r0
 3073 005e FFF7FEFF 		bl	drawPixel
 3074              	.LVL327:
 3075              	.L190:
1012:GFX_Library.c ****     {      
 3076              		.loc 1 1012 0 discriminator 2
 3077 0062 0134     		adds	r4, r4, #1
 3078              	.LVL328:
 3079 0064 A4B2     		uxth	r4, r4
 3080              	.LVL329:
 3081 0066 E5E7     		b	.L193
 3082              	.L197:
 3083              	.LBE53:
1010:GFX_Library.c ****   {    
 3084              		.loc 1 1010 0 discriminator 2
 3085 0068 0135     		adds	r5, r5, #1
 3086              	.LVL330:
 3087 006a ADB2     		uxth	r5, r5
 3088              	.LVL331:
 3089 006c F619     		adds	r6, r6, r7
 3090 006e D8E7     		b	.L189
 3091              	.LVL332:
 3092              	.L188:
 3093              	.LBE57:
1016:GFX_Library.c ****     }
1017:GFX_Library.c ****   }
1018:GFX_Library.c **** }
 3094              		.loc 1 1018 0
 3095 0070 09B0     		add	sp, sp, #36
 3096              		@ sp needed
 3097              	.LVL333:
 3098 0072 F0BD     		pop	{r4, r5, r6, r7, pc}
 3099              		.cfi_endproc
 3100              	.LFE59:
 3101              		.size	display_drawBitmapV1, .-display_drawBitmapV1
 3102              		.section	.text.display_drawBitmapV1_bg,"ax",%progbits
 3103              		.align	1
 3104              		.global	display_drawBitmapV1_bg
 3105              		.code	16
 3106              		.thumb_func
 3107              		.type	display_drawBitmapV1_bg, %function
 3108              	display_drawBitmapV1_bg:
 3109              	.LFB60:
1019:GFX_Library.c **** 
1020:GFX_Library.c **** /**************************************************************************/
1021:GFX_Library.c **** /*!
1022:GFX_Library.c ****    @brief     Draw a ROM-resident 1-bit image at the specified (x,y) position,
ARM GAS  C:\Users\PC\AppData\Local\Temp\ccF7GaWd.s 			page 76


1023:GFX_Library.c ****               using the specified foreground (for set bits) and background (unset bits) colors.
1024:GFX_Library.c ****     @param    x   Top left corner x coordinate
1025:GFX_Library.c ****     @param    y   Top left corner y coordinate
1026:GFX_Library.c ****     @param    bitmap  byte array with monochrome bitmap
1027:GFX_Library.c ****     @param    w   Width of bitmap in pixels
1028:GFX_Library.c ****     @param    h   Hieght of bitmap in pixels
1029:GFX_Library.c ****     @param    color 16-bit 5-6-5 Color to draw pixels with
1030:GFX_Library.c ****     @param    bg 16-bit 5-6-5 Color to draw background with
1031:GFX_Library.c **** */
1032:GFX_Library.c **** /**************************************************************************/
1033:GFX_Library.c **** void display_drawBitmapV1_bg(uint16_t x, uint16_t y, const uint8_t *bitmap, uint16_t w, uint16_t h,
1034:GFX_Library.c ****      uint16_t color, uint16_t bg) {
 3110              		.loc 1 1034 0
 3111              		.cfi_startproc
 3112              		@ args = 12, pretend = 0, frame = 32
 3113              		@ frame_needed = 0, uses_anonymous_args = 0
 3114              	.LVL334:
 3115 0000 F0B5     		push	{r4, r5, r6, r7, lr}
 3116              		.cfi_def_cfa_offset 20
 3117              		.cfi_offset 4, -20
 3118              		.cfi_offset 5, -16
 3119              		.cfi_offset 6, -12
 3120              		.cfi_offset 7, -8
 3121              		.cfi_offset 14, -4
 3122              	.LBB58:
1035:GFX_Library.c ****   for( uint16_t i = 0; i < h/8; i++)
 3123              		.loc 1 1035 0
 3124 0002 0027     		movs	r7, #0
 3125 0004 3E00     		movs	r6, r7
 3126              	.LBE58:
1034:GFX_Library.c ****   for( uint16_t i = 0; i < h/8; i++)
 3127              		.loc 1 1034 0
 3128 0006 89B0     		sub	sp, sp, #36
 3129              		.cfi_def_cfa_offset 56
1034:GFX_Library.c ****   for( uint16_t i = 0; i < h/8; i++)
 3130              		.loc 1 1034 0
 3131 0008 0193     		str	r3, [sp, #4]
 3132 000a 0EAB     		add	r3, sp, #56
 3133              	.LVL335:
 3134 000c 0592     		str	r2, [sp, #20]
 3135 000e 1B88     		ldrh	r3, [r3]
 3136              	.LVL336:
 3137 0010 0FAA     		add	r2, sp, #60
 3138              	.LVL337:
 3139 0012 1288     		ldrh	r2, [r2]
 3140              	.LVL338:
 3141              	.LBB60:
 3142              		.loc 1 1035 0
 3143 0014 DB08     		lsrs	r3, r3, #3
 3144              	.LBE60:
1034:GFX_Library.c ****   for( uint16_t i = 0; i < h/8; i++)
 3145              		.loc 1 1034 0
 3146 0016 0692     		str	r2, [sp, #24]
 3147              	.LBB61:
 3148              		.loc 1 1035 0
 3149 0018 0293     		str	r3, [sp, #8]
 3150              	.LBE61:
ARM GAS  C:\Users\PC\AppData\Local\Temp\ccF7GaWd.s 			page 77


1034:GFX_Library.c ****   for( uint16_t i = 0; i < h/8; i++)
 3151              		.loc 1 1034 0
 3152 001a 10AA     		add	r2, sp, #64
 3153              	.LVL339:
 3154 001c 019B     		ldr	r3, [sp, #4]
 3155 001e 1288     		ldrh	r2, [r2]
 3156              	.LVL340:
 3157 0020 DB00     		lsls	r3, r3, #3
 3158 0022 0490     		str	r0, [sp, #16]
 3159 0024 0792     		str	r2, [sp, #28]
 3160 0026 0393     		str	r3, [sp, #12]
 3161 0028 CCB2     		uxtb	r4, r1
 3162              	.LVL341:
 3163              	.L199:
 3164              	.LBB62:
 3165              		.loc 1 1035 0 discriminator 1
 3166 002a 029B     		ldr	r3, [sp, #8]
 3167 002c 9E42     		cmp	r6, r3
 3168 002e 23D0     		beq	.L198
 3169              		.loc 1 1035 0 is_stmt 0
 3170 0030 0025     		movs	r5, #0
 3171              	.L204:
 3172              	.LVL342:
 3173              	.LBB59:
1036:GFX_Library.c ****   {    
1037:GFX_Library.c ****     for( uint16_t j = 0; j < w * 8; j++)
 3174              		.loc 1 1037 0 is_stmt 1 discriminator 1
 3175 0032 039B     		ldr	r3, [sp, #12]
 3176 0034 9D42     		cmp	r5, r3
 3177 0036 18DA     		bge	.L206
1038:GFX_Library.c ****     {      
1039:GFX_Library.c ****       if( bitmap[j/8 + i*w] & (1 << (j % 8)) )
 3178              		.loc 1 1039 0
 3179 0038 0721     		movs	r1, #7
 3180 003a 059B     		ldr	r3, [sp, #20]
 3181 003c E808     		lsrs	r0, r5, #3
 3182 003e 1B18     		adds	r3, r3, r0
 3183 0040 049A     		ldr	r2, [sp, #16]
 3184 0042 DB5D     		ldrb	r3, [r3, r7]
 3185 0044 2940     		ands	r1, r5
 3186 0046 1018     		adds	r0, r2, r0
 3187 0048 0B41     		asrs	r3, r3, r1
 3188 004a 0122     		movs	r2, #1
 3189 004c 1342     		tst	r3, r2
 3190 004e 02D0     		beq	.L200
1040:GFX_Library.c ****         display_drawPixel(x + j/8, y + i*8 + (j % 8), color);
 3191              		.loc 1 1040 0
 3192 0050 6B46     		mov	r3, sp
 3193 0052 1A7E     		ldrb	r2, [r3, #24]
 3194 0054 01E0     		b	.L205
 3195              	.L200:
1041:GFX_Library.c ****       else
1042:GFX_Library.c ****         display_drawPixel(x + j/8, y + i*8 + (j % 8), bg);
 3196              		.loc 1 1042 0
 3197 0056 6B46     		mov	r3, sp
 3198 0058 1A7F     		ldrb	r2, [r3, #28]
 3199              	.L205:
ARM GAS  C:\Users\PC\AppData\Local\Temp\ccF7GaWd.s 			page 78


 3200 005a 6118     		adds	r1, r4, r1
 3201 005c C9B2     		uxtb	r1, r1
 3202 005e C0B2     		uxtb	r0, r0
1037:GFX_Library.c ****     {      
 3203              		.loc 1 1037 0
 3204 0060 0135     		adds	r5, r5, #1
 3205              	.LVL343:
 3206              		.loc 1 1042 0
 3207 0062 FFF7FEFF 		bl	drawPixel
 3208              	.LVL344:
1037:GFX_Library.c ****     {      
 3209              		.loc 1 1037 0
 3210 0066 ADB2     		uxth	r5, r5
 3211              	.LVL345:
 3212 0068 E3E7     		b	.L204
 3213              	.L206:
 3214 006a 019B     		ldr	r3, [sp, #4]
 3215              	.LBE59:
1035:GFX_Library.c ****   {    
 3216              		.loc 1 1035 0 discriminator 2
 3217 006c 0136     		adds	r6, r6, #1
 3218              	.LVL346:
 3219 006e 0834     		adds	r4, r4, #8
 3220 0070 B6B2     		uxth	r6, r6
 3221              	.LVL347:
 3222 0072 E4B2     		uxtb	r4, r4
 3223 0074 FF18     		adds	r7, r7, r3
 3224 0076 D8E7     		b	.L199
 3225              	.LVL348:
 3226              	.L198:
 3227              	.LBE62:
1043:GFX_Library.c ****     }
1044:GFX_Library.c ****   }
1045:GFX_Library.c **** }
 3228              		.loc 1 1045 0
 3229 0078 09B0     		add	sp, sp, #36
 3230              		@ sp needed
 3231              	.LVL349:
 3232 007a F0BD     		pop	{r4, r5, r6, r7, pc}
 3233              		.cfi_endproc
 3234              	.LFE60:
 3235              		.size	display_drawBitmapV1_bg, .-display_drawBitmapV1_bg
 3236              		.section	.text.display_drawBitmapV2,"ax",%progbits
 3237              		.align	1
 3238              		.global	display_drawBitmapV2
 3239              		.code	16
 3240              		.thumb_func
 3241              		.type	display_drawBitmapV2, %function
 3242              	display_drawBitmapV2:
 3243              	.LFB61:
1046:GFX_Library.c **** 
1047:GFX_Library.c **** /**************************************************************************/
1048:GFX_Library.c **** /*!
1049:GFX_Library.c ****    @brief     Draw a ROM-resident 1-bit image at the specified (x,y) position,
1050:GFX_Library.c ****               using the specified foreground color (unset bits are transparent).
1051:GFX_Library.c ****     @param    x   Top left corner x coordinate
1052:GFX_Library.c ****     @param    y   Top left corner y coordinate
ARM GAS  C:\Users\PC\AppData\Local\Temp\ccF7GaWd.s 			page 79


1053:GFX_Library.c ****     @param    bitmap  byte array with monochrome bitmap
1054:GFX_Library.c ****     @param    w   Width of bitmap in pixels
1055:GFX_Library.c ****     @param    h   Hieght of bitmap in pixels
1056:GFX_Library.c ****     @param    color 16-bit 5-6-5 Color to draw pixels with
1057:GFX_Library.c **** */
1058:GFX_Library.c **** /**************************************************************************/
1059:GFX_Library.c **** void display_drawBitmapV2(uint16_t x, uint16_t y, const uint8_t *bitmap, uint16_t w, uint16_t h,
1060:GFX_Library.c ****   uint16_t color) {
 3244              		.loc 1 1060 0
 3245              		.cfi_startproc
 3246              		@ args = 8, pretend = 0, frame = 32
 3247              		@ frame_needed = 0, uses_anonymous_args = 0
 3248              	.LVL350:
 3249 0000 F0B5     		push	{r4, r5, r6, r7, lr}
 3250              		.cfi_def_cfa_offset 20
 3251              		.cfi_offset 4, -20
 3252              		.cfi_offset 5, -16
 3253              		.cfi_offset 6, -12
 3254              		.cfi_offset 7, -8
 3255              		.cfi_offset 14, -4
 3256 0002 0F00     		movs	r7, r1
 3257              	.LBB63:
1061:GFX_Library.c **** 
1062:GFX_Library.c ****     int16_t byteWidth = (w + 7) / 8; // Bitmap scanline pad = whole byte
1063:GFX_Library.c ****     uint8_t _byte = 0;
1064:GFX_Library.c **** 
1065:GFX_Library.c ****     for(int16_t j=0; j<h; j++, y++) {
 3258              		.loc 1 1065 0
 3259 0004 0C00     		movs	r4, r1
 3260              	.LBE63:
1063:GFX_Library.c **** 
 3261              		.loc 1 1063 0
 3262 0006 0025     		movs	r5, #0
1060:GFX_Library.c **** 
 3263              		.loc 1 1060 0
 3264 0008 89B0     		sub	sp, sp, #36
 3265              		.cfi_def_cfa_offset 56
1060:GFX_Library.c **** 
 3266              		.loc 1 1060 0
 3267 000a 0193     		str	r3, [sp, #4]
 3268 000c 0EAB     		add	r3, sp, #56
 3269              	.LVL351:
 3270 000e 1B88     		ldrh	r3, [r3]
 3271              	.LVL352:
 3272 0010 0490     		str	r0, [sp, #16]
 3273 0012 0693     		str	r3, [sp, #24]
 3274 0014 0FAB     		add	r3, sp, #60
 3275              	.LVL353:
 3276 0016 1B88     		ldrh	r3, [r3]
 3277              	.LVL354:
 3278 0018 0592     		str	r2, [sp, #20]
 3279 001a 0793     		str	r3, [sp, #28]
1062:GFX_Library.c ****     uint8_t _byte = 0;
 3280              		.loc 1 1062 0
 3281 001c 019B     		ldr	r3, [sp, #4]
 3282 001e 0733     		adds	r3, r3, #7
 3283 0020 DB10     		asrs	r3, r3, #3
ARM GAS  C:\Users\PC\AppData\Local\Temp\ccF7GaWd.s 			page 80


 3284 0022 0293     		str	r3, [sp, #8]
 3285              	.LVL355:
 3286              	.L208:
 3287 0024 E31B     		subs	r3, r4, r7
 3288              	.LBB65:
 3289              		.loc 1 1065 0 discriminator 1
 3290 0026 069A     		ldr	r2, [sp, #24]
 3291 0028 1BB2     		sxth	r3, r3
 3292              	.LVL356:
 3293 002a 9342     		cmp	r3, r2
 3294 002c 26DA     		bge	.L207
 3295              	.LBB64:
1066:GFX_Library.c ****         for(int16_t i=0; i<w; i++ ) {
1067:GFX_Library.c ****             if(i & 7) _byte <<= 1;
1068:GFX_Library.c ****             else      _byte   = bitmap[j * byteWidth + i / 8];
 3296              		.loc 1 1068 0
 3297 002e 0020     		movs	r0, #0
 3298 0030 029A     		ldr	r2, [sp, #8]
 3299 0032 5A43     		muls	r2, r3
 3300 0034 0392     		str	r2, [sp, #12]
 3301              	.LVL357:
 3302              	.L214:
1066:GFX_Library.c ****         for(int16_t i=0; i<w; i++ ) {
 3303              		.loc 1 1066 0 discriminator 1
 3304 0036 019B     		ldr	r3, [sp, #4]
 3305 0038 8342     		cmp	r3, r0
 3306 003a 1CDD     		ble	.L215
1067:GFX_Library.c ****             else      _byte   = bitmap[j * byteWidth + i / 8];
 3307              		.loc 1 1067 0
 3308 003c 0723     		movs	r3, #7
 3309 003e 6D00     		lsls	r5, r5, #1
 3310              	.LVL358:
 3311 0040 86B2     		uxth	r6, r0
 3312 0042 EDB2     		uxtb	r5, r5
 3313 0044 1E42     		tst	r6, r3
 3314 0046 08D1     		bne	.L210
 3315              		.loc 1 1068 0
 3316 0048 0722     		movs	r2, #7
 3317 004a C317     		asrs	r3, r0, #31
 3318 004c 1340     		ands	r3, r2
 3319 004e 0399     		ldr	r1, [sp, #12]
 3320 0050 059A     		ldr	r2, [sp, #20]
 3321 0052 1B18     		adds	r3, r3, r0
 3322 0054 DB10     		asrs	r3, r3, #3
 3323 0056 5218     		adds	r2, r2, r1
 3324 0058 D55C     		ldrb	r5, [r2, r3]
 3325              	.LVL359:
 3326              	.L210:
1069:GFX_Library.c ****             if(_byte & 0x80)
 3327              		.loc 1 1069 0
 3328 005a 6BB2     		sxtb	r3, r5
 3329 005c 002B     		cmp	r3, #0
 3330 005e 07DA     		bge	.L211
1070:GFX_Library.c ****               display_drawPixel(x+i, y, color);
 3331              		.loc 1 1070 0
 3332 0060 6B46     		mov	r3, sp
 3333 0062 1A7F     		ldrb	r2, [r3, #28]
ARM GAS  C:\Users\PC\AppData\Local\Temp\ccF7GaWd.s 			page 81


 3334 0064 049B     		ldr	r3, [sp, #16]
 3335 0066 E1B2     		uxtb	r1, r4
 3336 0068 1818     		adds	r0, r3, r0
 3337              	.LVL360:
 3338 006a C0B2     		uxtb	r0, r0
 3339 006c FFF7FEFF 		bl	drawPixel
 3340              	.LVL361:
 3341              	.L211:
 3342 0070 0136     		adds	r6, r6, #1
 3343              	.LVL362:
 3344 0072 30B2     		sxth	r0, r6
 3345              	.LVL363:
 3346 0074 DFE7     		b	.L214
 3347              	.L215:
 3348              	.LVL364:
 3349              	.LBE64:
1065:GFX_Library.c ****         for(int16_t i=0; i<w; i++ ) {
 3350              		.loc 1 1065 0 discriminator 2
 3351 0076 0134     		adds	r4, r4, #1
 3352              	.LVL365:
 3353 0078 A4B2     		uxth	r4, r4
 3354              	.LVL366:
 3355 007a D3E7     		b	.L208
 3356              	.LVL367:
 3357              	.L207:
 3358              	.LBE65:
1071:GFX_Library.c ****         }
1072:GFX_Library.c ****     }
1073:GFX_Library.c **** }
 3359              		.loc 1 1073 0
 3360 007c 09B0     		add	sp, sp, #36
 3361              		@ sp needed
 3362              	.LVL368:
 3363              	.LVL369:
 3364 007e F0BD     		pop	{r4, r5, r6, r7, pc}
 3365              		.cfi_endproc
 3366              	.LFE61:
 3367              		.size	display_drawBitmapV2, .-display_drawBitmapV2
 3368              		.section	.text.display_drawBitmapV2_bg,"ax",%progbits
 3369              		.align	1
 3370              		.global	display_drawBitmapV2_bg
 3371              		.code	16
 3372              		.thumb_func
 3373              		.type	display_drawBitmapV2_bg, %function
 3374              	display_drawBitmapV2_bg:
 3375              	.LFB62:
1074:GFX_Library.c **** 
1075:GFX_Library.c **** /**************************************************************************/
1076:GFX_Library.c **** /*!
1077:GFX_Library.c ****    @brief     Draw a ROM-resident 1-bit image at the specified (x,y) position,
1078:GFX_Library.c ****               using the specified foreground (for set bits) and background (unset bits) colors.
1079:GFX_Library.c ****     @param    x   Top left corner x coordinate
1080:GFX_Library.c ****     @param    y   Top left corner y coordinate
1081:GFX_Library.c ****     @param    bitmap  byte array with monochrome bitmap
1082:GFX_Library.c ****     @param    w   Width of bitmap in pixels
1083:GFX_Library.c ****     @param    h   Hieght of bitmap in pixels
1084:GFX_Library.c ****     @param    color 16-bit 5-6-5 Color to draw pixels with
ARM GAS  C:\Users\PC\AppData\Local\Temp\ccF7GaWd.s 			page 82


1085:GFX_Library.c ****     @param    bg 16-bit 5-6-5 Color to draw background with
1086:GFX_Library.c **** */
1087:GFX_Library.c **** /**************************************************************************/
1088:GFX_Library.c **** void display_drawBitmapV2_bg(uint16_t x, uint16_t y, const uint8_t *bitmap, uint16_t w, uint16_t h,
1089:GFX_Library.c ****   uint16_t color, uint16_t bg) {
 3376              		.loc 1 1089 0
 3377              		.cfi_startproc
 3378              		@ args = 12, pretend = 0, frame = 32
 3379              		@ frame_needed = 0, uses_anonymous_args = 0
 3380              	.LVL370:
 3381 0000 F0B5     		push	{r4, r5, r6, r7, lr}
 3382              		.cfi_def_cfa_offset 20
 3383              		.cfi_offset 4, -20
 3384              		.cfi_offset 5, -16
 3385              		.cfi_offset 6, -12
 3386              		.cfi_offset 7, -8
 3387              		.cfi_offset 14, -4
 3388 0002 0F00     		movs	r7, r1
 3389              	.LBB66:
1090:GFX_Library.c **** 
1091:GFX_Library.c ****     int16_t byteWidth = (w + 7) / 8; // Bitmap scanline pad = whole byte
1092:GFX_Library.c ****     uint8_t _byte = 0;
1093:GFX_Library.c **** 
1094:GFX_Library.c ****     for(int16_t j=0; j<h; j++, y++) {
 3390              		.loc 1 1094 0
 3391 0004 0C00     		movs	r4, r1
 3392              	.LBE66:
1092:GFX_Library.c **** 
 3393              		.loc 1 1092 0
 3394 0006 0025     		movs	r5, #0
1089:GFX_Library.c **** 
 3395              		.loc 1 1089 0
 3396 0008 89B0     		sub	sp, sp, #36
 3397              		.cfi_def_cfa_offset 56
1089:GFX_Library.c **** 
 3398              		.loc 1 1089 0
 3399 000a 0093     		str	r3, [sp]
 3400 000c 0EAB     		add	r3, sp, #56
 3401              	.LVL371:
 3402 000e 1B88     		ldrh	r3, [r3]
 3403              	.LVL372:
 3404 0010 0390     		str	r0, [sp, #12]
 3405 0012 0593     		str	r3, [sp, #20]
 3406 0014 0FAB     		add	r3, sp, #60
 3407              	.LVL373:
 3408 0016 1B88     		ldrh	r3, [r3]
 3409              	.LVL374:
 3410 0018 0492     		str	r2, [sp, #16]
 3411 001a 0693     		str	r3, [sp, #24]
 3412 001c 10AB     		add	r3, sp, #64
 3413              	.LVL375:
 3414 001e 1B88     		ldrh	r3, [r3]
 3415              	.LVL376:
 3416 0020 0793     		str	r3, [sp, #28]
1091:GFX_Library.c ****     uint8_t _byte = 0;
 3417              		.loc 1 1091 0
 3418 0022 009B     		ldr	r3, [sp]
ARM GAS  C:\Users\PC\AppData\Local\Temp\ccF7GaWd.s 			page 83


 3419 0024 0733     		adds	r3, r3, #7
 3420 0026 DB10     		asrs	r3, r3, #3
 3421 0028 0193     		str	r3, [sp, #4]
 3422              	.LVL377:
 3423              	.L217:
 3424 002a E31B     		subs	r3, r4, r7
 3425              	.LBB68:
 3426              		.loc 1 1094 0 discriminator 1
 3427 002c 059A     		ldr	r2, [sp, #20]
 3428 002e 1BB2     		sxth	r3, r3
 3429              	.LVL378:
 3430 0030 9342     		cmp	r3, r2
 3431 0032 29DA     		bge	.L216
 3432              	.LBB67:
1095:GFX_Library.c ****         for(int16_t i=0; i<w; i++ ) {
1096:GFX_Library.c ****             if(i & 7) _byte <<= 1;
1097:GFX_Library.c ****             else      _byte   = bitmap[j * byteWidth + i / 8];
 3433              		.loc 1 1097 0
 3434 0034 0020     		movs	r0, #0
 3435 0036 019A     		ldr	r2, [sp, #4]
 3436 0038 5A43     		muls	r2, r3
 3437 003a 0292     		str	r2, [sp, #8]
 3438              	.LVL379:
 3439              	.L224:
1095:GFX_Library.c ****         for(int16_t i=0; i<w; i++ ) {
 3440              		.loc 1 1095 0 discriminator 1
 3441 003c 009B     		ldr	r3, [sp]
 3442 003e 8342     		cmp	r3, r0
 3443 0040 1FDD     		ble	.L226
1096:GFX_Library.c ****             else      _byte   = bitmap[j * byteWidth + i / 8];
 3444              		.loc 1 1096 0
 3445 0042 0723     		movs	r3, #7
 3446 0044 6D00     		lsls	r5, r5, #1
 3447              	.LVL380:
 3448 0046 86B2     		uxth	r6, r0
 3449 0048 EDB2     		uxtb	r5, r5
 3450 004a 1E42     		tst	r6, r3
 3451 004c 08D1     		bne	.L219
 3452              		.loc 1 1097 0
 3453 004e 0722     		movs	r2, #7
 3454 0050 C317     		asrs	r3, r0, #31
 3455 0052 1340     		ands	r3, r2
 3456 0054 0299     		ldr	r1, [sp, #8]
 3457 0056 049A     		ldr	r2, [sp, #16]
 3458 0058 1B18     		adds	r3, r3, r0
 3459 005a DB10     		asrs	r3, r3, #3
 3460 005c 5218     		adds	r2, r2, r1
 3461 005e D55C     		ldrb	r5, [r2, r3]
 3462              	.LVL381:
 3463              	.L219:
 3464 0060 039A     		ldr	r2, [sp, #12]
1098:GFX_Library.c ****             if(_byte & 0x80)
 3465              		.loc 1 1098 0
 3466 0062 6BB2     		sxtb	r3, r5
 3467 0064 1018     		adds	r0, r2, r0
 3468              	.LVL382:
 3469 0066 002B     		cmp	r3, #0
ARM GAS  C:\Users\PC\AppData\Local\Temp\ccF7GaWd.s 			page 84


 3470 0068 02DA     		bge	.L220
1099:GFX_Library.c ****               display_drawPixel(x+i, y, color);
 3471              		.loc 1 1099 0
 3472 006a 6B46     		mov	r3, sp
 3473 006c 1A7E     		ldrb	r2, [r3, #24]
 3474 006e 01E0     		b	.L225
 3475              	.L220:
1100:GFX_Library.c ****             else
1101:GFX_Library.c ****               display_drawPixel(x+i, y, bg);
 3476              		.loc 1 1101 0
 3477 0070 6B46     		mov	r3, sp
 3478 0072 1A7F     		ldrb	r2, [r3, #28]
 3479              	.L225:
 3480 0074 C0B2     		uxtb	r0, r0
 3481 0076 E1B2     		uxtb	r1, r4
 3482 0078 0136     		adds	r6, r6, #1
 3483              	.LVL383:
 3484 007a FFF7FEFF 		bl	drawPixel
 3485              	.LVL384:
 3486 007e 30B2     		sxth	r0, r6
 3487              	.LVL385:
 3488 0080 DCE7     		b	.L224
 3489              	.L226:
 3490              	.LVL386:
 3491              	.LBE67:
1094:GFX_Library.c ****         for(int16_t i=0; i<w; i++ ) {
 3492              		.loc 1 1094 0 discriminator 2
 3493 0082 0134     		adds	r4, r4, #1
 3494              	.LVL387:
 3495 0084 A4B2     		uxth	r4, r4
 3496              	.LVL388:
 3497 0086 D0E7     		b	.L217
 3498              	.LVL389:
 3499              	.L216:
 3500              	.LBE68:
1102:GFX_Library.c ****         }
1103:GFX_Library.c ****     }
1104:GFX_Library.c **** }
 3501              		.loc 1 1104 0
 3502 0088 09B0     		add	sp, sp, #36
 3503              		@ sp needed
 3504              	.LVL390:
 3505              	.LVL391:
 3506 008a F0BD     		pop	{r4, r5, r6, r7, pc}
 3507              		.cfi_endproc
 3508              	.LFE62:
 3509              		.size	display_drawBitmapV2_bg, .-display_drawBitmapV2_bg
 3510              		.global	wrap
 3511              		.global	textsize
 3512              		.global	textbgcolor
 3513              		.global	textcolor
 3514              		.global	cursor_y
 3515              		.global	cursor_x
 3516              		.comm	_height,1,1
 3517              		.comm	_width,1,1
 3518              		.comm	rotation,1,1
 3519              		.comm	_vccstate,1,1
ARM GAS  C:\Users\PC\AppData\Local\Temp\ccF7GaWd.s 			page 85


 3520              		.section	.rodata
 3521              		.set	.LANCHOR2,. + 0
 3522              		.type	font, %object
 3523              		.size	font, 1280
 3524              	font:
 3525 0000 00       		.byte	0
 3526 0001 00       		.byte	0
 3527 0002 00       		.byte	0
 3528 0003 00       		.byte	0
 3529 0004 00       		.byte	0
 3530 0005 3E       		.byte	62
 3531 0006 5B       		.byte	91
 3532 0007 4F       		.byte	79
 3533 0008 5B       		.byte	91
 3534 0009 3E       		.byte	62
 3535 000a 3E       		.byte	62
 3536 000b 6B       		.byte	107
 3537 000c 4F       		.byte	79
 3538 000d 6B       		.byte	107
 3539 000e 3E       		.byte	62
 3540 000f 1C       		.byte	28
 3541 0010 3E       		.byte	62
 3542 0011 7C       		.byte	124
 3543 0012 3E       		.byte	62
 3544 0013 1C       		.byte	28
 3545 0014 18       		.byte	24
 3546 0015 3C       		.byte	60
 3547 0016 7E       		.byte	126
 3548 0017 3C       		.byte	60
 3549 0018 18       		.byte	24
 3550 0019 1C       		.byte	28
 3551 001a 57       		.byte	87
 3552 001b 7D       		.byte	125
 3553 001c 57       		.byte	87
 3554 001d 1C       		.byte	28
 3555 001e 1C       		.byte	28
 3556 001f 5E       		.byte	94
 3557 0020 7F       		.byte	127
 3558 0021 5E       		.byte	94
 3559 0022 1C       		.byte	28
 3560 0023 00       		.byte	0
 3561 0024 18       		.byte	24
 3562 0025 3C       		.byte	60
 3563 0026 18       		.byte	24
 3564 0027 00       		.byte	0
 3565 0028 FF       		.byte	-1
 3566 0029 E7       		.byte	-25
 3567 002a C3       		.byte	-61
 3568 002b E7       		.byte	-25
 3569 002c FF       		.byte	-1
 3570 002d 00       		.byte	0
 3571 002e 18       		.byte	24
 3572 002f 24       		.byte	36
 3573 0030 18       		.byte	24
 3574 0031 00       		.byte	0
 3575 0032 FF       		.byte	-1
 3576 0033 E7       		.byte	-25
ARM GAS  C:\Users\PC\AppData\Local\Temp\ccF7GaWd.s 			page 86


 3577 0034 DB       		.byte	-37
 3578 0035 E7       		.byte	-25
 3579 0036 FF       		.byte	-1
 3580 0037 30       		.byte	48
 3581 0038 48       		.byte	72
 3582 0039 3A       		.byte	58
 3583 003a 06       		.byte	6
 3584 003b 0E       		.byte	14
 3585 003c 26       		.byte	38
 3586 003d 29       		.byte	41
 3587 003e 79       		.byte	121
 3588 003f 29       		.byte	41
 3589 0040 26       		.byte	38
 3590 0041 40       		.byte	64
 3591 0042 7F       		.byte	127
 3592 0043 05       		.byte	5
 3593 0044 05       		.byte	5
 3594 0045 07       		.byte	7
 3595 0046 40       		.byte	64
 3596 0047 7F       		.byte	127
 3597 0048 05       		.byte	5
 3598 0049 25       		.byte	37
 3599 004a 3F       		.byte	63
 3600 004b 5A       		.byte	90
 3601 004c 3C       		.byte	60
 3602 004d E7       		.byte	-25
 3603 004e 3C       		.byte	60
 3604 004f 5A       		.byte	90
 3605 0050 7F       		.byte	127
 3606 0051 3E       		.byte	62
 3607 0052 1C       		.byte	28
 3608 0053 1C       		.byte	28
 3609 0054 08       		.byte	8
 3610 0055 08       		.byte	8
 3611 0056 1C       		.byte	28
 3612 0057 1C       		.byte	28
 3613 0058 3E       		.byte	62
 3614 0059 7F       		.byte	127
 3615 005a 14       		.byte	20
 3616 005b 22       		.byte	34
 3617 005c 7F       		.byte	127
 3618 005d 22       		.byte	34
 3619 005e 14       		.byte	20
 3620 005f 5F       		.byte	95
 3621 0060 5F       		.byte	95
 3622 0061 00       		.byte	0
 3623 0062 5F       		.byte	95
 3624 0063 5F       		.byte	95
 3625 0064 06       		.byte	6
 3626 0065 09       		.byte	9
 3627 0066 7F       		.byte	127
 3628 0067 01       		.byte	1
 3629 0068 7F       		.byte	127
 3630 0069 00       		.byte	0
 3631 006a 66       		.byte	102
 3632 006b 89       		.byte	-119
 3633 006c 95       		.byte	-107
ARM GAS  C:\Users\PC\AppData\Local\Temp\ccF7GaWd.s 			page 87


 3634 006d 6A       		.byte	106
 3635 006e 60       		.byte	96
 3636 006f 60       		.byte	96
 3637 0070 60       		.byte	96
 3638 0071 60       		.byte	96
 3639 0072 60       		.byte	96
 3640 0073 94       		.byte	-108
 3641 0074 A2       		.byte	-94
 3642 0075 FF       		.byte	-1
 3643 0076 A2       		.byte	-94
 3644 0077 94       		.byte	-108
 3645 0078 08       		.byte	8
 3646 0079 04       		.byte	4
 3647 007a 7E       		.byte	126
 3648 007b 04       		.byte	4
 3649 007c 08       		.byte	8
 3650 007d 10       		.byte	16
 3651 007e 20       		.byte	32
 3652 007f 7E       		.byte	126
 3653 0080 20       		.byte	32
 3654 0081 10       		.byte	16
 3655 0082 08       		.byte	8
 3656 0083 08       		.byte	8
 3657 0084 2A       		.byte	42
 3658 0085 1C       		.byte	28
 3659 0086 08       		.byte	8
 3660 0087 08       		.byte	8
 3661 0088 1C       		.byte	28
 3662 0089 2A       		.byte	42
 3663 008a 08       		.byte	8
 3664 008b 08       		.byte	8
 3665 008c 1E       		.byte	30
 3666 008d 10       		.byte	16
 3667 008e 10       		.byte	16
 3668 008f 10       		.byte	16
 3669 0090 10       		.byte	16
 3670 0091 0C       		.byte	12
 3671 0092 1E       		.byte	30
 3672 0093 0C       		.byte	12
 3673 0094 1E       		.byte	30
 3674 0095 0C       		.byte	12
 3675 0096 30       		.byte	48
 3676 0097 38       		.byte	56
 3677 0098 3E       		.byte	62
 3678 0099 38       		.byte	56
 3679 009a 30       		.byte	48
 3680 009b 06       		.byte	6
 3681 009c 0E       		.byte	14
 3682 009d 3E       		.byte	62
 3683 009e 0E       		.byte	14
 3684 009f 06       		.byte	6
 3685 00a0 00       		.byte	0
 3686 00a1 00       		.byte	0
 3687 00a2 00       		.byte	0
 3688 00a3 00       		.byte	0
 3689 00a4 00       		.byte	0
 3690 00a5 00       		.byte	0
ARM GAS  C:\Users\PC\AppData\Local\Temp\ccF7GaWd.s 			page 88


 3691 00a6 00       		.byte	0
 3692 00a7 5F       		.byte	95
 3693 00a8 00       		.byte	0
 3694 00a9 00       		.byte	0
 3695 00aa 00       		.byte	0
 3696 00ab 07       		.byte	7
 3697 00ac 00       		.byte	0
 3698 00ad 07       		.byte	7
 3699 00ae 00       		.byte	0
 3700 00af 14       		.byte	20
 3701 00b0 7F       		.byte	127
 3702 00b1 14       		.byte	20
 3703 00b2 7F       		.byte	127
 3704 00b3 14       		.byte	20
 3705 00b4 24       		.byte	36
 3706 00b5 2A       		.byte	42
 3707 00b6 7F       		.byte	127
 3708 00b7 2A       		.byte	42
 3709 00b8 12       		.byte	18
 3710 00b9 23       		.byte	35
 3711 00ba 13       		.byte	19
 3712 00bb 08       		.byte	8
 3713 00bc 64       		.byte	100
 3714 00bd 62       		.byte	98
 3715 00be 36       		.byte	54
 3716 00bf 49       		.byte	73
 3717 00c0 56       		.byte	86
 3718 00c1 20       		.byte	32
 3719 00c2 50       		.byte	80
 3720 00c3 00       		.byte	0
 3721 00c4 08       		.byte	8
 3722 00c5 07       		.byte	7
 3723 00c6 03       		.byte	3
 3724 00c7 00       		.byte	0
 3725 00c8 00       		.byte	0
 3726 00c9 1C       		.byte	28
 3727 00ca 22       		.byte	34
 3728 00cb 41       		.byte	65
 3729 00cc 00       		.byte	0
 3730 00cd 00       		.byte	0
 3731 00ce 41       		.byte	65
 3732 00cf 22       		.byte	34
 3733 00d0 1C       		.byte	28
 3734 00d1 00       		.byte	0
 3735 00d2 2A       		.byte	42
 3736 00d3 1C       		.byte	28
 3737 00d4 7F       		.byte	127
 3738 00d5 1C       		.byte	28
 3739 00d6 2A       		.byte	42
 3740 00d7 08       		.byte	8
 3741 00d8 08       		.byte	8
 3742 00d9 3E       		.byte	62
 3743 00da 08       		.byte	8
 3744 00db 08       		.byte	8
 3745 00dc 00       		.byte	0
 3746 00dd 80       		.byte	-128
 3747 00de 70       		.byte	112
ARM GAS  C:\Users\PC\AppData\Local\Temp\ccF7GaWd.s 			page 89


 3748 00df 30       		.byte	48
 3749 00e0 00       		.byte	0
 3750 00e1 08       		.byte	8
 3751 00e2 08       		.byte	8
 3752 00e3 08       		.byte	8
 3753 00e4 08       		.byte	8
 3754 00e5 08       		.byte	8
 3755 00e6 00       		.byte	0
 3756 00e7 00       		.byte	0
 3757 00e8 60       		.byte	96
 3758 00e9 60       		.byte	96
 3759 00ea 00       		.byte	0
 3760 00eb 20       		.byte	32
 3761 00ec 10       		.byte	16
 3762 00ed 08       		.byte	8
 3763 00ee 04       		.byte	4
 3764 00ef 02       		.byte	2
 3765 00f0 3E       		.byte	62
 3766 00f1 51       		.byte	81
 3767 00f2 49       		.byte	73
 3768 00f3 45       		.byte	69
 3769 00f4 3E       		.byte	62
 3770 00f5 00       		.byte	0
 3771 00f6 42       		.byte	66
 3772 00f7 7F       		.byte	127
 3773 00f8 40       		.byte	64
 3774 00f9 00       		.byte	0
 3775 00fa 72       		.byte	114
 3776 00fb 49       		.byte	73
 3777 00fc 49       		.byte	73
 3778 00fd 49       		.byte	73
 3779 00fe 46       		.byte	70
 3780 00ff 21       		.byte	33
 3781 0100 41       		.byte	65
 3782 0101 49       		.byte	73
 3783 0102 4D       		.byte	77
 3784 0103 33       		.byte	51
 3785 0104 18       		.byte	24
 3786 0105 14       		.byte	20
 3787 0106 12       		.byte	18
 3788 0107 7F       		.byte	127
 3789 0108 10       		.byte	16
 3790 0109 27       		.byte	39
 3791 010a 45       		.byte	69
 3792 010b 45       		.byte	69
 3793 010c 45       		.byte	69
 3794 010d 39       		.byte	57
 3795 010e 3C       		.byte	60
 3796 010f 4A       		.byte	74
 3797 0110 49       		.byte	73
 3798 0111 49       		.byte	73
 3799 0112 31       		.byte	49
 3800 0113 41       		.byte	65
 3801 0114 21       		.byte	33
 3802 0115 11       		.byte	17
 3803 0116 09       		.byte	9
 3804 0117 07       		.byte	7
ARM GAS  C:\Users\PC\AppData\Local\Temp\ccF7GaWd.s 			page 90


 3805 0118 36       		.byte	54
 3806 0119 49       		.byte	73
 3807 011a 49       		.byte	73
 3808 011b 49       		.byte	73
 3809 011c 36       		.byte	54
 3810 011d 46       		.byte	70
 3811 011e 49       		.byte	73
 3812 011f 49       		.byte	73
 3813 0120 29       		.byte	41
 3814 0121 1E       		.byte	30
 3815 0122 00       		.byte	0
 3816 0123 00       		.byte	0
 3817 0124 14       		.byte	20
 3818 0125 00       		.byte	0
 3819 0126 00       		.byte	0
 3820 0127 00       		.byte	0
 3821 0128 40       		.byte	64
 3822 0129 34       		.byte	52
 3823 012a 00       		.byte	0
 3824 012b 00       		.byte	0
 3825 012c 00       		.byte	0
 3826 012d 08       		.byte	8
 3827 012e 14       		.byte	20
 3828 012f 22       		.byte	34
 3829 0130 41       		.byte	65
 3830 0131 14       		.byte	20
 3831 0132 14       		.byte	20
 3832 0133 14       		.byte	20
 3833 0134 14       		.byte	20
 3834 0135 14       		.byte	20
 3835 0136 00       		.byte	0
 3836 0137 41       		.byte	65
 3837 0138 22       		.byte	34
 3838 0139 14       		.byte	20
 3839 013a 08       		.byte	8
 3840 013b 02       		.byte	2
 3841 013c 01       		.byte	1
 3842 013d 59       		.byte	89
 3843 013e 09       		.byte	9
 3844 013f 06       		.byte	6
 3845 0140 3E       		.byte	62
 3846 0141 41       		.byte	65
 3847 0142 5D       		.byte	93
 3848 0143 59       		.byte	89
 3849 0144 4E       		.byte	78
 3850 0145 7C       		.byte	124
 3851 0146 12       		.byte	18
 3852 0147 11       		.byte	17
 3853 0148 12       		.byte	18
 3854 0149 7C       		.byte	124
 3855 014a 7F       		.byte	127
 3856 014b 49       		.byte	73
 3857 014c 49       		.byte	73
 3858 014d 49       		.byte	73
 3859 014e 36       		.byte	54
 3860 014f 3E       		.byte	62
 3861 0150 41       		.byte	65
ARM GAS  C:\Users\PC\AppData\Local\Temp\ccF7GaWd.s 			page 91


 3862 0151 41       		.byte	65
 3863 0152 41       		.byte	65
 3864 0153 22       		.byte	34
 3865 0154 7F       		.byte	127
 3866 0155 41       		.byte	65
 3867 0156 41       		.byte	65
 3868 0157 41       		.byte	65
 3869 0158 3E       		.byte	62
 3870 0159 7F       		.byte	127
 3871 015a 49       		.byte	73
 3872 015b 49       		.byte	73
 3873 015c 49       		.byte	73
 3874 015d 41       		.byte	65
 3875 015e 7F       		.byte	127
 3876 015f 09       		.byte	9
 3877 0160 09       		.byte	9
 3878 0161 09       		.byte	9
 3879 0162 01       		.byte	1
 3880 0163 3E       		.byte	62
 3881 0164 41       		.byte	65
 3882 0165 41       		.byte	65
 3883 0166 51       		.byte	81
 3884 0167 73       		.byte	115
 3885 0168 7F       		.byte	127
 3886 0169 08       		.byte	8
 3887 016a 08       		.byte	8
 3888 016b 08       		.byte	8
 3889 016c 7F       		.byte	127
 3890 016d 00       		.byte	0
 3891 016e 41       		.byte	65
 3892 016f 7F       		.byte	127
 3893 0170 41       		.byte	65
 3894 0171 00       		.byte	0
 3895 0172 20       		.byte	32
 3896 0173 40       		.byte	64
 3897 0174 41       		.byte	65
 3898 0175 3F       		.byte	63
 3899 0176 01       		.byte	1
 3900 0177 7F       		.byte	127
 3901 0178 08       		.byte	8
 3902 0179 14       		.byte	20
 3903 017a 22       		.byte	34
 3904 017b 41       		.byte	65
 3905 017c 7F       		.byte	127
 3906 017d 40       		.byte	64
 3907 017e 40       		.byte	64
 3908 017f 40       		.byte	64
 3909 0180 40       		.byte	64
 3910 0181 7F       		.byte	127
 3911 0182 02       		.byte	2
 3912 0183 1C       		.byte	28
 3913 0184 02       		.byte	2
 3914 0185 7F       		.byte	127
 3915 0186 7F       		.byte	127
 3916 0187 04       		.byte	4
 3917 0188 08       		.byte	8
 3918 0189 10       		.byte	16
ARM GAS  C:\Users\PC\AppData\Local\Temp\ccF7GaWd.s 			page 92


 3919 018a 7F       		.byte	127
 3920 018b 3E       		.byte	62
 3921 018c 41       		.byte	65
 3922 018d 41       		.byte	65
 3923 018e 41       		.byte	65
 3924 018f 3E       		.byte	62
 3925 0190 7F       		.byte	127
 3926 0191 09       		.byte	9
 3927 0192 09       		.byte	9
 3928 0193 09       		.byte	9
 3929 0194 06       		.byte	6
 3930 0195 3E       		.byte	62
 3931 0196 41       		.byte	65
 3932 0197 51       		.byte	81
 3933 0198 21       		.byte	33
 3934 0199 5E       		.byte	94
 3935 019a 7F       		.byte	127
 3936 019b 09       		.byte	9
 3937 019c 19       		.byte	25
 3938 019d 29       		.byte	41
 3939 019e 46       		.byte	70
 3940 019f 26       		.byte	38
 3941 01a0 49       		.byte	73
 3942 01a1 49       		.byte	73
 3943 01a2 49       		.byte	73
 3944 01a3 32       		.byte	50
 3945 01a4 03       		.byte	3
 3946 01a5 01       		.byte	1
 3947 01a6 7F       		.byte	127
 3948 01a7 01       		.byte	1
 3949 01a8 03       		.byte	3
 3950 01a9 3F       		.byte	63
 3951 01aa 40       		.byte	64
 3952 01ab 40       		.byte	64
 3953 01ac 40       		.byte	64
 3954 01ad 3F       		.byte	63
 3955 01ae 1F       		.byte	31
 3956 01af 20       		.byte	32
 3957 01b0 40       		.byte	64
 3958 01b1 20       		.byte	32
 3959 01b2 1F       		.byte	31
 3960 01b3 3F       		.byte	63
 3961 01b4 40       		.byte	64
 3962 01b5 38       		.byte	56
 3963 01b6 40       		.byte	64
 3964 01b7 3F       		.byte	63
 3965 01b8 63       		.byte	99
 3966 01b9 14       		.byte	20
 3967 01ba 08       		.byte	8
 3968 01bb 14       		.byte	20
 3969 01bc 63       		.byte	99
 3970 01bd 03       		.byte	3
 3971 01be 04       		.byte	4
 3972 01bf 78       		.byte	120
 3973 01c0 04       		.byte	4
 3974 01c1 03       		.byte	3
 3975 01c2 61       		.byte	97
ARM GAS  C:\Users\PC\AppData\Local\Temp\ccF7GaWd.s 			page 93


 3976 01c3 59       		.byte	89
 3977 01c4 49       		.byte	73
 3978 01c5 4D       		.byte	77
 3979 01c6 43       		.byte	67
 3980 01c7 00       		.byte	0
 3981 01c8 7F       		.byte	127
 3982 01c9 41       		.byte	65
 3983 01ca 41       		.byte	65
 3984 01cb 41       		.byte	65
 3985 01cc 02       		.byte	2
 3986 01cd 04       		.byte	4
 3987 01ce 08       		.byte	8
 3988 01cf 10       		.byte	16
 3989 01d0 20       		.byte	32
 3990 01d1 00       		.byte	0
 3991 01d2 41       		.byte	65
 3992 01d3 41       		.byte	65
 3993 01d4 41       		.byte	65
 3994 01d5 7F       		.byte	127
 3995 01d6 04       		.byte	4
 3996 01d7 02       		.byte	2
 3997 01d8 01       		.byte	1
 3998 01d9 02       		.byte	2
 3999 01da 04       		.byte	4
 4000 01db 40       		.byte	64
 4001 01dc 40       		.byte	64
 4002 01dd 40       		.byte	64
 4003 01de 40       		.byte	64
 4004 01df 40       		.byte	64
 4005 01e0 00       		.byte	0
 4006 01e1 03       		.byte	3
 4007 01e2 07       		.byte	7
 4008 01e3 08       		.byte	8
 4009 01e4 00       		.byte	0
 4010 01e5 20       		.byte	32
 4011 01e6 54       		.byte	84
 4012 01e7 54       		.byte	84
 4013 01e8 78       		.byte	120
 4014 01e9 40       		.byte	64
 4015 01ea 7F       		.byte	127
 4016 01eb 28       		.byte	40
 4017 01ec 44       		.byte	68
 4018 01ed 44       		.byte	68
 4019 01ee 38       		.byte	56
 4020 01ef 38       		.byte	56
 4021 01f0 44       		.byte	68
 4022 01f1 44       		.byte	68
 4023 01f2 44       		.byte	68
 4024 01f3 28       		.byte	40
 4025 01f4 38       		.byte	56
 4026 01f5 44       		.byte	68
 4027 01f6 44       		.byte	68
 4028 01f7 28       		.byte	40
 4029 01f8 7F       		.byte	127
 4030 01f9 38       		.byte	56
 4031 01fa 54       		.byte	84
 4032 01fb 54       		.byte	84
ARM GAS  C:\Users\PC\AppData\Local\Temp\ccF7GaWd.s 			page 94


 4033 01fc 54       		.byte	84
 4034 01fd 18       		.byte	24
 4035 01fe 00       		.byte	0
 4036 01ff 08       		.byte	8
 4037 0200 7E       		.byte	126
 4038 0201 09       		.byte	9
 4039 0202 02       		.byte	2
 4040 0203 18       		.byte	24
 4041 0204 A4       		.byte	-92
 4042 0205 A4       		.byte	-92
 4043 0206 9C       		.byte	-100
 4044 0207 78       		.byte	120
 4045 0208 7F       		.byte	127
 4046 0209 08       		.byte	8
 4047 020a 04       		.byte	4
 4048 020b 04       		.byte	4
 4049 020c 78       		.byte	120
 4050 020d 00       		.byte	0
 4051 020e 44       		.byte	68
 4052 020f 7D       		.byte	125
 4053 0210 40       		.byte	64
 4054 0211 00       		.byte	0
 4055 0212 20       		.byte	32
 4056 0213 40       		.byte	64
 4057 0214 40       		.byte	64
 4058 0215 3D       		.byte	61
 4059 0216 00       		.byte	0
 4060 0217 7F       		.byte	127
 4061 0218 10       		.byte	16
 4062 0219 28       		.byte	40
 4063 021a 44       		.byte	68
 4064 021b 00       		.byte	0
 4065 021c 00       		.byte	0
 4066 021d 41       		.byte	65
 4067 021e 7F       		.byte	127
 4068 021f 40       		.byte	64
 4069 0220 00       		.byte	0
 4070 0221 7C       		.byte	124
 4071 0222 04       		.byte	4
 4072 0223 78       		.byte	120
 4073 0224 04       		.byte	4
 4074 0225 78       		.byte	120
 4075 0226 7C       		.byte	124
 4076 0227 08       		.byte	8
 4077 0228 04       		.byte	4
 4078 0229 04       		.byte	4
 4079 022a 78       		.byte	120
 4080 022b 38       		.byte	56
 4081 022c 44       		.byte	68
 4082 022d 44       		.byte	68
 4083 022e 44       		.byte	68
 4084 022f 38       		.byte	56
 4085 0230 FC       		.byte	-4
 4086 0231 18       		.byte	24
 4087 0232 24       		.byte	36
 4088 0233 24       		.byte	36
 4089 0234 18       		.byte	24
ARM GAS  C:\Users\PC\AppData\Local\Temp\ccF7GaWd.s 			page 95


 4090 0235 18       		.byte	24
 4091 0236 24       		.byte	36
 4092 0237 24       		.byte	36
 4093 0238 18       		.byte	24
 4094 0239 FC       		.byte	-4
 4095 023a 7C       		.byte	124
 4096 023b 08       		.byte	8
 4097 023c 04       		.byte	4
 4098 023d 04       		.byte	4
 4099 023e 08       		.byte	8
 4100 023f 48       		.byte	72
 4101 0240 54       		.byte	84
 4102 0241 54       		.byte	84
 4103 0242 54       		.byte	84
 4104 0243 24       		.byte	36
 4105 0244 04       		.byte	4
 4106 0245 04       		.byte	4
 4107 0246 3F       		.byte	63
 4108 0247 44       		.byte	68
 4109 0248 24       		.byte	36
 4110 0249 3C       		.byte	60
 4111 024a 40       		.byte	64
 4112 024b 40       		.byte	64
 4113 024c 20       		.byte	32
 4114 024d 7C       		.byte	124
 4115 024e 1C       		.byte	28
 4116 024f 20       		.byte	32
 4117 0250 40       		.byte	64
 4118 0251 20       		.byte	32
 4119 0252 1C       		.byte	28
 4120 0253 3C       		.byte	60
 4121 0254 40       		.byte	64
 4122 0255 30       		.byte	48
 4123 0256 40       		.byte	64
 4124 0257 3C       		.byte	60
 4125 0258 44       		.byte	68
 4126 0259 28       		.byte	40
 4127 025a 10       		.byte	16
 4128 025b 28       		.byte	40
 4129 025c 44       		.byte	68
 4130 025d 4C       		.byte	76
 4131 025e 90       		.byte	-112
 4132 025f 90       		.byte	-112
 4133 0260 90       		.byte	-112
 4134 0261 7C       		.byte	124
 4135 0262 44       		.byte	68
 4136 0263 64       		.byte	100
 4137 0264 54       		.byte	84
 4138 0265 4C       		.byte	76
 4139 0266 44       		.byte	68
 4140 0267 00       		.byte	0
 4141 0268 08       		.byte	8
 4142 0269 36       		.byte	54
 4143 026a 41       		.byte	65
 4144 026b 00       		.byte	0
 4145 026c 00       		.byte	0
 4146 026d 00       		.byte	0
ARM GAS  C:\Users\PC\AppData\Local\Temp\ccF7GaWd.s 			page 96


 4147 026e 77       		.byte	119
 4148 026f 00       		.byte	0
 4149 0270 00       		.byte	0
 4150 0271 00       		.byte	0
 4151 0272 41       		.byte	65
 4152 0273 36       		.byte	54
 4153 0274 08       		.byte	8
 4154 0275 00       		.byte	0
 4155 0276 02       		.byte	2
 4156 0277 01       		.byte	1
 4157 0278 02       		.byte	2
 4158 0279 04       		.byte	4
 4159 027a 02       		.byte	2
 4160 027b 3C       		.byte	60
 4161 027c 26       		.byte	38
 4162 027d 23       		.byte	35
 4163 027e 26       		.byte	38
 4164 027f 3C       		.byte	60
 4165 0280 1E       		.byte	30
 4166 0281 A1       		.byte	-95
 4167 0282 A1       		.byte	-95
 4168 0283 61       		.byte	97
 4169 0284 12       		.byte	18
 4170 0285 3A       		.byte	58
 4171 0286 40       		.byte	64
 4172 0287 40       		.byte	64
 4173 0288 20       		.byte	32
 4174 0289 7A       		.byte	122
 4175 028a 38       		.byte	56
 4176 028b 54       		.byte	84
 4177 028c 54       		.byte	84
 4178 028d 55       		.byte	85
 4179 028e 59       		.byte	89
 4180 028f 21       		.byte	33
 4181 0290 55       		.byte	85
 4182 0291 55       		.byte	85
 4183 0292 79       		.byte	121
 4184 0293 41       		.byte	65
 4185 0294 22       		.byte	34
 4186 0295 54       		.byte	84
 4187 0296 54       		.byte	84
 4188 0297 78       		.byte	120
 4189 0298 42       		.byte	66
 4190 0299 21       		.byte	33
 4191 029a 55       		.byte	85
 4192 029b 54       		.byte	84
 4193 029c 78       		.byte	120
 4194 029d 40       		.byte	64
 4195 029e 20       		.byte	32
 4196 029f 54       		.byte	84
 4197 02a0 55       		.byte	85
 4198 02a1 79       		.byte	121
 4199 02a2 40       		.byte	64
 4200 02a3 0C       		.byte	12
 4201 02a4 1E       		.byte	30
 4202 02a5 52       		.byte	82
 4203 02a6 72       		.byte	114
ARM GAS  C:\Users\PC\AppData\Local\Temp\ccF7GaWd.s 			page 97


 4204 02a7 12       		.byte	18
 4205 02a8 39       		.byte	57
 4206 02a9 55       		.byte	85
 4207 02aa 55       		.byte	85
 4208 02ab 55       		.byte	85
 4209 02ac 59       		.byte	89
 4210 02ad 39       		.byte	57
 4211 02ae 54       		.byte	84
 4212 02af 54       		.byte	84
 4213 02b0 54       		.byte	84
 4214 02b1 59       		.byte	89
 4215 02b2 39       		.byte	57
 4216 02b3 55       		.byte	85
 4217 02b4 54       		.byte	84
 4218 02b5 54       		.byte	84
 4219 02b6 58       		.byte	88
 4220 02b7 00       		.byte	0
 4221 02b8 00       		.byte	0
 4222 02b9 45       		.byte	69
 4223 02ba 7C       		.byte	124
 4224 02bb 41       		.byte	65
 4225 02bc 00       		.byte	0
 4226 02bd 02       		.byte	2
 4227 02be 45       		.byte	69
 4228 02bf 7D       		.byte	125
 4229 02c0 42       		.byte	66
 4230 02c1 00       		.byte	0
 4231 02c2 01       		.byte	1
 4232 02c3 45       		.byte	69
 4233 02c4 7C       		.byte	124
 4234 02c5 40       		.byte	64
 4235 02c6 7D       		.byte	125
 4236 02c7 12       		.byte	18
 4237 02c8 11       		.byte	17
 4238 02c9 12       		.byte	18
 4239 02ca 7D       		.byte	125
 4240 02cb F0       		.byte	-16
 4241 02cc 28       		.byte	40
 4242 02cd 25       		.byte	37
 4243 02ce 28       		.byte	40
 4244 02cf F0       		.byte	-16
 4245 02d0 7C       		.byte	124
 4246 02d1 54       		.byte	84
 4247 02d2 55       		.byte	85
 4248 02d3 45       		.byte	69
 4249 02d4 00       		.byte	0
 4250 02d5 20       		.byte	32
 4251 02d6 54       		.byte	84
 4252 02d7 54       		.byte	84
 4253 02d8 7C       		.byte	124
 4254 02d9 54       		.byte	84
 4255 02da 7C       		.byte	124
 4256 02db 0A       		.byte	10
 4257 02dc 09       		.byte	9
 4258 02dd 7F       		.byte	127
 4259 02de 49       		.byte	73
 4260 02df 32       		.byte	50
ARM GAS  C:\Users\PC\AppData\Local\Temp\ccF7GaWd.s 			page 98


 4261 02e0 49       		.byte	73
 4262 02e1 49       		.byte	73
 4263 02e2 49       		.byte	73
 4264 02e3 32       		.byte	50
 4265 02e4 3A       		.byte	58
 4266 02e5 44       		.byte	68
 4267 02e6 44       		.byte	68
 4268 02e7 44       		.byte	68
 4269 02e8 3A       		.byte	58
 4270 02e9 32       		.byte	50
 4271 02ea 4A       		.byte	74
 4272 02eb 48       		.byte	72
 4273 02ec 48       		.byte	72
 4274 02ed 30       		.byte	48
 4275 02ee 3A       		.byte	58
 4276 02ef 41       		.byte	65
 4277 02f0 41       		.byte	65
 4278 02f1 21       		.byte	33
 4279 02f2 7A       		.byte	122
 4280 02f3 3A       		.byte	58
 4281 02f4 42       		.byte	66
 4282 02f5 40       		.byte	64
 4283 02f6 20       		.byte	32
 4284 02f7 78       		.byte	120
 4285 02f8 00       		.byte	0
 4286 02f9 9D       		.byte	-99
 4287 02fa A0       		.byte	-96
 4288 02fb A0       		.byte	-96
 4289 02fc 7D       		.byte	125
 4290 02fd 3D       		.byte	61
 4291 02fe 42       		.byte	66
 4292 02ff 42       		.byte	66
 4293 0300 42       		.byte	66
 4294 0301 3D       		.byte	61
 4295 0302 3D       		.byte	61
 4296 0303 40       		.byte	64
 4297 0304 40       		.byte	64
 4298 0305 40       		.byte	64
 4299 0306 3D       		.byte	61
 4300 0307 3C       		.byte	60
 4301 0308 24       		.byte	36
 4302 0309 FF       		.byte	-1
 4303 030a 24       		.byte	36
 4304 030b 24       		.byte	36
 4305 030c 48       		.byte	72
 4306 030d 7E       		.byte	126
 4307 030e 49       		.byte	73
 4308 030f 43       		.byte	67
 4309 0310 66       		.byte	102
 4310 0311 2B       		.byte	43
 4311 0312 2F       		.byte	47
 4312 0313 FC       		.byte	-4
 4313 0314 2F       		.byte	47
 4314 0315 2B       		.byte	43
 4315 0316 FF       		.byte	-1
 4316 0317 09       		.byte	9
 4317 0318 29       		.byte	41
ARM GAS  C:\Users\PC\AppData\Local\Temp\ccF7GaWd.s 			page 99


 4318 0319 F6       		.byte	-10
 4319 031a 20       		.byte	32
 4320 031b C0       		.byte	-64
 4321 031c 88       		.byte	-120
 4322 031d 7E       		.byte	126
 4323 031e 09       		.byte	9
 4324 031f 03       		.byte	3
 4325 0320 20       		.byte	32
 4326 0321 54       		.byte	84
 4327 0322 54       		.byte	84
 4328 0323 79       		.byte	121
 4329 0324 41       		.byte	65
 4330 0325 00       		.byte	0
 4331 0326 00       		.byte	0
 4332 0327 44       		.byte	68
 4333 0328 7D       		.byte	125
 4334 0329 41       		.byte	65
 4335 032a 30       		.byte	48
 4336 032b 48       		.byte	72
 4337 032c 48       		.byte	72
 4338 032d 4A       		.byte	74
 4339 032e 32       		.byte	50
 4340 032f 38       		.byte	56
 4341 0330 40       		.byte	64
 4342 0331 40       		.byte	64
 4343 0332 22       		.byte	34
 4344 0333 7A       		.byte	122
 4345 0334 00       		.byte	0
 4346 0335 7A       		.byte	122
 4347 0336 0A       		.byte	10
 4348 0337 0A       		.byte	10
 4349 0338 72       		.byte	114
 4350 0339 7D       		.byte	125
 4351 033a 0D       		.byte	13
 4352 033b 19       		.byte	25
 4353 033c 31       		.byte	49
 4354 033d 7D       		.byte	125
 4355 033e 26       		.byte	38
 4356 033f 29       		.byte	41
 4357 0340 29       		.byte	41
 4358 0341 2F       		.byte	47
 4359 0342 28       		.byte	40
 4360 0343 26       		.byte	38
 4361 0344 29       		.byte	41
 4362 0345 29       		.byte	41
 4363 0346 29       		.byte	41
 4364 0347 26       		.byte	38
 4365 0348 30       		.byte	48
 4366 0349 48       		.byte	72
 4367 034a 4D       		.byte	77
 4368 034b 40       		.byte	64
 4369 034c 20       		.byte	32
 4370 034d 38       		.byte	56
 4371 034e 08       		.byte	8
 4372 034f 08       		.byte	8
 4373 0350 08       		.byte	8
 4374 0351 08       		.byte	8
ARM GAS  C:\Users\PC\AppData\Local\Temp\ccF7GaWd.s 			page 100


 4375 0352 08       		.byte	8
 4376 0353 08       		.byte	8
 4377 0354 08       		.byte	8
 4378 0355 08       		.byte	8
 4379 0356 38       		.byte	56
 4380 0357 2F       		.byte	47
 4381 0358 10       		.byte	16
 4382 0359 C8       		.byte	-56
 4383 035a AC       		.byte	-84
 4384 035b BA       		.byte	-70
 4385 035c 2F       		.byte	47
 4386 035d 10       		.byte	16
 4387 035e 28       		.byte	40
 4388 035f 34       		.byte	52
 4389 0360 FA       		.byte	-6
 4390 0361 00       		.byte	0
 4391 0362 00       		.byte	0
 4392 0363 7B       		.byte	123
 4393 0364 00       		.byte	0
 4394 0365 00       		.byte	0
 4395 0366 08       		.byte	8
 4396 0367 14       		.byte	20
 4397 0368 2A       		.byte	42
 4398 0369 14       		.byte	20
 4399 036a 22       		.byte	34
 4400 036b 22       		.byte	34
 4401 036c 14       		.byte	20
 4402 036d 2A       		.byte	42
 4403 036e 14       		.byte	20
 4404 036f 08       		.byte	8
 4405 0370 55       		.byte	85
 4406 0371 00       		.byte	0
 4407 0372 55       		.byte	85
 4408 0373 00       		.byte	0
 4409 0374 55       		.byte	85
 4410 0375 AA       		.byte	-86
 4411 0376 55       		.byte	85
 4412 0377 AA       		.byte	-86
 4413 0378 55       		.byte	85
 4414 0379 AA       		.byte	-86
 4415 037a FF       		.byte	-1
 4416 037b 55       		.byte	85
 4417 037c FF       		.byte	-1
 4418 037d 55       		.byte	85
 4419 037e FF       		.byte	-1
 4420 037f 00       		.byte	0
 4421 0380 00       		.byte	0
 4422 0381 00       		.byte	0
 4423 0382 FF       		.byte	-1
 4424 0383 00       		.byte	0
 4425 0384 10       		.byte	16
 4426 0385 10       		.byte	16
 4427 0386 10       		.byte	16
 4428 0387 FF       		.byte	-1
 4429 0388 00       		.byte	0
 4430 0389 14       		.byte	20
 4431 038a 14       		.byte	20
ARM GAS  C:\Users\PC\AppData\Local\Temp\ccF7GaWd.s 			page 101


 4432 038b 14       		.byte	20
 4433 038c FF       		.byte	-1
 4434 038d 00       		.byte	0
 4435 038e 10       		.byte	16
 4436 038f 10       		.byte	16
 4437 0390 FF       		.byte	-1
 4438 0391 00       		.byte	0
 4439 0392 FF       		.byte	-1
 4440 0393 10       		.byte	16
 4441 0394 10       		.byte	16
 4442 0395 F0       		.byte	-16
 4443 0396 10       		.byte	16
 4444 0397 F0       		.byte	-16
 4445 0398 14       		.byte	20
 4446 0399 14       		.byte	20
 4447 039a 14       		.byte	20
 4448 039b FC       		.byte	-4
 4449 039c 00       		.byte	0
 4450 039d 14       		.byte	20
 4451 039e 14       		.byte	20
 4452 039f F7       		.byte	-9
 4453 03a0 00       		.byte	0
 4454 03a1 FF       		.byte	-1
 4455 03a2 00       		.byte	0
 4456 03a3 00       		.byte	0
 4457 03a4 FF       		.byte	-1
 4458 03a5 00       		.byte	0
 4459 03a6 FF       		.byte	-1
 4460 03a7 14       		.byte	20
 4461 03a8 14       		.byte	20
 4462 03a9 F4       		.byte	-12
 4463 03aa 04       		.byte	4
 4464 03ab FC       		.byte	-4
 4465 03ac 14       		.byte	20
 4466 03ad 14       		.byte	20
 4467 03ae 17       		.byte	23
 4468 03af 10       		.byte	16
 4469 03b0 1F       		.byte	31
 4470 03b1 10       		.byte	16
 4471 03b2 10       		.byte	16
 4472 03b3 1F       		.byte	31
 4473 03b4 10       		.byte	16
 4474 03b5 1F       		.byte	31
 4475 03b6 14       		.byte	20
 4476 03b7 14       		.byte	20
 4477 03b8 14       		.byte	20
 4478 03b9 1F       		.byte	31
 4479 03ba 00       		.byte	0
 4480 03bb 10       		.byte	16
 4481 03bc 10       		.byte	16
 4482 03bd 10       		.byte	16
 4483 03be F0       		.byte	-16
 4484 03bf 00       		.byte	0
 4485 03c0 00       		.byte	0
 4486 03c1 00       		.byte	0
 4487 03c2 00       		.byte	0
 4488 03c3 1F       		.byte	31
ARM GAS  C:\Users\PC\AppData\Local\Temp\ccF7GaWd.s 			page 102


 4489 03c4 10       		.byte	16
 4490 03c5 10       		.byte	16
 4491 03c6 10       		.byte	16
 4492 03c7 10       		.byte	16
 4493 03c8 1F       		.byte	31
 4494 03c9 10       		.byte	16
 4495 03ca 10       		.byte	16
 4496 03cb 10       		.byte	16
 4497 03cc 10       		.byte	16
 4498 03cd F0       		.byte	-16
 4499 03ce 10       		.byte	16
 4500 03cf 00       		.byte	0
 4501 03d0 00       		.byte	0
 4502 03d1 00       		.byte	0
 4503 03d2 FF       		.byte	-1
 4504 03d3 10       		.byte	16
 4505 03d4 10       		.byte	16
 4506 03d5 10       		.byte	16
 4507 03d6 10       		.byte	16
 4508 03d7 10       		.byte	16
 4509 03d8 10       		.byte	16
 4510 03d9 10       		.byte	16
 4511 03da 10       		.byte	16
 4512 03db 10       		.byte	16
 4513 03dc FF       		.byte	-1
 4514 03dd 10       		.byte	16
 4515 03de 00       		.byte	0
 4516 03df 00       		.byte	0
 4517 03e0 00       		.byte	0
 4518 03e1 FF       		.byte	-1
 4519 03e2 14       		.byte	20
 4520 03e3 00       		.byte	0
 4521 03e4 00       		.byte	0
 4522 03e5 FF       		.byte	-1
 4523 03e6 00       		.byte	0
 4524 03e7 FF       		.byte	-1
 4525 03e8 00       		.byte	0
 4526 03e9 00       		.byte	0
 4527 03ea 1F       		.byte	31
 4528 03eb 10       		.byte	16
 4529 03ec 17       		.byte	23
 4530 03ed 00       		.byte	0
 4531 03ee 00       		.byte	0
 4532 03ef FC       		.byte	-4
 4533 03f0 04       		.byte	4
 4534 03f1 F4       		.byte	-12
 4535 03f2 14       		.byte	20
 4536 03f3 14       		.byte	20
 4537 03f4 17       		.byte	23
 4538 03f5 10       		.byte	16
 4539 03f6 17       		.byte	23
 4540 03f7 14       		.byte	20
 4541 03f8 14       		.byte	20
 4542 03f9 F4       		.byte	-12
 4543 03fa 04       		.byte	4
 4544 03fb F4       		.byte	-12
 4545 03fc 00       		.byte	0
ARM GAS  C:\Users\PC\AppData\Local\Temp\ccF7GaWd.s 			page 103


 4546 03fd 00       		.byte	0
 4547 03fe FF       		.byte	-1
 4548 03ff 00       		.byte	0
 4549 0400 F7       		.byte	-9
 4550 0401 14       		.byte	20
 4551 0402 14       		.byte	20
 4552 0403 14       		.byte	20
 4553 0404 14       		.byte	20
 4554 0405 14       		.byte	20
 4555 0406 14       		.byte	20
 4556 0407 14       		.byte	20
 4557 0408 F7       		.byte	-9
 4558 0409 00       		.byte	0
 4559 040a F7       		.byte	-9
 4560 040b 14       		.byte	20
 4561 040c 14       		.byte	20
 4562 040d 14       		.byte	20
 4563 040e 17       		.byte	23
 4564 040f 14       		.byte	20
 4565 0410 10       		.byte	16
 4566 0411 10       		.byte	16
 4567 0412 1F       		.byte	31
 4568 0413 10       		.byte	16
 4569 0414 1F       		.byte	31
 4570 0415 14       		.byte	20
 4571 0416 14       		.byte	20
 4572 0417 14       		.byte	20
 4573 0418 F4       		.byte	-12
 4574 0419 14       		.byte	20
 4575 041a 10       		.byte	16
 4576 041b 10       		.byte	16
 4577 041c F0       		.byte	-16
 4578 041d 10       		.byte	16
 4579 041e F0       		.byte	-16
 4580 041f 00       		.byte	0
 4581 0420 00       		.byte	0
 4582 0421 1F       		.byte	31
 4583 0422 10       		.byte	16
 4584 0423 1F       		.byte	31
 4585 0424 00       		.byte	0
 4586 0425 00       		.byte	0
 4587 0426 00       		.byte	0
 4588 0427 1F       		.byte	31
 4589 0428 14       		.byte	20
 4590 0429 00       		.byte	0
 4591 042a 00       		.byte	0
 4592 042b 00       		.byte	0
 4593 042c FC       		.byte	-4
 4594 042d 14       		.byte	20
 4595 042e 00       		.byte	0
 4596 042f 00       		.byte	0
 4597 0430 F0       		.byte	-16
 4598 0431 10       		.byte	16
 4599 0432 F0       		.byte	-16
 4600 0433 10       		.byte	16
 4601 0434 10       		.byte	16
 4602 0435 FF       		.byte	-1
ARM GAS  C:\Users\PC\AppData\Local\Temp\ccF7GaWd.s 			page 104


 4603 0436 10       		.byte	16
 4604 0437 FF       		.byte	-1
 4605 0438 14       		.byte	20
 4606 0439 14       		.byte	20
 4607 043a 14       		.byte	20
 4608 043b FF       		.byte	-1
 4609 043c 14       		.byte	20
 4610 043d 10       		.byte	16
 4611 043e 10       		.byte	16
 4612 043f 10       		.byte	16
 4613 0440 1F       		.byte	31
 4614 0441 00       		.byte	0
 4615 0442 00       		.byte	0
 4616 0443 00       		.byte	0
 4617 0444 00       		.byte	0
 4618 0445 F0       		.byte	-16
 4619 0446 10       		.byte	16
 4620 0447 FF       		.byte	-1
 4621 0448 FF       		.byte	-1
 4622 0449 FF       		.byte	-1
 4623 044a FF       		.byte	-1
 4624 044b FF       		.byte	-1
 4625 044c F0       		.byte	-16
 4626 044d F0       		.byte	-16
 4627 044e F0       		.byte	-16
 4628 044f F0       		.byte	-16
 4629 0450 F0       		.byte	-16
 4630 0451 FF       		.byte	-1
 4631 0452 FF       		.byte	-1
 4632 0453 FF       		.byte	-1
 4633 0454 00       		.byte	0
 4634 0455 00       		.byte	0
 4635 0456 00       		.byte	0
 4636 0457 00       		.byte	0
 4637 0458 00       		.byte	0
 4638 0459 FF       		.byte	-1
 4639 045a FF       		.byte	-1
 4640 045b 0F       		.byte	15
 4641 045c 0F       		.byte	15
 4642 045d 0F       		.byte	15
 4643 045e 0F       		.byte	15
 4644 045f 0F       		.byte	15
 4645 0460 38       		.byte	56
 4646 0461 44       		.byte	68
 4647 0462 44       		.byte	68
 4648 0463 38       		.byte	56
 4649 0464 44       		.byte	68
 4650 0465 FC       		.byte	-4
 4651 0466 4A       		.byte	74
 4652 0467 4A       		.byte	74
 4653 0468 4A       		.byte	74
 4654 0469 34       		.byte	52
 4655 046a 7E       		.byte	126
 4656 046b 02       		.byte	2
 4657 046c 02       		.byte	2
 4658 046d 06       		.byte	6
 4659 046e 06       		.byte	6
ARM GAS  C:\Users\PC\AppData\Local\Temp\ccF7GaWd.s 			page 105


 4660 046f 02       		.byte	2
 4661 0470 7E       		.byte	126
 4662 0471 02       		.byte	2
 4663 0472 7E       		.byte	126
 4664 0473 02       		.byte	2
 4665 0474 63       		.byte	99
 4666 0475 55       		.byte	85
 4667 0476 49       		.byte	73
 4668 0477 41       		.byte	65
 4669 0478 63       		.byte	99
 4670 0479 38       		.byte	56
 4671 047a 44       		.byte	68
 4672 047b 44       		.byte	68
 4673 047c 3C       		.byte	60
 4674 047d 04       		.byte	4
 4675 047e 40       		.byte	64
 4676 047f 7E       		.byte	126
 4677 0480 20       		.byte	32
 4678 0481 1E       		.byte	30
 4679 0482 20       		.byte	32
 4680 0483 06       		.byte	6
 4681 0484 02       		.byte	2
 4682 0485 7E       		.byte	126
 4683 0486 02       		.byte	2
 4684 0487 02       		.byte	2
 4685 0488 99       		.byte	-103
 4686 0489 A5       		.byte	-91
 4687 048a E7       		.byte	-25
 4688 048b A5       		.byte	-91
 4689 048c 99       		.byte	-103
 4690 048d 1C       		.byte	28
 4691 048e 2A       		.byte	42
 4692 048f 49       		.byte	73
 4693 0490 2A       		.byte	42
 4694 0491 1C       		.byte	28
 4695 0492 4C       		.byte	76
 4696 0493 72       		.byte	114
 4697 0494 01       		.byte	1
 4698 0495 72       		.byte	114
 4699 0496 4C       		.byte	76
 4700 0497 30       		.byte	48
 4701 0498 4A       		.byte	74
 4702 0499 4D       		.byte	77
 4703 049a 4D       		.byte	77
 4704 049b 30       		.byte	48
 4705 049c 30       		.byte	48
 4706 049d 48       		.byte	72
 4707 049e 78       		.byte	120
 4708 049f 48       		.byte	72
 4709 04a0 30       		.byte	48
 4710 04a1 BC       		.byte	-68
 4711 04a2 62       		.byte	98
 4712 04a3 5A       		.byte	90
 4713 04a4 46       		.byte	70
 4714 04a5 3D       		.byte	61
 4715 04a6 3E       		.byte	62
 4716 04a7 49       		.byte	73
ARM GAS  C:\Users\PC\AppData\Local\Temp\ccF7GaWd.s 			page 106


 4717 04a8 49       		.byte	73
 4718 04a9 49       		.byte	73
 4719 04aa 00       		.byte	0
 4720 04ab 7E       		.byte	126
 4721 04ac 01       		.byte	1
 4722 04ad 01       		.byte	1
 4723 04ae 01       		.byte	1
 4724 04af 7E       		.byte	126
 4725 04b0 2A       		.byte	42
 4726 04b1 2A       		.byte	42
 4727 04b2 2A       		.byte	42
 4728 04b3 2A       		.byte	42
 4729 04b4 2A       		.byte	42
 4730 04b5 44       		.byte	68
 4731 04b6 44       		.byte	68
 4732 04b7 5F       		.byte	95
 4733 04b8 44       		.byte	68
 4734 04b9 44       		.byte	68
 4735 04ba 40       		.byte	64
 4736 04bb 51       		.byte	81
 4737 04bc 4A       		.byte	74
 4738 04bd 44       		.byte	68
 4739 04be 40       		.byte	64
 4740 04bf 40       		.byte	64
 4741 04c0 44       		.byte	68
 4742 04c1 4A       		.byte	74
 4743 04c2 51       		.byte	81
 4744 04c3 40       		.byte	64
 4745 04c4 00       		.byte	0
 4746 04c5 00       		.byte	0
 4747 04c6 FF       		.byte	-1
 4748 04c7 01       		.byte	1
 4749 04c8 03       		.byte	3
 4750 04c9 E0       		.byte	-32
 4751 04ca 80       		.byte	-128
 4752 04cb FF       		.byte	-1
 4753 04cc 00       		.byte	0
 4754 04cd 00       		.byte	0
 4755 04ce 08       		.byte	8
 4756 04cf 08       		.byte	8
 4757 04d0 6B       		.byte	107
 4758 04d1 6B       		.byte	107
 4759 04d2 08       		.byte	8
 4760 04d3 36       		.byte	54
 4761 04d4 12       		.byte	18
 4762 04d5 36       		.byte	54
 4763 04d6 24       		.byte	36
 4764 04d7 36       		.byte	54
 4765 04d8 06       		.byte	6
 4766 04d9 0F       		.byte	15
 4767 04da 09       		.byte	9
 4768 04db 0F       		.byte	15
 4769 04dc 06       		.byte	6
 4770 04dd 00       		.byte	0
 4771 04de 00       		.byte	0
 4772 04df 18       		.byte	24
 4773 04e0 18       		.byte	24
ARM GAS  C:\Users\PC\AppData\Local\Temp\ccF7GaWd.s 			page 107


 4774 04e1 00       		.byte	0
 4775 04e2 00       		.byte	0
 4776 04e3 00       		.byte	0
 4777 04e4 10       		.byte	16
 4778 04e5 10       		.byte	16
 4779 04e6 00       		.byte	0
 4780 04e7 30       		.byte	48
 4781 04e8 40       		.byte	64
 4782 04e9 FF       		.byte	-1
 4783 04ea 01       		.byte	1
 4784 04eb 01       		.byte	1
 4785 04ec 00       		.byte	0
 4786 04ed 1F       		.byte	31
 4787 04ee 01       		.byte	1
 4788 04ef 01       		.byte	1
 4789 04f0 1E       		.byte	30
 4790 04f1 00       		.byte	0
 4791 04f2 19       		.byte	25
 4792 04f3 1D       		.byte	29
 4793 04f4 17       		.byte	23
 4794 04f5 12       		.byte	18
 4795 04f6 00       		.byte	0
 4796 04f7 3C       		.byte	60
 4797 04f8 3C       		.byte	60
 4798 04f9 3C       		.byte	60
 4799 04fa 3C       		.byte	60
 4800 04fb 00       		.byte	0
 4801 04fc 00       		.byte	0
 4802 04fd 00       		.byte	0
 4803 04fe 00       		.byte	0
 4804 04ff 00       		.byte	0
 4805              		.data
 4806              		.align	1
 4807              		.set	.LANCHOR1,. + 0
 4808              		.type	wrap, %object
 4809              		.size	wrap, 1
 4810              	wrap:
 4811 0000 01       		.byte	1
 4812              		.type	textsize, %object
 4813              		.size	textsize, 1
 4814              	textsize:
 4815 0001 01       		.byte	1
 4816              		.type	textcolor, %object
 4817              		.size	textcolor, 2
 4818              	textcolor:
 4819 0002 FFFF     		.short	-1
 4820              		.type	textbgcolor, %object
 4821              		.size	textbgcolor, 2
 4822              	textbgcolor:
 4823 0004 FFFF     		.short	-1
 4824              		.bss
 4825              		.align	1
 4826              		.set	.LANCHOR0,. + 0
 4827              		.type	cursor_x, %object
 4828              		.size	cursor_x, 2
 4829              	cursor_x:
 4830 0000 0000     		.space	2
ARM GAS  C:\Users\PC\AppData\Local\Temp\ccF7GaWd.s 			page 108


 4831              		.type	cursor_y, %object
 4832              		.size	cursor_y, 2
 4833              	cursor_y:
 4834 0002 0000     		.space	2
 4835              		.text
 4836              	.Letext0:
 4837              		.file 2 "c:\\program files (x86)\\cypress\\psoc creator\\4.4\\psoc creator\\import\\gnu\\arm\\5.4.
 4838              		.file 3 "c:\\program files (x86)\\cypress\\psoc creator\\4.4\\psoc creator\\import\\gnu\\arm\\5.4.
 4839              		.file 4 "ssd1306.h"
 4840              		.file 5 "<built-in>"