ARM GAS  C:\Users\PC\AppData\Local\Temp\ccF7GaWd.s 			page 1


   1              		.syntax unified
   2              		.cpu cortex-m0plus
   3              		.fpu softvfp
   4              		.eabi_attribute 20, 1
   5              		.eabi_attribute 21, 1
   6              		.eabi_attribute 23, 3
   7              		.eabi_attribute 24, 1
   8              		.eabi_attribute 25, 1
   9              		.eabi_attribute 26, 1
  10              		.eabi_attribute 30, 4
  11              		.eabi_attribute 34, 0
  12              		.eabi_attribute 18, 4
  13              		.thumb
  14              		.syntax unified
  15              		.file	"GFX_Library.c"
  16              		.text
  17              	.Ltext0:
  18              		.cfi_sections	.debug_frame
  19              		.section	.text.writeLine,"ax",%progbits
  20              		.align	1
  21              		.global	writeLine
  22              		.code	16
  23              		.thumb_func
  24              		.type	writeLine, %function
  25              	writeLine:
  26              	.LFB33:
  27              		.file 1 "GFX_Library.c"
   1:GFX_Library.c **** 
   2:GFX_Library.c **** ///////////////////////////////////////////////////////////////////////////
   3:GFX_Library.c **** ////                                                                   ////
   4:GFX_Library.c **** ////                            GFX_Library.c                          ////
   5:GFX_Library.c **** ////                                                                   ////
   6:GFX_Library.c **** ////                 Graphics library for CCS C compiler.              ////
   7:GFX_Library.c **** ////                                                                   ////
   8:GFX_Library.c **** ///////////////////////////////////////////////////////////////////////////
   9:GFX_Library.c **** ////                                                                   ////
  10:GFX_Library.c **** ////               This is a free software with NO WARRANTY.           ////
  11:GFX_Library.c **** ////                     https://simple-circuit.com/                   ////
  12:GFX_Library.c **** ////                                                                   ////
  13:GFX_Library.c **** ///////////////////////////////////////////////////////////////////////////
  14:GFX_Library.c **** /*
  15:GFX_Library.c **** This is the core graphics library for all our displays, providing a common
  16:GFX_Library.c **** set of graphics primitives (points, lines, circles, etc.).  It needs to be
  17:GFX_Library.c **** paired with a hardware-specific library for each display device we carry
  18:GFX_Library.c **** (to handle the lower-level functions).
  19:GFX_Library.c **** 
  20:GFX_Library.c **** Adafruit invests time and resources providing this open source code, please
  21:GFX_Library.c **** support Adafruit & open-source hardware by purchasing products from Adafruit!
  22:GFX_Library.c **** 
  23:GFX_Library.c **** Copyright (c) 2013 Adafruit Industries.  All rights reserved.
  24:GFX_Library.c **** 
  25:GFX_Library.c **** Redistribution and use in source and binary forms, with or without
  26:GFX_Library.c **** modification, are permitted provided that the following conditions are met:
  27:GFX_Library.c **** 
  28:GFX_Library.c **** - Redistributions of source code must retain the above copyright notice,
  29:GFX_Library.c ****   this list of conditions and the following disclaimer.
  30:GFX_Library.c **** - Redistributions in binary form must reproduce the above copyright notice,
ARM GAS  C:\Users\PC\AppData\Local\Temp\ccF7GaWd.s 			page 2


  31:GFX_Library.c ****   this list of conditions and the following disclaimer in the documentation
  32:GFX_Library.c ****   and/or other materials provided with the distribution.
  33:GFX_Library.c **** 
  34:GFX_Library.c **** THIS SOFTWARE IS PROVIDED BY THE COPYRIGHT HOLDERS AND CONTRIBUTORS "AS IS"
  35:GFX_Library.c **** AND ANY EXPRESS OR IMPLIED WARRANTIES, INCLUDING, BUT NOT LIMITED TO, THE
  36:GFX_Library.c **** IMPLIED WARRANTIES OF MERCHANTABILITY AND FITNESS FOR A PARTICULAR PURPOSE
  37:GFX_Library.c **** ARE DISCLAIMED. IN NO EVENT SHALL THE COPYRIGHT HOLDER OR CONTRIBUTORS BE
  38:GFX_Library.c **** LIABLE FOR ANY DIRECT, INDIRECT, INCIDENTAL, SPECIAL, EXEMPLARY, OR
  39:GFX_Library.c **** CONSEQUENTIAL DAMAGES (INCLUDING, BUT NOT LIMITED TO, PROCUREMENT OF
  40:GFX_Library.c **** SUBSTITUTE GOODS OR SERVICES; LOSS OF USE, DATA, OR PROFITS; OR BUSINESS
  41:GFX_Library.c **** INTERRUPTION) HOWEVER CAUSED AND ON ANY THEORY OF LIABILITY, WHETHER IN
  42:GFX_Library.c **** CONTRACT, STRICT LIABILITY, OR TORT (INCLUDING NEGLIGENCE OR OTHERWISE)
  43:GFX_Library.c **** ARISING IN ANY WAY OUT OF THE USE OF THIS SOFTWARE, EVEN IF ADVISED OF THE
  44:GFX_Library.c **** POSSIBILITY OF SUCH DAMAGE.
  45:GFX_Library.c ****  */
  46:GFX_Library.c **** ///////////////////////////////////////////////////////////////////////////////
  47:GFX_Library.c **** 
  48:GFX_Library.c **** #include "ssd1306.h"
  49:GFX_Library.c **** #include "GFX_Library.h"
  50:GFX_Library.c **** 
  51:GFX_Library.c **** //************************* Non User Functions *************************//
  52:GFX_Library.c **** void writeLine(uint16_t x0, uint16_t y0, uint16_t x1, uint16_t y1, uint16_t color);
  53:GFX_Library.c **** //////////////////////////////////////////////////////////////////////////
  54:GFX_Library.c **** 
  55:GFX_Library.c **** #ifndef min
  56:GFX_Library.c **** #define min(a,b) (((a) < (b)) ? (a) : (b))
  57:GFX_Library.c **** #endif
  58:GFX_Library.c **** #ifndef _swap_int16_t
  59:GFX_Library.c **** #define _swap_int16_t(a, b) { int16_t t = a; a = b; b = t; }
  60:GFX_Library.c **** #endif
  61:GFX_Library.c **** 
  62:GFX_Library.c **** #define display_width   _width
  63:GFX_Library.c **** #define display_height  _height
  64:GFX_Library.c **** 
  65:GFX_Library.c **** #define display_drawPixel   drawPixel
  66:GFX_Library.c **** #define display_drawVLine   drawVLine
  67:GFX_Library.c **** #define display_drawHLine   drawHLine
  68:GFX_Library.c **** #define display_fillScreen  fillScreen
  69:GFX_Library.c **** #define display_fillRect    fillRect
  70:GFX_Library.c **** #define display_setRotation setRotation
  71:GFX_Library.c **** #define display_invert      invertDisplay
  72:GFX_Library.c **** 
  73:GFX_Library.c **** 
  74:GFX_Library.c **** int16_t
  75:GFX_Library.c ****   cursor_x = 0,          ///< x location to start print()ing text
  76:GFX_Library.c ****   cursor_y = 0;          ///< y location to start print()ing text
  77:GFX_Library.c **** uint16_t
  78:GFX_Library.c ****   textcolor = 0xFFFF,    ///< 16-bit background color for print()
  79:GFX_Library.c ****   textbgcolor = 0xFFFF;  ///< 16-bit text color for print()
  80:GFX_Library.c **** uint8_t
  81:GFX_Library.c ****   textsize = 1;          ///< Desired magnification of text to print()
  82:GFX_Library.c **** bool
  83:GFX_Library.c ****   wrap = true;           ///< If set, 'wrap' text at right edge of display
  84:GFX_Library.c **** 
  85:GFX_Library.c **** // Standard ASCII 5x7 font
  86:GFX_Library.c **** #ifndef FONT5X7_H
  87:GFX_Library.c **** static const uint8_t font[256][5] = {
ARM GAS  C:\Users\PC\AppData\Local\Temp\ccF7GaWd.s 			page 3


  88:GFX_Library.c ****    0x00, 0x00, 0x00, 0x00, 0x00,
  89:GFX_Library.c ****    0x3E, 0x5B, 0x4F, 0x5B, 0x3E,
  90:GFX_Library.c ****    0x3E, 0x6B, 0x4F, 0x6B, 0x3E,
  91:GFX_Library.c ****    0x1C, 0x3E, 0x7C, 0x3E, 0x1C,
  92:GFX_Library.c ****    0x18, 0x3C, 0x7E, 0x3C, 0x18,
  93:GFX_Library.c ****    0x1C, 0x57, 0x7D, 0x57, 0x1C,
  94:GFX_Library.c ****    0x1C, 0x5E, 0x7F, 0x5E, 0x1C,
  95:GFX_Library.c ****    0x00, 0x18, 0x3C, 0x18, 0x00,
  96:GFX_Library.c ****    0xFF, 0xE7, 0xC3, 0xE7, 0xFF,
  97:GFX_Library.c ****    0x00, 0x18, 0x24, 0x18, 0x00,
  98:GFX_Library.c ****    0xFF, 0xE7, 0xDB, 0xE7, 0xFF,
  99:GFX_Library.c ****    0x30, 0x48, 0x3A, 0x06, 0x0E,
 100:GFX_Library.c ****    0x26, 0x29, 0x79, 0x29, 0x26,
 101:GFX_Library.c ****    0x40, 0x7F, 0x05, 0x05, 0x07,
 102:GFX_Library.c ****    0x40, 0x7F, 0x05, 0x25, 0x3F,
 103:GFX_Library.c ****    0x5A, 0x3C, 0xE7, 0x3C, 0x5A,
 104:GFX_Library.c ****    0x7F, 0x3E, 0x1C, 0x1C, 0x08,
 105:GFX_Library.c ****    0x08, 0x1C, 0x1C, 0x3E, 0x7F,
 106:GFX_Library.c ****    0x14, 0x22, 0x7F, 0x22, 0x14,
 107:GFX_Library.c ****    0x5F, 0x5F, 0x00, 0x5F, 0x5F,
 108:GFX_Library.c ****    0x06, 0x09, 0x7F, 0x01, 0x7F,
 109:GFX_Library.c ****    0x00, 0x66, 0x89, 0x95, 0x6A,
 110:GFX_Library.c ****    0x60, 0x60, 0x60, 0x60, 0x60,
 111:GFX_Library.c ****    0x94, 0xA2, 0xFF, 0xA2, 0x94,
 112:GFX_Library.c ****    0x08, 0x04, 0x7E, 0x04, 0x08,
 113:GFX_Library.c ****    0x10, 0x20, 0x7E, 0x20, 0x10,
 114:GFX_Library.c ****    0x08, 0x08, 0x2A, 0x1C, 0x08,
 115:GFX_Library.c ****    0x08, 0x1C, 0x2A, 0x08, 0x08,
 116:GFX_Library.c ****    0x1E, 0x10, 0x10, 0x10, 0x10,
 117:GFX_Library.c ****    0x0C, 0x1E, 0x0C, 0x1E, 0x0C,
 118:GFX_Library.c ****    0x30, 0x38, 0x3E, 0x38, 0x30,
 119:GFX_Library.c ****    0x06, 0x0E, 0x3E, 0x0E, 0x06,
 120:GFX_Library.c ****    0x00, 0x00, 0x00, 0x00, 0x00,
 121:GFX_Library.c ****    0x00, 0x00, 0x5F, 0x00, 0x00,
 122:GFX_Library.c ****    0x00, 0x07, 0x00, 0x07, 0x00,
 123:GFX_Library.c ****    0x14, 0x7F, 0x14, 0x7F, 0x14,
 124:GFX_Library.c ****    0x24, 0x2A, 0x7F, 0x2A, 0x12,
 125:GFX_Library.c ****    0x23, 0x13, 0x08, 0x64, 0x62,
 126:GFX_Library.c ****    0x36, 0x49, 0x56, 0x20, 0x50,
 127:GFX_Library.c ****    0x00, 0x08, 0x07, 0x03, 0x00,
 128:GFX_Library.c ****    0x00, 0x1C, 0x22, 0x41, 0x00,
 129:GFX_Library.c ****    0x00, 0x41, 0x22, 0x1C, 0x00,
 130:GFX_Library.c ****    0x2A, 0x1C, 0x7F, 0x1C, 0x2A,
 131:GFX_Library.c ****    0x08, 0x08, 0x3E, 0x08, 0x08,
 132:GFX_Library.c ****    0x00, 0x80, 0x70, 0x30, 0x00,
 133:GFX_Library.c ****    0x08, 0x08, 0x08, 0x08, 0x08,
 134:GFX_Library.c ****    0x00, 0x00, 0x60, 0x60, 0x00,
 135:GFX_Library.c ****    0x20, 0x10, 0x08, 0x04, 0x02,
 136:GFX_Library.c ****    0x3E, 0x51, 0x49, 0x45, 0x3E,
 137:GFX_Library.c ****    0x00, 0x42, 0x7F, 0x40, 0x00,
 138:GFX_Library.c ****    0x72, 0x49, 0x49, 0x49, 0x46,
 139:GFX_Library.c ****    0x21, 0x41, 0x49, 0x4D, 0x33,
 140:GFX_Library.c ****    0x18, 0x14, 0x12, 0x7F, 0x10,
 141:GFX_Library.c ****    0x27, 0x45, 0x45, 0x45, 0x39,
 142:GFX_Library.c ****    0x3C, 0x4A, 0x49, 0x49, 0x31,
 143:GFX_Library.c ****    0x41, 0x21, 0x11, 0x09, 0x07,
 144:GFX_Library.c ****    0x36, 0x49, 0x49, 0x49, 0x36,
ARM GAS  C:\Users\PC\AppData\Local\Temp\ccF7GaWd.s 			page 4


 145:GFX_Library.c ****    0x46, 0x49, 0x49, 0x29, 0x1E,
 146:GFX_Library.c ****    0x00, 0x00, 0x14, 0x00, 0x00,
 147:GFX_Library.c ****    0x00, 0x40, 0x34, 0x00, 0x00,
 148:GFX_Library.c ****    0x00, 0x08, 0x14, 0x22, 0x41,
 149:GFX_Library.c ****    0x14, 0x14, 0x14, 0x14, 0x14,
 150:GFX_Library.c ****    0x00, 0x41, 0x22, 0x14, 0x08,
 151:GFX_Library.c ****    0x02, 0x01, 0x59, 0x09, 0x06,
 152:GFX_Library.c ****    0x3E, 0x41, 0x5D, 0x59, 0x4E,
 153:GFX_Library.c ****    0x7C, 0x12, 0x11, 0x12, 0x7C,
 154:GFX_Library.c ****    0x7F, 0x49, 0x49, 0x49, 0x36,
 155:GFX_Library.c ****    0x3E, 0x41, 0x41, 0x41, 0x22,
 156:GFX_Library.c ****    0x7F, 0x41, 0x41, 0x41, 0x3E,
 157:GFX_Library.c ****    0x7F, 0x49, 0x49, 0x49, 0x41,
 158:GFX_Library.c ****    0x7F, 0x09, 0x09, 0x09, 0x01,
 159:GFX_Library.c ****    0x3E, 0x41, 0x41, 0x51, 0x73,
 160:GFX_Library.c ****    0x7F, 0x08, 0x08, 0x08, 0x7F,
 161:GFX_Library.c ****    0x00, 0x41, 0x7F, 0x41, 0x00,
 162:GFX_Library.c ****    0x20, 0x40, 0x41, 0x3F, 0x01,
 163:GFX_Library.c ****    0x7F, 0x08, 0x14, 0x22, 0x41,
 164:GFX_Library.c ****    0x7F, 0x40, 0x40, 0x40, 0x40,
 165:GFX_Library.c ****    0x7F, 0x02, 0x1C, 0x02, 0x7F,
 166:GFX_Library.c ****    0x7F, 0x04, 0x08, 0x10, 0x7F,
 167:GFX_Library.c ****    0x3E, 0x41, 0x41, 0x41, 0x3E,
 168:GFX_Library.c ****    0x7F, 0x09, 0x09, 0x09, 0x06,
 169:GFX_Library.c ****    0x3E, 0x41, 0x51, 0x21, 0x5E,
 170:GFX_Library.c ****    0x7F, 0x09, 0x19, 0x29, 0x46,
 171:GFX_Library.c ****    0x26, 0x49, 0x49, 0x49, 0x32,
 172:GFX_Library.c ****    0x03, 0x01, 0x7F, 0x01, 0x03,
 173:GFX_Library.c ****    0x3F, 0x40, 0x40, 0x40, 0x3F,
 174:GFX_Library.c ****    0x1F, 0x20, 0x40, 0x20, 0x1F,
 175:GFX_Library.c ****    0x3F, 0x40, 0x38, 0x40, 0x3F,
 176:GFX_Library.c ****    0x63, 0x14, 0x08, 0x14, 0x63,
 177:GFX_Library.c ****    0x03, 0x04, 0x78, 0x04, 0x03,
 178:GFX_Library.c ****    0x61, 0x59, 0x49, 0x4D, 0x43,
 179:GFX_Library.c ****    0x00, 0x7F, 0x41, 0x41, 0x41,
 180:GFX_Library.c ****    0x02, 0x04, 0x08, 0x10, 0x20,
 181:GFX_Library.c ****    0x00, 0x41, 0x41, 0x41, 0x7F,
 182:GFX_Library.c ****    0x04, 0x02, 0x01, 0x02, 0x04,
 183:GFX_Library.c ****    0x40, 0x40, 0x40, 0x40, 0x40,
 184:GFX_Library.c ****    0x00, 0x03, 0x07, 0x08, 0x00,
 185:GFX_Library.c ****    0x20, 0x54, 0x54, 0x78, 0x40,
 186:GFX_Library.c ****    0x7F, 0x28, 0x44, 0x44, 0x38,
 187:GFX_Library.c ****    0x38, 0x44, 0x44, 0x44, 0x28,
 188:GFX_Library.c ****    0x38, 0x44, 0x44, 0x28, 0x7F,
 189:GFX_Library.c ****    0x38, 0x54, 0x54, 0x54, 0x18,
 190:GFX_Library.c ****    0x00, 0x08, 0x7E, 0x09, 0x02,
 191:GFX_Library.c ****    0x18, 0xA4, 0xA4, 0x9C, 0x78,
 192:GFX_Library.c ****    0x7F, 0x08, 0x04, 0x04, 0x78,
 193:GFX_Library.c ****    0x00, 0x44, 0x7D, 0x40, 0x00,
 194:GFX_Library.c ****    0x20, 0x40, 0x40, 0x3D, 0x00,
 195:GFX_Library.c ****    0x7F, 0x10, 0x28, 0x44, 0x00,
 196:GFX_Library.c ****    0x00, 0x41, 0x7F, 0x40, 0x00,
 197:GFX_Library.c ****    0x7C, 0x04, 0x78, 0x04, 0x78,
 198:GFX_Library.c ****    0x7C, 0x08, 0x04, 0x04, 0x78,
 199:GFX_Library.c ****    0x38, 0x44, 0x44, 0x44, 0x38,
 200:GFX_Library.c ****    0xFC, 0x18, 0x24, 0x24, 0x18,
 201:GFX_Library.c ****    0x18, 0x24, 0x24, 0x18, 0xFC,
ARM GAS  C:\Users\PC\AppData\Local\Temp\ccF7GaWd.s 			page 5


 202:GFX_Library.c ****    0x7C, 0x08, 0x04, 0x04, 0x08,
 203:GFX_Library.c ****    0x48, 0x54, 0x54, 0x54, 0x24,
 204:GFX_Library.c ****    0x04, 0x04, 0x3F, 0x44, 0x24,
 205:GFX_Library.c ****    0x3C, 0x40, 0x40, 0x20, 0x7C,
 206:GFX_Library.c ****    0x1C, 0x20, 0x40, 0x20, 0x1C,
 207:GFX_Library.c ****    0x3C, 0x40, 0x30, 0x40, 0x3C,
 208:GFX_Library.c ****    0x44, 0x28, 0x10, 0x28, 0x44,
 209:GFX_Library.c ****    0x4C, 0x90, 0x90, 0x90, 0x7C,
 210:GFX_Library.c ****    0x44, 0x64, 0x54, 0x4C, 0x44,
 211:GFX_Library.c ****    0x00, 0x08, 0x36, 0x41, 0x00,
 212:GFX_Library.c ****    0x00, 0x00, 0x77, 0x00, 0x00,
 213:GFX_Library.c ****    0x00, 0x41, 0x36, 0x08, 0x00,
 214:GFX_Library.c ****    0x02, 0x01, 0x02, 0x04, 0x02,
 215:GFX_Library.c ****    0x3C, 0x26, 0x23, 0x26, 0x3C,
 216:GFX_Library.c ****    0x1E, 0xA1, 0xA1, 0x61, 0x12,
 217:GFX_Library.c ****    0x3A, 0x40, 0x40, 0x20, 0x7A,
 218:GFX_Library.c ****    0x38, 0x54, 0x54, 0x55, 0x59,
 219:GFX_Library.c ****    0x21, 0x55, 0x55, 0x79, 0x41,
 220:GFX_Library.c ****    0x22, 0x54, 0x54, 0x78, 0x42, // a-umlaut
 221:GFX_Library.c ****    0x21, 0x55, 0x54, 0x78, 0x40,
 222:GFX_Library.c ****    0x20, 0x54, 0x55, 0x79, 0x40,
 223:GFX_Library.c ****    0x0C, 0x1E, 0x52, 0x72, 0x12,
 224:GFX_Library.c ****    0x39, 0x55, 0x55, 0x55, 0x59,
 225:GFX_Library.c ****    0x39, 0x54, 0x54, 0x54, 0x59,
 226:GFX_Library.c ****    0x39, 0x55, 0x54, 0x54, 0x58,
 227:GFX_Library.c ****    0x00, 0x00, 0x45, 0x7C, 0x41,
 228:GFX_Library.c ****    0x00, 0x02, 0x45, 0x7D, 0x42,
 229:GFX_Library.c ****    0x00, 0x01, 0x45, 0x7C, 0x40,
 230:GFX_Library.c ****    0x7D, 0x12, 0x11, 0x12, 0x7D, // A-umlaut
 231:GFX_Library.c ****    0xF0, 0x28, 0x25, 0x28, 0xF0,
 232:GFX_Library.c ****    0x7C, 0x54, 0x55, 0x45, 0x00,
 233:GFX_Library.c ****    0x20, 0x54, 0x54, 0x7C, 0x54,
 234:GFX_Library.c ****    0x7C, 0x0A, 0x09, 0x7F, 0x49,
 235:GFX_Library.c ****    0x32, 0x49, 0x49, 0x49, 0x32,
 236:GFX_Library.c ****    0x3A, 0x44, 0x44, 0x44, 0x3A, // o-umlaut
 237:GFX_Library.c ****    0x32, 0x4A, 0x48, 0x48, 0x30,
 238:GFX_Library.c ****    0x3A, 0x41, 0x41, 0x21, 0x7A,
 239:GFX_Library.c ****    0x3A, 0x42, 0x40, 0x20, 0x78,
 240:GFX_Library.c ****    0x00, 0x9D, 0xA0, 0xA0, 0x7D,
 241:GFX_Library.c ****    0x3D, 0x42, 0x42, 0x42, 0x3D, // O-umlaut
 242:GFX_Library.c ****    0x3D, 0x40, 0x40, 0x40, 0x3D,
 243:GFX_Library.c ****    0x3C, 0x24, 0xFF, 0x24, 0x24,
 244:GFX_Library.c ****    0x48, 0x7E, 0x49, 0x43, 0x66,
 245:GFX_Library.c ****    0x2B, 0x2F, 0xFC, 0x2F, 0x2B,
 246:GFX_Library.c ****    0xFF, 0x09, 0x29, 0xF6, 0x20,
 247:GFX_Library.c ****    0xC0, 0x88, 0x7E, 0x09, 0x03,
 248:GFX_Library.c ****    0x20, 0x54, 0x54, 0x79, 0x41,
 249:GFX_Library.c ****    0x00, 0x00, 0x44, 0x7D, 0x41,
 250:GFX_Library.c ****    0x30, 0x48, 0x48, 0x4A, 0x32,
 251:GFX_Library.c ****    0x38, 0x40, 0x40, 0x22, 0x7A,
 252:GFX_Library.c ****    0x00, 0x7A, 0x0A, 0x0A, 0x72,
 253:GFX_Library.c ****    0x7D, 0x0D, 0x19, 0x31, 0x7D,
 254:GFX_Library.c ****    0x26, 0x29, 0x29, 0x2F, 0x28,
 255:GFX_Library.c ****    0x26, 0x29, 0x29, 0x29, 0x26,
 256:GFX_Library.c ****    0x30, 0x48, 0x4D, 0x40, 0x20,
 257:GFX_Library.c ****    0x38, 0x08, 0x08, 0x08, 0x08,
 258:GFX_Library.c ****    0x08, 0x08, 0x08, 0x08, 0x38,
ARM GAS  C:\Users\PC\AppData\Local\Temp\ccF7GaWd.s 			page 6


 259:GFX_Library.c ****    0x2F, 0x10, 0xC8, 0xAC, 0xBA,
 260:GFX_Library.c ****    0x2F, 0x10, 0x28, 0x34, 0xFA,
 261:GFX_Library.c ****    0x00, 0x00, 0x7B, 0x00, 0x00,
 262:GFX_Library.c ****    0x08, 0x14, 0x2A, 0x14, 0x22,
 263:GFX_Library.c ****    0x22, 0x14, 0x2A, 0x14, 0x08,
 264:GFX_Library.c ****    0x55, 0x00, 0x55, 0x00, 0x55, // #176 (25% block) missing in old code
 265:GFX_Library.c ****    0xAA, 0x55, 0xAA, 0x55, 0xAA, // 50% block
 266:GFX_Library.c ****    0xFF, 0x55, 0xFF, 0x55, 0xFF, // 75% block
 267:GFX_Library.c ****    0x00, 0x00, 0x00, 0xFF, 0x00,
 268:GFX_Library.c ****    0x10, 0x10, 0x10, 0xFF, 0x00,
 269:GFX_Library.c ****    0x14, 0x14, 0x14, 0xFF, 0x00,
 270:GFX_Library.c ****    0x10, 0x10, 0xFF, 0x00, 0xFF,
 271:GFX_Library.c ****    0x10, 0x10, 0xF0, 0x10, 0xF0,
 272:GFX_Library.c ****    0x14, 0x14, 0x14, 0xFC, 0x00,
 273:GFX_Library.c ****    0x14, 0x14, 0xF7, 0x00, 0xFF,
 274:GFX_Library.c ****    0x00, 0x00, 0xFF, 0x00, 0xFF,
 275:GFX_Library.c ****    0x14, 0x14, 0xF4, 0x04, 0xFC,
 276:GFX_Library.c ****    0x14, 0x14, 0x17, 0x10, 0x1F,
 277:GFX_Library.c ****    0x10, 0x10, 0x1F, 0x10, 0x1F,
 278:GFX_Library.c ****    0x14, 0x14, 0x14, 0x1F, 0x00,
 279:GFX_Library.c ****    0x10, 0x10, 0x10, 0xF0, 0x00,
 280:GFX_Library.c ****    0x00, 0x00, 0x00, 0x1F, 0x10,
 281:GFX_Library.c ****    0x10, 0x10, 0x10, 0x1F, 0x10,
 282:GFX_Library.c ****    0x10, 0x10, 0x10, 0xF0, 0x10,
 283:GFX_Library.c ****    0x00, 0x00, 0x00, 0xFF, 0x10,
 284:GFX_Library.c ****    0x10, 0x10, 0x10, 0x10, 0x10,
 285:GFX_Library.c ****    0x10, 0x10, 0x10, 0xFF, 0x10,
 286:GFX_Library.c ****    0x00, 0x00, 0x00, 0xFF, 0x14,
 287:GFX_Library.c ****    0x00, 0x00, 0xFF, 0x00, 0xFF,
 288:GFX_Library.c ****    0x00, 0x00, 0x1F, 0x10, 0x17,
 289:GFX_Library.c ****    0x00, 0x00, 0xFC, 0x04, 0xF4,
 290:GFX_Library.c ****    0x14, 0x14, 0x17, 0x10, 0x17,
 291:GFX_Library.c ****    0x14, 0x14, 0xF4, 0x04, 0xF4,
 292:GFX_Library.c ****    0x00, 0x00, 0xFF, 0x00, 0xF7,
 293:GFX_Library.c ****    0x14, 0x14, 0x14, 0x14, 0x14,
 294:GFX_Library.c ****    0x14, 0x14, 0xF7, 0x00, 0xF7,
 295:GFX_Library.c ****    0x14, 0x14, 0x14, 0x17, 0x14,
 296:GFX_Library.c ****    0x10, 0x10, 0x1F, 0x10, 0x1F,
 297:GFX_Library.c ****    0x14, 0x14, 0x14, 0xF4, 0x14,
 298:GFX_Library.c ****    0x10, 0x10, 0xF0, 0x10, 0xF0,
 299:GFX_Library.c ****    0x00, 0x00, 0x1F, 0x10, 0x1F,
 300:GFX_Library.c ****    0x00, 0x00, 0x00, 0x1F, 0x14,
 301:GFX_Library.c ****    0x00, 0x00, 0x00, 0xFC, 0x14,
 302:GFX_Library.c ****    0x00, 0x00, 0xF0, 0x10, 0xF0,
 303:GFX_Library.c ****    0x10, 0x10, 0xFF, 0x10, 0xFF,
 304:GFX_Library.c ****    0x14, 0x14, 0x14, 0xFF, 0x14,
 305:GFX_Library.c ****    0x10, 0x10, 0x10, 0x1F, 0x00,
 306:GFX_Library.c ****    0x00, 0x00, 0x00, 0xF0, 0x10,
 307:GFX_Library.c ****    0xFF, 0xFF, 0xFF, 0xFF, 0xFF,
 308:GFX_Library.c ****    0xF0, 0xF0, 0xF0, 0xF0, 0xF0,
 309:GFX_Library.c ****    0xFF, 0xFF, 0xFF, 0x00, 0x00,
 310:GFX_Library.c ****    0x00, 0x00, 0x00, 0xFF, 0xFF,
 311:GFX_Library.c ****    0x0F, 0x0F, 0x0F, 0x0F, 0x0F,
 312:GFX_Library.c ****    0x38, 0x44, 0x44, 0x38, 0x44,
 313:GFX_Library.c ****    0xFC, 0x4A, 0x4A, 0x4A, 0x34, // sharp-s or beta
 314:GFX_Library.c ****    0x7E, 0x02, 0x02, 0x06, 0x06,
 315:GFX_Library.c ****    0x02, 0x7E, 0x02, 0x7E, 0x02,
ARM GAS  C:\Users\PC\AppData\Local\Temp\ccF7GaWd.s 			page 7


 316:GFX_Library.c ****    0x63, 0x55, 0x49, 0x41, 0x63,
 317:GFX_Library.c ****    0x38, 0x44, 0x44, 0x3C, 0x04,
 318:GFX_Library.c ****    0x40, 0x7E, 0x20, 0x1E, 0x20,
 319:GFX_Library.c ****    0x06, 0x02, 0x7E, 0x02, 0x02,
 320:GFX_Library.c ****    0x99, 0xA5, 0xE7, 0xA5, 0x99,
 321:GFX_Library.c ****    0x1C, 0x2A, 0x49, 0x2A, 0x1C,
 322:GFX_Library.c ****    0x4C, 0x72, 0x01, 0x72, 0x4C,
 323:GFX_Library.c ****    0x30, 0x4A, 0x4D, 0x4D, 0x30,
 324:GFX_Library.c ****    0x30, 0x48, 0x78, 0x48, 0x30,
 325:GFX_Library.c ****    0xBC, 0x62, 0x5A, 0x46, 0x3D,
 326:GFX_Library.c ****    0x3E, 0x49, 0x49, 0x49, 0x00,
 327:GFX_Library.c ****    0x7E, 0x01, 0x01, 0x01, 0x7E,
 328:GFX_Library.c ****    0x2A, 0x2A, 0x2A, 0x2A, 0x2A,
 329:GFX_Library.c ****    0x44, 0x44, 0x5F, 0x44, 0x44,
 330:GFX_Library.c ****    0x40, 0x51, 0x4A, 0x44, 0x40,
 331:GFX_Library.c ****    0x40, 0x44, 0x4A, 0x51, 0x40,
 332:GFX_Library.c ****    0x00, 0x00, 0xFF, 0x01, 0x03,
 333:GFX_Library.c ****    0xE0, 0x80, 0xFF, 0x00, 0x00,
 334:GFX_Library.c ****    0x08, 0x08, 0x6B, 0x6B, 0x08,
 335:GFX_Library.c ****    0x36, 0x12, 0x36, 0x24, 0x36,
 336:GFX_Library.c ****    0x06, 0x0F, 0x09, 0x0F, 0x06,
 337:GFX_Library.c ****    0x00, 0x00, 0x18, 0x18, 0x00,
 338:GFX_Library.c ****    0x00, 0x00, 0x10, 0x10, 0x00,
 339:GFX_Library.c ****    0x30, 0x40, 0xFF, 0x01, 0x01,
 340:GFX_Library.c ****    0x00, 0x1F, 0x01, 0x01, 0x1E,
 341:GFX_Library.c ****    0x00, 0x19, 0x1D, 0x17, 0x12,
 342:GFX_Library.c ****    0x00, 0x3C, 0x3C, 0x3C, 0x3C,
 343:GFX_Library.c ****    0x00, 0x00, 0x00, 0x00, 0x00  // #255 NBSP
 344:GFX_Library.c **** };
 345:GFX_Library.c **** #endif // FONT5X7_H
 346:GFX_Library.c **** 
 347:GFX_Library.c **** /**************************************************************************/
 348:GFX_Library.c **** /*!
 349:GFX_Library.c ****    @brief    Write a line.  Bresenham's algorithm - thx wikpedia
 350:GFX_Library.c ****     @param    x0  Start point x coordinate
 351:GFX_Library.c ****     @param    y0  Start point y coordinate
 352:GFX_Library.c ****     @param    x1  End point x coordinate
 353:GFX_Library.c ****     @param    y1  End point y coordinate
 354:GFX_Library.c ****     @param    color 16-bit 5-6-5 Color to draw with
 355:GFX_Library.c **** */
 356:GFX_Library.c **** /**************************************************************************/
 357:GFX_Library.c **** void writeLine(uint16_t x0, uint16_t y0, uint16_t x1, uint16_t y1, uint16_t color) {
  28              		.loc 1 357 0
  29              		.cfi_startproc
  30              		@ args = 4, pretend = 0, frame = 24
  31              		@ frame_needed = 0, uses_anonymous_args = 0
  32              	.LVL0:
  33 0000 F0B5     		push	{r4, r5, r6, r7, lr}
  34              		.cfi_def_cfa_offset 20
  35              		.cfi_offset 4, -20
  36              		.cfi_offset 5, -16
  37              		.cfi_offset 6, -12
  38              		.cfi_offset 7, -8
  39              		.cfi_offset 14, -4
  40 0002 1700     		movs	r7, r2
  41 0004 87B0     		sub	sp, sp, #28
  42              		.cfi_def_cfa_offset 48
ARM GAS  C:\Users\PC\AppData\Local\Temp\ccF7GaWd.s 			page 8


  43              		.loc 1 357 0
  44 0006 0CAA     		add	r2, sp, #48
  45              	.LVL1:
  46 0008 1288     		ldrh	r2, [r2]
  47              	.LVL2:
  48 000a 0D00     		movs	r5, r1
  49 000c 0592     		str	r2, [sp, #20]
 358:GFX_Library.c ****     bool steep = abs((int16_t)(y1 - y0)) > abs((int16_t)(x1 - x0));
  50              		.loc 1 358 0
  51 000e 5A1A     		subs	r2, r3, r1
  52 0010 12B2     		sxth	r2, r2
  53 0012 D117     		asrs	r1, r2, #31
  54              	.LVL3:
  55 0014 5218     		adds	r2, r2, r1
  56 0016 4A40     		eors	r2, r1
  57 0018 0092     		str	r2, [sp]
  58 001a 3A1A     		subs	r2, r7, r0
  59 001c 12B2     		sxth	r2, r2
  60 001e D117     		asrs	r1, r2, #31
  61 0020 5218     		adds	r2, r2, r1
  62 0022 4A40     		eors	r2, r1
  63 0024 0192     		str	r2, [sp, #4]
  64              	.LVL4:
 359:GFX_Library.c ****     if (steep) {
  65              		.loc 1 359 0
  66 0026 0199     		ldr	r1, [sp, #4]
  67 0028 009A     		ldr	r2, [sp]
  68              	.LVL5:
 357:GFX_Library.c ****     bool steep = abs((int16_t)(y1 - y0)) > abs((int16_t)(x1 - x0));
  69              		.loc 1 357 0
  70 002a 0400     		movs	r4, r0
  71              		.loc 1 359 0
  72 002c 8A42     		cmp	r2, r1
  73 002e 04DD     		ble	.L2
  74 0030 3A00     		movs	r2, r7
  75              	.LBB11:
 360:GFX_Library.c ****         _swap_int16_t(x0, y0);
  76              		.loc 1 360 0
  77 0032 2C00     		movs	r4, r5
  78              	.LBE11:
  79              	.LBB12:
 361:GFX_Library.c ****         _swap_int16_t(x1, y1);
  80              		.loc 1 361 0
  81 0034 1F00     		movs	r7, r3
  82              	.LBE12:
  83              	.LBB13:
 360:GFX_Library.c ****         _swap_int16_t(x0, y0);
  84              		.loc 1 360 0
  85 0036 0500     		movs	r5, r0
  86              	.LBE13:
  87              	.LBB14:
  88              		.loc 1 361 0
  89 0038 1300     		movs	r3, r2
  90              	.LVL6:
  91              	.L2:
  92              	.LBE14:
 362:GFX_Library.c ****     }
ARM GAS  C:\Users\PC\AppData\Local\Temp\ccF7GaWd.s 			page 9


 363:GFX_Library.c **** 
 364:GFX_Library.c ****     if (x0 > x1) {
  93              		.loc 1 364 0
  94 003a BC42     		cmp	r4, r7
  95 003c 05D9     		bls	.L3
  96 003e 2A00     		movs	r2, r5
  97              	.LBB15:
 365:GFX_Library.c ****         _swap_int16_t(x0, x1);
 366:GFX_Library.c ****         _swap_int16_t(y0, y1);
  98              		.loc 1 366 0
  99 0040 1D00     		movs	r5, r3
 100              	.LVL7:
 101 0042 1300     		movs	r3, r2
 102              	.LVL8:
 103              	.LBE15:
 364:GFX_Library.c ****         _swap_int16_t(x0, x1);
 104              		.loc 1 364 0
 105 0044 2200     		movs	r2, r4
 106 0046 3C00     		movs	r4, r7
 107              	.LVL9:
 108 0048 1700     		movs	r7, r2
 109              	.LVL10:
 110              	.L3:
 367:GFX_Library.c ****     }
 368:GFX_Library.c **** 
 369:GFX_Library.c ****     int16_t dx, dy;
 370:GFX_Library.c ****     dx = x1 - x0;
 111              		.loc 1 370 0
 112 004a 3A1B     		subs	r2, r7, r4
 113 004c 92B2     		uxth	r2, r2
 114 004e 0292     		str	r2, [sp, #8]
 115              	.LVL11:
 371:GFX_Library.c ****     dy = abs((int16_t)(y1 - y0));
 116              		.loc 1 371 0
 117 0050 5A1B     		subs	r2, r3, r5
 118 0052 12B2     		sxth	r2, r2
 119 0054 D117     		asrs	r1, r2, #31
 120              	.LVL12:
 121 0056 5218     		adds	r2, r2, r1
 122 0058 4A40     		eors	r2, r1
 123 005a 0492     		str	r2, [sp, #16]
 124              	.LVL13:
 372:GFX_Library.c **** 
 373:GFX_Library.c ****     int16_t err = dx / 2;
 125              		.loc 1 373 0
 126 005c 6A46     		mov	r2, sp
 127 005e 0826     		movs	r6, #8
 128 0060 965F     		ldrsh	r6, [r2, r6]
 129 0062 F20F     		lsrs	r2, r6, #31
 130 0064 9619     		adds	r6, r2, r6
 374:GFX_Library.c ****     int16_t ystep;
 375:GFX_Library.c **** 
 376:GFX_Library.c ****     if (y0 < y1) {
 377:GFX_Library.c ****         ystep = 1;
 378:GFX_Library.c ****     } else {
 379:GFX_Library.c ****         ystep = -1;
 131              		.loc 1 379 0
ARM GAS  C:\Users\PC\AppData\Local\Temp\ccF7GaWd.s 			page 10


 132 0066 0022     		movs	r2, #0
 133 0068 9D42     		cmp	r5, r3
 134 006a 5241     		adcs	r2, r2, r2
 135 006c 0123     		movs	r3, #1
 136              	.LVL14:
 137 006e 5242     		rsbs	r2, r2, #0
 138 0070 1343     		orrs	r3, r2
 373:GFX_Library.c ****     int16_t ystep;
 139              		.loc 1 373 0
 140 0072 7610     		asrs	r6, r6, #1
 141              	.LVL15:
 142              		.loc 1 379 0
 143 0074 0393     		str	r3, [sp, #12]
 144              	.L5:
 145              	.LVL16:
 380:GFX_Library.c ****     }
 381:GFX_Library.c **** 
 382:GFX_Library.c ****     for (; x0<=x1; x0++) {
 146              		.loc 1 382 0 discriminator 1
 147 0076 BC42     		cmp	r4, r7
 148 0078 1BD8     		bhi	.L13
 149 007a 6B46     		mov	r3, sp
 383:GFX_Library.c ****         if (steep) {
 150              		.loc 1 383 0
 151 007c 0199     		ldr	r1, [sp, #4]
 152 007e 1A7D     		ldrb	r2, [r3, #20]
 153 0080 009B     		ldr	r3, [sp]
 154 0082 8B42     		cmp	r3, r1
 155 0084 02DD     		ble	.L6
 384:GFX_Library.c ****             display_drawPixel(y0, x0, color);
 156              		.loc 1 384 0
 157 0086 E1B2     		uxtb	r1, r4
 158 0088 E8B2     		uxtb	r0, r5
 159 008a 01E0     		b	.L11
 160              	.L6:
 385:GFX_Library.c ****         } else {
 386:GFX_Library.c ****             display_drawPixel(x0, y0, color);
 161              		.loc 1 386 0
 162 008c E9B2     		uxtb	r1, r5
 163 008e E0B2     		uxtb	r0, r4
 164              	.L11:
 165 0090 FFF7FEFF 		bl	drawPixel
 166              	.LVL17:
 387:GFX_Library.c ****         }
 388:GFX_Library.c ****         err -= dy;
 167              		.loc 1 388 0
 168 0094 049B     		ldr	r3, [sp, #16]
 169 0096 F61A     		subs	r6, r6, r3
 170              	.LVL18:
 171 0098 B3B2     		uxth	r3, r6
 172 009a 1EB2     		sxth	r6, r3
 173              	.LVL19:
 389:GFX_Library.c ****         if (err < 0) {
 174              		.loc 1 389 0
 175 009c 002E     		cmp	r6, #0
 176 009e 05DA     		bge	.L8
 390:GFX_Library.c ****             y0 += ystep;
ARM GAS  C:\Users\PC\AppData\Local\Temp\ccF7GaWd.s 			page 11


 177              		.loc 1 390 0
 178 00a0 039A     		ldr	r2, [sp, #12]
 179 00a2 AD18     		adds	r5, r5, r2
 180              	.LVL20:
 391:GFX_Library.c ****             err += dx;
 181              		.loc 1 391 0
 182 00a4 029A     		ldr	r2, [sp, #8]
 390:GFX_Library.c ****             y0 += ystep;
 183              		.loc 1 390 0
 184 00a6 ADB2     		uxth	r5, r5
 185              	.LVL21:
 186              		.loc 1 391 0
 187 00a8 D318     		adds	r3, r2, r3
 188 00aa 1EB2     		sxth	r6, r3
 189              	.LVL22:
 190              	.L8:
 382:GFX_Library.c ****         if (steep) {
 191              		.loc 1 382 0
 192 00ac 0134     		adds	r4, r4, #1
 193              	.LVL23:
 194 00ae A4B2     		uxth	r4, r4
 195              	.LVL24:
 196 00b0 E1E7     		b	.L5
 197              	.L13:
 392:GFX_Library.c ****         }
 393:GFX_Library.c ****     }
 394:GFX_Library.c **** }
 198              		.loc 1 394 0
 199 00b2 07B0     		add	sp, sp, #28
 200              	.LVL25:
 201              		@ sp needed
 202              	.LVL26:
 203              	.LVL27:
 204              	.LVL28:
 205              	.LVL29:
 206 00b4 F0BD     		pop	{r4, r5, r6, r7, pc}
 207              		.cfi_endproc
 208              	.LFE33:
 209              		.size	writeLine, .-writeLine
 210              		.section	.text.display_drawLine,"ax",%progbits
 211              		.align	1
 212              		.global	display_drawLine
 213              		.code	16
 214              		.thumb_func
 215              		.type	display_drawLine, %function
 216              	display_drawLine:
 217              	.LFB34:
 395:GFX_Library.c **** 
 396:GFX_Library.c **** /**************************************************************************/
 397:GFX_Library.c **** /*!
 398:GFX_Library.c ****    @brief    Draw a line
 399:GFX_Library.c ****     @param    x0  Start point x coordinate
 400:GFX_Library.c ****     @param    y0  Start point y coordinate
 401:GFX_Library.c ****     @param    x1  End point x coordinate
 402:GFX_Library.c ****     @param    y1  End point y coordinate
 403:GFX_Library.c ****     @param    color 16-bit 5-6-5 Color to draw with
 404:GFX_Library.c **** */
ARM GAS  C:\Users\PC\AppData\Local\Temp\ccF7GaWd.s 			page 12


 405:GFX_Library.c **** /**************************************************************************/
 406:GFX_Library.c **** void display_drawLine(uint16_t x0, uint16_t y0, uint16_t x1, uint16_t y1, uint16_t color) {
 218              		.loc 1 406 0
 219              		.cfi_startproc
 220              		@ args = 4, pretend = 0, frame = 0
 221              		@ frame_needed = 0, uses_anonymous_args = 0
 222              	.LVL30:
 223 0000 13B5     		push	{r0, r1, r4, lr}
 224              		.cfi_def_cfa_offset 16
 225              		.cfi_offset 0, -16
 226              		.cfi_offset 1, -12
 227              		.cfi_offset 4, -8
 228              		.cfi_offset 14, -4
 229              		.loc 1 406 0
 230 0002 04AC     		add	r4, sp, #16
 231              	.LVL31:
 232 0004 2488     		ldrh	r4, [r4]
 233              	.LVL32:
 407:GFX_Library.c ****     // Update in subclasses if desired!
 408:GFX_Library.c ****     if(x0 == x1){
 234              		.loc 1 408 0
 235 0006 9042     		cmp	r0, r2
 236 0008 0ED1     		bne	.L15
 237              	.LVL33:
 238              	.LBB21:
 239              	.LBB22:
 409:GFX_Library.c ****         if(y0 > y1) _swap_int16_t(y0, y1);
 240              		.loc 1 409 0
 241 000a 9942     		cmp	r1, r3
 242 000c 02D9     		bls	.L16
 243 000e 0A00     		movs	r2, r1
 244              	.LVL34:
 245 0010 1900     		movs	r1, r3
 246              	.LVL35:
 247 0012 1300     		movs	r3, r2
 248              	.LVL36:
 249              	.L16:
 410:GFX_Library.c ****         display_drawVLine(x0, y0, y1 - y0 + 1, color);
 250              		.loc 1 410 0
 251 0014 C9B2     		uxtb	r1, r1
 252              	.LVL37:
 253 0016 5A1C     		adds	r2, r3, #1
 254 0018 E4B2     		uxtb	r4, r4
 255              	.LVL38:
 256 001a 521A     		subs	r2, r2, r1
 257 001c D2B2     		uxtb	r2, r2
 258 001e C0B2     		uxtb	r0, r0
 259              	.LVL39:
 260 0020 2300     		movs	r3, r4
 261              	.LVL40:
 262 0022 FFF7FEFF 		bl	drawVLine
 263              	.LVL41:
 264 0026 12E0     		b	.L14
 265              	.LVL42:
 266              	.L15:
 267              	.LBE22:
 268              	.LBE21:
ARM GAS  C:\Users\PC\AppData\Local\Temp\ccF7GaWd.s 			page 13


 411:GFX_Library.c ****     } else if(y0 == y1){
 269              		.loc 1 411 0
 270 0028 9942     		cmp	r1, r3
 271 002a 0DD1     		bne	.L18
 412:GFX_Library.c ****         if(x0 > x1) _swap_int16_t(x0, x1);
 272              		.loc 1 412 0
 273 002c 9042     		cmp	r0, r2
 274 002e 02D9     		bls	.L19
 275 0030 0300     		movs	r3, r0
 276              	.LVL43:
 277 0032 1000     		movs	r0, r2
 278              	.LVL44:
 279 0034 1A00     		movs	r2, r3
 280              	.LVL45:
 281              	.L19:
 413:GFX_Library.c ****         display_drawHLine(x0, y0, x1 - x0 + 1, color);
 282              		.loc 1 413 0
 283 0036 C0B2     		uxtb	r0, r0
 284              	.LVL46:
 285 0038 0132     		adds	r2, r2, #1
 286              	.LVL47:
 287 003a 121A     		subs	r2, r2, r0
 288 003c E3B2     		uxtb	r3, r4
 289 003e D2B2     		uxtb	r2, r2
 290 0040 C9B2     		uxtb	r1, r1
 291              	.LVL48:
 292 0042 FFF7FEFF 		bl	drawHLine
 293              	.LVL49:
 294 0046 02E0     		b	.L14
 295              	.LVL50:
 296              	.L18:
 414:GFX_Library.c ****     } else {
 415:GFX_Library.c ****         writeLine(x0, y0, x1, y1, color);
 297              		.loc 1 415 0
 298 0048 0094     		str	r4, [sp]
 299 004a FFF7FEFF 		bl	writeLine
 300              	.LVL51:
 301              	.L14:
 416:GFX_Library.c ****     }
 417:GFX_Library.c **** }
 302              		.loc 1 417 0
 303              		@ sp needed
 304 004e 13BD     		pop	{r0, r1, r4, pc}
 305              		.cfi_endproc
 306              	.LFE34:
 307              		.size	display_drawLine, .-display_drawLine
 308              		.section	.text.display_drawCircle,"ax",%progbits
 309              		.align	1
 310              		.global	display_drawCircle
 311              		.code	16
 312              		.thumb_func
 313              		.type	display_drawCircle, %function
 314              	display_drawCircle:
 315              	.LFB35:
 418:GFX_Library.c **** 
 419:GFX_Library.c **** /**************************************************************************/
 420:GFX_Library.c **** /*!
ARM GAS  C:\Users\PC\AppData\Local\Temp\ccF7GaWd.s 			page 14


 421:GFX_Library.c ****    @brief    Draw a circle outline
 422:GFX_Library.c ****     @param    x0   Center-point x coordinate
 423:GFX_Library.c ****     @param    y0   Center-point y coordinate
 424:GFX_Library.c ****     @param    r   Radius of circle
 425:GFX_Library.c ****     @param    color 16-bit 5-6-5 Color to draw with
 426:GFX_Library.c **** */
 427:GFX_Library.c **** /**************************************************************************/
 428:GFX_Library.c **** void display_drawCircle(uint16_t x0, uint16_t y0, uint16_t r, uint16_t color) {
 316              		.loc 1 428 0
 317              		.cfi_startproc
 318              		@ args = 0, pretend = 0, frame = 32
 319              		@ frame_needed = 0, uses_anonymous_args = 0
 320              	.LVL52:
 321 0000 F0B5     		push	{r4, r5, r6, r7, lr}
 322              		.cfi_def_cfa_offset 20
 323              		.cfi_offset 4, -20
 324              		.cfi_offset 5, -16
 325              		.cfi_offset 6, -12
 326              		.cfi_offset 7, -8
 327              		.cfi_offset 14, -4
 429:GFX_Library.c ****     int16_t f = 1 - r;
 328              		.loc 1 429 0
 329 0002 0124     		movs	r4, #1
 430:GFX_Library.c ****     int16_t ddF_x = 1;
 431:GFX_Library.c ****     int16_t ddF_y = -2 * r;
 330              		.loc 1 431 0
 331 0004 5500     		lsls	r5, r2, #1
 429:GFX_Library.c ****     int16_t f = 1 - r;
 332              		.loc 1 429 0
 333 0006 A41A     		subs	r4, r4, r2
 428:GFX_Library.c ****     int16_t f = 1 - r;
 334              		.loc 1 428 0
 335 0008 89B0     		sub	sp, sp, #36
 336              		.cfi_def_cfa_offset 56
 429:GFX_Library.c ****     int16_t f = 1 - r;
 337              		.loc 1 429 0
 338 000a 24B2     		sxth	r4, r4
 339              		.loc 1 431 0
 340 000c 6D42     		rsbs	r5, r5, #0
 429:GFX_Library.c ****     int16_t f = 1 - r;
 341              		.loc 1 429 0
 342 000e 0294     		str	r4, [sp, #8]
 343              	.LVL53:
 344              		.loc 1 431 0
 345 0010 2CB2     		sxth	r4, r5
 346 0012 0794     		str	r4, [sp, #28]
 347              	.LVL54:
 432:GFX_Library.c ****     int16_t x = 0;
 433:GFX_Library.c ****     int16_t y = r;
 434:GFX_Library.c **** 
 435:GFX_Library.c ****     display_drawPixel(x0  , y0+r, color);
 348              		.loc 1 435 0
 349 0014 D5B2     		uxtb	r5, r2
 433:GFX_Library.c **** 
 350              		.loc 1 433 0
 351 0016 14B2     		sxth	r4, r2
 352              		.loc 1 435 0
ARM GAS  C:\Users\PC\AppData\Local\Temp\ccF7GaWd.s 			page 15


 353 0018 C9B2     		uxtb	r1, r1
 354              	.LVL55:
 433:GFX_Library.c **** 
 355              		.loc 1 433 0
 356 001a 0394     		str	r4, [sp, #12]
 357              	.LVL56:
 358              		.loc 1 435 0
 359 001c 0191     		str	r1, [sp, #4]
 360 001e DCB2     		uxtb	r4, r3
 361 0020 4919     		adds	r1, r1, r5
 362 0022 C0B2     		uxtb	r0, r0
 363              	.LVL57:
 364 0024 C9B2     		uxtb	r1, r1
 365 0026 2200     		movs	r2, r4
 366              	.LVL58:
 367 0028 0090     		str	r0, [sp]
 368 002a FFF7FEFF 		bl	drawPixel
 369              	.LVL59:
 436:GFX_Library.c ****     display_drawPixel(x0  , y0-r, color);
 370              		.loc 1 436 0
 371 002e 019B     		ldr	r3, [sp, #4]
 372 0030 2200     		movs	r2, r4
 373 0032 591B     		subs	r1, r3, r5
 374 0034 C9B2     		uxtb	r1, r1
 375 0036 0098     		ldr	r0, [sp]
 376 0038 FFF7FEFF 		bl	drawPixel
 377              	.LVL60:
 437:GFX_Library.c ****     display_drawPixel(x0+r, y0  , color);
 378              		.loc 1 437 0
 379 003c 009B     		ldr	r3, [sp]
 380 003e 2200     		movs	r2, r4
 381 0040 5819     		adds	r0, r3, r5
 382 0042 C0B2     		uxtb	r0, r0
 383 0044 0199     		ldr	r1, [sp, #4]
 384 0046 FFF7FEFF 		bl	drawPixel
 385              	.LVL61:
 438:GFX_Library.c ****     display_drawPixel(x0-r, y0  , color);
 386              		.loc 1 438 0
 387 004a 009B     		ldr	r3, [sp]
 388 004c 2200     		movs	r2, r4
 389 004e 581B     		subs	r0, r3, r5
 390 0050 C0B2     		uxtb	r0, r0
 391 0052 0199     		ldr	r1, [sp, #4]
 392 0054 FFF7FEFF 		bl	drawPixel
 393              	.LVL62:
 432:GFX_Library.c ****     int16_t y = r;
 394              		.loc 1 432 0
 395 0058 0023     		movs	r3, #0
 396 005a 0693     		str	r3, [sp, #24]
 397              	.LVL63:
 398              	.L21:
 439:GFX_Library.c **** 
 440:GFX_Library.c ****     while (x<y) {
 399              		.loc 1 440 0
 400 005c 069B     		ldr	r3, [sp, #24]
 401 005e 039A     		ldr	r2, [sp, #12]
 402 0060 9342     		cmp	r3, r2
ARM GAS  C:\Users\PC\AppData\Local\Temp\ccF7GaWd.s 			page 16


 403 0062 68DA     		bge	.L24
 441:GFX_Library.c ****         if (f >= 0) {
 404              		.loc 1 441 0
 405 0064 029B     		ldr	r3, [sp, #8]
 406 0066 002B     		cmp	r3, #0
 407 0068 0CDB     		blt	.L22
 442:GFX_Library.c ****             y--;
 408              		.loc 1 442 0
 409 006a 039B     		ldr	r3, [sp, #12]
 410 006c 013B     		subs	r3, r3, #1
 411 006e 1BB2     		sxth	r3, r3
 412 0070 0393     		str	r3, [sp, #12]
 413              	.LVL64:
 443:GFX_Library.c ****             ddF_y += 2;
 414              		.loc 1 443 0
 415 0072 079B     		ldr	r3, [sp, #28]
 416 0074 0233     		adds	r3, r3, #2
 417 0076 9BB2     		uxth	r3, r3
 418 0078 1AB2     		sxth	r2, r3
 419 007a 0792     		str	r2, [sp, #28]
 420              	.LVL65:
 444:GFX_Library.c ****             f += ddF_y;
 421              		.loc 1 444 0
 422 007c 029A     		ldr	r2, [sp, #8]
 423 007e 9B18     		adds	r3, r3, r2
 424 0080 1BB2     		sxth	r3, r3
 425 0082 0293     		str	r3, [sp, #8]
 426              	.LVL66:
 427              	.L22:
 428 0084 069E     		ldr	r6, [sp, #24]
 445:GFX_Library.c ****         }
 446:GFX_Library.c ****         x++;
 447:GFX_Library.c ****         ddF_x += 2;
 448:GFX_Library.c ****         f += ddF_x;
 429              		.loc 1 448 0
 430 0086 029A     		ldr	r2, [sp, #8]
 431 0088 0136     		adds	r6, r6, #1
 432 008a B6B2     		uxth	r6, r6
 433 008c 33B2     		sxth	r3, r6
 434 008e 0693     		str	r3, [sp, #24]
 435              	.LVL67:
 436 0090 7300     		lsls	r3, r6, #1
 437 0092 0133     		adds	r3, r3, #1
 438 0094 9B18     		adds	r3, r3, r2
 439 0096 1BB2     		sxth	r3, r3
 440 0098 0293     		str	r3, [sp, #8]
 441              	.LVL68:
 442 009a F3B2     		uxtb	r3, r6
 443 009c 0593     		str	r3, [sp, #20]
 444 009e 059A     		ldr	r2, [sp, #20]
 445 00a0 009B     		ldr	r3, [sp]
 446 00a2 9F18     		adds	r7, r3, r2
 449:GFX_Library.c **** 
 450:GFX_Library.c ****         display_drawPixel(x0 + x, y0 + y, color);
 447              		.loc 1 450 0
 448 00a4 6B46     		mov	r3, sp
 449 00a6 1B7B     		ldrb	r3, [r3, #12]
ARM GAS  C:\Users\PC\AppData\Local\Temp\ccF7GaWd.s 			page 17


 450 00a8 FFB2     		uxtb	r7, r7
 451 00aa 0493     		str	r3, [sp, #16]
 452 00ac 049A     		ldr	r2, [sp, #16]
 453 00ae 019B     		ldr	r3, [sp, #4]
 454 00b0 3800     		movs	r0, r7
 455 00b2 9E18     		adds	r6, r3, r2
 456 00b4 F6B2     		uxtb	r6, r6
 457 00b6 2200     		movs	r2, r4
 458 00b8 3100     		movs	r1, r6
 459 00ba FFF7FEFF 		bl	drawPixel
 460              	.LVL69:
 461 00be 009B     		ldr	r3, [sp]
 462 00c0 059A     		ldr	r2, [sp, #20]
 451:GFX_Library.c ****         display_drawPixel(x0 - x, y0 + y, color);
 463              		.loc 1 451 0
 464 00c2 3100     		movs	r1, r6
 465 00c4 9D1A     		subs	r5, r3, r2
 466 00c6 EDB2     		uxtb	r5, r5
 467 00c8 2200     		movs	r2, r4
 468 00ca 2800     		movs	r0, r5
 469 00cc FFF7FEFF 		bl	drawPixel
 470              	.LVL70:
 452:GFX_Library.c ****         display_drawPixel(x0 + x, y0 - y, color);
 471              		.loc 1 452 0
 472 00d0 019B     		ldr	r3, [sp, #4]
 473 00d2 049A     		ldr	r2, [sp, #16]
 474 00d4 3800     		movs	r0, r7
 475 00d6 9E1A     		subs	r6, r3, r2
 476 00d8 F6B2     		uxtb	r6, r6
 477 00da 2200     		movs	r2, r4
 478 00dc 3100     		movs	r1, r6
 479 00de FFF7FEFF 		bl	drawPixel
 480              	.LVL71:
 453:GFX_Library.c ****         display_drawPixel(x0 - x, y0 - y, color);
 481              		.loc 1 453 0
 482 00e2 2200     		movs	r2, r4
 483 00e4 3100     		movs	r1, r6
 484 00e6 2800     		movs	r0, r5
 485 00e8 FFF7FEFF 		bl	drawPixel
 486              	.LVL72:
 454:GFX_Library.c ****         display_drawPixel(x0 + y, y0 + x, color);
 487              		.loc 1 454 0
 488 00ec 009B     		ldr	r3, [sp]
 489 00ee 049A     		ldr	r2, [sp, #16]
 490 00f0 9F18     		adds	r7, r3, r2
 491 00f2 019B     		ldr	r3, [sp, #4]
 492 00f4 059A     		ldr	r2, [sp, #20]
 493 00f6 FFB2     		uxtb	r7, r7
 494 00f8 9E18     		adds	r6, r3, r2
 495 00fa F6B2     		uxtb	r6, r6
 496 00fc 2200     		movs	r2, r4
 497 00fe 3100     		movs	r1, r6
 498 0100 3800     		movs	r0, r7
 499 0102 FFF7FEFF 		bl	drawPixel
 500              	.LVL73:
 455:GFX_Library.c ****         display_drawPixel(x0 - y, y0 + x, color);
 501              		.loc 1 455 0
ARM GAS  C:\Users\PC\AppData\Local\Temp\ccF7GaWd.s 			page 18


 502 0106 009B     		ldr	r3, [sp]
 503 0108 049A     		ldr	r2, [sp, #16]
 504 010a 3100     		movs	r1, r6
 505 010c 9D1A     		subs	r5, r3, r2
 506 010e EDB2     		uxtb	r5, r5
 507 0110 2200     		movs	r2, r4
 508 0112 2800     		movs	r0, r5
 509 0114 FFF7FEFF 		bl	drawPixel
 510              	.LVL74:
 511 0118 059A     		ldr	r2, [sp, #20]
 512 011a 019B     		ldr	r3, [sp, #4]
 456:GFX_Library.c ****         display_drawPixel(x0 + y, y0 - x, color);
 513              		.loc 1 456 0
 514 011c 3800     		movs	r0, r7
 515 011e 9E1A     		subs	r6, r3, r2
 516 0120 F6B2     		uxtb	r6, r6
 517 0122 2200     		movs	r2, r4
 518 0124 3100     		movs	r1, r6
 519 0126 FFF7FEFF 		bl	drawPixel
 520              	.LVL75:
 457:GFX_Library.c ****         display_drawPixel(x0 - y, y0 - x, color);
 521              		.loc 1 457 0
 522 012a 2200     		movs	r2, r4
 523 012c 3100     		movs	r1, r6
 524 012e 2800     		movs	r0, r5
 525 0130 FFF7FEFF 		bl	drawPixel
 526              	.LVL76:
 527 0134 92E7     		b	.L21
 528              	.L24:
 458:GFX_Library.c ****     }
 459:GFX_Library.c **** }
 529              		.loc 1 459 0
 530 0136 09B0     		add	sp, sp, #36
 531              		@ sp needed
 532 0138 F0BD     		pop	{r4, r5, r6, r7, pc}
 533              		.cfi_endproc
 534              	.LFE35:
 535              		.size	display_drawCircle, .-display_drawCircle
 536              		.section	.text.display_drawCircleHelper,"ax",%progbits
 537              		.align	1
 538              		.global	display_drawCircleHelper
 539              		.code	16
 540              		.thumb_func
 541              		.type	display_drawCircleHelper, %function
 542              	display_drawCircleHelper:
 543              	.LFB36:
 460:GFX_Library.c **** 
 461:GFX_Library.c **** /**************************************************************************/
 462:GFX_Library.c **** /*!
 463:GFX_Library.c ****     @brief    Quarter-circle drawer, used to do circles and roundrects
 464:GFX_Library.c ****     @param    x0   Center-point x coordinate
 465:GFX_Library.c ****     @param    y0   Center-point y coordinate
 466:GFX_Library.c ****     @param    r   Radius of circle
 467:GFX_Library.c ****     @param    cornername  Mask bit #1 or bit #2 to indicate which quarters of the circle we're doin
 468:GFX_Library.c ****     @param    color 16-bit 5-6-5 Color to draw with
 469:GFX_Library.c **** */
 470:GFX_Library.c **** /**************************************************************************/
ARM GAS  C:\Users\PC\AppData\Local\Temp\ccF7GaWd.s 			page 19


 471:GFX_Library.c **** void display_drawCircleHelper(uint16_t x0, uint16_t y0, uint16_t r, uint8_t cornername, uint16_t co
 544              		.loc 1 471 0
 545              		.cfi_startproc
 546              		@ args = 4, pretend = 0, frame = 40
 547              		@ frame_needed = 0, uses_anonymous_args = 0
 548              	.LVL77:
 549 0000 F0B5     		push	{r4, r5, r6, r7, lr}
 550              		.cfi_def_cfa_offset 20
 551              		.cfi_offset 4, -20
 552              		.cfi_offset 5, -16
 553              		.cfi_offset 6, -12
 554              		.cfi_offset 7, -8
 555              		.cfi_offset 14, -4
 556 0002 8BB0     		sub	sp, sp, #44
 557              		.cfi_def_cfa_offset 64
 558              		.loc 1 471 0
 559 0004 0693     		str	r3, [sp, #24]
 560 0006 10AB     		add	r3, sp, #64
 561              	.LVL78:
 562 0008 1B88     		ldrh	r3, [r3]
 563              	.LVL79:
 564 000a CCB2     		uxtb	r4, r1
 565 000c 0793     		str	r3, [sp, #28]
 472:GFX_Library.c ****     int16_t f     = 1 - r;
 566              		.loc 1 472 0
 567 000e 0123     		movs	r3, #1
 568 0010 9B1A     		subs	r3, r3, r2
 569 0012 1BB2     		sxth	r3, r3
 570 0014 0493     		str	r3, [sp, #16]
 571              	.LVL80:
 473:GFX_Library.c ****     int16_t ddF_x = 1;
 474:GFX_Library.c ****     int16_t ddF_y = -2 * r;
 572              		.loc 1 474 0
 573 0016 5300     		lsls	r3, r2, #1
 574 0018 5B42     		rsbs	r3, r3, #0
 575 001a 1BB2     		sxth	r3, r3
 576 001c 0993     		str	r3, [sp, #36]
 577              	.LVL81:
 475:GFX_Library.c ****     int16_t x     = 0;
 476:GFX_Library.c ****     int16_t y     = r;
 578              		.loc 1 476 0
 579 001e 13B2     		sxth	r3, r2
 580 0020 0193     		str	r3, [sp, #4]
 581              	.LVL82:
 582 0022 631E     		subs	r3, r4, #1
 583 0024 DBB2     		uxtb	r3, r3
 584 0026 0393     		str	r3, [sp, #12]
 585 0028 631C     		adds	r3, r4, #1
 586 002a DBB2     		uxtb	r3, r3
 587 002c 0293     		str	r3, [sp, #8]
 475:GFX_Library.c ****     int16_t x     = 0;
 588              		.loc 1 475 0
 589 002e 0023     		movs	r3, #0
 471:GFX_Library.c ****     int16_t f     = 1 - r;
 590              		.loc 1 471 0
 591 0030 0590     		str	r0, [sp, #20]
 475:GFX_Library.c ****     int16_t x     = 0;
ARM GAS  C:\Users\PC\AppData\Local\Temp\ccF7GaWd.s 			page 20


 592              		.loc 1 475 0
 593 0032 0893     		str	r3, [sp, #32]
 594              	.LVL83:
 595              	.L26:
 477:GFX_Library.c **** 
 478:GFX_Library.c ****     while (x<y) {
 596              		.loc 1 478 0
 597 0034 089B     		ldr	r3, [sp, #32]
 598 0036 019A     		ldr	r2, [sp, #4]
 599 0038 9342     		cmp	r3, r2
 600 003a 7DDA     		bge	.L45
 479:GFX_Library.c ****         if (f >= 0) {
 601              		.loc 1 479 0
 602 003c 049B     		ldr	r3, [sp, #16]
 603 003e 002B     		cmp	r3, #0
 604 0040 0CDB     		blt	.L27
 480:GFX_Library.c ****             y--;
 605              		.loc 1 480 0
 606 0042 019A     		ldr	r2, [sp, #4]
 607 0044 013A     		subs	r2, r2, #1
 608 0046 13B2     		sxth	r3, r2
 609 0048 0193     		str	r3, [sp, #4]
 610              	.LVL84:
 481:GFX_Library.c ****             ddF_y += 2;
 611              		.loc 1 481 0
 612 004a 099B     		ldr	r3, [sp, #36]
 613 004c 0233     		adds	r3, r3, #2
 614 004e 9BB2     		uxth	r3, r3
 615 0050 1AB2     		sxth	r2, r3
 616 0052 0992     		str	r2, [sp, #36]
 617              	.LVL85:
 482:GFX_Library.c ****             f     += ddF_y;
 618              		.loc 1 482 0
 619 0054 049A     		ldr	r2, [sp, #16]
 620 0056 9B18     		adds	r3, r3, r2
 621 0058 1BB2     		sxth	r3, r3
 622 005a 0493     		str	r3, [sp, #16]
 623              	.LVL86:
 624              	.L27:
 625 005c 089B     		ldr	r3, [sp, #32]
 626 005e 0133     		adds	r3, r3, #1
 627 0060 9BB2     		uxth	r3, r3
 628 0062 1AB2     		sxth	r2, r3
 629 0064 0892     		str	r2, [sp, #32]
 630              	.LVL87:
 483:GFX_Library.c ****         }
 484:GFX_Library.c ****         x++;
 485:GFX_Library.c ****         ddF_x += 2;
 486:GFX_Library.c ****         f     += ddF_x;
 631              		.loc 1 486 0
 632 0066 5B00     		lsls	r3, r3, #1
 633 0068 049A     		ldr	r2, [sp, #16]
 634 006a 0133     		adds	r3, r3, #1
 635 006c 9B18     		adds	r3, r3, r2
 487:GFX_Library.c ****         if (cornername & 0x4) {
 636              		.loc 1 487 0
 637 006e 0422     		movs	r2, #4
ARM GAS  C:\Users\PC\AppData\Local\Temp\ccF7GaWd.s 			page 21


 486:GFX_Library.c ****         if (cornername & 0x4) {
 638              		.loc 1 486 0
 639 0070 1BB2     		sxth	r3, r3
 640 0072 0493     		str	r3, [sp, #16]
 641              	.LVL88:
 642              		.loc 1 487 0
 643 0074 069B     		ldr	r3, [sp, #24]
 644 0076 1342     		tst	r3, r2
 645 0078 12D0     		beq	.L28
 488:GFX_Library.c ****             display_drawPixel(x0 + x, y0 + y, color);
 646              		.loc 1 488 0
 647 007a 6B46     		mov	r3, sp
 648 007c 1F7D     		ldrb	r7, [r3, #20]
 649 007e 1D79     		ldrb	r5, [r3, #4]
 650 0080 1E7F     		ldrb	r6, [r3, #28]
 651 0082 029B     		ldr	r3, [sp, #8]
 652 0084 381B     		subs	r0, r7, r4
 653 0086 2919     		adds	r1, r5, r4
 654 0088 1818     		adds	r0, r3, r0
 655 008a C9B2     		uxtb	r1, r1
 656 008c C0B2     		uxtb	r0, r0
 657 008e 3200     		movs	r2, r6
 489:GFX_Library.c ****             display_drawPixel(x0 + y, y0 + x, color);
 658              		.loc 1 489 0
 659 0090 7D19     		adds	r5, r7, r5
 488:GFX_Library.c ****             display_drawPixel(x0 + x, y0 + y, color);
 660              		.loc 1 488 0
 661 0092 FFF7FEFF 		bl	drawPixel
 662              	.LVL89:
 663              		.loc 1 489 0
 664 0096 E8B2     		uxtb	r0, r5
 665 0098 3200     		movs	r2, r6
 666 009a 0299     		ldr	r1, [sp, #8]
 667 009c FFF7FEFF 		bl	drawPixel
 668              	.LVL90:
 669              	.L28:
 490:GFX_Library.c ****         }
 491:GFX_Library.c ****         if (cornername & 0x2) {
 670              		.loc 1 491 0
 671 00a0 0222     		movs	r2, #2
 672 00a2 069B     		ldr	r3, [sp, #24]
 673 00a4 1342     		tst	r3, r2
 674 00a6 12D0     		beq	.L29
 492:GFX_Library.c ****             display_drawPixel(x0 + x, y0 - y, color);
 675              		.loc 1 492 0
 676 00a8 6B46     		mov	r3, sp
 677 00aa 1F7D     		ldrb	r7, [r3, #20]
 678 00ac 1D79     		ldrb	r5, [r3, #4]
 679 00ae 1E7F     		ldrb	r6, [r3, #28]
 680 00b0 029B     		ldr	r3, [sp, #8]
 681 00b2 381B     		subs	r0, r7, r4
 682 00b4 611B     		subs	r1, r4, r5
 683 00b6 1818     		adds	r0, r3, r0
 684 00b8 C9B2     		uxtb	r1, r1
 685 00ba C0B2     		uxtb	r0, r0
 686 00bc 3200     		movs	r2, r6
 493:GFX_Library.c ****             display_drawPixel(x0 + y, y0 - x, color);
ARM GAS  C:\Users\PC\AppData\Local\Temp\ccF7GaWd.s 			page 22


 687              		.loc 1 493 0
 688 00be 7D19     		adds	r5, r7, r5
 492:GFX_Library.c ****             display_drawPixel(x0 + x, y0 - y, color);
 689              		.loc 1 492 0
 690 00c0 FFF7FEFF 		bl	drawPixel
 691              	.LVL91:
 692              		.loc 1 493 0
 693 00c4 E8B2     		uxtb	r0, r5
 694 00c6 3200     		movs	r2, r6
 695 00c8 0399     		ldr	r1, [sp, #12]
 696 00ca FFF7FEFF 		bl	drawPixel
 697              	.LVL92:
 698              	.L29:
 494:GFX_Library.c ****         }
 495:GFX_Library.c ****         if (cornername & 0x8) {
 699              		.loc 1 495 0
 700 00ce 069B     		ldr	r3, [sp, #24]
 701 00d0 1B07     		lsls	r3, r3, #28
 702 00d2 12D5     		bpl	.L30
 496:GFX_Library.c ****             display_drawPixel(x0 - y, y0 + x, color);
 703              		.loc 1 496 0
 704 00d4 6B46     		mov	r3, sp
 705 00d6 1D7D     		ldrb	r5, [r3, #20]
 706 00d8 1E79     		ldrb	r6, [r3, #4]
 707 00da 1F7F     		ldrb	r7, [r3, #28]
 708 00dc A81B     		subs	r0, r5, r6
 709 00de C0B2     		uxtb	r0, r0
 710 00e0 3A00     		movs	r2, r7
 711 00e2 0299     		ldr	r1, [sp, #8]
 712 00e4 FFF7FEFF 		bl	drawPixel
 713              	.LVL93:
 497:GFX_Library.c ****             display_drawPixel(x0 - x, y0 + y, color);
 714              		.loc 1 497 0
 715 00e8 039B     		ldr	r3, [sp, #12]
 716 00ea 281B     		subs	r0, r5, r4
 717 00ec A619     		adds	r6, r4, r6
 718 00ee 1D18     		adds	r5, r3, r0
 719 00f0 F1B2     		uxtb	r1, r6
 720 00f2 E8B2     		uxtb	r0, r5
 721 00f4 3A00     		movs	r2, r7
 722 00f6 FFF7FEFF 		bl	drawPixel
 723              	.LVL94:
 724              	.L30:
 498:GFX_Library.c ****         }
 499:GFX_Library.c ****         if (cornername & 0x1) {
 725              		.loc 1 499 0
 726 00fa 069B     		ldr	r3, [sp, #24]
 727 00fc DB07     		lsls	r3, r3, #31
 728 00fe 12D5     		bpl	.L31
 500:GFX_Library.c ****             display_drawPixel(x0 - y, y0 - x, color);
 729              		.loc 1 500 0
 730 0100 6B46     		mov	r3, sp
 731 0102 1D7D     		ldrb	r5, [r3, #20]
 732 0104 1E79     		ldrb	r6, [r3, #4]
 733 0106 1F7F     		ldrb	r7, [r3, #28]
 734 0108 A81B     		subs	r0, r5, r6
 735 010a C0B2     		uxtb	r0, r0
ARM GAS  C:\Users\PC\AppData\Local\Temp\ccF7GaWd.s 			page 23


 736 010c 3A00     		movs	r2, r7
 737 010e 0399     		ldr	r1, [sp, #12]
 738 0110 FFF7FEFF 		bl	drawPixel
 739              	.LVL95:
 501:GFX_Library.c ****             display_drawPixel(x0 - x, y0 - y, color);
 740              		.loc 1 501 0
 741 0114 039B     		ldr	r3, [sp, #12]
 742 0116 281B     		subs	r0, r5, r4
 743 0118 A11B     		subs	r1, r4, r6
 744 011a 1D18     		adds	r5, r3, r0
 745 011c C9B2     		uxtb	r1, r1
 746 011e E8B2     		uxtb	r0, r5
 747 0120 3A00     		movs	r2, r7
 748 0122 FFF7FEFF 		bl	drawPixel
 749              	.LVL96:
 750              	.L31:
 751 0126 039B     		ldr	r3, [sp, #12]
 752 0128 013B     		subs	r3, r3, #1
 753 012a DBB2     		uxtb	r3, r3
 754 012c 0393     		str	r3, [sp, #12]
 755 012e 029B     		ldr	r3, [sp, #8]
 756 0130 0133     		adds	r3, r3, #1
 757 0132 DBB2     		uxtb	r3, r3
 758 0134 0293     		str	r3, [sp, #8]
 759 0136 7DE7     		b	.L26
 760              	.L45:
 502:GFX_Library.c ****         }
 503:GFX_Library.c ****     }
 504:GFX_Library.c **** }
 761              		.loc 1 504 0
 762 0138 0BB0     		add	sp, sp, #44
 763              		@ sp needed
 764 013a F0BD     		pop	{r4, r5, r6, r7, pc}
 765              		.cfi_endproc
 766              	.LFE36:
 767              		.size	display_drawCircleHelper, .-display_drawCircleHelper
 768              		.section	.text.display_fillCircleHelper,"ax",%progbits
 769              		.align	1
 770              		.global	display_fillCircleHelper
 771              		.code	16
 772              		.thumb_func
 773              		.type	display_fillCircleHelper, %function
 774              	display_fillCircleHelper:
 775              	.LFB38:
 505:GFX_Library.c **** 
 506:GFX_Library.c **** /**************************************************************************/
 507:GFX_Library.c **** /*!
 508:GFX_Library.c ****    @brief    Draw a circle with filled color
 509:GFX_Library.c ****     @param    x0   Center-point x coordinate
 510:GFX_Library.c ****     @param    y0   Center-point y coordinate
 511:GFX_Library.c ****     @param    r   Radius of circle
 512:GFX_Library.c ****     @param    color 16-bit 5-6-5 Color to fill with
 513:GFX_Library.c **** */
 514:GFX_Library.c **** /**************************************************************************/
 515:GFX_Library.c **** void display_fillCircle(uint16_t x0, uint16_t y0, uint16_t r, uint16_t color) {
 516:GFX_Library.c ****     display_drawVLine(x0, y0-r, 2*r+1, color);
 517:GFX_Library.c ****     display_fillCircleHelper(x0, y0, r, 3, 0, color);
ARM GAS  C:\Users\PC\AppData\Local\Temp\ccF7GaWd.s 			page 24


 518:GFX_Library.c **** }
 519:GFX_Library.c **** 
 520:GFX_Library.c **** 
 521:GFX_Library.c **** /**************************************************************************/
 522:GFX_Library.c **** /*!
 523:GFX_Library.c ****     @brief  Quarter-circle drawer with fill, used for circles and roundrects
 524:GFX_Library.c ****     @param  x0       Center-point x coordinate
 525:GFX_Library.c ****     @param  y0       Center-point y coordinate
 526:GFX_Library.c ****     @param  r        Radius of circle
 527:GFX_Library.c ****     @param  corners  Mask bits indicating which quarters we're doing
 528:GFX_Library.c ****     @param  delta    Offset from center-point, used for round-rects
 529:GFX_Library.c ****     @param  color    16-bit 5-6-5 Color to fill with
 530:GFX_Library.c **** */
 531:GFX_Library.c **** /**************************************************************************/
 532:GFX_Library.c **** void display_fillCircleHelper(uint16_t x0, uint16_t y0, uint16_t r, uint8_t corners, uint16_t delta
 776              		.loc 1 532 0
 777              		.cfi_startproc
 778              		@ args = 8, pretend = 0, frame = 32
 779              		@ frame_needed = 0, uses_anonymous_args = 0
 780              	.LVL97:
 781 0000 F0B5     		push	{r4, r5, r6, r7, lr}
 782              		.cfi_def_cfa_offset 20
 783              		.cfi_offset 4, -20
 784              		.cfi_offset 5, -16
 785              		.cfi_offset 6, -12
 786              		.cfi_offset 7, -8
 787              		.cfi_offset 14, -4
 788 0002 89B0     		sub	sp, sp, #36
 789              		.cfi_def_cfa_offset 56
 790              		.loc 1 532 0
 791 0004 0290     		str	r0, [sp, #8]
 533:GFX_Library.c ****     int16_t f     = 1 - r;
 792              		.loc 1 533 0
 793 0006 0120     		movs	r0, #1
 794              	.LVL98:
 532:GFX_Library.c ****     int16_t f     = 1 - r;
 795              		.loc 1 532 0
 796 0008 0493     		str	r3, [sp, #16]
 797 000a 0EAB     		add	r3, sp, #56
 798              	.LVL99:
 799 000c 1B88     		ldrh	r3, [r3]
 800              	.LVL100:
 534:GFX_Library.c ****     int16_t ddF_x = 1;
 535:GFX_Library.c ****     int16_t ddF_y = -2 * r;
 536:GFX_Library.c ****     int16_t x     = 0;
 537:GFX_Library.c ****     int16_t y     = r;
 801              		.loc 1 537 0
 802 000e 15B2     		sxth	r5, r2
 538:GFX_Library.c ****     int16_t px    = x;
 539:GFX_Library.c ****     int16_t py    = y;
 540:GFX_Library.c **** 
 541:GFX_Library.c ****     delta++; // Avoid some +1's in the loop
 803              		.loc 1 541 0
 804 0010 1B18     		adds	r3, r3, r0
 805 0012 9BB2     		uxth	r3, r3
 806 0014 0193     		str	r3, [sp, #4]
 536:GFX_Library.c ****     int16_t y     = r;
ARM GAS  C:\Users\PC\AppData\Local\Temp\ccF7GaWd.s 			page 25


 807              		.loc 1 536 0
 808 0016 0023     		movs	r3, #0
 539:GFX_Library.c **** 
 809              		.loc 1 539 0
 810 0018 2E00     		movs	r6, r5
 532:GFX_Library.c ****     int16_t f     = 1 - r;
 811              		.loc 1 532 0
 812 001a 0391     		str	r1, [sp, #12]
 813 001c 0FA9     		add	r1, sp, #60
 814              	.LVL101:
 815 001e 0988     		ldrh	r1, [r1]
 816              	.LVL102:
 533:GFX_Library.c ****     int16_t ddF_x = 1;
 817              		.loc 1 533 0
 818 0020 871A     		subs	r7, r0, r2
 532:GFX_Library.c ****     int16_t f     = 1 - r;
 819              		.loc 1 532 0
 820 0022 0591     		str	r1, [sp, #20]
 535:GFX_Library.c ****     int16_t x     = 0;
 821              		.loc 1 535 0
 822 0024 5100     		lsls	r1, r2, #1
 823 0026 4942     		rsbs	r1, r1, #0
 824 0028 09B2     		sxth	r1, r1
 533:GFX_Library.c ****     int16_t ddF_x = 1;
 825              		.loc 1 533 0
 826 002a 3FB2     		sxth	r7, r7
 827              	.LVL103:
 535:GFX_Library.c ****     int16_t x     = 0;
 828              		.loc 1 535 0
 829 002c 0691     		str	r1, [sp, #24]
 830              	.LVL104:
 536:GFX_Library.c ****     int16_t y     = r;
 831              		.loc 1 536 0
 832 002e 0093     		str	r3, [sp]
 542:GFX_Library.c **** 
 543:GFX_Library.c ****     while(x < y) {
 544:GFX_Library.c ****         if (f >= 0) {
 545:GFX_Library.c ****             y--;
 546:GFX_Library.c ****             ddF_y += 2;
 547:GFX_Library.c ****             f     += ddF_y;
 548:GFX_Library.c ****         }
 549:GFX_Library.c ****         x++;
 550:GFX_Library.c ****         ddF_x += 2;
 551:GFX_Library.c ****         f     += ddF_x;
 552:GFX_Library.c ****         // These checks avoid double-drawing certain lines, important
 553:GFX_Library.c ****         // for the SSD1306 library which has an INVERT drawing mode.
 554:GFX_Library.c ****         if(x < (y + 1)) {
 555:GFX_Library.c ****             if(corners & 1) display_drawVLine(x0+x, y0-y, 2*y+delta, color);
 833              		.loc 1 555 0
 834 0030 0790     		str	r0, [sp, #28]
 835              	.LVL105:
 836              	.L47:
 543:GFX_Library.c ****         if (f >= 0) {
 837              		.loc 1 543 0
 838 0032 009B     		ldr	r3, [sp]
 839 0034 AB42     		cmp	r3, r5
 840 0036 68DA     		bge	.L66
ARM GAS  C:\Users\PC\AppData\Local\Temp\ccF7GaWd.s 			page 26


 544:GFX_Library.c ****             y--;
 841              		.loc 1 544 0
 842 0038 002F     		cmp	r7, #0
 843 003a 08DB     		blt	.L48
 546:GFX_Library.c ****             f     += ddF_y;
 844              		.loc 1 546 0
 845 003c 069B     		ldr	r3, [sp, #24]
 545:GFX_Library.c ****             ddF_y += 2;
 846              		.loc 1 545 0
 847 003e 013D     		subs	r5, r5, #1
 848              	.LVL106:
 546:GFX_Library.c ****             f     += ddF_y;
 849              		.loc 1 546 0
 850 0040 0233     		adds	r3, r3, #2
 851 0042 9BB2     		uxth	r3, r3
 852 0044 1AB2     		sxth	r2, r3
 547:GFX_Library.c ****         }
 853              		.loc 1 547 0
 854 0046 DF19     		adds	r7, r3, r7
 855              	.LVL107:
 545:GFX_Library.c ****             ddF_y += 2;
 856              		.loc 1 545 0
 857 0048 2DB2     		sxth	r5, r5
 858              	.LVL108:
 546:GFX_Library.c ****             f     += ddF_y;
 859              		.loc 1 546 0
 860 004a 0692     		str	r2, [sp, #24]
 861              	.LVL109:
 547:GFX_Library.c ****         }
 862              		.loc 1 547 0
 863 004c 3FB2     		sxth	r7, r7
 864              	.LVL110:
 865              	.L48:
 866 004e 009C     		ldr	r4, [sp]
 867 0050 0134     		adds	r4, r4, #1
 868 0052 A4B2     		uxth	r4, r4
 869 0054 23B2     		sxth	r3, r4
 870 0056 0093     		str	r3, [sp]
 871              	.LVL111:
 551:GFX_Library.c ****         // These checks avoid double-drawing certain lines, important
 872              		.loc 1 551 0
 873 0058 6300     		lsls	r3, r4, #1
 874 005a 0133     		adds	r3, r3, #1
 875 005c DF19     		adds	r7, r3, r7
 876              	.LVL112:
 554:GFX_Library.c ****             if(corners & 1) display_drawVLine(x0+x, y0-y, 2*y+delta, color);
 877              		.loc 1 554 0
 878 005e 009B     		ldr	r3, [sp]
 551:GFX_Library.c ****         // These checks avoid double-drawing certain lines, important
 879              		.loc 1 551 0
 880 0060 3FB2     		sxth	r7, r7
 881              	.LVL113:
 554:GFX_Library.c ****             if(corners & 1) display_drawVLine(x0+x, y0-y, 2*y+delta, color);
 882              		.loc 1 554 0
 883 0062 9D42     		cmp	r5, r3
 884 0064 25DB     		blt	.L50
 885              		.loc 1 555 0
ARM GAS  C:\Users\PC\AppData\Local\Temp\ccF7GaWd.s 			page 27


 886 0066 049B     		ldr	r3, [sp, #16]
 887 0068 079A     		ldr	r2, [sp, #28]
 888 006a 1342     		tst	r3, r2
 889 006c 0ED0     		beq	.L51
 890              		.loc 1 555 0 is_stmt 0 discriminator 1
 891 006e 6B46     		mov	r3, sp
 892 0070 E9B2     		uxtb	r1, r5
 893 0072 0198     		ldr	r0, [sp, #4]
 894 0074 4A00     		lsls	r2, r1, #1
 895 0076 1218     		adds	r2, r2, r0
 896 0078 0398     		ldr	r0, [sp, #12]
 897 007a 1B7D     		ldrb	r3, [r3, #20]
 898 007c 411A     		subs	r1, r0, r1
 899 007e 0298     		ldr	r0, [sp, #8]
 900 0080 D2B2     		uxtb	r2, r2
 901 0082 0019     		adds	r0, r0, r4
 902 0084 C9B2     		uxtb	r1, r1
 903 0086 C0B2     		uxtb	r0, r0
 904 0088 FFF7FEFF 		bl	drawVLine
 905              	.LVL114:
 906              	.L51:
 556:GFX_Library.c ****             if(corners & 2) display_drawVLine(x0-x, y0-y, 2*y+delta, color);
 907              		.loc 1 556 0 is_stmt 1
 908 008c 0222     		movs	r2, #2
 909 008e 049B     		ldr	r3, [sp, #16]
 910 0090 1342     		tst	r3, r2
 911 0092 0ED0     		beq	.L50
 912              		.loc 1 556 0 is_stmt 0 discriminator 1
 913 0094 6B46     		mov	r3, sp
 914 0096 E9B2     		uxtb	r1, r5
 915 0098 0198     		ldr	r0, [sp, #4]
 916 009a 4A00     		lsls	r2, r1, #1
 917 009c 1218     		adds	r2, r2, r0
 918 009e 0398     		ldr	r0, [sp, #12]
 919 00a0 1B7D     		ldrb	r3, [r3, #20]
 920 00a2 411A     		subs	r1, r0, r1
 921 00a4 0298     		ldr	r0, [sp, #8]
 922 00a6 D2B2     		uxtb	r2, r2
 923 00a8 001B     		subs	r0, r0, r4
 924 00aa C9B2     		uxtb	r1, r1
 925 00ac C0B2     		uxtb	r0, r0
 926 00ae FFF7FEFF 		bl	drawVLine
 927              	.LVL115:
 928              	.L50:
 557:GFX_Library.c ****         }
 558:GFX_Library.c ****         if(y != py) {
 929              		.loc 1 558 0 is_stmt 1
 930 00b2 B542     		cmp	r5, r6
 931 00b4 BDD0     		beq	.L47
 559:GFX_Library.c ****             if(corners & 1) display_drawVLine(x0+py, y0-px, 2*px+delta, color);
 932              		.loc 1 559 0
 933 00b6 049B     		ldr	r3, [sp, #16]
 934 00b8 079A     		ldr	r2, [sp, #28]
 935 00ba 1342     		tst	r3, r2
 936 00bc 0FD0     		beq	.L54
 937              		.loc 1 559 0 is_stmt 0 discriminator 1
 938 00be 6B46     		mov	r3, sp
ARM GAS  C:\Users\PC\AppData\Local\Temp\ccF7GaWd.s 			page 28


 939 00c0 611E     		subs	r1, r4, #1
 940 00c2 C9B2     		uxtb	r1, r1
 941 00c4 0198     		ldr	r0, [sp, #4]
 942 00c6 4A00     		lsls	r2, r1, #1
 943 00c8 1218     		adds	r2, r2, r0
 944 00ca 0398     		ldr	r0, [sp, #12]
 945 00cc 1B7D     		ldrb	r3, [r3, #20]
 946 00ce 411A     		subs	r1, r0, r1
 947 00d0 0298     		ldr	r0, [sp, #8]
 948 00d2 D2B2     		uxtb	r2, r2
 949 00d4 8019     		adds	r0, r0, r6
 950 00d6 C9B2     		uxtb	r1, r1
 951 00d8 C0B2     		uxtb	r0, r0
 952 00da FFF7FEFF 		bl	drawVLine
 953              	.LVL116:
 954              	.L54:
 560:GFX_Library.c ****             if(corners & 2) display_drawVLine(x0-py, y0-px, 2*px+delta, color);
 955              		.loc 1 560 0 is_stmt 1
 956 00de 0222     		movs	r2, #2
 957 00e0 049B     		ldr	r3, [sp, #16]
 958 00e2 1342     		tst	r3, r2
 959 00e4 0FD0     		beq	.L56
 960              		.loc 1 560 0 is_stmt 0 discriminator 1
 961 00e6 6B46     		mov	r3, sp
 962 00e8 013C     		subs	r4, r4, #1
 963 00ea E4B2     		uxtb	r4, r4
 964 00ec 0199     		ldr	r1, [sp, #4]
 965 00ee 6200     		lsls	r2, r4, #1
 966 00f0 5218     		adds	r2, r2, r1
 967 00f2 0298     		ldr	r0, [sp, #8]
 968 00f4 0399     		ldr	r1, [sp, #12]
 969 00f6 801B     		subs	r0, r0, r6
 970 00f8 091B     		subs	r1, r1, r4
 971 00fa 1B7D     		ldrb	r3, [r3, #20]
 972 00fc D2B2     		uxtb	r2, r2
 973 00fe C9B2     		uxtb	r1, r1
 974 0100 C0B2     		uxtb	r0, r0
 975 0102 FFF7FEFF 		bl	drawVLine
 976              	.LVL117:
 977              	.L56:
 978 0106 2E00     		movs	r6, r5
 979              	.LVL118:
 980 0108 93E7     		b	.L47
 981              	.LVL119:
 982              	.L66:
 561:GFX_Library.c ****             py = y;
 562:GFX_Library.c ****         }
 563:GFX_Library.c ****         px = x;
 564:GFX_Library.c ****     }
 565:GFX_Library.c **** }
 983              		.loc 1 565 0 is_stmt 1
 984 010a 09B0     		add	sp, sp, #36
 985              	.LVL120:
 986              		@ sp needed
 987              	.LVL121:
 988              	.LVL122:
 989              	.LVL123:
ARM GAS  C:\Users\PC\AppData\Local\Temp\ccF7GaWd.s 			page 29


 990 010c F0BD     		pop	{r4, r5, r6, r7, pc}
 991              		.cfi_endproc
 992              	.LFE38:
 993              		.size	display_fillCircleHelper, .-display_fillCircleHelper
 994              		.section	.text.display_fillCircle,"ax",%progbits
 995              		.align	1
 996              		.global	display_fillCircle
 997              		.code	16
 998              		.thumb_func
 999              		.type	display_fillCircle, %function
 1000              	display_fillCircle:
 1001              	.LFB37:
 515:GFX_Library.c ****     display_drawVLine(x0, y0-r, 2*r+1, color);
 1002              		.loc 1 515 0
 1003              		.cfi_startproc
 1004              		@ args = 0, pretend = 0, frame = 0
 1005              		@ frame_needed = 0, uses_anonymous_args = 0
 1006              	.LVL124:
 1007 0000 F7B5     		push	{r0, r1, r2, r4, r5, r6, r7, lr}
 1008              		.cfi_def_cfa_offset 32
 1009              		.cfi_offset 0, -32
 1010              		.cfi_offset 1, -28
 1011              		.cfi_offset 2, -24
 1012              		.cfi_offset 4, -20
 1013              		.cfi_offset 5, -16
 1014              		.cfi_offset 6, -12
 1015              		.cfi_offset 7, -8
 1016              		.cfi_offset 14, -4
 515:GFX_Library.c ****     display_drawVLine(x0, y0-r, 2*r+1, color);
 1017              		.loc 1 515 0
 1018 0002 0D00     		movs	r5, r1
 516:GFX_Library.c ****     display_fillCircleHelper(x0, y0, r, 3, 0, color);
 1019              		.loc 1 516 0
 1020 0004 D1B2     		uxtb	r1, r2
 1021              	.LVL125:
 515:GFX_Library.c ****     display_drawVLine(x0, y0-r, 2*r+1, color);
 1022              		.loc 1 515 0
 1023 0006 1600     		movs	r6, r2
 516:GFX_Library.c ****     display_fillCircleHelper(x0, y0, r, 3, 0, color);
 1024              		.loc 1 516 0
 1025 0008 4A00     		lsls	r2, r1, #1
 1026              	.LVL126:
 1027 000a 0132     		adds	r2, r2, #1
 1028 000c 691A     		subs	r1, r5, r1
 515:GFX_Library.c ****     display_drawVLine(x0, y0-r, 2*r+1, color);
 1029              		.loc 1 515 0
 1030 000e 1F00     		movs	r7, r3
 1031 0010 0400     		movs	r4, r0
 516:GFX_Library.c ****     display_fillCircleHelper(x0, y0, r, 3, 0, color);
 1032              		.loc 1 516 0
 1033 0012 DBB2     		uxtb	r3, r3
 1034              	.LVL127:
 1035 0014 D2B2     		uxtb	r2, r2
 1036 0016 C9B2     		uxtb	r1, r1
 1037 0018 C0B2     		uxtb	r0, r0
 1038              	.LVL128:
 1039 001a FFF7FEFF 		bl	drawVLine
ARM GAS  C:\Users\PC\AppData\Local\Temp\ccF7GaWd.s 			page 30


 1040              	.LVL129:
 517:GFX_Library.c **** }
 1041              		.loc 1 517 0
 1042 001e 0023     		movs	r3, #0
 1043 0020 0197     		str	r7, [sp, #4]
 1044 0022 0093     		str	r3, [sp]
 1045 0024 3200     		movs	r2, r6
 1046 0026 2900     		movs	r1, r5
 1047 0028 0333     		adds	r3, r3, #3
 1048 002a 2000     		movs	r0, r4
 1049 002c FFF7FEFF 		bl	display_fillCircleHelper
 1050              	.LVL130:
 518:GFX_Library.c **** 
 1051              		.loc 1 518 0
 1052              		@ sp needed
 1053 0030 F7BD     		pop	{r0, r1, r2, r4, r5, r6, r7, pc}
 1054              		.cfi_endproc
 1055              	.LFE37:
 1056              		.size	display_fillCircle, .-display_fillCircle
 1057              		.section	.text.display_drawRect,"ax",%progbits
 1058              		.align	1
 1059              		.global	display_drawRect
 1060              		.code	16
 1061              		.thumb_func
 1062              		.type	display_drawRect, %function
 1063              	display_drawRect:
 1064              	.LFB39:
 566:GFX_Library.c **** 
 567:GFX_Library.c **** /**************************************************************************/
 568:GFX_Library.c **** /*!
 569:GFX_Library.c ****    @brief   Draw a rectangle with no fill color
 570:GFX_Library.c ****     @param    x   Top left corner x coordinate
 571:GFX_Library.c ****     @param    y   Top left corner y coordinate
 572:GFX_Library.c ****     @param    w   Width in pixels
 573:GFX_Library.c ****     @param    h   Height in pixels
 574:GFX_Library.c ****     @param    color 16-bit 5-6-5 Color to draw with
 575:GFX_Library.c **** */
 576:GFX_Library.c **** /**************************************************************************/
 577:GFX_Library.c **** void display_drawRect(uint16_t x, uint16_t y, uint16_t w, uint16_t h, uint16_t color) {
 1065              		.loc 1 577 0
 1066              		.cfi_startproc
 1067              		@ args = 4, pretend = 0, frame = 8
 1068              		@ frame_needed = 0, uses_anonymous_args = 0
 1069              	.LVL131:
 1070 0000 F7B5     		push	{r0, r1, r2, r4, r5, r6, r7, lr}
 1071              		.cfi_def_cfa_offset 32
 1072              		.cfi_offset 0, -32
 1073              		.cfi_offset 1, -28
 1074              		.cfi_offset 2, -24
 1075              		.cfi_offset 4, -20
 1076              		.cfi_offset 5, -16
 1077              		.cfi_offset 6, -12
 1078              		.cfi_offset 7, -8
 1079              		.cfi_offset 14, -4
 1080              		.loc 1 577 0
 1081 0002 1E00     		movs	r6, r3
 578:GFX_Library.c ****     display_drawHLine(x, y, w, color);
ARM GAS  C:\Users\PC\AppData\Local\Temp\ccF7GaWd.s 			page 31


 1082              		.loc 1 578 0
 1083 0004 D3B2     		uxtb	r3, r2
 1084              	.LVL132:
 1085 0006 0193     		str	r3, [sp, #4]
 1086 0008 08AB     		add	r3, sp, #32
 1087              	.LVL133:
 1088 000a 1F78     		ldrb	r7, [r3]
 1089 000c CCB2     		uxtb	r4, r1
 1090 000e C5B2     		uxtb	r5, r0
 579:GFX_Library.c ****     display_drawHLine(x, y+h-1, w, color);
 1091              		.loc 1 579 0
 1092 0010 F6B2     		uxtb	r6, r6
 578:GFX_Library.c ****     display_drawHLine(x, y, w, color);
 1093              		.loc 1 578 0
 1094 0012 3B00     		movs	r3, r7
 1095              	.LVL134:
 1096 0014 019A     		ldr	r2, [sp, #4]
 1097              	.LVL135:
 1098 0016 2100     		movs	r1, r4
 1099              	.LVL136:
 1100 0018 2800     		movs	r0, r5
 1101              	.LVL137:
 1102 001a FFF7FEFF 		bl	drawHLine
 1103              	.LVL138:
 1104              		.loc 1 579 0
 1105 001e 711E     		subs	r1, r6, #1
 1106 0020 6118     		adds	r1, r4, r1
 1107 0022 3B00     		movs	r3, r7
 1108 0024 019A     		ldr	r2, [sp, #4]
 1109 0026 2800     		movs	r0, r5
 1110 0028 C9B2     		uxtb	r1, r1
 1111 002a FFF7FEFF 		bl	drawHLine
 1112              	.LVL139:
 580:GFX_Library.c ****     display_drawVLine(x, y, h, color);
 1113              		.loc 1 580 0
 1114 002e 3B00     		movs	r3, r7
 1115 0030 3200     		movs	r2, r6
 1116 0032 2100     		movs	r1, r4
 1117 0034 2800     		movs	r0, r5
 1118 0036 FFF7FEFF 		bl	drawVLine
 1119              	.LVL140:
 581:GFX_Library.c ****     display_drawVLine(x+w-1, y, h, color);
 1120              		.loc 1 581 0
 1121 003a 019B     		ldr	r3, [sp, #4]
 1122 003c 3200     		movs	r2, r6
 1123 003e 581E     		subs	r0, r3, #1
 1124 0040 2D18     		adds	r5, r5, r0
 1125 0042 E8B2     		uxtb	r0, r5
 1126 0044 3B00     		movs	r3, r7
 1127 0046 2100     		movs	r1, r4
 1128 0048 FFF7FEFF 		bl	drawVLine
 1129              	.LVL141:
 582:GFX_Library.c **** }
 1130              		.loc 1 582 0
 1131              		@ sp needed
 1132 004c F7BD     		pop	{r0, r1, r2, r4, r5, r6, r7, pc}
 1133              		.cfi_endproc
ARM GAS  C:\Users\PC\AppData\Local\Temp\ccF7GaWd.s 			page 32


 1134              	.LFE39:
 1135              		.size	display_drawRect, .-display_drawRect
 1136              		.section	.text.display_drawRoundRect,"ax",%progbits
 1137              		.align	1
 1138              		.global	display_drawRoundRect
 1139              		.code	16
 1140              		.thumb_func
 1141              		.type	display_drawRoundRect, %function
 1142              	display_drawRoundRect:
 1143              	.LFB40:
 583:GFX_Library.c **** 
 584:GFX_Library.c **** /**************************************************************************/
 585:GFX_Library.c **** /*!
 586:GFX_Library.c ****    @brief   Draw a rounded rectangle with no fill color
 587:GFX_Library.c ****     @param    x   Top left corner x coordinate
 588:GFX_Library.c ****     @param    y   Top left corner y coordinate
 589:GFX_Library.c ****     @param    w   Width in pixels
 590:GFX_Library.c ****     @param    h   Height in pixels
 591:GFX_Library.c ****     @param    r   Radius of corner rounding
 592:GFX_Library.c ****     @param    color 16-bit 5-6-5 Color to draw with
 593:GFX_Library.c **** */
 594:GFX_Library.c **** /**************************************************************************/
 595:GFX_Library.c **** void display_drawRoundRect(uint16_t x, uint16_t y, uint16_t w, uint16_t h, uint16_t r, uint16_t col
 1144              		.loc 1 595 0
 1145              		.cfi_startproc
 1146              		@ args = 8, pretend = 0, frame = 40
 1147              		@ frame_needed = 0, uses_anonymous_args = 0
 1148              	.LVL142:
 1149 0000 F0B5     		push	{r4, r5, r6, r7, lr}
 1150              		.cfi_def_cfa_offset 20
 1151              		.cfi_offset 4, -20
 1152              		.cfi_offset 5, -16
 1153              		.cfi_offset 6, -12
 1154              		.cfi_offset 7, -8
 1155              		.cfi_offset 14, -4
 1156 0002 8DB0     		sub	sp, sp, #52
 1157              		.cfi_def_cfa_offset 72
 1158              		.loc 1 595 0
 1159 0004 0493     		str	r3, [sp, #16]
 1160 0006 12AB     		add	r3, sp, #72
 1161              	.LVL143:
 1162 0008 1C88     		ldrh	r4, [r3]
 1163 000a 13AB     		add	r3, sp, #76
 1164              	.LVL144:
 1165 000c 1B88     		ldrh	r3, [r3]
 1166              	.LVL145:
 1167 000e 0392     		str	r2, [sp, #12]
 1168 0010 0293     		str	r3, [sp, #8]
 596:GFX_Library.c ****     int16_t max_radius = ((w < h) ? w : h) / 2; // 1/2 minor axis
 1169              		.loc 1 596 0
 1170 0012 6B46     		mov	r3, sp
 595:GFX_Library.c ****     int16_t max_radius = ((w < h) ? w : h) / 2; // 1/2 minor axis
 1171              		.loc 1 595 0
 1172 0014 0891     		str	r1, [sp, #32]
 1173              		.loc 1 596 0
 1174 0016 049A     		ldr	r2, [sp, #16]
 1175              	.LVL146:
ARM GAS  C:\Users\PC\AppData\Local\Temp\ccF7GaWd.s 			page 33


 1176 0018 0399     		ldr	r1, [sp, #12]
 1177              	.LVL147:
 595:GFX_Library.c ****     int16_t max_radius = ((w < h) ? w : h) / 2; // 1/2 minor axis
 1178              		.loc 1 595 0
 1179 001a 0790     		str	r0, [sp, #28]
 1180              		.loc 1 596 0
 1181 001c 1B8A     		ldrh	r3, [r3, #16]
 1182 001e 8A42     		cmp	r2, r1
 1183 0020 01D9     		bls	.L70
 1184 0022 6B46     		mov	r3, sp
 1185 0024 9B89     		ldrh	r3, [r3, #12]
 1186              	.L70:
 1187 0026 9BB2     		uxth	r3, r3
 1188 0028 5B10     		asrs	r3, r3, #1
 1189              	.LVL148:
 597:GFX_Library.c ****     if(r > max_radius) r = max_radius;
 1190              		.loc 1 597 0
 1191 002a A342     		cmp	r3, r4
 1192 002c 00DA     		bge	.L71
 1193              		.loc 1 597 0 is_stmt 0 discriminator 1
 1194 002e 9CB2     		uxth	r4, r3
 1195              	.LVL149:
 1196              	.L71:
 598:GFX_Library.c ****     // smarter version
 599:GFX_Library.c ****     display_drawHLine(x+r  , y    , w-2*r, color); // Top
 1197              		.loc 1 599 0 is_stmt 1
 1198 0030 6B46     		mov	r3, sp
 1199              	.LVL150:
 1200 0032 1B7F     		ldrb	r3, [r3, #28]
 1201 0034 E2B2     		uxtb	r2, r4
 1202 0036 0593     		str	r3, [sp, #20]
 1203 0038 9B18     		adds	r3, r3, r2
 1204 003a DBB2     		uxtb	r3, r3
 1205 003c 0993     		str	r3, [sp, #36]
 1206 003e 2022     		movs	r2, #32
 1207 0040 6B46     		mov	r3, sp
 1208 0042 9B18     		adds	r3, r3, r2
 1209 0044 1B78     		ldrb	r3, [r3]
 1210 0046 0998     		ldr	r0, [sp, #36]
 1211              	.LVL151:
 1212 0048 0693     		str	r3, [sp, #24]
 1213 004a 6B46     		mov	r3, sp
 1214 004c 1B7B     		ldrb	r3, [r3, #12]
 1215 004e 0699     		ldr	r1, [sp, #24]
 1216 0050 0A93     		str	r3, [sp, #40]
 1217 0052 E3B2     		uxtb	r3, r4
 1218 0054 5D00     		lsls	r5, r3, #1
 1219 0056 EBB2     		uxtb	r3, r5
 1220 0058 0B93     		str	r3, [sp, #44]
 1221 005a 0B9A     		ldr	r2, [sp, #44]
 1222 005c 0A9B     		ldr	r3, [sp, #40]
 1223 005e 9F1A     		subs	r7, r3, r2
 1224 0060 6B46     		mov	r3, sp
 1225 0062 1E7A     		ldrb	r6, [r3, #8]
 1226 0064 FFB2     		uxtb	r7, r7
 1227 0066 3300     		movs	r3, r6
 1228 0068 3A00     		movs	r2, r7
ARM GAS  C:\Users\PC\AppData\Local\Temp\ccF7GaWd.s 			page 34


 1229 006a FFF7FEFF 		bl	drawHLine
 1230              	.LVL152:
 600:GFX_Library.c ****     display_drawHLine(x+r  , y+h-1, w-2*r, color); // Bottom
 1231              		.loc 1 600 0
 1232 006e 6B46     		mov	r3, sp
 1233 0070 1D7C     		ldrb	r5, [r3, #16]
 1234 0072 069B     		ldr	r3, [sp, #24]
 1235 0074 3A00     		movs	r2, r7
 1236 0076 591E     		subs	r1, r3, #1
 1237 0078 6918     		adds	r1, r5, r1
 1238 007a 3300     		movs	r3, r6
 1239 007c 0998     		ldr	r0, [sp, #36]
 1240 007e C9B2     		uxtb	r1, r1
 1241 0080 FFF7FEFF 		bl	drawHLine
 1242              	.LVL153:
 601:GFX_Library.c ****     display_drawVLine(x    , y+r  , h-2*r, color); // Left
 1243              		.loc 1 601 0
 1244 0084 069A     		ldr	r2, [sp, #24]
 1245 0086 E3B2     		uxtb	r3, r4
 1246 0088 9446     		mov	ip, r2
 1247 008a 6344     		add	r3, r3, ip
 1248 008c DFB2     		uxtb	r7, r3
 1249 008e 0B9B     		ldr	r3, [sp, #44]
 1250 0090 3900     		movs	r1, r7
 1251 0092 ED1A     		subs	r5, r5, r3
 1252 0094 EDB2     		uxtb	r5, r5
 1253 0096 3300     		movs	r3, r6
 1254 0098 2A00     		movs	r2, r5
 1255 009a 0598     		ldr	r0, [sp, #20]
 1256 009c FFF7FEFF 		bl	drawVLine
 1257              	.LVL154:
 602:GFX_Library.c ****     display_drawVLine(x+w-1, y+r  , h-2*r, color); // Right
 1258              		.loc 1 602 0
 1259 00a0 059B     		ldr	r3, [sp, #20]
 1260 00a2 2A00     		movs	r2, r5
 1261 00a4 581E     		subs	r0, r3, #1
 1262 00a6 0A9B     		ldr	r3, [sp, #40]
 1263 00a8 3900     		movs	r1, r7
 1264 00aa 1818     		adds	r0, r3, r0
 1265 00ac C0B2     		uxtb	r0, r0
 1266 00ae 3300     		movs	r3, r6
 1267 00b0 FFF7FEFF 		bl	drawVLine
 1268              	.LVL155:
 603:GFX_Library.c ****     // draw four corners
 604:GFX_Library.c ****     display_drawCircleHelper(x+r    , y+r    , r, 1, color);
 1269              		.loc 1 604 0
 1270 00b4 079B     		ldr	r3, [sp, #28]
 1271 00b6 2200     		movs	r2, r4
 1272 00b8 E518     		adds	r5, r4, r3
 1273 00ba 089B     		ldr	r3, [sp, #32]
 1274 00bc ADB2     		uxth	r5, r5
 1275 00be E618     		adds	r6, r4, r3
 1276 00c0 029B     		ldr	r3, [sp, #8]
 1277 00c2 B6B2     		uxth	r6, r6
 1278 00c4 0093     		str	r3, [sp]
 1279 00c6 3100     		movs	r1, r6
 1280 00c8 2800     		movs	r0, r5
ARM GAS  C:\Users\PC\AppData\Local\Temp\ccF7GaWd.s 			page 35


 1281 00ca 0123     		movs	r3, #1
 1282 00cc FFF7FEFF 		bl	display_drawCircleHelper
 1283              	.LVL156:
 605:GFX_Library.c ****     display_drawCircleHelper(x+w-r-1, y+r    , r, 2, color);
 1284              		.loc 1 605 0
 1285 00d0 079B     		ldr	r3, [sp, #28]
 1286 00d2 2200     		movs	r2, r4
 1287 00d4 5F1E     		subs	r7, r3, #1
 1288 00d6 039B     		ldr	r3, [sp, #12]
 1289 00d8 3100     		movs	r1, r6
 1290 00da DF19     		adds	r7, r3, r7
 1291 00dc 3F1B     		subs	r7, r7, r4
 1292 00de 029B     		ldr	r3, [sp, #8]
 1293 00e0 BFB2     		uxth	r7, r7
 1294 00e2 0093     		str	r3, [sp]
 1295 00e4 3800     		movs	r0, r7
 1296 00e6 0223     		movs	r3, #2
 1297 00e8 FFF7FEFF 		bl	display_drawCircleHelper
 1298              	.LVL157:
 606:GFX_Library.c ****     display_drawCircleHelper(x+w-r-1, y+h-r-1, r, 4, color);
 1299              		.loc 1 606 0
 1300 00ec 089B     		ldr	r3, [sp, #32]
 1301 00ee 2200     		movs	r2, r4
 1302 00f0 5E1E     		subs	r6, r3, #1
 1303 00f2 049B     		ldr	r3, [sp, #16]
 1304 00f4 3800     		movs	r0, r7
 1305 00f6 9E19     		adds	r6, r3, r6
 1306 00f8 361B     		subs	r6, r6, r4
 1307 00fa 029B     		ldr	r3, [sp, #8]
 1308 00fc B6B2     		uxth	r6, r6
 1309 00fe 0093     		str	r3, [sp]
 1310 0100 3100     		movs	r1, r6
 1311 0102 0423     		movs	r3, #4
 1312 0104 FFF7FEFF 		bl	display_drawCircleHelper
 1313              	.LVL158:
 607:GFX_Library.c ****     display_drawCircleHelper(x+r    , y+h-r-1, r, 8, color);
 1314              		.loc 1 607 0
 1315 0108 029B     		ldr	r3, [sp, #8]
 1316 010a 2200     		movs	r2, r4
 1317 010c 0093     		str	r3, [sp]
 1318 010e 3100     		movs	r1, r6
 1319 0110 0823     		movs	r3, #8
 1320 0112 2800     		movs	r0, r5
 1321 0114 FFF7FEFF 		bl	display_drawCircleHelper
 1322              	.LVL159:
 608:GFX_Library.c **** }
 1323              		.loc 1 608 0
 1324 0118 0DB0     		add	sp, sp, #52
 1325              		@ sp needed
 1326              	.LVL160:
 1327 011a F0BD     		pop	{r4, r5, r6, r7, pc}
 1328              		.cfi_endproc
 1329              	.LFE40:
 1330              		.size	display_drawRoundRect, .-display_drawRoundRect
 1331              		.section	.text.display_fillRoundRect,"ax",%progbits
 1332              		.align	1
 1333              		.global	display_fillRoundRect
ARM GAS  C:\Users\PC\AppData\Local\Temp\ccF7GaWd.s 			page 36


 1334              		.code	16
 1335              		.thumb_func
 1336              		.type	display_fillRoundRect, %function
 1337              	display_fillRoundRect:
 1338              	.LFB41:
 609:GFX_Library.c **** 
 610:GFX_Library.c **** /**************************************************************************/
 611:GFX_Library.c **** /*!
 612:GFX_Library.c ****    @brief   Draw a rounded rectangle with fill color
 613:GFX_Library.c ****     @param    x   Top left corner x coordinate
 614:GFX_Library.c ****     @param    y   Top left corner y coordinate
 615:GFX_Library.c ****     @param    w   Width in pixels
 616:GFX_Library.c ****     @param    h   Height in pixels
 617:GFX_Library.c ****     @param    r   Radius of corner rounding
 618:GFX_Library.c ****     @param    color 16-bit 5-6-5 Color to draw/fill with
 619:GFX_Library.c **** */
 620:GFX_Library.c **** /**************************************************************************/
 621:GFX_Library.c **** void display_fillRoundRect(uint16_t x, uint16_t y, uint16_t w,
 622:GFX_Library.c ****   uint16_t h, uint16_t r, uint16_t color) {
 1339              		.loc 1 622 0
 1340              		.cfi_startproc
 1341              		@ args = 8, pretend = 0, frame = 16
 1342              		@ frame_needed = 0, uses_anonymous_args = 0
 1343              	.LVL161:
 1344 0000 F0B5     		push	{r4, r5, r6, r7, lr}
 1345              		.cfi_def_cfa_offset 20
 1346              		.cfi_offset 4, -20
 1347              		.cfi_offset 5, -16
 1348              		.cfi_offset 6, -12
 1349              		.cfi_offset 7, -8
 1350              		.cfi_offset 14, -4
 1351 0002 1C00     		movs	r4, r3
 1352 0004 87B0     		sub	sp, sp, #28
 1353              		.cfi_def_cfa_offset 48
 1354              		.loc 1 622 0
 1355 0006 0CAB     		add	r3, sp, #48
 1356              	.LVL162:
 1357 0008 1D88     		ldrh	r5, [r3]
 1358 000a 0DAB     		add	r3, sp, #52
 1359              	.LVL163:
 1360 000c 1B88     		ldrh	r3, [r3]
 1361              	.LVL164:
 1362 000e 0490     		str	r0, [sp, #16]
 1363 0010 0393     		str	r3, [sp, #12]
 1364 0012 0E00     		movs	r6, r1
 1365 0014 1700     		movs	r7, r2
 623:GFX_Library.c ****     int16_t max_radius = ((w < h) ? w : h) / 2; // 1/2 minor axis
 1366              		.loc 1 623 0
 1367 0016 231C     		adds	r3, r4, #0
 1368 0018 9442     		cmp	r4, r2
 1369 001a 00D9     		bls	.L73
 1370 001c 131C     		adds	r3, r2, #0
 1371              	.L73:
 1372 001e 9BB2     		uxth	r3, r3
 1373 0020 5B10     		asrs	r3, r3, #1
 1374              	.LVL165:
 624:GFX_Library.c ****     if(r > max_radius) r = max_radius;
ARM GAS  C:\Users\PC\AppData\Local\Temp\ccF7GaWd.s 			page 37


 1375              		.loc 1 624 0
 1376 0022 AB42     		cmp	r3, r5
 1377 0024 00DA     		bge	.L74
 1378              		.loc 1 624 0 is_stmt 0 discriminator 1
 1379 0026 9DB2     		uxth	r5, r3
 1380              	.LVL166:
 1381              	.L74:
 625:GFX_Library.c ****     // smarter version
 626:GFX_Library.c ****     display_FillRect(x+r, y, w-2*r, h, color);
 1382              		.loc 1 626 0 is_stmt 1
 1383 0028 6B00     		lsls	r3, r5, #1
 1384              	.LVL167:
 1385 002a FA1A     		subs	r2, r7, r3
 1386              	.LVL168:
 1387 002c 049B     		ldr	r3, [sp, #16]
 1388 002e 3100     		movs	r1, r6
 1389              	.LVL169:
 1390 0030 5B19     		adds	r3, r3, r5
 1391 0032 0593     		str	r3, [sp, #20]
 1392 0034 039B     		ldr	r3, [sp, #12]
 1393 0036 0598     		ldr	r0, [sp, #20]
 1394              	.LVL170:
 1395 0038 0093     		str	r3, [sp]
 1396 003a 2300     		movs	r3, r4
 1397 003c FFF7FEFF 		bl	display_FillRect
 1398              	.LVL171:
 627:GFX_Library.c ****     // draw four corners
 628:GFX_Library.c ****     display_fillCircleHelper(x+w-r-1, y+r, r, 1, h-2*r-1, color);
 1399              		.loc 1 628 0
 1400 0040 013C     		subs	r4, r4, #1
 1401 0042 6B00     		lsls	r3, r5, #1
 1402 0044 E41A     		subs	r4, r4, r3
 1403 0046 049B     		ldr	r3, [sp, #16]
 1404 0048 AE19     		adds	r6, r5, r6
 1405 004a 581E     		subs	r0, r3, #1
 1406 004c 3F18     		adds	r7, r7, r0
 1407 004e 039B     		ldr	r3, [sp, #12]
 1408 0050 B6B2     		uxth	r6, r6
 1409 0052 A4B2     		uxth	r4, r4
 1410 0054 781B     		subs	r0, r7, r5
 1411 0056 0193     		str	r3, [sp, #4]
 1412 0058 2A00     		movs	r2, r5
 1413 005a 3100     		movs	r1, r6
 1414 005c 80B2     		uxth	r0, r0
 1415 005e 0094     		str	r4, [sp]
 1416 0060 0123     		movs	r3, #1
 1417 0062 FFF7FEFF 		bl	display_fillCircleHelper
 1418              	.LVL172:
 629:GFX_Library.c ****     //display_fillCircleHelper(94, 18, 8, 1, 43, color);
 630:GFX_Library.c ****     display_fillCircleHelper(x+r    , y+r, r, 2, h-2*r-1, color);
 1419              		.loc 1 630 0
 1420 0066 6B46     		mov	r3, sp
 1421 0068 988A     		ldrh	r0, [r3, #20]
 1422 006a 039B     		ldr	r3, [sp, #12]
 1423 006c 0094     		str	r4, [sp]
 1424 006e 0193     		str	r3, [sp, #4]
 1425 0070 2A00     		movs	r2, r5
ARM GAS  C:\Users\PC\AppData\Local\Temp\ccF7GaWd.s 			page 38


 1426 0072 0223     		movs	r3, #2
 1427 0074 3100     		movs	r1, r6
 1428 0076 FFF7FEFF 		bl	display_fillCircleHelper
 1429              	.LVL173:
 631:GFX_Library.c **** }
 1430              		.loc 1 631 0
 1431 007a 07B0     		add	sp, sp, #28
 1432              		@ sp needed
 1433              	.LVL174:
 1434 007c F0BD     		pop	{r4, r5, r6, r7, pc}
 1435              		.cfi_endproc
 1436              	.LFE41:
 1437              		.size	display_fillRoundRect, .-display_fillRoundRect
 1438              		.section	.text.display_drawTriangle,"ax",%progbits
 1439              		.align	1
 1440              		.global	display_drawTriangle
 1441              		.code	16
 1442              		.thumb_func
 1443              		.type	display_drawTriangle, %function
 1444              	display_drawTriangle:
 1445              	.LFB42:
 632:GFX_Library.c **** 
 633:GFX_Library.c **** /**************************************************************************/
 634:GFX_Library.c **** /*!
 635:GFX_Library.c ****    @brief   Draw a triangle with no fill color
 636:GFX_Library.c ****     @param    x0  Vertex #0 x coordinate
 637:GFX_Library.c ****     @param    y0  Vertex #0 y coordinate
 638:GFX_Library.c ****     @param    x1  Vertex #1 x coordinate
 639:GFX_Library.c ****     @param    y1  Vertex #1 y coordinate
 640:GFX_Library.c ****     @param    x2  Vertex #2 x coordinate
 641:GFX_Library.c ****     @param    y2  Vertex #2 y coordinate
 642:GFX_Library.c ****     @param    color 16-bit 5-6-5 Color to draw with
 643:GFX_Library.c **** */
 644:GFX_Library.c **** /**************************************************************************/
 645:GFX_Library.c **** void display_drawTriangle(uint16_t x0, uint16_t y0, uint16_t x1, uint16_t y1,
 646:GFX_Library.c ****   uint16_t x2, uint16_t y2, uint16_t color) {
 1446              		.loc 1 646 0
 1447              		.cfi_startproc
 1448              		@ args = 12, pretend = 0, frame = 16
 1449              		@ frame_needed = 0, uses_anonymous_args = 0
 1450              	.LVL175:
 1451 0000 F0B5     		push	{r4, r5, r6, r7, lr}
 1452              		.cfi_def_cfa_offset 20
 1453              		.cfi_offset 4, -20
 1454              		.cfi_offset 5, -16
 1455              		.cfi_offset 6, -12
 1456              		.cfi_offset 7, -8
 1457              		.cfi_offset 14, -4
 1458 0002 1F00     		movs	r7, r3
 1459 0004 1600     		movs	r6, r2
 1460 0006 0D00     		movs	r5, r1
 1461 0008 87B0     		sub	sp, sp, #28
 1462              		.cfi_def_cfa_offset 48
 1463              		.loc 1 646 0
 1464 000a 0CAB     		add	r3, sp, #48
 1465              	.LVL176:
 1466 000c 1B88     		ldrh	r3, [r3]
ARM GAS  C:\Users\PC\AppData\Local\Temp\ccF7GaWd.s 			page 39


 1467              	.LVL177:
 1468 000e 0390     		str	r0, [sp, #12]
 1469 0010 0493     		str	r3, [sp, #16]
 1470 0012 0DAB     		add	r3, sp, #52
 1471              	.LVL178:
 1472 0014 1B88     		ldrh	r3, [r3]
 1473              	.LVL179:
 1474 0016 0593     		str	r3, [sp, #20]
 1475 0018 0EAB     		add	r3, sp, #56
 1476              	.LVL180:
 1477 001a 1C88     		ldrh	r4, [r3]
 647:GFX_Library.c ****     display_drawLine(x0, y0, x1, y1, color);
 1478              		.loc 1 647 0
 1479 001c 3B00     		movs	r3, r7
 1480              	.LVL181:
 1481 001e 0094     		str	r4, [sp]
 1482 0020 FFF7FEFF 		bl	display_drawLine
 1483              	.LVL182:
 648:GFX_Library.c ****     display_drawLine(x1, y1, x2, y2, color);
 1484              		.loc 1 648 0
 1485 0024 059B     		ldr	r3, [sp, #20]
 1486 0026 049A     		ldr	r2, [sp, #16]
 1487 0028 3900     		movs	r1, r7
 1488 002a 3000     		movs	r0, r6
 1489 002c 0094     		str	r4, [sp]
 1490 002e FFF7FEFF 		bl	display_drawLine
 1491              	.LVL183:
 649:GFX_Library.c ****     display_drawLine(x2, y2, x0, y0, color);
 1492              		.loc 1 649 0
 1493 0032 0094     		str	r4, [sp]
 1494 0034 2B00     		movs	r3, r5
 1495 0036 039A     		ldr	r2, [sp, #12]
 1496 0038 0599     		ldr	r1, [sp, #20]
 1497 003a 0498     		ldr	r0, [sp, #16]
 1498 003c FFF7FEFF 		bl	display_drawLine
 1499              	.LVL184:
 650:GFX_Library.c **** }
 1500              		.loc 1 650 0
 1501 0040 07B0     		add	sp, sp, #28
 1502              		@ sp needed
 1503 0042 F0BD     		pop	{r4, r5, r6, r7, pc}
 1504              		.cfi_endproc
 1505              	.LFE42:
 1506              		.size	display_drawTriangle, .-display_drawTriangle
 1507              		.global	__aeabi_idiv
 1508              		.section	.text.display_fillTriangle,"ax",%progbits
 1509              		.align	1
 1510              		.global	display_fillTriangle
 1511              		.code	16
 1512              		.thumb_func
 1513              		.type	display_fillTriangle, %function
 1514              	display_fillTriangle:
 1515              	.LFB43:
 651:GFX_Library.c **** 
 652:GFX_Library.c **** /**************************************************************************/
 653:GFX_Library.c **** /*!
 654:GFX_Library.c ****    @brief     Draw a triangle with color-fill
ARM GAS  C:\Users\PC\AppData\Local\Temp\ccF7GaWd.s 			page 40


 655:GFX_Library.c ****     @param    x0  Vertex #0 x coordinate
 656:GFX_Library.c ****     @param    y0  Vertex #0 y coordinate
 657:GFX_Library.c ****     @param    x1  Vertex #1 x coordinate
 658:GFX_Library.c ****     @param    y1  Vertex #1 y coordinate
 659:GFX_Library.c ****     @param    x2  Vertex #2 x coordinate
 660:GFX_Library.c ****     @param    y2  Vertex #2 y coordinate
 661:GFX_Library.c ****     @param    color 16-bit 5-6-5 Color to fill/draw with
 662:GFX_Library.c **** */
 663:GFX_Library.c **** /**************************************************************************/
 664:GFX_Library.c **** void display_fillTriangle(uint16_t x0, uint16_t y0, uint16_t x1, uint16_t y1,
 665:GFX_Library.c ****   uint16_t x2, uint16_t y2, uint16_t color) {
 1516              		.loc 1 665 0
 1517              		.cfi_startproc
 1518              		@ args = 12, pretend = 0, frame = 56
 1519              		@ frame_needed = 0, uses_anonymous_args = 0
 1520              	.LVL185:
 1521 0000 F0B5     		push	{r4, r5, r6, r7, lr}
 1522              		.cfi_def_cfa_offset 20
 1523              		.cfi_offset 4, -20
 1524              		.cfi_offset 5, -16
 1525              		.cfi_offset 6, -12
 1526              		.cfi_offset 7, -8
 1527              		.cfi_offset 14, -4
 1528 0002 8FB0     		sub	sp, sp, #60
 1529              		.cfi_def_cfa_offset 80
 1530              		.loc 1 665 0
 1531 0004 1600     		movs	r6, r2
 1532 0006 15AA     		add	r2, sp, #84
 1533              	.LVL186:
 1534 0008 1288     		ldrh	r2, [r2]
 1535              	.LVL187:
 1536 000a 1D00     		movs	r5, r3
 1537 000c 0192     		str	r2, [sp, #4]
 1538 000e 16AA     		add	r2, sp, #88
 1539              	.LVL188:
 1540 0010 1288     		ldrh	r2, [r2]
 1541              	.LVL189:
 1542 0012 14AB     		add	r3, sp, #80
 1543              	.LVL190:
 1544 0014 0792     		str	r2, [sp, #28]
 1545 0016 0700     		movs	r7, r0
 1546 0018 0C00     		movs	r4, r1
 1547 001a 1B88     		ldrh	r3, [r3]
 1548              	.LVL191:
 666:GFX_Library.c ****     int16_t a, b, y, last;
 667:GFX_Library.c **** 
 668:GFX_Library.c ****     // Sort coordinates by Y order (y2 >= y1 >= y0)
 669:GFX_Library.c ****     if (y0 > y1) {
 670:GFX_Library.c ****         _swap_int16_t(y0, y1); _swap_int16_t(x0, x1);
 671:GFX_Library.c ****     }
 672:GFX_Library.c ****     if (y1 > y2) {
 1549              		.loc 1 672 0
 1550 001c 019A     		ldr	r2, [sp, #4]
 669:GFX_Library.c ****         _swap_int16_t(y0, y1); _swap_int16_t(x0, x1);
 1551              		.loc 1 669 0
 1552 001e A942     		cmp	r1, r5
 1553 0020 10D9     		bls	.L77
ARM GAS  C:\Users\PC\AppData\Local\Temp\ccF7GaWd.s 			page 41


 1554              	.LVL192:
 1555              		.loc 1 672 0
 1556 0022 9142     		cmp	r1, r2
 1557 0024 07D9     		bls	.L94
 1558 0026 2A00     		movs	r2, r5
 1559 0028 019D     		ldr	r5, [sp, #4]
 1560              	.LVL193:
 1561 002a 1400     		movs	r4, r2
 1562 002c 0191     		str	r1, [sp, #4]
 1563 002e 3200     		movs	r2, r6
 1564              	.LBB23:
 673:GFX_Library.c ****         _swap_int16_t(y2, y1); _swap_int16_t(x2, x1);
 1565              		.loc 1 673 0
 1566 0030 1E00     		movs	r6, r3
 1567              	.LVL194:
 1568              	.LBE23:
 1569              	.LBB24:
 670:GFX_Library.c ****     }
 1570              		.loc 1 670 0
 1571 0032 0300     		movs	r3, r0
 1572 0034 04E0     		b	.L97
 1573              	.LVL195:
 1574              	.L94:
 1575              	.LBE24:
 1576 0036 2A00     		movs	r2, r5
 1577 0038 0D00     		movs	r5, r1
 1578              	.LVL196:
 1579 003a 1400     		movs	r4, r2
 1580 003c 3200     		movs	r2, r6
 1581              	.LBB25:
 1582 003e 0600     		movs	r6, r0
 1583              	.LVL197:
 1584              	.L97:
 1585 0040 1700     		movs	r7, r2
 1586 0042 07E0     		b	.L78
 1587              	.LVL198:
 1588              	.L77:
 1589              	.LBE25:
 672:GFX_Library.c ****         _swap_int16_t(y2, y1); _swap_int16_t(x2, x1);
 1590              		.loc 1 672 0
 1591 0044 9542     		cmp	r5, r2
 1592 0046 0DD9     		bls	.L79
 1593 0048 2A00     		movs	r2, r5
 1594 004a 019D     		ldr	r5, [sp, #4]
 1595              	.LVL199:
 1596 004c 0192     		str	r2, [sp, #4]
 1597 004e 3200     		movs	r2, r6
 1598              	.LBB26:
 1599              		.loc 1 673 0
 1600 0050 1E00     		movs	r6, r3
 1601              	.LVL200:
 1602              	.LBE26:
 672:GFX_Library.c ****         _swap_int16_t(y2, y1); _swap_int16_t(x2, x1);
 1603              		.loc 1 672 0
 1604 0052 1300     		movs	r3, r2
 1605              	.LVL201:
 1606              	.L78:
ARM GAS  C:\Users\PC\AppData\Local\Temp\ccF7GaWd.s 			page 42


 674:GFX_Library.c ****     }
 675:GFX_Library.c ****     if (y0 > y1) {
 1607              		.loc 1 675 0
 1608 0054 A542     		cmp	r5, r4
 1609 0056 05D2     		bcs	.L79
 1610 0058 2200     		movs	r2, r4
 1611 005a 2C00     		movs	r4, r5
 1612 005c 1500     		movs	r5, r2
 1613              	.LVL202:
 1614 005e 3A00     		movs	r2, r7
 1615 0060 3700     		movs	r7, r6
 1616 0062 1600     		movs	r6, r2
 1617              	.LVL203:
 1618              	.L79:
 676:GFX_Library.c ****         _swap_int16_t(y0, y1); _swap_int16_t(x0, x1);
 677:GFX_Library.c ****     }
 678:GFX_Library.c **** 
 679:GFX_Library.c ****     if(y0 == y2) { // Handle awkward all-on-same-line case as its own thing
 1619              		.loc 1 679 0
 1620 0064 019A     		ldr	r2, [sp, #4]
 1621 0066 9442     		cmp	r4, r2
 1622 0068 19D1     		bne	.L80
 680:GFX_Library.c ****         a = b = x0;
 1623              		.loc 1 680 0
 1624 006a 38B2     		sxth	r0, r7
 1625              	.LVL204:
 1626 006c 0200     		movs	r2, r0
 681:GFX_Library.c ****         if(x1 < a)      a = x1;
 1627              		.loc 1 681 0
 1628 006e 8642     		cmp	r6, r0
 1629 0070 01DA     		bge	.L81
 1630              	.LVL205:
 1631              		.loc 1 681 0 is_stmt 0 discriminator 1
 1632 0072 30B2     		sxth	r0, r6
 1633              	.LVL206:
 1634 0074 02E0     		b	.L82
 1635              	.LVL207:
 1636              	.L81:
 682:GFX_Library.c ****         else if(x1 > b) b = x1;
 1637              		.loc 1 682 0 is_stmt 1
 1638 0076 8642     		cmp	r6, r0
 1639 0078 00DD     		ble	.L82
 1640              		.loc 1 682 0 is_stmt 0 discriminator 1
 1641 007a 32B2     		sxth	r2, r6
 1642              	.LVL208:
 1643              	.L82:
 683:GFX_Library.c ****         if(x2 < a)      a = x2;
 1644              		.loc 1 683 0 is_stmt 1
 1645 007c 8342     		cmp	r3, r0
 1646 007e 01DA     		bge	.L83
 1647              		.loc 1 683 0 is_stmt 0 discriminator 1
 1648 0080 18B2     		sxth	r0, r3
 1649              	.LVL209:
 1650 0082 02E0     		b	.L84
 1651              	.L83:
 684:GFX_Library.c ****         else if(x2 > b) b = x2;
 1652              		.loc 1 684 0 is_stmt 1
ARM GAS  C:\Users\PC\AppData\Local\Temp\ccF7GaWd.s 			page 43


 1653 0084 9342     		cmp	r3, r2
 1654 0086 00DD     		ble	.L84
 1655              		.loc 1 684 0 is_stmt 0 discriminator 1
 1656 0088 1AB2     		sxth	r2, r3
 1657              	.LVL210:
 1658              	.L84:
 685:GFX_Library.c ****         display_drawHLine(a, y0, b-a+1, color);
 1659              		.loc 1 685 0 is_stmt 1
 1660 008a 6B46     		mov	r3, sp
 1661 008c C0B2     		uxtb	r0, r0
 1662              	.LVL211:
 1663 008e 0132     		adds	r2, r2, #1
 1664              	.LVL212:
 1665 0090 121A     		subs	r2, r2, r0
 1666 0092 1B7F     		ldrb	r3, [r3, #28]
 1667 0094 D2B2     		uxtb	r2, r2
 1668 0096 E1B2     		uxtb	r1, r4
 1669 0098 FFF7FEFF 		bl	drawHLine
 1670              	.LVL213:
 686:GFX_Library.c ****         return;
 1671              		.loc 1 686 0
 1672 009c 82E0     		b	.L76
 1673              	.L80:
 687:GFX_Library.c ****     }
 688:GFX_Library.c **** 
 689:GFX_Library.c ****     int16_t
 690:GFX_Library.c ****     dx01 = x1 - x0,
 1674              		.loc 1 690 0
 1675 009e F21B     		subs	r2, r6, r7
 1676 00a0 12B2     		sxth	r2, r2
 1677 00a2 0B92     		str	r2, [sp, #44]
 1678              	.LVL214:
 691:GFX_Library.c ****     dy01 = y1 - y0,
 1679              		.loc 1 691 0
 1680 00a4 2A1B     		subs	r2, r5, r4
 1681 00a6 12B2     		sxth	r2, r2
 1682 00a8 0C92     		str	r2, [sp, #48]
 1683              	.LVL215:
 692:GFX_Library.c ****     dx02 = x2 - x0,
 1684              		.loc 1 692 0
 1685 00aa DA1B     		subs	r2, r3, r7
 693:GFX_Library.c ****     dy02 = y2 - y0,
 694:GFX_Library.c ****     dx12 = x2 - x1,
 1686              		.loc 1 694 0
 1687 00ac 9B1B     		subs	r3, r3, r6
 1688 00ae 1BB2     		sxth	r3, r3
 1689 00b0 0A93     		str	r3, [sp, #40]
 695:GFX_Library.c ****     dy12 = y2 - y1;
 1690              		.loc 1 695 0
 1691 00b2 019B     		ldr	r3, [sp, #4]
 692:GFX_Library.c ****     dx02 = x2 - x0,
 1692              		.loc 1 692 0
 1693 00b4 12B2     		sxth	r2, r2
 1694 00b6 0692     		str	r2, [sp, #24]
 1695              	.LVL216:
 1696              		.loc 1 695 0
 1697 00b8 5B1B     		subs	r3, r3, r5
ARM GAS  C:\Users\PC\AppData\Local\Temp\ccF7GaWd.s 			page 44


 693:GFX_Library.c ****     dy02 = y2 - y0,
 1698              		.loc 1 693 0
 1699 00ba 019A     		ldr	r2, [sp, #4]
 1700              		.loc 1 695 0
 1701 00bc 1BB2     		sxth	r3, r3
 693:GFX_Library.c ****     dy02 = y2 - y0,
 1702              		.loc 1 693 0
 1703 00be 121B     		subs	r2, r2, r4
 1704              		.loc 1 695 0
 1705 00c0 0D93     		str	r3, [sp, #52]
 696:GFX_Library.c ****     int32_t
 697:GFX_Library.c ****     sa   = 0,
 698:GFX_Library.c ****     sb   = 0;
 699:GFX_Library.c **** 
 700:GFX_Library.c ****     // For upper part of triangle, find scanline crossings for segments
 701:GFX_Library.c ****     // 0-1 and 0-2.  If y1=y2 (flat-bottomed triangle), the scanline y1
 702:GFX_Library.c ****     // is included here (and second loop will be skipped, avoiding a /0
 703:GFX_Library.c ****     // error there), otherwise scanline y1 is skipped here and handled
 704:GFX_Library.c ****     // in the second loop...which also avoids a /0 error here if y0=y1
 705:GFX_Library.c ****     // (flat-topped triangle).
 706:GFX_Library.c ****     if(y1 == y2) last = y1;   // Include y1 scanline
 1706              		.loc 1 706 0
 1707 00c2 019B     		ldr	r3, [sp, #4]
 693:GFX_Library.c ****     dx12 = x2 - x1,
 1708              		.loc 1 693 0
 1709 00c4 12B2     		sxth	r2, r2
 1710 00c6 0992     		str	r2, [sp, #36]
 1711              	.LVL217:
 1712              		.loc 1 706 0
 1713 00c8 9D42     		cmp	r5, r3
 1714 00ca 01D1     		bne	.L86
 1715              		.loc 1 706 0 is_stmt 0 discriminator 1
 1716 00cc 2BB2     		sxth	r3, r5
 1717 00ce 01E0     		b	.L98
 1718              	.L86:
 707:GFX_Library.c ****     else         last = y1-1; // Skip it
 1719              		.loc 1 707 0 is_stmt 1
 1720 00d0 6B1E     		subs	r3, r5, #1
 1721 00d2 1BB2     		sxth	r3, r3
 1722              	.L98:
 1723 00d4 0893     		str	r3, [sp, #32]
 1724              	.LVL218:
 708:GFX_Library.c **** 
 709:GFX_Library.c ****     for(y=y0; y<=last; y++) {
 1725              		.loc 1 709 0
 1726 00d6 23B2     		sxth	r3, r4
 1727 00d8 0293     		str	r3, [sp, #8]
 1728              	.LVL219:
 698:GFX_Library.c **** 
 1729              		.loc 1 698 0
 1730 00da 0023     		movs	r3, #0
 1731 00dc 0593     		str	r3, [sp, #20]
 697:GFX_Library.c ****     sb   = 0;
 1732              		.loc 1 697 0
 1733 00de 0493     		str	r3, [sp, #16]
 1734              	.LVL220:
 1735              	.L88:
ARM GAS  C:\Users\PC\AppData\Local\Temp\ccF7GaWd.s 			page 45


 1736              		.loc 1 709 0 discriminator 1
 1737 00e0 029B     		ldr	r3, [sp, #8]
 1738 00e2 089A     		ldr	r2, [sp, #32]
 1739 00e4 9342     		cmp	r3, r2
 1740 00e6 2ADC     		bgt	.L99
 710:GFX_Library.c ****         a   = x0 + sa / dy01;
 1741              		.loc 1 710 0
 1742 00e8 0C99     		ldr	r1, [sp, #48]
 1743 00ea 0498     		ldr	r0, [sp, #16]
 1744 00ec FFF7FEFF 		bl	__aeabi_idiv
 1745              	.LVL221:
 1746 00f0 3818     		adds	r0, r7, r0
 1747 00f2 03B2     		sxth	r3, r0
 711:GFX_Library.c ****         b   = x0 + sb / dy02;
 1748              		.loc 1 711 0
 1749 00f4 0999     		ldr	r1, [sp, #36]
 1750 00f6 0598     		ldr	r0, [sp, #20]
 710:GFX_Library.c ****         a   = x0 + sa / dy01;
 1751              		.loc 1 710 0
 1752 00f8 0393     		str	r3, [sp, #12]
 1753              	.LVL222:
 1754              		.loc 1 711 0
 1755 00fa FFF7FEFF 		bl	__aeabi_idiv
 1756              	.LVL223:
 1757 00fe 0B99     		ldr	r1, [sp, #44]
 1758 0100 049B     		ldr	r3, [sp, #16]
 1759 0102 8C46     		mov	ip, r1
 1760 0104 0699     		ldr	r1, [sp, #24]
 1761 0106 6344     		add	r3, r3, ip
 1762 0108 8C46     		mov	ip, r1
 1763 010a 0493     		str	r3, [sp, #16]
 1764              	.LVL224:
 1765 010c 059B     		ldr	r3, [sp, #20]
 1766 010e 3818     		adds	r0, r7, r0
 1767 0110 6344     		add	r3, r3, ip
 1768 0112 0593     		str	r3, [sp, #20]
 1769              	.LVL225:
 712:GFX_Library.c ****         sa += dx01;
 713:GFX_Library.c ****         sb += dx02;
 714:GFX_Library.c ****         /* longhand:
 715:GFX_Library.c ****         a = x0 + (x1 - x0) * (y - y0) / (y1 - y0);
 716:GFX_Library.c ****         b = x0 + (x2 - x0) * (y - y0) / (y2 - y0);
 717:GFX_Library.c ****         */
 718:GFX_Library.c ****         if(a > b) _swap_int16_t(a,b);
 1770              		.loc 1 718 0
 1771 0114 039B     		ldr	r3, [sp, #12]
 711:GFX_Library.c ****         b   = x0 + sb / dy02;
 1772              		.loc 1 711 0
 1773 0116 02B2     		sxth	r2, r0
 1774              	.LVL226:
 1775              		.loc 1 718 0
 1776 0118 9342     		cmp	r3, r2
 1777 011a 01DD     		ble	.L89
 1778 011c 0392     		str	r2, [sp, #12]
 1779              	.LVL227:
 1780 011e 1A00     		movs	r2, r3
 1781              	.LVL228:
ARM GAS  C:\Users\PC\AppData\Local\Temp\ccF7GaWd.s 			page 46


 1782              	.L89:
 719:GFX_Library.c ****         display_drawHLine(a, y, b-a+1, color);
 1783              		.loc 1 719 0 discriminator 2
 1784 0120 6B46     		mov	r3, sp
 1785 0122 6946     		mov	r1, sp
 1786 0124 187B     		ldrb	r0, [r3, #12]
 1787 0126 0132     		adds	r2, r2, #1
 1788              	.LVL229:
 1789 0128 121A     		subs	r2, r2, r0
 1790 012a 1B7F     		ldrb	r3, [r3, #28]
 1791 012c D2B2     		uxtb	r2, r2
 1792 012e 097A     		ldrb	r1, [r1, #8]
 1793 0130 FFF7FEFF 		bl	drawHLine
 1794              	.LVL230:
 1795 0134 029B     		ldr	r3, [sp, #8]
 1796 0136 0133     		adds	r3, r3, #1
 1797 0138 1BB2     		sxth	r3, r3
 1798 013a 0293     		str	r3, [sp, #8]
 1799              	.LVL231:
 1800 013c D0E7     		b	.L88
 1801              	.LVL232:
 1802              	.L99:
 720:GFX_Library.c ****     }
 721:GFX_Library.c **** 
 722:GFX_Library.c ****     // For lower part of triangle, find scanline crossings for segments
 723:GFX_Library.c ****     // 0-2 and 1-2.  This loop is skipped if y1=y2.
 724:GFX_Library.c ****     sa = dx12 * (y - y1);
 1803              		.loc 1 724 0
 1804 013e 0A9A     		ldr	r2, [sp, #40]
 1805 0140 5B1B     		subs	r3, r3, r5
 1806 0142 5A43     		muls	r2, r3
 725:GFX_Library.c ****     sb = dx02 * (y - y0);
 1807              		.loc 1 725 0
 1808 0144 029B     		ldr	r3, [sp, #8]
 724:GFX_Library.c ****     sb = dx02 * (y - y0);
 1809              		.loc 1 724 0
 1810 0146 0392     		str	r2, [sp, #12]
 1811              	.LVL233:
 1812              		.loc 1 725 0
 1813 0148 1D1B     		subs	r5, r3, r4
 1814              	.LVL234:
 1815 014a 069B     		ldr	r3, [sp, #24]
 1816 014c 5D43     		muls	r5, r3
 1817              	.LVL235:
 1818              	.L91:
 726:GFX_Library.c ****     for(; y<=y2; y++) {
 1819              		.loc 1 726 0 discriminator 1
 1820 014e 029B     		ldr	r3, [sp, #8]
 1821 0150 019A     		ldr	r2, [sp, #4]
 1822 0152 9342     		cmp	r3, r2
 1823 0154 26DC     		bgt	.L76
 727:GFX_Library.c ****         a   = x1 + sa / dy12;
 1824              		.loc 1 727 0
 1825 0156 0D99     		ldr	r1, [sp, #52]
 1826 0158 0398     		ldr	r0, [sp, #12]
 1827 015a FFF7FEFF 		bl	__aeabi_idiv
 1828              	.LVL236:
ARM GAS  C:\Users\PC\AppData\Local\Temp\ccF7GaWd.s 			page 47


 1829 015e 3018     		adds	r0, r6, r0
 728:GFX_Library.c ****         b   = x0 + sb / dy02;
 1830              		.loc 1 728 0
 1831 0160 0999     		ldr	r1, [sp, #36]
 727:GFX_Library.c ****         a   = x1 + sa / dy12;
 1832              		.loc 1 727 0
 1833 0162 04B2     		sxth	r4, r0
 1834              	.LVL237:
 1835              		.loc 1 728 0
 1836 0164 2800     		movs	r0, r5
 1837 0166 FFF7FEFF 		bl	__aeabi_idiv
 1838              	.LVL238:
 729:GFX_Library.c ****         sa += dx12;
 1839              		.loc 1 729 0
 1840 016a 0A99     		ldr	r1, [sp, #40]
 1841 016c 039B     		ldr	r3, [sp, #12]
 1842 016e 8C46     		mov	ip, r1
 1843 0170 6344     		add	r3, r3, ip
 728:GFX_Library.c ****         b   = x0 + sb / dy02;
 1844              		.loc 1 728 0
 1845 0172 3818     		adds	r0, r7, r0
 1846              		.loc 1 729 0
 1847 0174 0393     		str	r3, [sp, #12]
 1848              	.LVL239:
 730:GFX_Library.c ****         sb += dx02;
 1849              		.loc 1 730 0
 1850 0176 069B     		ldr	r3, [sp, #24]
 728:GFX_Library.c ****         b   = x0 + sb / dy02;
 1851              		.loc 1 728 0
 1852 0178 02B2     		sxth	r2, r0
 1853              	.LVL240:
 1854              		.loc 1 730 0
 1855 017a ED18     		adds	r5, r5, r3
 1856              	.LVL241:
 731:GFX_Library.c ****         /* longhand:
 732:GFX_Library.c ****         a = x1 + (x2 - x1) * (y - y1) / (y2 - y1);
 733:GFX_Library.c ****         b = x0 + (x2 - x0) * (y - y0) / (y2 - y0);
 734:GFX_Library.c ****         */
 735:GFX_Library.c ****         if(a > b) _swap_int16_t(a,b);
 1857              		.loc 1 735 0
 1858 017c 9442     		cmp	r4, r2
 1859 017e 02DD     		ble	.L92
 1860 0180 2300     		movs	r3, r4
 1861 0182 1400     		movs	r4, r2
 1862              	.LVL242:
 1863 0184 1A00     		movs	r2, r3
 1864              	.LVL243:
 1865              	.L92:
 736:GFX_Library.c ****         display_drawHLine(a, y, b-a+1, color);
 1866              		.loc 1 736 0
 1867 0186 6B46     		mov	r3, sp
 1868 0188 6946     		mov	r1, sp
 1869 018a E0B2     		uxtb	r0, r4
 1870 018c 0132     		adds	r2, r2, #1
 1871              	.LVL244:
 1872 018e 121A     		subs	r2, r2, r0
 1873 0190 1B7F     		ldrb	r3, [r3, #28]
ARM GAS  C:\Users\PC\AppData\Local\Temp\ccF7GaWd.s 			page 48


 1874 0192 D2B2     		uxtb	r2, r2
 1875 0194 097A     		ldrb	r1, [r1, #8]
 1876 0196 FFF7FEFF 		bl	drawHLine
 1877              	.LVL245:
 1878 019a 029B     		ldr	r3, [sp, #8]
 1879 019c 0133     		adds	r3, r3, #1
 1880 019e 1BB2     		sxth	r3, r3
 1881 01a0 0293     		str	r3, [sp, #8]
 1882              	.LVL246:
 1883 01a2 D4E7     		b	.L91
 1884              	.LVL247:
 1885              	.L76:
 737:GFX_Library.c ****     }
 738:GFX_Library.c **** }
 1886              		.loc 1 738 0
 1887 01a4 0FB0     		add	sp, sp, #60
 1888              		@ sp needed
 1889              	.LVL248:
 1890              	.LVL249:
 1891 01a6 F0BD     		pop	{r4, r5, r6, r7, pc}
 1892              		.cfi_endproc
 1893              	.LFE43:
 1894              		.size	display_fillTriangle, .-display_fillTriangle
 1895              		.section	.text.display_print,"ax",%progbits
 1896              		.align	1
 1897              		.global	display_print
 1898              		.code	16
 1899              		.thumb_func
 1900              		.type	display_print, %function
 1901              	display_print:
 1902              	.LFB44:
 739:GFX_Library.c **** 
 740:GFX_Library.c **** /**************************************************************************/
 741:GFX_Library.c **** /*!
 742:GFX_Library.c ****     @brief  Print one byte/character of data
 743:GFX_Library.c ****     @param  c  The 8-bit ascii character to write
 744:GFX_Library.c **** */
 745:GFX_Library.c **** /**************************************************************************/
 746:GFX_Library.c **** void display_print(uint8_t c) {
 1903              		.loc 1 746 0
 1904              		.cfi_startproc
 1905              		@ args = 0, pretend = 0, frame = 8
 1906              		@ frame_needed = 0, uses_anonymous_args = 0
 1907              	.LVL250:
 1908 0000 F0B5     		push	{r4, r5, r6, r7, lr}
 1909              		.cfi_def_cfa_offset 20
 1910              		.cfi_offset 4, -20
 1911              		.cfi_offset 5, -16
 1912              		.cfi_offset 6, -12
 1913              		.cfi_offset 7, -8
 1914              		.cfi_offset 14, -4
 1915 0002 85B0     		sub	sp, sp, #20
 1916              		.cfi_def_cfa_offset 40
 747:GFX_Library.c **** 
 748:GFX_Library.c ****   if (c == ' ' && cursor_x == 0 && wrap)
 1917              		.loc 1 748 0
 1918 0004 2028     		cmp	r0, #32
ARM GAS  C:\Users\PC\AppData\Local\Temp\ccF7GaWd.s 			page 49


 1919 0006 10D1     		bne	.L101
 1920              		.loc 1 748 0 is_stmt 0 discriminator 1
 1921 0008 5D4B     		ldr	r3, .L126
 1922 000a 0022     		movs	r2, #0
 1923 000c 9B5E     		ldrsh	r3, [r3, r2]
 1924 000e 002B     		cmp	r3, #0
 1925 0010 04D1     		bne	.L102
 1926              		.loc 1 748 0 discriminator 2
 1927 0012 5C4B     		ldr	r3, .L126+4
 1928 0014 1B78     		ldrb	r3, [r3]
 1929 0016 002B     		cmp	r3, #0
 1930 0018 00D0     		beq	.LCB2048
 1931 001a AEE0     		b	.L100	@long jump
 1932              	.LCB2048:
 1933              	.L102:
 1934 001c 0523     		movs	r3, #5
 1935 001e 5843     		muls	r0, r3
 1936              	.LVL251:
 1937 0020 594B     		ldr	r3, .L126+8
 746:GFX_Library.c **** 
 1938              		.loc 1 746 0 is_stmt 1
 1939 0022 0025     		movs	r5, #0
 1940 0024 1B18     		adds	r3, r3, r0
 1941 0026 0393     		str	r3, [sp, #12]
 1942 0028 1FE0     		b	.L104
 1943              	.LVL252:
 1944              	.L101:
 749:GFX_Library.c ****     return;
 750:GFX_Library.c ****   if(c == '\r') {
 1945              		.loc 1 750 0
 1946 002a 0D28     		cmp	r0, #13
 1947 002c 03D1     		bne	.L106
 751:GFX_Library.c ****     cursor_x = 0;
 1948              		.loc 1 751 0
 1949 002e 0022     		movs	r2, #0
 1950 0030 534B     		ldr	r3, .L126
 1951 0032 1A80     		strh	r2, [r3]
 752:GFX_Library.c ****     return;
 1952              		.loc 1 752 0
 1953 0034 A1E0     		b	.L100
 1954              	.L106:
 753:GFX_Library.c ****   }
 754:GFX_Library.c ****   if(c == '\n') {
 1955              		.loc 1 754 0
 1956 0036 0A28     		cmp	r0, #10
 1957 0038 F0D1     		bne	.L102
 755:GFX_Library.c ****     cursor_y += textsize * 8;
 1958              		.loc 1 755 0
 1959 003a 524B     		ldr	r3, .L126+4
 1960 003c 5049     		ldr	r1, .L126
 1961 003e 5B78     		ldrb	r3, [r3, #1]
 1962 0040 4A88     		ldrh	r2, [r1, #2]
 1963 0042 DB00     		lsls	r3, r3, #3
 1964 0044 9B18     		adds	r3, r3, r2
 1965 0046 4B80     		strh	r3, [r1, #2]
 756:GFX_Library.c ****     return;
 1966              		.loc 1 756 0
ARM GAS  C:\Users\PC\AppData\Local\Temp\ccF7GaWd.s 			page 50


 1967 0048 97E0     		b	.L100
 1968              	.LVL253:
 1969              	.L112:
 1970              	.LBB33:
 1971              	.LBB34:
 1972              	.LBB35:
 1973              	.LBB36:
 1974              	.LBB37:
 757:GFX_Library.c ****   }
 758:GFX_Library.c **** 
 759:GFX_Library.c ****   for(uint8_t i = 0; i < 5; i++ ) {
 760:GFX_Library.c ****     uint8_t line = font[c][i];
 761:GFX_Library.c ****     for(uint8_t j = 0; j < 8; j++, line >>= 1) {
 762:GFX_Library.c ****       if(line & 1) {
 1975              		.loc 1 762 0
 1976 004a 0123     		movs	r3, #1
 1977 004c 1F42     		tst	r7, r3
 1978 004e 11D1     		bne	.L123
 763:GFX_Library.c ****         if(textsize == 1)
 764:GFX_Library.c ****           display_drawPixel(cursor_x + i, cursor_y + j, textcolor);
 765:GFX_Library.c ****         else
 766:GFX_Library.c ****           display_fillRect(cursor_x + i * textsize, cursor_y + j * textsize, textsize, textsize, te
 767:GFX_Library.c ****       } 
 768:GFX_Library.c ****       else 
 769:GFX_Library.c ****         if(textbgcolor != textcolor) {
 1979              		.loc 1 769 0
 1980 0050 4C4B     		ldr	r3, .L126+4
 1981 0052 9A88     		ldrh	r2, [r3, #4]
 1982 0054 5B88     		ldrh	r3, [r3, #2]
 1983 0056 9342     		cmp	r3, r2
 1984 0058 28D1     		bne	.L124
 1985              	.L110:
 761:GFX_Library.c ****       if(line & 1) {
 1986              		.loc 1 761 0
 1987 005a 0136     		adds	r6, r6, #1
 1988              	.LVL254:
 1989 005c F6B2     		uxtb	r6, r6
 1990              	.LVL255:
 1991 005e 7F08     		lsrs	r7, r7, #1
 1992              	.LVL256:
 1993 0060 082E     		cmp	r6, #8
 1994 0062 F2D1     		bne	.L112
 1995              	.LVL257:
 1996 0064 0135     		adds	r5, r5, #1
 1997              	.LVL258:
 1998              	.LBE37:
 1999              	.LBE36:
 759:GFX_Library.c ****     uint8_t line = font[c][i];
 2000              		.loc 1 759 0
 2001 0066 052D     		cmp	r5, #5
 2002 0068 41D0     		beq	.L125
 2003              	.LVL259:
 2004              	.L104:
 2005              	.LBB39:
 760:GFX_Library.c ****     for(uint8_t j = 0; j < 8; j++, line >>= 1) {
 2006              		.loc 1 760 0
 2007 006a 039B     		ldr	r3, [sp, #12]
ARM GAS  C:\Users\PC\AppData\Local\Temp\ccF7GaWd.s 			page 51


 2008 006c ECB2     		uxtb	r4, r5
 2009              	.LVL260:
 2010 006e 5F5D     		ldrb	r7, [r3, r5]
 2011              	.LVL261:
 2012              	.LBB38:
 761:GFX_Library.c ****       if(line & 1) {
 2013              		.loc 1 761 0
 2014 0070 0026     		movs	r6, #0
 2015 0072 EAE7     		b	.L112
 2016              	.LVL262:
 2017              	.L123:
 763:GFX_Library.c ****           display_drawPixel(cursor_x + i, cursor_y + j, textcolor);
 2018              		.loc 1 763 0
 2019 0074 434B     		ldr	r3, .L126+4
 2020 0076 4248     		ldr	r0, .L126
 2021 0078 5A78     		ldrb	r2, [r3, #1]
 2022 007a 5B88     		ldrh	r3, [r3, #2]
 2023 007c 012A     		cmp	r2, #1
 2024 007e 05D1     		bne	.L109
 764:GFX_Library.c ****         else
 2025              		.loc 1 764 0
 2026 0080 4188     		ldrh	r1, [r0, #2]
 2027 0082 DAB2     		uxtb	r2, r3
 2028 0084 7118     		adds	r1, r6, r1
 2029 0086 C9B2     		uxtb	r1, r1
 2030 0088 0088     		ldrh	r0, [r0]
 2031 008a 1BE0     		b	.L121
 2032              	.L109:
 766:GFX_Library.c ****       } 
 2033              		.loc 1 766 0
 2034 008c 4188     		ldrh	r1, [r0, #2]
 2035 008e 0088     		ldrh	r0, [r0]
 2036 0090 8C46     		mov	ip, r1
 2037 0092 3100     		movs	r1, r6
 2038 0094 5143     		muls	r1, r2
 2039 0096 6144     		add	r1, r1, ip
 2040 0098 8446     		mov	ip, r0
 2041 009a 2000     		movs	r0, r4
 2042 009c 5043     		muls	r0, r2
 2043 009e DBB2     		uxtb	r3, r3
 2044 00a0 6044     		add	r0, r0, ip
 2045 00a2 0093     		str	r3, [sp]
 2046 00a4 C9B2     		uxtb	r1, r1
 2047 00a6 C0B2     		uxtb	r0, r0
 2048 00a8 1300     		movs	r3, r2
 2049 00aa 1DE0     		b	.L122
 2050              	.L124:
 770:GFX_Library.c ****           if(textsize == 1)
 2051              		.loc 1 770 0
 2052 00ac 354B     		ldr	r3, .L126+4
 2053 00ae D2B2     		uxtb	r2, r2
 2054 00b0 5B78     		ldrb	r3, [r3, #1]
 2055 00b2 9C46     		mov	ip, r3
 2056 00b4 6146     		mov	r1, ip
 2057 00b6 324B     		ldr	r3, .L126
 2058 00b8 0129     		cmp	r1, #1
 2059 00ba 08D1     		bne	.L111
ARM GAS  C:\Users\PC\AppData\Local\Temp\ccF7GaWd.s 			page 52


 771:GFX_Library.c ****             display_drawPixel(cursor_x + i, cursor_y + j, textbgcolor);
 2060              		.loc 1 771 0
 2061 00bc 5988     		ldrh	r1, [r3, #2]
 2062 00be 1888     		ldrh	r0, [r3]
 2063 00c0 7118     		adds	r1, r6, r1
 2064 00c2 C9B2     		uxtb	r1, r1
 2065              	.L121:
 2066 00c4 2018     		adds	r0, r4, r0
 2067 00c6 C0B2     		uxtb	r0, r0
 2068 00c8 FFF7FEFF 		bl	drawPixel
 2069              	.LVL263:
 2070 00cc C5E7     		b	.L110
 2071              	.L111:
 772:GFX_Library.c ****           else
 773:GFX_Library.c ****             display_fillRect(cursor_x + i * textsize, cursor_y + j * textsize, textsize, textsize, 
 2072              		.loc 1 773 0
 2073 00ce 6146     		mov	r1, ip
 2074 00d0 7143     		muls	r1, r6
 2075 00d2 5888     		ldrh	r0, [r3, #2]
 2076 00d4 4118     		adds	r1, r0, r1
 2077 00d6 1888     		ldrh	r0, [r3]
 2078 00d8 6346     		mov	r3, ip
 2079 00da 6343     		muls	r3, r4
 2080 00dc 0092     		str	r2, [sp]
 2081 00de C018     		adds	r0, r0, r3
 2082 00e0 6246     		mov	r2, ip
 2083 00e2 6346     		mov	r3, ip
 2084 00e4 C9B2     		uxtb	r1, r1
 2085 00e6 C0B2     		uxtb	r0, r0
 2086              	.L122:
 2087 00e8 FFF7FEFF 		bl	fillRect
 2088              	.LVL264:
 2089 00ec B5E7     		b	.L110
 2090              	.LVL265:
 2091              	.L125:
 2092              	.LBE38:
 2093              	.LBE39:
 2094              	.LBE35:
 774:GFX_Library.c ****         }
 775:GFX_Library.c ****     }
 776:GFX_Library.c ****   }
 777:GFX_Library.c **** 
 778:GFX_Library.c ****   if(textbgcolor != textcolor) {  // If opaque, draw vertical line for last column
 2095              		.loc 1 778 0
 2096 00ee 254F     		ldr	r7, .L126+4
 2097              	.LVL266:
 2098 00f0 234C     		ldr	r4, .L126
 2099              	.LVL267:
 2100 00f2 BB88     		ldrh	r3, [r7, #4]
 2101 00f4 7A88     		ldrh	r2, [r7, #2]
 2102 00f6 9A42     		cmp	r2, r3
 2103 00f8 16D0     		beq	.L113
 779:GFX_Library.c ****     if(textsize == 1)  display_drawVLine(cursor_x + 5, cursor_y, 8, textbgcolor);
 2104              		.loc 1 779 0
 2105 00fa 7A78     		ldrb	r2, [r7, #1]
 2106 00fc DBB2     		uxtb	r3, r3
 2107 00fe 012A     		cmp	r2, #1
ARM GAS  C:\Users\PC\AppData\Local\Temp\ccF7GaWd.s 			page 53


 2108 0100 07D1     		bne	.L114
 2109 0102 2088     		ldrh	r0, [r4]
 2110 0104 A178     		ldrb	r1, [r4, #2]
 2111 0106 0530     		adds	r0, r0, #5
 2112 0108 C0B2     		uxtb	r0, r0
 2113 010a 3200     		movs	r2, r6
 2114 010c FFF7FEFF 		bl	drawVLine
 2115              	.LVL268:
 2116 0110 0AE0     		b	.L113
 2117              	.L114:
 780:GFX_Library.c ****     else               display_fillRect(cursor_x + 5 * textsize, cursor_y, textsize, 8 * textsize, 
 2118              		.loc 1 780 0
 2119 0112 5543     		muls	r5, r2
 2120 0114 2088     		ldrh	r0, [r4]
 2121 0116 D600     		lsls	r6, r2, #3
 2122              	.LVL269:
 2123 0118 F6B2     		uxtb	r6, r6
 2124 011a 4519     		adds	r5, r0, r5
 2125 011c A178     		ldrb	r1, [r4, #2]
 2126 011e E8B2     		uxtb	r0, r5
 2127 0120 0093     		str	r3, [sp]
 2128 0122 3300     		movs	r3, r6
 2129 0124 FFF7FEFF 		bl	fillRect
 2130              	.LVL270:
 2131              	.L113:
 781:GFX_Library.c ****   }
 782:GFX_Library.c **** 
 783:GFX_Library.c ****   cursor_x += textsize * 6;
 2132              		.loc 1 783 0
 2133 0128 0621     		movs	r1, #6
 2134 012a 0D00     		movs	r5, r1
 2135 012c 154B     		ldr	r3, .L126+4
 2136 012e 2088     		ldrh	r0, [r4]
 2137 0130 5B78     		ldrb	r3, [r3, #1]
 2138 0132 9AB2     		uxth	r2, r3
 2139 0134 5543     		muls	r5, r2
 784:GFX_Library.c **** 
 785:GFX_Library.c ****   if( cursor_x > ((uint16_t)display_width + textsize * 6) )
 2140              		.loc 1 785 0
 2141 0136 5943     		muls	r1, r3
 783:GFX_Library.c **** 
 2142              		.loc 1 783 0
 2143 0138 2818     		adds	r0, r5, r0
 2144              		.loc 1 785 0
 2145 013a 144D     		ldr	r5, .L126+12
 783:GFX_Library.c **** 
 2146              		.loc 1 783 0
 2147 013c 00B2     		sxth	r0, r0
 2148              		.loc 1 785 0
 2149 013e 2D78     		ldrb	r5, [r5]
 783:GFX_Library.c **** 
 2150              		.loc 1 783 0
 2151 0140 2080     		strh	r0, [r4]
 2152              		.loc 1 785 0
 2153 0142 4919     		adds	r1, r1, r5
 2154 0144 8842     		cmp	r0, r1
 2155 0146 00DD     		ble	.L115
ARM GAS  C:\Users\PC\AppData\Local\Temp\ccF7GaWd.s 			page 54


 786:GFX_Library.c ****     cursor_x = display_width;
 2156              		.loc 1 786 0
 2157 0148 2580     		strh	r5, [r4]
 2158              	.L115:
 787:GFX_Library.c **** 
 788:GFX_Library.c ****   if (wrap && (cursor_x + (textsize * 5)) > display_width)
 2159              		.loc 1 788 0
 2160 014a 3978     		ldrb	r1, [r7]
 2161 014c 0029     		cmp	r1, #0
 2162 014e 14D0     		beq	.L100
 2163 0150 0021     		movs	r1, #0
 2164 0152 605E     		ldrsh	r0, [r4, r1]
 2165 0154 0521     		movs	r1, #5
 2166 0156 5943     		muls	r1, r3
 2167 0158 4118     		adds	r1, r0, r1
 2168 015a 8D42     		cmp	r5, r1
 2169 015c 0DDA     		bge	.L100
 789:GFX_Library.c ****   {
 790:GFX_Library.c ****     cursor_x = 0;
 2170              		.loc 1 790 0
 2171 015e 0021     		movs	r1, #0
 2172 0160 2180     		strh	r1, [r4]
 791:GFX_Library.c ****     cursor_y += textsize * 8;
 2173              		.loc 1 791 0
 2174 0162 6188     		ldrh	r1, [r4, #2]
 2175 0164 D200     		lsls	r2, r2, #3
 2176 0166 5218     		adds	r2, r2, r1
 792:GFX_Library.c ****     if( cursor_y > ((uint16_t)display_height + textsize * 8) )
 2177              		.loc 1 792 0
 2178 0168 0949     		ldr	r1, .L126+16
 2179 016a DB00     		lsls	r3, r3, #3
 2180 016c 0978     		ldrb	r1, [r1]
 791:GFX_Library.c ****     cursor_y += textsize * 8;
 2181              		.loc 1 791 0
 2182 016e 12B2     		sxth	r2, r2
 2183              		.loc 1 792 0
 2184 0170 5B18     		adds	r3, r3, r1
 791:GFX_Library.c ****     cursor_y += textsize * 8;
 2185              		.loc 1 791 0
 2186 0172 6280     		strh	r2, [r4, #2]
 2187              		.loc 1 792 0
 2188 0174 9A42     		cmp	r2, r3
 2189 0176 00DD     		ble	.L100
 793:GFX_Library.c ****       cursor_y = display_height;
 2190              		.loc 1 793 0
 2191 0178 6180     		strh	r1, [r4, #2]
 2192              	.L100:
 2193              	.LBE34:
 2194              	.LBE33:
 794:GFX_Library.c ****   }
 795:GFX_Library.c **** }
 2195              		.loc 1 795 0
 2196 017a 05B0     		add	sp, sp, #20
 2197              		@ sp needed
 2198 017c F0BD     		pop	{r4, r5, r6, r7, pc}
 2199              	.L127:
 2200 017e C046     		.align	2
ARM GAS  C:\Users\PC\AppData\Local\Temp\ccF7GaWd.s 			page 55


 2201              	.L126:
 2202 0180 00000000 		.word	.LANCHOR0
 2203 0184 00000000 		.word	.LANCHOR1
 2204 0188 00000000 		.word	.LANCHOR2
 2205 018c 00000000 		.word	_width
 2206 0190 00000000 		.word	_height
 2207              		.cfi_endproc
 2208              	.LFE44:
 2209              		.size	display_print, .-display_print
 2210              		.section	.text.display_string,"ax",%progbits
 2211              		.align	1
 2212              		.global	display_string
 2213              		.code	16
 2214              		.thumb_func
 2215              		.type	display_string, %function
 2216              	display_string:
 2217              	.LFB45:
 796:GFX_Library.c **** 
 797:GFX_Library.c **** void display_string(char *str) {
 2218              		.loc 1 797 0
 2219              		.cfi_startproc
 2220              		@ args = 0, pretend = 0, frame = 0
 2221              		@ frame_needed = 0, uses_anonymous_args = 0
 2222              	.LVL271:
 2223 0000 10B5     		push	{r4, lr}
 2224              		.cfi_def_cfa_offset 8
 2225              		.cfi_offset 4, -8
 2226              		.cfi_offset 14, -4
 2227 0002 0400     		movs	r4, r0
 2228              	.LVL272:
 2229              	.L129:
 798:GFX_Library.c ****     while(*str != 0) {
 2230              		.loc 1 798 0
 2231 0004 2078     		ldrb	r0, [r4]
 2232 0006 0028     		cmp	r0, #0
 2233 0008 03D0     		beq	.L131
 799:GFX_Library.c ****         display_print(*str);
 2234              		.loc 1 799 0
 2235 000a FFF7FEFF 		bl	display_print
 2236              	.LVL273:
 800:GFX_Library.c ****         str++;
 2237              		.loc 1 800 0
 2238 000e 0134     		adds	r4, r4, #1
 2239              	.LVL274:
 2240 0010 F8E7     		b	.L129
 2241              	.L131:
 801:GFX_Library.c ****     }
 802:GFX_Library.c **** }
 2242              		.loc 1 802 0
 2243              		@ sp needed
 2244              	.LVL275:
 2245 0012 10BD     		pop	{r4, pc}
 2246              		.cfi_endproc
 2247              	.LFE45:
 2248              		.size	display_string, .-display_string
 2249              		.section	.text.display_customChar,"ax",%progbits
 2250              		.align	1
ARM GAS  C:\Users\PC\AppData\Local\Temp\ccF7GaWd.s 			page 56


 2251              		.global	display_customChar
 2252              		.code	16
 2253              		.thumb_func
 2254              		.type	display_customChar, %function
 2255              	display_customChar:
 2256              	.LFB46:
 803:GFX_Library.c **** 
 804:GFX_Library.c **** // print custom char (dimension: 7x5 or 8x5 pixel)
 805:GFX_Library.c **** void display_customChar(const uint8_t *c) {
 2257              		.loc 1 805 0
 2258              		.cfi_startproc
 2259              		@ args = 0, pretend = 0, frame = 8
 2260              		@ frame_needed = 0, uses_anonymous_args = 0
 2261              	.LVL276:
 2262 0000 F0B5     		push	{r4, r5, r6, r7, lr}
 2263              		.cfi_def_cfa_offset 20
 2264              		.cfi_offset 4, -20
 2265              		.cfi_offset 5, -16
 2266              		.cfi_offset 6, -12
 2267              		.cfi_offset 7, -8
 2268              		.cfi_offset 14, -4
 2269 0002 0025     		movs	r5, #0
 2270 0004 85B0     		sub	sp, sp, #20
 2271              		.cfi_def_cfa_offset 40
 2272              		.loc 1 805 0
 2273 0006 0390     		str	r0, [sp, #12]
 2274              	.LVL277:
 2275              	.L138:
 2276              	.LBB40:
 2277              	.LBB41:
 2278              	.LBB42:
 806:GFX_Library.c **** 
 807:GFX_Library.c ****   for(uint8_t i = 0; i < 5; i++ ) {
 808:GFX_Library.c ****     uint8_t line = c[i];
 809:GFX_Library.c ****     for(uint8_t j = 0; j < 8; j++, line >>= 1) {
 2279              		.loc 1 809 0
 2280 0008 0026     		movs	r6, #0
 2281              	.LBE42:
 808:GFX_Library.c ****     for(uint8_t j = 0; j < 8; j++, line >>= 1) {
 2282              		.loc 1 808 0
 2283 000a 039B     		ldr	r3, [sp, #12]
 2284 000c ECB2     		uxtb	r4, r5
 2285              	.LVL278:
 2286 000e 5F5D     		ldrb	r7, [r3, r5]
 2287              	.LVL279:
 2288              	.L137:
 2289              	.LBB43:
 810:GFX_Library.c ****       if(line & 1) {
 2290              		.loc 1 810 0
 2291 0010 0123     		movs	r3, #1
 2292 0012 1F42     		tst	r7, r3
 2293 0014 1BD0     		beq	.L133
 811:GFX_Library.c ****         if(textsize == 1)
 2294              		.loc 1 811 0
 2295 0016 484B     		ldr	r3, .L149
 2296 0018 4848     		ldr	r0, .L149+4
 2297 001a 5A78     		ldrb	r2, [r3, #1]
ARM GAS  C:\Users\PC\AppData\Local\Temp\ccF7GaWd.s 			page 57


 2298 001c 5B88     		ldrh	r3, [r3, #2]
 2299 001e 012A     		cmp	r2, #1
 2300 0020 05D1     		bne	.L134
 812:GFX_Library.c ****           display_drawPixel(cursor_x + i, cursor_y + j, textcolor);
 2301              		.loc 1 812 0
 2302 0022 4188     		ldrh	r1, [r0, #2]
 2303 0024 DAB2     		uxtb	r2, r3
 2304 0026 7118     		adds	r1, r6, r1
 2305 0028 C9B2     		uxtb	r1, r1
 2306 002a 0088     		ldrh	r0, [r0]
 2307 002c 20E0     		b	.L147
 2308              	.L134:
 813:GFX_Library.c ****         else
 814:GFX_Library.c ****           display_fillRect(cursor_x + i * textsize, cursor_y + j * textsize, textsize, textsize, te
 2309              		.loc 1 814 0
 2310 002e 4188     		ldrh	r1, [r0, #2]
 2311 0030 0088     		ldrh	r0, [r0]
 2312 0032 8C46     		mov	ip, r1
 2313 0034 3100     		movs	r1, r6
 2314 0036 5143     		muls	r1, r2
 2315 0038 6144     		add	r1, r1, ip
 2316 003a 8446     		mov	ip, r0
 2317 003c 2000     		movs	r0, r4
 2318 003e 5043     		muls	r0, r2
 2319 0040 DBB2     		uxtb	r3, r3
 2320 0042 6044     		add	r0, r0, ip
 2321 0044 0093     		str	r3, [sp]
 2322 0046 C9B2     		uxtb	r1, r1
 2323 0048 C0B2     		uxtb	r0, r0
 2324 004a 1300     		movs	r3, r2
 2325 004c 22E0     		b	.L148
 2326              	.L133:
 815:GFX_Library.c ****       } 
 816:GFX_Library.c ****       else 
 817:GFX_Library.c ****         if(textbgcolor != textcolor) {
 2327              		.loc 1 817 0
 2328 004e 3A4B     		ldr	r3, .L149
 2329 0050 9A88     		ldrh	r2, [r3, #4]
 2330 0052 5B88     		ldrh	r3, [r3, #2]
 2331 0054 9342     		cmp	r3, r2
 2332 0056 1FD0     		beq	.L135
 818:GFX_Library.c ****           if(textsize == 1)
 2333              		.loc 1 818 0
 2334 0058 374B     		ldr	r3, .L149
 2335 005a D2B2     		uxtb	r2, r2
 2336 005c 5B78     		ldrb	r3, [r3, #1]
 2337 005e 9C46     		mov	ip, r3
 2338 0060 6146     		mov	r1, ip
 2339 0062 364B     		ldr	r3, .L149+4
 2340 0064 0129     		cmp	r1, #1
 2341 0066 08D1     		bne	.L136
 819:GFX_Library.c ****             display_drawPixel(cursor_x + i, cursor_y + j, textbgcolor);
 2342              		.loc 1 819 0
 2343 0068 5988     		ldrh	r1, [r3, #2]
 2344 006a 1888     		ldrh	r0, [r3]
 2345 006c 7118     		adds	r1, r6, r1
 2346 006e C9B2     		uxtb	r1, r1
ARM GAS  C:\Users\PC\AppData\Local\Temp\ccF7GaWd.s 			page 58


 2347              	.L147:
 2348 0070 2018     		adds	r0, r4, r0
 2349 0072 C0B2     		uxtb	r0, r0
 2350 0074 FFF7FEFF 		bl	drawPixel
 2351              	.LVL280:
 2352 0078 0EE0     		b	.L135
 2353              	.L136:
 820:GFX_Library.c ****           else
 821:GFX_Library.c ****             display_fillRect(cursor_x + i * textsize, cursor_y + j * textsize, textsize, textsize, 
 2354              		.loc 1 821 0
 2355 007a 6146     		mov	r1, ip
 2356 007c 7143     		muls	r1, r6
 2357 007e 5888     		ldrh	r0, [r3, #2]
 2358 0080 4118     		adds	r1, r0, r1
 2359 0082 1888     		ldrh	r0, [r3]
 2360 0084 6346     		mov	r3, ip
 2361 0086 6343     		muls	r3, r4
 2362 0088 0092     		str	r2, [sp]
 2363 008a C018     		adds	r0, r0, r3
 2364 008c 6246     		mov	r2, ip
 2365 008e 6346     		mov	r3, ip
 2366 0090 C9B2     		uxtb	r1, r1
 2367 0092 C0B2     		uxtb	r0, r0
 2368              	.L148:
 2369 0094 FFF7FEFF 		bl	fillRect
 2370              	.LVL281:
 2371              	.L135:
 809:GFX_Library.c ****       if(line & 1) {
 2372              		.loc 1 809 0 discriminator 2
 2373 0098 0136     		adds	r6, r6, #1
 2374              	.LVL282:
 2375 009a F6B2     		uxtb	r6, r6
 2376              	.LVL283:
 2377 009c 7F08     		lsrs	r7, r7, #1
 2378              	.LVL284:
 2379 009e 082E     		cmp	r6, #8
 2380 00a0 B6D1     		bne	.L137
 2381              	.LVL285:
 2382 00a2 0135     		adds	r5, r5, #1
 2383              	.LVL286:
 2384              	.LBE43:
 2385              	.LBE41:
 807:GFX_Library.c ****     uint8_t line = c[i];
 2386              		.loc 1 807 0 discriminator 2
 2387 00a4 052D     		cmp	r5, #5
 2388 00a6 AFD1     		bne	.L138
 2389              	.LBE40:
 822:GFX_Library.c ****         }
 823:GFX_Library.c ****     }
 824:GFX_Library.c ****   }
 825:GFX_Library.c **** 
 826:GFX_Library.c ****   if(textbgcolor != textcolor) {  // If opaque, draw vertical line for last column
 2390              		.loc 1 826 0
 2391 00a8 234F     		ldr	r7, .L149
 2392              	.LVL287:
 2393 00aa 244C     		ldr	r4, .L149+4
 2394              	.LVL288:
ARM GAS  C:\Users\PC\AppData\Local\Temp\ccF7GaWd.s 			page 59


 2395 00ac BB88     		ldrh	r3, [r7, #4]
 2396 00ae 7A88     		ldrh	r2, [r7, #2]
 2397 00b0 9A42     		cmp	r2, r3
 2398 00b2 16D0     		beq	.L139
 827:GFX_Library.c ****     if(textsize == 1)  display_drawVLine(cursor_x + 5, cursor_y, 8, textbgcolor);
 2399              		.loc 1 827 0
 2400 00b4 7A78     		ldrb	r2, [r7, #1]
 2401 00b6 DBB2     		uxtb	r3, r3
 2402 00b8 012A     		cmp	r2, #1
 2403 00ba 07D1     		bne	.L140
 2404              		.loc 1 827 0 is_stmt 0 discriminator 1
 2405 00bc 2088     		ldrh	r0, [r4]
 2406 00be A178     		ldrb	r1, [r4, #2]
 2407 00c0 0530     		adds	r0, r0, #5
 2408 00c2 C0B2     		uxtb	r0, r0
 2409 00c4 3200     		movs	r2, r6
 2410 00c6 FFF7FEFF 		bl	drawVLine
 2411              	.LVL289:
 2412 00ca 0AE0     		b	.L139
 2413              	.L140:
 828:GFX_Library.c ****     else               display_fillRect(cursor_x + 5 * textsize, cursor_y, textsize, 8 * textsize, 
 2414              		.loc 1 828 0 is_stmt 1
 2415 00cc 5543     		muls	r5, r2
 2416 00ce 2088     		ldrh	r0, [r4]
 2417 00d0 D600     		lsls	r6, r2, #3
 2418              	.LVL290:
 2419 00d2 F6B2     		uxtb	r6, r6
 2420 00d4 4519     		adds	r5, r0, r5
 2421 00d6 A178     		ldrb	r1, [r4, #2]
 2422 00d8 E8B2     		uxtb	r0, r5
 2423 00da 0093     		str	r3, [sp]
 2424 00dc 3300     		movs	r3, r6
 2425 00de FFF7FEFF 		bl	fillRect
 2426              	.LVL291:
 2427              	.L139:
 829:GFX_Library.c ****   }
 830:GFX_Library.c **** 
 831:GFX_Library.c ****   cursor_x += textsize * 6;
 2428              		.loc 1 831 0
 2429 00e2 0621     		movs	r1, #6
 2430 00e4 0D00     		movs	r5, r1
 2431 00e6 144B     		ldr	r3, .L149
 2432 00e8 2088     		ldrh	r0, [r4]
 2433 00ea 5B78     		ldrb	r3, [r3, #1]
 2434 00ec 9AB2     		uxth	r2, r3
 2435 00ee 5543     		muls	r5, r2
 832:GFX_Library.c **** 
 833:GFX_Library.c ****   if( cursor_x > ((uint16_t)display_width + textsize * 6) )
 2436              		.loc 1 833 0
 2437 00f0 5943     		muls	r1, r3
 831:GFX_Library.c **** 
 2438              		.loc 1 831 0
 2439 00f2 2818     		adds	r0, r5, r0
 2440              		.loc 1 833 0
 2441 00f4 124D     		ldr	r5, .L149+8
 831:GFX_Library.c **** 
 2442              		.loc 1 831 0
ARM GAS  C:\Users\PC\AppData\Local\Temp\ccF7GaWd.s 			page 60


 2443 00f6 00B2     		sxth	r0, r0
 2444              		.loc 1 833 0
 2445 00f8 2D78     		ldrb	r5, [r5]
 831:GFX_Library.c **** 
 2446              		.loc 1 831 0
 2447 00fa 2080     		strh	r0, [r4]
 2448              		.loc 1 833 0
 2449 00fc 4919     		adds	r1, r1, r5
 2450 00fe 8842     		cmp	r0, r1
 2451 0100 00DD     		ble	.L141
 834:GFX_Library.c ****     cursor_x = display_width;
 2452              		.loc 1 834 0
 2453 0102 2580     		strh	r5, [r4]
 2454              	.L141:
 835:GFX_Library.c **** 
 836:GFX_Library.c ****   if (wrap && (cursor_x + (textsize * 5)) > display_width)
 2455              		.loc 1 836 0
 2456 0104 3978     		ldrb	r1, [r7]
 2457 0106 0029     		cmp	r1, #0
 2458 0108 14D0     		beq	.L132
 2459              		.loc 1 836 0 is_stmt 0 discriminator 1
 2460 010a 0021     		movs	r1, #0
 2461 010c 605E     		ldrsh	r0, [r4, r1]
 2462 010e 0521     		movs	r1, #5
 2463 0110 5943     		muls	r1, r3
 2464 0112 4118     		adds	r1, r0, r1
 2465 0114 8D42     		cmp	r5, r1
 2466 0116 0DDA     		bge	.L132
 837:GFX_Library.c ****   {
 838:GFX_Library.c ****     cursor_x = 0;
 2467              		.loc 1 838 0 is_stmt 1
 2468 0118 0021     		movs	r1, #0
 2469 011a 2180     		strh	r1, [r4]
 839:GFX_Library.c ****     cursor_y += textsize * 8;
 2470              		.loc 1 839 0
 2471 011c 6188     		ldrh	r1, [r4, #2]
 2472 011e D200     		lsls	r2, r2, #3
 2473 0120 5218     		adds	r2, r2, r1
 840:GFX_Library.c ****     if( cursor_y > ((uint16_t)display_height + textsize * 8) )
 2474              		.loc 1 840 0
 2475 0122 0849     		ldr	r1, .L149+12
 2476 0124 DB00     		lsls	r3, r3, #3
 2477 0126 0978     		ldrb	r1, [r1]
 839:GFX_Library.c ****     cursor_y += textsize * 8;
 2478              		.loc 1 839 0
 2479 0128 12B2     		sxth	r2, r2
 2480              		.loc 1 840 0
 2481 012a 5B18     		adds	r3, r3, r1
 839:GFX_Library.c ****     cursor_y += textsize * 8;
 2482              		.loc 1 839 0
 2483 012c 6280     		strh	r2, [r4, #2]
 2484              		.loc 1 840 0
 2485 012e 9A42     		cmp	r2, r3
 2486 0130 00DD     		ble	.L132
 841:GFX_Library.c ****       cursor_y = display_height;
 2487              		.loc 1 841 0
 2488 0132 6180     		strh	r1, [r4, #2]
ARM GAS  C:\Users\PC\AppData\Local\Temp\ccF7GaWd.s 			page 61


 2489              	.L132:
 842:GFX_Library.c ****   }
 843:GFX_Library.c **** }
 2490              		.loc 1 843 0
 2491 0134 05B0     		add	sp, sp, #20
 2492              		@ sp needed
 2493 0136 F0BD     		pop	{r4, r5, r6, r7, pc}
 2494              	.L150:
 2495              		.align	2
 2496              	.L149:
 2497 0138 00000000 		.word	.LANCHOR1
 2498 013c 00000000 		.word	.LANCHOR0
 2499 0140 00000000 		.word	_width
 2500 0144 00000000 		.word	_height
 2501              		.cfi_endproc
 2502              	.LFE46:
 2503              		.size	display_customChar, .-display_customChar
 2504              		.section	.text.display_setCursor,"ax",%progbits
 2505              		.align	1
 2506              		.global	display_setCursor
 2507              		.code	16
 2508              		.thumb_func
 2509              		.type	display_setCursor, %function
 2510              	display_setCursor:
 2511              	.LFB48:
 844:GFX_Library.c **** 
 845:GFX_Library.c **** /**************************************************************************/
 846:GFX_Library.c **** /*!
 847:GFX_Library.c ****    @brief   Draw a single character
 848:GFX_Library.c ****     @param    x   Bottom left corner x coordinate
 849:GFX_Library.c ****     @param    y   Bottom left corner y coordinate
 850:GFX_Library.c ****     @param    c   The 8-bit font-indexed character (likely ascii)
 851:GFX_Library.c ****     @param    color 16-bit 5-6-5 Color to draw chraracter with
 852:GFX_Library.c ****     @param    bg 16-bit 5-6-5 Color to fill background with (if same as color, no background)
 853:GFX_Library.c ****     @param    size  Font magnification level, 1 is 'original' size
 854:GFX_Library.c **** */
 855:GFX_Library.c **** /**************************************************************************/
 856:GFX_Library.c **** void display_drawChar(uint16_t x, uint16_t y, uint8_t c, uint16_t color, uint16_t bg,
 857:GFX_Library.c ****      uint8_t size) {
 858:GFX_Library.c ****   uint16_t prev_x     = cursor_x,
 859:GFX_Library.c ****            prev_y     = cursor_y,
 860:GFX_Library.c ****            prev_color = textcolor,
 861:GFX_Library.c ****            prev_bg    = textbgcolor;
 862:GFX_Library.c ****   uint8_t  prev_size  = textsize;
 863:GFX_Library.c **** 
 864:GFX_Library.c ****   display_setCursor(x, y);
 865:GFX_Library.c ****   display_setTextSize(size);
 866:GFX_Library.c ****   display_setTextColor2(color, bg);
 867:GFX_Library.c ****   display_print(c);
 868:GFX_Library.c **** 
 869:GFX_Library.c ****   cursor_x    = prev_x;
 870:GFX_Library.c ****   cursor_y    = prev_y;
 871:GFX_Library.c ****   textcolor   = prev_color;
 872:GFX_Library.c ****   textbgcolor = prev_bg;
 873:GFX_Library.c ****   textsize    = prev_size;
 874:GFX_Library.c **** }
 875:GFX_Library.c **** 
ARM GAS  C:\Users\PC\AppData\Local\Temp\ccF7GaWd.s 			page 62


 876:GFX_Library.c **** /**************************************************************************/
 877:GFX_Library.c **** /*!
 878:GFX_Library.c ****     @brief  Set text cursor location
 879:GFX_Library.c ****     @param  x    X coordinate in pixels
 880:GFX_Library.c ****     @param  y    Y coordinate in pixels
 881:GFX_Library.c **** */
 882:GFX_Library.c **** /**************************************************************************/
 883:GFX_Library.c **** void display_setCursor(uint16_t x, uint16_t y) {
 2512              		.loc 1 883 0
 2513              		.cfi_startproc
 2514              		@ args = 0, pretend = 0, frame = 0
 2515              		@ frame_needed = 0, uses_anonymous_args = 0
 2516              		@ link register save eliminated.
 2517              	.LVL292:
 884:GFX_Library.c ****     cursor_x = x;
 2518              		.loc 1 884 0
 2519 0000 014B     		ldr	r3, .L152
 885:GFX_Library.c ****     cursor_y = y;
 886:GFX_Library.c **** }
 2520              		.loc 1 886 0
 2521              		@ sp needed
 884:GFX_Library.c ****     cursor_x = x;
 2522              		.loc 1 884 0
 2523 0002 1880     		strh	r0, [r3]
 885:GFX_Library.c ****     cursor_y = y;
 2524              		.loc 1 885 0
 2525 0004 5980     		strh	r1, [r3, #2]
 2526              		.loc 1 886 0
 2527 0006 7047     		bx	lr
 2528              	.L153:
 2529              		.align	2
 2530              	.L152:
 2531 0008 00000000 		.word	.LANCHOR0
 2532              		.cfi_endproc
 2533              	.LFE48:
 2534              		.size	display_setCursor, .-display_setCursor
 2535              		.section	.text.display_getCursorX,"ax",%progbits
 2536              		.align	1
 2537              		.global	display_getCursorX
 2538              		.code	16
 2539              		.thumb_func
 2540              		.type	display_getCursorX, %function
 2541              	display_getCursorX:
 2542              	.LFB49:
 887:GFX_Library.c **** 
 888:GFX_Library.c **** /**************************************************************************/
 889:GFX_Library.c **** /*!
 890:GFX_Library.c ****     @brief  Get text cursor X location
 891:GFX_Library.c ****     @returns    X coordinate in pixels
 892:GFX_Library.c **** */
 893:GFX_Library.c **** /**************************************************************************/
 894:GFX_Library.c **** uint16_t display_getCursorX(void) {
 2543              		.loc 1 894 0
 2544              		.cfi_startproc
 2545              		@ args = 0, pretend = 0, frame = 0
 2546              		@ frame_needed = 0, uses_anonymous_args = 0
 2547              		@ link register save eliminated.
ARM GAS  C:\Users\PC\AppData\Local\Temp\ccF7GaWd.s 			page 63


 895:GFX_Library.c ****     return cursor_x;
 2548              		.loc 1 895 0
 2549 0000 014B     		ldr	r3, .L155
 896:GFX_Library.c **** }
 2550              		.loc 1 896 0
 2551              		@ sp needed
 895:GFX_Library.c ****     return cursor_x;
 2552              		.loc 1 895 0
 2553 0002 1888     		ldrh	r0, [r3]
 2554              		.loc 1 896 0
 2555 0004 7047     		bx	lr
 2556              	.L156:
 2557 0006 C046     		.align	2
 2558              	.L155:
 2559 0008 00000000 		.word	.LANCHOR0
 2560              		.cfi_endproc
 2561              	.LFE49:
 2562              		.size	display_getCursorX, .-display_getCursorX
 2563              		.section	.text.display_getCursorY,"ax",%progbits
 2564              		.align	1
 2565              		.global	display_getCursorY
 2566              		.code	16
 2567              		.thumb_func
 2568              		.type	display_getCursorY, %function
 2569              	display_getCursorY:
 2570              	.LFB50:
 897:GFX_Library.c **** 
 898:GFX_Library.c **** /**************************************************************************/
 899:GFX_Library.c **** /*!
 900:GFX_Library.c ****     @brief      Get text cursor Y location
 901:GFX_Library.c ****     @returns    Y coordinate in pixels
 902:GFX_Library.c **** */
 903:GFX_Library.c **** /**************************************************************************/
 904:GFX_Library.c **** uint16_t display_getCursorY(void) {
 2571              		.loc 1 904 0
 2572              		.cfi_startproc
 2573              		@ args = 0, pretend = 0, frame = 0
 2574              		@ frame_needed = 0, uses_anonymous_args = 0
 2575              		@ link register save eliminated.
 905:GFX_Library.c ****     return cursor_y;
 2576              		.loc 1 905 0
 2577 0000 014B     		ldr	r3, .L158
 906:GFX_Library.c **** }
 2578              		.loc 1 906 0
 2579              		@ sp needed
 905:GFX_Library.c ****     return cursor_y;
 2580              		.loc 1 905 0
 2581 0002 5888     		ldrh	r0, [r3, #2]
 2582              		.loc 1 906 0
 2583 0004 7047     		bx	lr
 2584              	.L159:
 2585 0006 C046     		.align	2
 2586              	.L158:
 2587 0008 00000000 		.word	.LANCHOR0
 2588              		.cfi_endproc
 2589              	.LFE50:
 2590              		.size	display_getCursorY, .-display_getCursorY
ARM GAS  C:\Users\PC\AppData\Local\Temp\ccF7GaWd.s 			page 64


 2591              		.section	.text.display_setTextSize,"ax",%progbits
 2592              		.align	1
 2593              		.global	display_setTextSize
 2594              		.code	16
 2595              		.thumb_func
 2596              		.type	display_setTextSize, %function
 2597              	display_setTextSize:
 2598              	.LFB51:
 907:GFX_Library.c **** 
 908:GFX_Library.c **** /**************************************************************************/
 909:GFX_Library.c **** /*!
 910:GFX_Library.c ****     @brief   Set text 'magnification' size. Each increase in s makes 1 pixel that much bigger.
 911:GFX_Library.c ****     @param  s  Desired text size. 1 is default 6x8, 2 is 12x16, 3 is 18x24, etc
 912:GFX_Library.c **** */
 913:GFX_Library.c **** /**************************************************************************/
 914:GFX_Library.c **** void display_setTextSize(uint8_t s) {
 2599              		.loc 1 914 0
 2600              		.cfi_startproc
 2601              		@ args = 0, pretend = 0, frame = 0
 2602              		@ frame_needed = 0, uses_anonymous_args = 0
 2603              		@ link register save eliminated.
 2604              	.LVL293:
 915:GFX_Library.c ****     textsize = (s > 0) ? s : 1;
 2605              		.loc 1 915 0
 2606 0000 0123     		movs	r3, #1
 2607 0002 0028     		cmp	r0, #0
 2608 0004 00D0     		beq	.L161
 2609 0006 0300     		movs	r3, r0
 2610              	.L161:
 2611              		.loc 1 915 0 is_stmt 0 discriminator 4
 2612 0008 014A     		ldr	r2, .L164
 916:GFX_Library.c **** }
 2613              		.loc 1 916 0 is_stmt 1 discriminator 4
 2614              		@ sp needed
 915:GFX_Library.c ****     textsize = (s > 0) ? s : 1;
 2615              		.loc 1 915 0 discriminator 4
 2616 000a 5370     		strb	r3, [r2, #1]
 2617              		.loc 1 916 0 discriminator 4
 2618 000c 7047     		bx	lr
 2619              	.L165:
 2620 000e C046     		.align	2
 2621              	.L164:
 2622 0010 00000000 		.word	.LANCHOR1
 2623              		.cfi_endproc
 2624              	.LFE51:
 2625              		.size	display_setTextSize, .-display_setTextSize
 2626              		.section	.text.display_drawChar,"ax",%progbits
 2627              		.align	1
 2628              		.global	display_drawChar
 2629              		.code	16
 2630              		.thumb_func
 2631              		.type	display_drawChar, %function
 2632              	display_drawChar:
 2633              	.LFB47:
 857:GFX_Library.c ****   uint16_t prev_x     = cursor_x,
 2634              		.loc 1 857 0
 2635              		.cfi_startproc
ARM GAS  C:\Users\PC\AppData\Local\Temp\ccF7GaWd.s 			page 65


 2636              		@ args = 8, pretend = 0, frame = 24
 2637              		@ frame_needed = 0, uses_anonymous_args = 0
 2638              	.LVL294:
 2639 0000 F0B5     		push	{r4, r5, r6, r7, lr}
 2640              		.cfi_def_cfa_offset 20
 2641              		.cfi_offset 4, -20
 2642              		.cfi_offset 5, -16
 2643              		.cfi_offset 6, -12
 2644              		.cfi_offset 7, -8
 2645              		.cfi_offset 14, -4
 858:GFX_Library.c ****            prev_y     = cursor_y,
 2646              		.loc 1 858 0
 2647 0002 174D     		ldr	r5, .L167
 857:GFX_Library.c ****   uint16_t prev_x     = cursor_x,
 2648              		.loc 1 857 0
 2649 0004 87B0     		sub	sp, sp, #28
 2650              		.cfi_def_cfa_offset 48
 857:GFX_Library.c ****   uint16_t prev_x     = cursor_x,
 2651              		.loc 1 857 0
 2652 0006 0493     		str	r3, [sp, #16]
 2653 0008 0CAB     		add	r3, sp, #48
 2654              	.LVL295:
 2655 000a 0392     		str	r2, [sp, #12]
 2656 000c 1B88     		ldrh	r3, [r3]
 2657              	.LVL296:
 858:GFX_Library.c ****            prev_y     = cursor_y,
 2658              		.loc 1 858 0
 2659 000e 0024     		movs	r4, #0
 2660 0010 2A5F     		ldrsh	r2, [r5, r4]
 2661              	.LVL297:
 857:GFX_Library.c ****   uint16_t prev_x     = cursor_x,
 2662              		.loc 1 857 0
 2663 0012 0593     		str	r3, [sp, #20]
 858:GFX_Library.c ****            prev_y     = cursor_y,
 2664              		.loc 1 858 0
 2665 0014 0092     		str	r2, [sp]
 2666              	.LVL298:
 857:GFX_Library.c ****   uint16_t prev_x     = cursor_x,
 2667              		.loc 1 857 0
 2668 0016 0DAB     		add	r3, sp, #52
 2669              	.LVL299:
 859:GFX_Library.c ****            prev_color = textcolor,
 2670              		.loc 1 859 0
 2671 0018 0224     		movs	r4, #2
 2672 001a 2A5F     		ldrsh	r2, [r5, r4]
 860:GFX_Library.c ****            prev_bg    = textbgcolor;
 2673              		.loc 1 860 0
 2674 001c 114C     		ldr	r4, .L167+4
 857:GFX_Library.c ****   uint16_t prev_x     = cursor_x,
 2675              		.loc 1 857 0
 2676 001e 1B78     		ldrb	r3, [r3]
 2677              	.LVL300:
 859:GFX_Library.c ****            prev_color = textcolor,
 2678              		.loc 1 859 0
 2679 0020 0192     		str	r2, [sp, #4]
 2680              	.LVL301:
 860:GFX_Library.c ****            prev_bg    = textbgcolor;
ARM GAS  C:\Users\PC\AppData\Local\Temp\ccF7GaWd.s 			page 66


 2681              		.loc 1 860 0
 2682 0022 6288     		ldrh	r2, [r4, #2]
 2683              	.LBB44:
 2684              	.LBB45:
 884:GFX_Library.c ****     cursor_y = y;
 2685              		.loc 1 884 0
 2686 0024 2880     		strh	r0, [r5]
 2687              	.LBE45:
 2688              	.LBE44:
 865:GFX_Library.c ****   display_setTextColor2(color, bg);
 2689              		.loc 1 865 0
 2690 0026 1800     		movs	r0, r3
 2691              	.LVL302:
 860:GFX_Library.c ****            prev_bg    = textbgcolor;
 2692              		.loc 1 860 0
 2693 0028 0292     		str	r2, [sp, #8]
 2694              	.LVL303:
 861:GFX_Library.c ****   uint8_t  prev_size  = textsize;
 2695              		.loc 1 861 0
 2696 002a A788     		ldrh	r7, [r4, #4]
 2697              	.LVL304:
 862:GFX_Library.c **** 
 2698              		.loc 1 862 0
 2699 002c 6678     		ldrb	r6, [r4, #1]
 2700              	.LVL305:
 2701              	.LBB47:
 2702              	.LBB46:
 885:GFX_Library.c **** }
 2703              		.loc 1 885 0
 2704 002e 6980     		strh	r1, [r5, #2]
 2705              	.LVL306:
 2706              	.LBE46:
 2707              	.LBE47:
 865:GFX_Library.c ****   display_setTextColor2(color, bg);
 2708              		.loc 1 865 0
 2709 0030 FFF7FEFF 		bl	display_setTextSize
 2710              	.LVL307:
 2711              	.LBB48:
 2712              	.LBB49:
 917:GFX_Library.c **** 
 918:GFX_Library.c **** /**************************************************************************/
 919:GFX_Library.c **** /*!
 920:GFX_Library.c ****     @brief   Set text font color with custom background color
 921:GFX_Library.c ****     @param   c   16-bit 5-6-5 Color to draw text with
 922:GFX_Library.c ****     @param   b   16-bit 5-6-5 Color to draw background/fill with
 923:GFX_Library.c **** */
 924:GFX_Library.c **** /**************************************************************************/
 925:GFX_Library.c **** void display_setTextColor2(uint16_t c, uint16_t b) {
 926:GFX_Library.c ****     textcolor   = c;
 2713              		.loc 1 926 0
 2714 0034 6B46     		mov	r3, sp
 2715 0036 1B8A     		ldrh	r3, [r3, #16]
 2716              	.LBE49:
 2717              	.LBE48:
 867:GFX_Library.c **** 
 2718              		.loc 1 867 0
 2719 0038 0398     		ldr	r0, [sp, #12]
ARM GAS  C:\Users\PC\AppData\Local\Temp\ccF7GaWd.s 			page 67


 2720              	.LBB51:
 2721              	.LBB50:
 2722              		.loc 1 926 0
 2723 003a 6380     		strh	r3, [r4, #2]
 927:GFX_Library.c ****     textbgcolor = b;
 2724              		.loc 1 927 0
 2725 003c 6B46     		mov	r3, sp
 2726 003e 9B8A     		ldrh	r3, [r3, #20]
 2727 0040 A380     		strh	r3, [r4, #4]
 2728              	.LVL308:
 2729              	.LBE50:
 2730              	.LBE51:
 867:GFX_Library.c **** 
 2731              		.loc 1 867 0
 2732 0042 FFF7FEFF 		bl	display_print
 2733              	.LVL309:
 869:GFX_Library.c ****   cursor_y    = prev_y;
 2734              		.loc 1 869 0
 2735 0046 6B46     		mov	r3, sp
 2736 0048 1B88     		ldrh	r3, [r3]
 872:GFX_Library.c ****   textsize    = prev_size;
 2737              		.loc 1 872 0
 2738 004a A780     		strh	r7, [r4, #4]
 869:GFX_Library.c ****   cursor_y    = prev_y;
 2739              		.loc 1 869 0
 2740 004c 2B80     		strh	r3, [r5]
 870:GFX_Library.c ****   textcolor   = prev_color;
 2741              		.loc 1 870 0
 2742 004e 6B46     		mov	r3, sp
 2743 0050 9B88     		ldrh	r3, [r3, #4]
 873:GFX_Library.c **** }
 2744              		.loc 1 873 0
 2745 0052 6670     		strb	r6, [r4, #1]
 870:GFX_Library.c ****   textcolor   = prev_color;
 2746              		.loc 1 870 0
 2747 0054 6B80     		strh	r3, [r5, #2]
 871:GFX_Library.c ****   textbgcolor = prev_bg;
 2748              		.loc 1 871 0
 2749 0056 6B46     		mov	r3, sp
 2750 0058 1B89     		ldrh	r3, [r3, #8]
 2751 005a 6380     		strh	r3, [r4, #2]
 874:GFX_Library.c **** 
 2752              		.loc 1 874 0
 2753 005c 07B0     		add	sp, sp, #28
 2754              	.LVL310:
 2755              		@ sp needed
 2756              	.LVL311:
 2757              	.LVL312:
 2758 005e F0BD     		pop	{r4, r5, r6, r7, pc}
 2759              	.L168:
 2760              		.align	2
 2761              	.L167:
 2762 0060 00000000 		.word	.LANCHOR0
 2763 0064 00000000 		.word	.LANCHOR1
 2764              		.cfi_endproc
 2765              	.LFE47:
 2766              		.size	display_drawChar, .-display_drawChar
ARM GAS  C:\Users\PC\AppData\Local\Temp\ccF7GaWd.s 			page 68


 2767              		.section	.text.display_setTextColor2,"ax",%progbits
 2768              		.align	1
 2769              		.global	display_setTextColor2
 2770              		.code	16
 2771              		.thumb_func
 2772              		.type	display_setTextColor2, %function
 2773              	display_setTextColor2:
 2774              	.LFB52:
 925:GFX_Library.c ****     textcolor   = c;
 2775              		.loc 1 925 0
 2776              		.cfi_startproc
 2777              		@ args = 0, pretend = 0, frame = 0
 2778              		@ frame_needed = 0, uses_anonymous_args = 0
 2779              		@ link register save eliminated.
 2780              	.LVL313:
 926:GFX_Library.c ****     textbgcolor = b;
 2781              		.loc 1 926 0
 2782 0000 014B     		ldr	r3, .L170
 928:GFX_Library.c **** }
 2783              		.loc 1 928 0
 2784              		@ sp needed
 926:GFX_Library.c ****     textbgcolor = b;
 2785              		.loc 1 926 0
 2786 0002 5880     		strh	r0, [r3, #2]
 927:GFX_Library.c **** }
 2787              		.loc 1 927 0
 2788 0004 9980     		strh	r1, [r3, #4]
 2789              		.loc 1 928 0
 2790 0006 7047     		bx	lr
 2791              	.L171:
 2792              		.align	2
 2793              	.L170:
 2794 0008 00000000 		.word	.LANCHOR1
 2795              		.cfi_endproc
 2796              	.LFE52:
 2797              		.size	display_setTextColor2, .-display_setTextColor2
 2798              		.section	.text.display_setTextColor,"ax",%progbits
 2799              		.align	1
 2800              		.global	display_setTextColor
 2801              		.code	16
 2802              		.thumb_func
 2803              		.type	display_setTextColor, %function
 2804              	display_setTextColor:
 2805              	.LFB53:
 929:GFX_Library.c **** 
 930:GFX_Library.c **** /**************************************************************************/
 931:GFX_Library.c **** /*!
 932:GFX_Library.c ****     @brief   Set text font color with transparant background
 933:GFX_Library.c ****     @param   c   16-bit 5-6-5 Color to draw text with
 934:GFX_Library.c **** */
 935:GFX_Library.c **** /**************************************************************************/
 936:GFX_Library.c **** void display_setTextColor(uint16_t c) {
 2806              		.loc 1 936 0
 2807              		.cfi_startproc
 2808              		@ args = 0, pretend = 0, frame = 0
 2809              		@ frame_needed = 0, uses_anonymous_args = 0
 2810              		@ link register save eliminated.
ARM GAS  C:\Users\PC\AppData\Local\Temp\ccF7GaWd.s 			page 69


 2811              	.LVL314:
 937:GFX_Library.c ****   textcolor = textbgcolor = c;
 2812              		.loc 1 937 0
 2813 0000 014B     		ldr	r3, .L173
 938:GFX_Library.c **** }
 2814              		.loc 1 938 0
 2815              		@ sp needed
 937:GFX_Library.c ****   textcolor = textbgcolor = c;
 2816              		.loc 1 937 0
 2817 0002 9880     		strh	r0, [r3, #4]
 2818 0004 5880     		strh	r0, [r3, #2]
 2819              		.loc 1 938 0
 2820 0006 7047     		bx	lr
 2821              	.L174:
 2822              		.align	2
 2823              	.L173:
 2824 0008 00000000 		.word	.LANCHOR1
 2825              		.cfi_endproc
 2826              	.LFE53:
 2827              		.size	display_setTextColor, .-display_setTextColor
 2828              		.section	.text.display_setTextWrap,"ax",%progbits
 2829              		.align	1
 2830              		.global	display_setTextWrap
 2831              		.code	16
 2832              		.thumb_func
 2833              		.type	display_setTextWrap, %function
 2834              	display_setTextWrap:
 2835              	.LFB54:
 939:GFX_Library.c **** 
 940:GFX_Library.c **** /**************************************************************************/
 941:GFX_Library.c **** /*!
 942:GFX_Library.c ****     @brief      Whether text that is too long should 'wrap' around to the next line.
 943:GFX_Library.c ****     @param  w Set true for wrapping, false for clipping
 944:GFX_Library.c **** */
 945:GFX_Library.c **** /**************************************************************************/
 946:GFX_Library.c **** void display_setTextWrap(bool w) {
 2836              		.loc 1 946 0
 2837              		.cfi_startproc
 2838              		@ args = 0, pretend = 0, frame = 0
 2839              		@ frame_needed = 0, uses_anonymous_args = 0
 2840              		@ link register save eliminated.
 2841              	.LVL315:
 947:GFX_Library.c ****     wrap = w;
 2842              		.loc 1 947 0
 2843 0000 014B     		ldr	r3, .L176
 948:GFX_Library.c **** }
 2844              		.loc 1 948 0
 2845              		@ sp needed
 947:GFX_Library.c ****     wrap = w;
 2846              		.loc 1 947 0
 2847 0002 1870     		strb	r0, [r3]
 2848              		.loc 1 948 0
 2849 0004 7047     		bx	lr
 2850              	.L177:
 2851 0006 C046     		.align	2
 2852              	.L176:
 2853 0008 00000000 		.word	.LANCHOR1
ARM GAS  C:\Users\PC\AppData\Local\Temp\ccF7GaWd.s 			page 70


 2854              		.cfi_endproc
 2855              	.LFE54:
 2856              		.size	display_setTextWrap, .-display_setTextWrap
 2857              		.section	.text.display_getRotation,"ax",%progbits
 2858              		.align	1
 2859              		.global	display_getRotation
 2860              		.code	16
 2861              		.thumb_func
 2862              		.type	display_getRotation, %function
 2863              	display_getRotation:
 2864              	.LFB55:
 949:GFX_Library.c **** 
 950:GFX_Library.c **** /**************************************************************************/
 951:GFX_Library.c **** /*!
 952:GFX_Library.c ****     @brief      Get rotation setting for display
 953:GFX_Library.c ****     @returns    0 thru 3 corresponding to 4 cardinal rotations
 954:GFX_Library.c **** */
 955:GFX_Library.c **** /**************************************************************************/
 956:GFX_Library.c **** uint8_t display_getRotation(void) {
 2865              		.loc 1 956 0
 2866              		.cfi_startproc
 2867              		@ args = 0, pretend = 0, frame = 0
 2868              		@ frame_needed = 0, uses_anonymous_args = 0
 2869              		@ link register save eliminated.
 957:GFX_Library.c ****     return rotation;
 2870              		.loc 1 957 0
 2871 0000 014B     		ldr	r3, .L179
 958:GFX_Library.c **** }
 2872              		.loc 1 958 0
 2873              		@ sp needed
 957:GFX_Library.c ****     return rotation;
 2874              		.loc 1 957 0
 2875 0002 1878     		ldrb	r0, [r3]
 2876              		.loc 1 958 0
 2877 0004 7047     		bx	lr
 2878              	.L180:
 2879 0006 C046     		.align	2
 2880              	.L179:
 2881 0008 00000000 		.word	rotation
 2882              		.cfi_endproc
 2883              	.LFE55:
 2884              		.size	display_getRotation, .-display_getRotation
 2885              		.section	.text.display_getWidth,"ax",%progbits
 2886              		.align	1
 2887              		.global	display_getWidth
 2888              		.code	16
 2889              		.thumb_func
 2890              		.type	display_getWidth, %function
 2891              	display_getWidth:
 2892              	.LFB56:
 959:GFX_Library.c **** 
 960:GFX_Library.c **** /**************************************************************************/
 961:GFX_Library.c **** /*!
 962:GFX_Library.c ****     @brief      Get width of the display, accounting for the current rotation
 963:GFX_Library.c ****     @returns    Width in pixels
 964:GFX_Library.c **** */
 965:GFX_Library.c **** /**************************************************************************/
ARM GAS  C:\Users\PC\AppData\Local\Temp\ccF7GaWd.s 			page 71


 966:GFX_Library.c **** uint16_t display_getWidth(void) {
 2893              		.loc 1 966 0
 2894              		.cfi_startproc
 2895              		@ args = 0, pretend = 0, frame = 0
 2896              		@ frame_needed = 0, uses_anonymous_args = 0
 2897              		@ link register save eliminated.
 967:GFX_Library.c ****     return display_width;
 2898              		.loc 1 967 0
 2899 0000 014B     		ldr	r3, .L182
 968:GFX_Library.c **** }
 2900              		.loc 1 968 0
 2901              		@ sp needed
 967:GFX_Library.c ****     return display_width;
 2902              		.loc 1 967 0
 2903 0002 1878     		ldrb	r0, [r3]
 2904              		.loc 1 968 0
 2905 0004 7047     		bx	lr
 2906              	.L183:
 2907 0006 C046     		.align	2
 2908              	.L182:
 2909 0008 00000000 		.word	_width
 2910              		.cfi_endproc
 2911              	.LFE56:
 2912              		.size	display_getWidth, .-display_getWidth
 2913              		.section	.text.display_getHeight,"ax",%progbits
 2914              		.align	1
 2915              		.global	display_getHeight
 2916              		.code	16
 2917              		.thumb_func
 2918              		.type	display_getHeight, %function
 2919              	display_getHeight:
 2920              	.LFB57:
 969:GFX_Library.c **** 
 970:GFX_Library.c **** /**************************************************************************/
 971:GFX_Library.c **** /*!
 972:GFX_Library.c ****     @brief      Get height of the display, accounting for the current rotation
 973:GFX_Library.c ****     @returns    Height in pixels
 974:GFX_Library.c **** */
 975:GFX_Library.c **** /**************************************************************************/
 976:GFX_Library.c **** uint16_t display_getHeight(void) {
 2921              		.loc 1 976 0
 2922              		.cfi_startproc
 2923              		@ args = 0, pretend = 0, frame = 0
 2924              		@ frame_needed = 0, uses_anonymous_args = 0
 2925              		@ link register save eliminated.
 977:GFX_Library.c ****     return display_height;
 2926              		.loc 1 977 0
 2927 0000 014B     		ldr	r3, .L185
 978:GFX_Library.c **** }
 2928              		.loc 1 978 0
 2929              		@ sp needed
 977:GFX_Library.c ****     return display_height;
 2930              		.loc 1 977 0
 2931 0002 1878     		ldrb	r0, [r3]
 2932              		.loc 1 978 0
 2933 0004 7047     		bx	lr
 2934              	.L186:
ARM GAS  C:\Users\PC\AppData\Local\Temp\ccF7GaWd.s 			page 72


 2935 0006 C046     		.align	2
 2936              	.L185:
 2937 0008 00000000 		.word	_height
 2938              		.cfi_endproc
 2939              	.LFE57:
 2940              		.size	display_getHeight, .-display_getHeight
 2941              		.section	.text.display_color565,"ax",%progbits
 2942              		.align	1
 2943              		.global	display_color565
 2944              		.code	16
 2945              		.thumb_func
 2946              		.type	display_color565, %function
 2947              	display_color565:
 2948              	.LFB58:
 979:GFX_Library.c **** 
 980:GFX_Library.c **** /**************************************************************************/
 981:GFX_Library.c **** /*!
 982:GFX_Library.c ****     @brief   Given 8-bit red, green and blue values, return a 'packed'
 983:GFX_Library.c ****              16-bit color value in '565' RGB format (5 bits red, 6 bits
 984:GFX_Library.c ****              green, 5 bits blue). This is just a mathematical operation,
 985:GFX_Library.c ****              no hardware is touched.
 986:GFX_Library.c ****     @param   red    8-bit red brightnesss (0 = off, 255 = max).
 987:GFX_Library.c ****     @param   green  8-bit green brightnesss (0 = off, 255 = max).
 988:GFX_Library.c ****     @param   blue   8-bit blue brightnesss (0 = off, 255 = max).
 989:GFX_Library.c ****     @return  'Packed' 16-bit color value (565 format).
 990:GFX_Library.c **** */
 991:GFX_Library.c **** /**************************************************************************/
 992:GFX_Library.c **** uint16_t display_color565(uint8_t red, uint8_t green, uint8_t blue) {
 2949              		.loc 1 992 0
 2950              		.cfi_startproc
 2951              		@ args = 0, pretend = 0, frame = 0
 2952              		@ frame_needed = 0, uses_anonymous_args = 0
 2953              		@ link register save eliminated.
 2954              	.LVL316:
 993:GFX_Library.c ****     return ((uint16_t)(red & 0xF8) << 8) | ((uint16_t)(green & 0xFC) << 3) | (blue >> 3);
 2955              		.loc 1 993 0
 2956 0000 FC23     		movs	r3, #252
 2957 0002 C900     		lsls	r1, r1, #3
 2958              	.LVL317:
 2959 0004 DB00     		lsls	r3, r3, #3
 2960 0006 1940     		ands	r1, r3
 2961 0008 D208     		lsrs	r2, r2, #3
 2962              	.LVL318:
 2963 000a C008     		lsrs	r0, r0, #3
 2964              	.LVL319:
 2965 000c 0A43     		orrs	r2, r1
 2966 000e C002     		lsls	r0, r0, #11
 2967 0010 1043     		orrs	r0, r2
 994:GFX_Library.c **** }
 2968              		.loc 1 994 0
 2969              		@ sp needed
 2970 0012 7047     		bx	lr
 2971              		.cfi_endproc
 2972              	.LFE58:
 2973              		.size	display_color565, .-display_color565
 2974              		.section	.text.display_drawBitmapV1,"ax",%progbits
 2975              		.align	1
ARM GAS  C:\Users\PC\AppData\Local\Temp\ccF7GaWd.s 			page 73


 2976              		.global	display_drawBitmapV1
 2977              		.code	16
 2978              		.thumb_func
 2979              		.type	display_drawBitmapV1, %function
 2980              	display_drawBitmapV1:
 2981              	.LFB59:
 995:GFX_Library.c **** 
 996:GFX_Library.c **** /**************************************************************************/
 997:GFX_Library.c **** /*!
 998:GFX_Library.c ****    @brief     Draw a ROM-resident 1-bit image at the specified (x,y) position,
 999:GFX_Library.c ****               using the specified foreground color (unset bits are transparent).
1000:GFX_Library.c ****     @param    x   Top left corner x coordinate
1001:GFX_Library.c ****     @param    y   Top left corner y coordinate
1002:GFX_Library.c ****     @param    bitmap  byte array with monochrome bitmap
1003:GFX_Library.c ****     @param    w   Width of bitmap in pixels
1004:GFX_Library.c ****     @param    h   Hieght of bitmap in pixels
1005:GFX_Library.c ****     @param    color 16-bit 5-6-5 Color to draw with
1006:GFX_Library.c **** */
1007:GFX_Library.c **** /**************************************************************************/
1008:GFX_Library.c **** void display_drawBitmapV1(uint16_t x, uint16_t y, const uint8_t *bitmap, uint16_t w, uint16_t h,
1009:GFX_Library.c ****      uint16_t color) {
 2982              		.loc 1 1009 0
 2983              		.cfi_startproc
 2984              		@ args = 8, pretend = 0, frame = 32
 2985              		@ frame_needed = 0, uses_anonymous_args = 0
 2986              	.LVL320:
 2987 0000 F0B5     		push	{r4, r5, r6, r7, lr}
 2988              		.cfi_def_cfa_offset 20
 2989              		.cfi_offset 4, -20
 2990              		.cfi_offset 5, -16
 2991              		.cfi_offset 6, -12
 2992              		.cfi_offset 7, -8
 2993              		.cfi_offset 14, -4
 2994              	.LBB52:
1010:GFX_Library.c ****   for( uint16_t i = 0; i < h/8; i++)
 2995              		.loc 1 1010 0
 2996 0002 0026     		movs	r6, #0
 2997              	.LBE52:
1009:GFX_Library.c ****   for( uint16_t i = 0; i < h/8; i++)
 2998              		.loc 1 1009 0
 2999 0004 1F00     		movs	r7, r3
 3000              	.LBB54:
 3001              		.loc 1 1010 0
 3002 0006 3500     		movs	r5, r6
 3003              	.LBE54:
1009:GFX_Library.c ****   for( uint16_t i = 0; i < h/8; i++)
 3004              		.loc 1 1009 0
 3005 0008 89B0     		sub	sp, sp, #36
 3006              		.cfi_def_cfa_offset 56
1009:GFX_Library.c ****   for( uint16_t i = 0; i < h/8; i++)
 3007              		.loc 1 1009 0
 3008 000a 0EAB     		add	r3, sp, #56
 3009              	.LVL321:
 3010 000c 1B88     		ldrh	r3, [r3]
 3011              	.LVL322:
 3012 000e 0692     		str	r2, [sp, #24]
 3013 0010 0FAA     		add	r2, sp, #60
ARM GAS  C:\Users\PC\AppData\Local\Temp\ccF7GaWd.s 			page 74


 3014              	.LVL323:
 3015              	.LBB55:
 3016              		.loc 1 1010 0
 3017 0012 DB08     		lsrs	r3, r3, #3
 3018              	.LBE55:
1009:GFX_Library.c ****   for( uint16_t i = 0; i < h/8; i++)
 3019              		.loc 1 1009 0
 3020 0014 1288     		ldrh	r2, [r2]
 3021              	.LVL324:
 3022              	.LBB56:
 3023              		.loc 1 1010 0
 3024 0016 0193     		str	r3, [sp, #4]
 3025 0018 FB00     		lsls	r3, r7, #3
 3026              	.LBE56:
1009:GFX_Library.c ****   for( uint16_t i = 0; i < h/8; i++)
 3027              		.loc 1 1009 0
 3028 001a 0490     		str	r0, [sp, #16]
 3029 001c 0591     		str	r1, [sp, #20]
 3030 001e 0792     		str	r2, [sp, #28]
 3031 0020 0293     		str	r3, [sp, #8]
 3032              	.LVL325:
 3033              	.L189:
 3034              	.LBB57:
 3035              		.loc 1 1010 0 discriminator 1
 3036 0022 019B     		ldr	r3, [sp, #4]
 3037 0024 9D42     		cmp	r5, r3
 3038 0026 23D0     		beq	.L188
 3039              	.LBB53:
1011:GFX_Library.c ****   {    
1012:GFX_Library.c ****     for( uint16_t j = 0; j < w * 8; j++)
1013:GFX_Library.c ****     {      
1014:GFX_Library.c ****       if( bitmap[j/8 + i*w] & (1 << (j % 8)) )
1015:GFX_Library.c ****         display_drawPixel(x + j/8, y + i*8 + (j % 8), color);
 3040              		.loc 1 1015 0
 3041 0028 0024     		movs	r4, #0
 3042 002a 059A     		ldr	r2, [sp, #20]
 3043 002c EB00     		lsls	r3, r5, #3
 3044 002e 9B18     		adds	r3, r3, r2
 3045 0030 DBB2     		uxtb	r3, r3
 3046 0032 0393     		str	r3, [sp, #12]
 3047              	.L193:
 3048              	.LVL326:
1012:GFX_Library.c ****     {      
 3049              		.loc 1 1012 0 discriminator 1
 3050 0034 029B     		ldr	r3, [sp, #8]
 3051 0036 9C42     		cmp	r4, r3
 3052 0038 16DA     		bge	.L197
1014:GFX_Library.c ****         display_drawPixel(x + j/8, y + i*8 + (j % 8), color);
 3053              		.loc 1 1014 0
 3054 003a 0721     		movs	r1, #7
 3055 003c 069B     		ldr	r3, [sp, #24]
 3056 003e E008     		lsrs	r0, r4, #3
 3057 0040 1B18     		adds	r3, r3, r0
 3058 0042 9B5D     		ldrb	r3, [r3, r6]
 3059 0044 2140     		ands	r1, r4
 3060 0046 0B41     		asrs	r3, r3, r1
 3061 0048 0122     		movs	r2, #1
ARM GAS  C:\Users\PC\AppData\Local\Temp\ccF7GaWd.s 			page 75


 3062 004a 1342     		tst	r3, r2
 3063 004c 09D0     		beq	.L190
 3064              		.loc 1 1015 0
 3065 004e 6B46     		mov	r3, sp
 3066 0050 1A7F     		ldrb	r2, [r3, #28]
 3067 0052 039B     		ldr	r3, [sp, #12]
 3068 0054 5918     		adds	r1, r3, r1
 3069 0056 049B     		ldr	r3, [sp, #16]
 3070 0058 C9B2     		uxtb	r1, r1
 3071 005a 1818     		adds	r0, r3, r0
 3072 005c C0B2     		uxtb	r0, r0
 3073 005e FFF7FEFF 		bl	drawPixel
 3074              	.LVL327:
 3075              	.L190:
1012:GFX_Library.c ****     {      
 3076              		.loc 1 1012 0 discriminator 2
 3077 0062 0134     		adds	r4, r4, #1
 3078              	.LVL328:
 3079 0064 A4B2     		uxth	r4, r4
 3080              	.LVL329:
 3081 0066 E5E7     		b	.L193
 3082              	.L197:
 3083              	.LBE53:
1010:GFX_Library.c ****   {    
 3084              		.loc 1 1010 0 discriminator 2
 3085 0068 0135     		adds	r5, r5, #1
 3086              	.LVL330:
 3087 006a ADB2     		uxth	r5, r5
 3088              	.LVL331:
 3089 006c F619     		adds	r6, r6, r7
 3090 006e D8E7     		b	.L189
 3091              	.LVL332:
 3092              	.L188:
 3093              	.LBE57:
1016:GFX_Library.c ****     }
1017:GFX_Library.c ****   }
1018:GFX_Library.c **** }
 3094              		.loc 1 1018 0
 3095 0070 09B0     		add	sp, sp, #36
 3096              		@ sp needed
 3097              	.LVL333:
 3098 0072 F0BD     		pop	{r4, r5, r6, r7, pc}
 3099              		.cfi_endproc
 3100              	.LFE59:
 3101              		.size	display_drawBitmapV1, .-display_drawBitmapV1
 3102              		.section	.text.display_drawBitmapV1_bg,"ax",%progbits
 3103              		.align	1
 3104              		.global	display_drawBitmapV1_bg
 3105              		.code	16
 3106              		.thumb_func
 3107              		.type	display_drawBitmapV1_bg, %function
 3108              	display_drawBitmapV1_bg:
 3109              	.LFB60:
1019:GFX_Library.c **** 
1020:GFX_Library.c **** /**************************************************************************/
1021:GFX_Library.c **** /*!
1022:GFX_Library.c ****    @brief     Draw a ROM-resident 1-bit image at the specified (x,y) position,
ARM GAS  C:\Users\PC\AppData\Local\Temp\ccF7GaWd.s 			page 76


1023:GFX_Library.c ****               using the specified foreground (for set bits) and background (unset bits) colors.
1024:GFX_Library.c ****     @param    x   Top left corner x coordinate
1025:GFX_Library.c ****     @param    y   Top left corner y coordinate
1026:GFX_Library.c ****     @param    bitmap  byte array with monochrome bitmap
1027:GFX_Library.c ****     @param    w   Width of bitmap in pixels
1028:GFX_Library.c ****     @param    h   Hieght of bitmap in pixels
1029:GFX_Library.c ****     @param    color 16-bit 5-6-5 Color to draw pixels with
1030:GFX_Library.c ****     @param    bg 16-bit 5-6-5 Color to draw background with
1031:GFX_Library.c **** */
1032:GFX_Library.c **** /**************************************************************************/
1033:GFX_Library.c **** void display_drawBitmapV1_bg(uint16_t x, uint16_t y, const uint8_t *bitmap, uint16_t w, uint16_t h,
1034:GFX_Library.c ****      uint16_t color, uint16_t bg) {
 3110              		.loc 1 1034 0
 3111              		.cfi_startproc
 3112              		@ args = 12, pretend = 0, frame = 32
 3113              		@ frame_needed = 0, uses_anonymous_args = 0
 3114              	.LVL334:
 3115 0000 F0B5     		push	{r4, r5, r6, r7, lr}
 3116              		.cfi_def_cfa_offset 20
 3117              		.cfi_offset 4, -20
 3118              		.cfi_offset 5, -16
 3119              		.cfi_offset 6, -12
 3120              		.cfi_offset 7, -8
 3121              		.cfi_offset 14, -4
 3122              	.LBB58:
1035:GFX_Library.c ****   for( uint16_t i = 0; i < h/8; i++)
 3123              		.loc 1 1035 0
 3124 0002 0027     		movs	r7, #0
 3125 0004 3E00     		movs	r6, r7
 3126              	.LBE58:
1034:GFX_Library.c ****   for( uint16_t i = 0; i < h/8; i++)
 3127              		.loc 1 1034 0
 3128 0006 89B0     		sub	sp, sp, #36
 3129              		.cfi_def_cfa_offset 56
1034:GFX_Library.c ****   for( uint16_t i = 0; i < h/8; i++)
 3130              		.loc 1 1034 0
 3131 0008 0193     		str	r3, [sp, #4]
 3132 000a 0EAB     		add	r3, sp, #56
 3133              	.LVL335:
 3134 000c 0592     		str	r2, [sp, #20]
 3135 000e 1B88     		ldrh	r3, [r3]
 3136              	.LVL336:
 3137 0010 0FAA     		add	r2, sp, #60
 3138              	.LVL337:
 3139 0012 1288     		ldrh	r2, [r2]
 3140              	.LVL338:
 3141              	.LBB60:
 3142              		.loc 1 1035 0
 3143 0014 DB08     		lsrs	r3, r3, #3
 3144              	.LBE60:
1034:GFX_Library.c ****   for( uint16_t i = 0; i < h/8; i++)
 3145              		.loc 1 1034 0
 3146 0016 0692     		str	r2, [sp, #24]
 3147              	.LBB61:
 3148              		.loc 1 1035 0
 3149 0018 0293     		str	r3, [sp, #8]
 3150              	.LBE61:
ARM GAS  C:\Users\PC\AppData\Local\Temp\ccF7GaWd.s 			page 77


1034:GFX_Library.c ****   for( uint16_t i = 0; i < h/8; i++)
 3151              		.loc 1 1034 0
 3152 001a 10AA     		add	r2, sp, #64
 3153              	.LVL339:
 3154 001c 019B     		ldr	r3, [sp, #4]
 3155 001e 1288     		ldrh	r2, [r2]
 3156              	.LVL340:
 3157 0020 DB00     		lsls	r3, r3, #3
 3158 0022 0490     		str	r0, [sp, #16]
 3159 0024 0792     		str	r2, [sp, #28]
 3160 0026 0393     		str	r3, [sp, #12]
 3161 0028 CCB2     		uxtb	r4, r1
 3162              	.LVL341:
 3163              	.L199:
 3164              	.LBB62:
 3165              		.loc 1 1035 0 discriminator 1
 3166 002a 029B     		ldr	r3, [sp, #8]
 3167 002c 9E42     		cmp	r6, r3
 3168 002e 23D0     		beq	.L198
 3169              		.loc 1 1035 0 is_stmt 0
 3170 0030 0025     		movs	r5, #0
 3171              	.L204:
 3172              	.LVL342:
 3173              	.LBB59:
1036:GFX_Library.c ****   {    
1037:GFX_Library.c ****     for( uint16_t j = 0; j < w * 8; j++)
 3174              		.loc 1 1037 0 is_stmt 1 discriminator 1
 3175 0032 039B     		ldr	r3, [sp, #12]
 3176 0034 9D42     		cmp	r5, r3
 3177 0036 18DA     		bge	.L206
1038:GFX_Library.c ****     {      
1039:GFX_Library.c ****       if( bitmap[j/8 + i*w] & (1 << (j % 8)) )
 3178              		.loc 1 1039 0
 3179 0038 0721     		movs	r1, #7
 3180 003a 059B     		ldr	r3, [sp, #20]
 3181 003c E808     		lsrs	r0, r5, #3
 3182 003e 1B18     		adds	r3, r3, r0
 3183 0040 049A     		ldr	r2, [sp, #16]
 3184 0042 DB5D     		ldrb	r3, [r3, r7]
 3185 0044 2940     		ands	r1, r5
 3186 0046 1018     		adds	r0, r2, r0
 3187 0048 0B41     		asrs	r3, r3, r1
 3188 004a 0122     		movs	r2, #1
 3189 004c 1342     		tst	r3, r2
 3190 004e 02D0     		beq	.L200
1040:GFX_Library.c ****         display_drawPixel(x + j/8, y + i*8 + (j % 8), color);
 3191              		.loc 1 1040 0
 3192 0050 6B46     		mov	r3, sp
 3193 0052 1A7E     		ldrb	r2, [r3, #24]
 3194 0054 01E0     		b	.L205
 3195              	.L200:
1041:GFX_Library.c ****       else
1042:GFX_Library.c ****         display_drawPixel(x + j/8, y + i*8 + (j % 8), bg);
 3196              		.loc 1 1042 0
 3197 0056 6B46     		mov	r3, sp
 3198 0058 1A7F     		ldrb	r2, [r3, #28]
 3199              	.L205:
ARM GAS  C:\Users\PC\AppData\Local\Temp\ccF7GaWd.s 			page 78


 3200 005a 6118     		adds	r1, r4, r1
 3201 005c C9B2     		uxtb	r1, r1
 3202 005e C0B2     		uxtb	r0, r0
1037:GFX_Library.c ****     {      
 3203              		.loc 1 1037 0
 3204 0060 0135     		adds	r5, r5, #1
 3205              	.LVL343:
 3206              		.loc 1 1042 0
 3207 0062 FFF7FEFF 		bl	drawPixel
 3208              	.LVL344:
1037:GFX_Library.c ****     {      
 3209              		.loc 1 1037 0
 3210 0066 ADB2     		uxth	r5, r5
 3211              	.LVL345:
 3212 0068 E3E7     		b	.L204
 3213              	.L206:
 3214 006a 019B     		ldr	r3, [sp, #4]
 3215              	.LBE59:
1035:GFX_Library.c ****   {    
 3216              		.loc 1 1035 0 discriminator 2
 3217 006c 0136     		adds	r6, r6, #1
 3218              	.LVL346:
 3219 006e 0834     		adds	r4, r4, #8
 3220 0070 B6B2     		uxth	r6, r6
 3221              	.LVL347:
 3222 0072 E4B2     		uxtb	r4, r4
 3223 0074 FF18     		adds	r7, r7, r3
 3224 0076 D8E7     		b	.L199
 3225              	.LVL348:
 3226              	.L198:
 3227              	.LBE62:
1043:GFX_Library.c ****     }
1044:GFX_Library.c ****   }
1045:GFX_Library.c **** }
 3228              		.loc 1 1045 0
 3229 0078 09B0     		add	sp, sp, #36
 3230              		@ sp needed
 3231              	.LVL349:
 3232 007a F0BD     		pop	{r4, r5, r6, r7, pc}
 3233              		.cfi_endproc
 3234              	.LFE60:
 3235              		.size	display_drawBitmapV1_bg, .-display_drawBitmapV1_bg
 3236              		.section	.text.display_drawBitmapV2,"ax",%progbits
 3237              		.align	1
 3238              		.global	display_drawBitmapV2
 3239              		.code	16
 3240              		.thumb_func
 3241              		.type	display_drawBitmapV2, %function
 3242              	display_drawBitmapV2:
 3243              	.LFB61:
1046:GFX_Library.c **** 
1047:GFX_Library.c **** /**************************************************************************/
1048:GFX_Library.c **** /*!
1049:GFX_Library.c ****    @brief     Draw a ROM-resident 1-bit image at the specified (x,y) position,
1050:GFX_Library.c ****               using the specified foreground color (unset bits are transparent).
1051:GFX_Library.c ****     @param    x   Top left corner x coordinate
1052:GFX_Library.c ****     @param    y   Top left corner y coordinate
ARM GAS  C:\Users\PC\AppData\Local\Temp\ccF7GaWd.s 			page 79


1053:GFX_Library.c ****     @param    bitmap  byte array with monochrome bitmap
1054:GFX_Library.c ****     @param    w   Width of bitmap in pixels
1055:GFX_Library.c ****     @param    h   Hieght of bitmap in pixels
1056:GFX_Library.c ****     @param    color 16-bit 5-6-5 Color to draw pixels with
1057:GFX_Library.c **** */
1058:GFX_Library.c **** /**************************************************************************/
1059:GFX_Library.c **** void display_drawBitmapV2(uint16_t x, uint16_t y, const uint8_t *bitmap, uint16_t w, uint16_t h,
1060:GFX_Library.c ****   uint16_t color) {
 3244              		.loc 1 1060 0
 3245              		.cfi_startproc
 3246              		@ args = 8, pretend = 0, frame = 32
 3247              		@ frame_needed = 0, uses_anonymous_args = 0
 3248              	.LVL350:
 3249 0000 F0B5     		push	{r4, r5, r6, r7, lr}
 3250              		.cfi_def_cfa_offset 20
 3251              		.cfi_offset 4, -20
 3252              		.cfi_offset 5, -16
 3253              		.cfi_offset 6, -12
 3254              		.cfi_offset 7, -8
 3255              		.cfi_offset 14, -4
 3256 0002 0F00     		movs	r7, r1
 3257              	.LBB63:
1061:GFX_Library.c **** 
1062:GFX_Library.c ****     int16_t byteWidth = (w + 7) / 8; // Bitmap scanline pad = whole byte
1063:GFX_Library.c ****     uint8_t _byte = 0;
1064:GFX_Library.c **** 
1065:GFX_Library.c ****     for(int16_t j=0; j<h; j++, y++) {
 3258              		.loc 1 1065 0
 3259 0004 0C00     		movs	r4, r1
 3260              	.LBE63:
1063:GFX_Library.c **** 
 3261              		.loc 1 1063 0
 3262 0006 0025     		movs	r5, #0
1060:GFX_Library.c **** 
 3263              		.loc 1 1060 0
 3264 0008 89B0     		sub	sp, sp, #36
 3265              		.cfi_def_cfa_offset 56
1060:GFX_Library.c **** 
 3266              		.loc 1 1060 0
 3267 000a 0193     		str	r3, [sp, #4]
 3268 000c 0EAB     		add	r3, sp, #56
 3269              	.LVL351:
 3270 000e 1B88     		ldrh	r3, [r3]
 3271              	.LVL352:
 3272 0010 0490     		str	r0, [sp, #16]
 3273 0012 0693     		str	r3, [sp, #24]
 3274 0014 0FAB     		add	r3, sp, #60
 3275              	.LVL353:
 3276 0016 1B88     		ldrh	r3, [r3]
 3277              	.LVL354:
 3278 0018 0592     		str	r2, [sp, #20]
 3279 001a 0793     		str	r3, [sp, #28]
1062:GFX_Library.c ****     uint8_t _byte = 0;
 3280              		.loc 1 1062 0
 3281 001c 019B     		ldr	r3, [sp, #4]
 3282 001e 0733     		adds	r3, r3, #7
 3283 0020 DB10     		asrs	r3, r3, #3
ARM GAS  C:\Users\PC\AppData\Local\Temp\ccF7GaWd.s 			page 80


 3284 0022 0293     		str	r3, [sp, #8]
 3285              	.LVL355:
 3286              	.L208:
 3287 0024 E31B     		subs	r3, r4, r7
 3288              	.LBB65:
 3289              		.loc 1 1065 0 discriminator 1
 3290 0026 069A     		ldr	r2, [sp, #24]
 3291 0028 1BB2     		sxth	r3, r3
 3292              	.LVL356:
 3293 002a 9342     		cmp	r3, r2
 3294 002c 26DA     		bge	.L207
 3295              	.LBB64:
1066:GFX_Library.c ****         for(int16_t i=0; i<w; i++ ) {
1067:GFX_Library.c ****             if(i & 7) _byte <<= 1;
1068:GFX_Library.c ****             else      _byte   = bitmap[j * byteWidth + i / 8];
 3296              		.loc 1 1068 0
 3297 002e 0020     		movs	r0, #0
 3298 0030 029A     		ldr	r2, [sp, #8]
 3299 0032 5A43     		muls	r2, r3
 3300 0034 0392     		str	r2, [sp, #12]
 3301              	.LVL357:
 3302              	.L214:
1066:GFX_Library.c ****         for(int16_t i=0; i<w; i++ ) {
 3303              		.loc 1 1066 0 discriminator 1
 3304 0036 019B     		ldr	r3, [sp, #4]
 3305 0038 8342     		cmp	r3, r0
 3306 003a 1CDD     		ble	.L215
1067:GFX_Library.c ****             else      _byte   = bitmap[j * byteWidth + i / 8];
 3307              		.loc 1 1067 0
 3308 003c 0723     		movs	r3, #7
 3309 003e 6D00     		lsls	r5, r5, #1
 3310              	.LVL358:
 3311 0040 86B2     		uxth	r6, r0
 3312 0042 EDB2     		uxtb	r5, r5
 3313 0044 1E42     		tst	r6, r3
 3314 0046 08D1     		bne	.L210
 3315              		.loc 1 1068 0
 3316 0048 0722     		movs	r2, #7
 3317 004a C317     		asrs	r3, r0, #31
 3318 004c 1340     		ands	r3, r2
 3319 004e 0399     		ldr	r1, [sp, #12]
 3320 0050 059A     		ldr	r2, [sp, #20]
 3321 0052 1B18     		adds	r3, r3, r0
 3322 0054 DB10     		asrs	r3, r3, #3
 3323 0056 5218     		adds	r2, r2, r1
 3324 0058 D55C     		ldrb	r5, [r2, r3]
 3325              	.LVL359:
 3326              	.L210:
1069:GFX_Library.c ****             if(_byte & 0x80)
 3327              		.loc 1 1069 0
 3328 005a 6BB2     		sxtb	r3, r5
 3329 005c 002B     		cmp	r3, #0
 3330 005e 07DA     		bge	.L211
1070:GFX_Library.c ****               display_drawPixel(x+i, y, color);
 3331              		.loc 1 1070 0
 3332 0060 6B46     		mov	r3, sp
 3333 0062 1A7F     		ldrb	r2, [r3, #28]
ARM GAS  C:\Users\PC\AppData\Local\Temp\ccF7GaWd.s 			page 81


 3334 0064 049B     		ldr	r3, [sp, #16]
 3335 0066 E1B2     		uxtb	r1, r4
 3336 0068 1818     		adds	r0, r3, r0
 3337              	.LVL360:
 3338 006a C0B2     		uxtb	r0, r0
 3339 006c FFF7FEFF 		bl	drawPixel
 3340              	.LVL361:
 3341              	.L211:
 3342 0070 0136     		adds	r6, r6, #1
 3343              	.LVL362:
 3344 0072 30B2     		sxth	r0, r6
 3345              	.LVL363:
 3346 0074 DFE7     		b	.L214
 3347              	.L215:
 3348              	.LVL364:
 3349              	.LBE64:
1065:GFX_Library.c ****         for(int16_t i=0; i<w; i++ ) {
 3350              		.loc 1 1065 0 discriminator 2
 3351 0076 0134     		adds	r4, r4, #1
 3352              	.LVL365:
 3353 0078 A4B2     		uxth	r4, r4
 3354              	.LVL366:
 3355 007a D3E7     		b	.L208
 3356              	.LVL367:
 3357              	.L207:
 3358              	.LBE65:
1071:GFX_Library.c ****         }
1072:GFX_Library.c ****     }
1073:GFX_Library.c **** }
 3359              		.loc 1 1073 0
 3360 007c 09B0     		add	sp, sp, #36
 3361              		@ sp needed
 3362              	.LVL368:
 3363              	.LVL369:
 3364 007e F0BD     		pop	{r4, r5, r6, r7, pc}
 3365              		.cfi_endproc
 3366              	.LFE61:
 3367              		.size	display_drawBitmapV2, .-display_drawBitmapV2
 3368              		.section	.text.display_drawBitmapV2_bg,"ax",%progbits
 3369              		.align	1
 3370              		.global	display_drawBitmapV2_bg
 3371              		.code	16
 3372              		.thumb_func
 3373              		.type	display_drawBitmapV2_bg, %function
 3374              	display_drawBitmapV2_bg:
 3375              	.LFB62:
1074:GFX_Library.c **** 
1075:GFX_Library.c **** /**************************************************************************/
1076:GFX_Library.c **** /*!
1077:GFX_Library.c ****    @brief     Draw a ROM-resident 1-bit image at the specified (x,y) position,
1078:GFX_Library.c ****               using the specified foreground (for set bits) and background (unset bits) colors.
1079:GFX_Library.c ****     @param    x   Top left corner x coordinate
1080:GFX_Library.c ****     @param    y   Top left corner y coordinate
1081:GFX_Library.c ****     @param    bitmap  byte array with monochrome bitmap
1082:GFX_Library.c ****     @param    w   Width of bitmap in pixels
1083:GFX_Library.c ****     @param    h   Hieght of bitmap in pixels
1084:GFX_Library.c ****     @param    color 16-bit 5-6-5 Color to draw pixels with
ARM GAS  C:\Users\PC\AppData\Local\Temp\ccF7GaWd.s 			page 82


1085:GFX_Library.c ****     @param    bg 16-bit 5-6-5 Color to draw background with
1086:GFX_Library.c **** */
1087:GFX_Library.c **** /**************************************************************************/
1088:GFX_Library.c **** void display_drawBitmapV2_bg(uint16_t x, uint16_t y, const uint8_t *bitmap, uint16_t w, uint16_t h,
1089:GFX_Library.c ****   uint16_t color, uint16_t bg) {
 3376              		.loc 1 1089 0
 3377              		.cfi_startproc
 3378              		@ args = 12, pretend = 0, frame = 32
 3379              		@ frame_needed = 0, uses_anonymous_args = 0
 3380              	.LVL370:
 3381 0000 F0B5     		push	{r4, r5, r6, r7, lr}
 3382              		.cfi_def_cfa_offset 20
 3383              		.cfi_offset 4, -20
 3384              		.cfi_offset 5, -16
 3385              		.cfi_offset 6, -12
 3386              		.cfi_offset 7, -8
 3387              		.cfi_offset 14, -4
 3388 0002 0F00     		movs	r7, r1
 3389              	.LBB66:
1090:GFX_Library.c **** 
1091:GFX_Library.c ****     int16_t byteWidth = (w + 7) / 8; // Bitmap scanline pad = whole byte
1092:GFX_Library.c ****     uint8_t _byte = 0;
1093:GFX_Library.c **** 
1094:GFX_Library.c ****     for(int16_t j=0; j<h; j++, y++) {
 3390              		.loc 1 1094 0
 3391 0004 0C00     		movs	r4, r1
 3392              	.LBE66:
1092:GFX_Library.c **** 
 3393              		.loc 1 1092 0
 3394 0006 0025     		movs	r5, #0
1089:GFX_Library.c **** 
 3395              		.loc 1 1089 0
 3396 0008 89B0     		sub	sp, sp, #36
 3397              		.cfi_def_cfa_offset 56
1089:GFX_Library.c **** 
 3398              		.loc 1 1089 0
 3399 000a 0093     		str	r3, [sp]
 3400 000c 0EAB     		add	r3, sp, #56
 3401              	.LVL371:
 3402 000e 1B88     		ldrh	r3, [r3]
 3403              	.LVL372:
 3404 0010 0390     		str	r0, [sp, #12]
 3405 0012 0593     		str	r3, [sp, #20]
 3406 0014 0FAB     		add	r3, sp, #60
 3407              	.LVL373:
 3408 0016 1B88     		ldrh	r3, [r3]
 3409              	.LVL374:
 3410 0018 0492     		str	r2, [sp, #16]
 3411 001a 0693     		str	r3, [sp, #24]
 3412 001c 10AB     		add	r3, sp, #64
 3413              	.LVL375:
 3414 001e 1B88     		ldrh	r3, [r3]
 3415              	.LVL376:
 3416 0020 0793     		str	r3, [sp, #28]
1091:GFX_Library.c ****     uint8_t _byte = 0;
 3417              		.loc 1 1091 0
 3418 0022 009B     		ldr	r3, [sp]
ARM GAS  C:\Users\PC\AppData\Local\Temp\ccF7GaWd.s 			page 83


 3419 0024 0733     		adds	r3, r3, #7
 3420 0026 DB10     		asrs	r3, r3, #3
 3421 0028 0193     		str	r3, [sp, #4]
 3422              	.LVL377:
 3423              	.L217:
 3424 002a E31B     		subs	r3, r4, r7
 3425              	.LBB68:
 3426              		.loc 1 1094 0 discriminator 1
 3427 002c 059A     		ldr	r2, [sp, #20]
 3428 002e 1BB2     		sxth	r3, r3
 3429              	.LVL378:
 3430 0030 9342     		cmp	r3, r2
 3431 0032 29DA     		bge	.L216
 3432              	.LBB67:
1095:GFX_Library.c ****         for(int16_t i=0; i<w; i++ ) {
1096:GFX_Library.c ****             if(i & 7) _byte <<= 1;
1097:GFX_Library.c ****             else      _byte   = bitmap[j * byteWidth + i / 8];
 3433              		.loc 1 1097 0
 3434 0034 0020     		movs	r0, #0
 3435 0036 019A     		ldr	r2, [sp, #4]
 3436 0038 5A43     		muls	r2, r3
 3437 003a 0292     		str	r2, [sp, #8]
 3438              	.LVL379:
 3439              	.L224:
1095:GFX_Library.c ****         for(int16_t i=0; i<w; i++ ) {
 3440              		.loc 1 1095 0 discriminator 1
 3441 003c 009B     		ldr	r3, [sp]
 3442 003e 8342     		cmp	r3, r0
 3443 0040 1FDD     		ble	.L226
1096:GFX_Library.c ****             else      _byte   = bitmap[j * byteWidth + i / 8];
 3444              		.loc 1 1096 0
 3445 0042 0723     		movs	r3, #7
 3446 0044 6D00     		lsls	r5, r5, #1
 3447              	.LVL380:
 3448 0046 86B2     		uxth	r6, r0
 3449 0048 EDB2     		uxtb	r5, r5
 3450 004a 1E42     		tst	r6, r3
 3451 004c 08D1     		bne	.L219
 3452              		.loc 1 1097 0
 3453 004e 0722     		movs	r2, #7
 3454 0050 C317     		asrs	r3, r0, #31
 3455 0052 1340     		ands	r3, r2
 3456 0054 0299     		ldr	r1, [sp, #8]
 3457 0056 049A     		ldr	r2, [sp, #16]
 3458 0058 1B18     		adds	r3, r3, r0
 3459 005a DB10     		asrs	r3, r3, #3
 3460 005c 5218     		adds	r2, r2, r1
 3461 005e D55C     		ldrb	r5, [r2, r3]
 3462              	.LVL381:
 3463              	.L219:
 3464 0060 039A     		ldr	r2, [sp, #12]
1098:GFX_Library.c ****             if(_byte & 0x80)
 3465              		.loc 1 1098 0
 3466 0062 6BB2     		sxtb	r3, r5
 3467 0064 1018     		adds	r0, r2, r0
 3468              	.LVL382:
 3469 0066 002B     		cmp	r3, #0
ARM GAS  C:\Users\PC\AppData\Local\Temp\ccF7GaWd.s 			page 84


 3470 0068 02DA     		bge	.L220
1099:GFX_Library.c ****               display_drawPixel(x+i, y, color);
 3471              		.loc 1 1099 0
 3472 006a 6B46     		mov	r3, sp
 3473 006c 1A7E     		ldrb	r2, [r3, #24]
 3474 006e 01E0     		b	.L225
 3475              	.L220:
1100:GFX_Library.c ****             else
1101:GFX_Library.c ****               display_drawPixel(x+i, y, bg);
 3476              		.loc 1 1101 0
 3477 0070 6B46     		mov	r3, sp
 3478 0072 1A7F     		ldrb	r2, [r3, #28]
 3479              	.L225:
 3480 0074 C0B2     		uxtb	r0, r0
 3481 0076 E1B2     		uxtb	r1, r4
 3482 0078 0136     		adds	r6, r6, #1
 3483              	.LVL383:
 3484 007a FFF7FEFF 		bl	drawPixel
 3485              	.LVL384:
 3486 007e 30B2     		sxth	r0, r6
 3487              	.LVL385:
 3488 0080 DCE7     		b	.L224
 3489              	.L226:
 3490              	.LVL386:
 3491              	.LBE67:
1094:GFX_Library.c ****         for(int16_t i=0; i<w; i++ ) {
 3492              		.loc 1 1094 0 discriminator 2
 3493 0082 0134     		adds	r4, r4, #1
 3494              	.LVL387:
 3495 0084 A4B2     		uxth	r4, r4
 3496              	.LVL388:
 3497 0086 D0E7     		b	.L217
 3498              	.LVL389:
 3499              	.L216:
 3500              	.LBE68:
1102:GFX_Library.c ****         }
1103:GFX_Library.c ****     }
1104:GFX_Library.c **** }
 3501              		.loc 1 1104 0
 3502 0088 09B0     		add	sp, sp, #36
 3503              		@ sp needed
 3504              	.LVL390:
 3505              	.LVL391:
 3506 008a F0BD     		pop	{r4, r5, r6, r7, pc}
 3507              		.cfi_endproc
 3508              	.LFE62:
 3509              		.size	display_drawBitmapV2_bg, .-display_drawBitmapV2_bg
 3510              		.global	wrap
 3511              		.global	textsize
 3512              		.global	textbgcolor
 3513              		.global	textcolor
 3514              		.global	cursor_y
 3515              		.global	cursor_x
 3516              		.comm	_height,1,1
 3517              		.comm	_width,1,1
 3518              		.comm	rotation,1,1
 3519              		.comm	_vccstate,1,1
ARM GAS  C:\Users\PC\AppData\Local\Temp\ccF7GaWd.s 			page 85


 3520              		.section	.rodata
 3521              		.set	.LANCHOR2,. + 0
 3522              		.type	font, %object
 3523              		.size	font, 1280
 3524              	font:
 3525 0000 00       		.byte	0
 3526 0001 00       		.byte	0
 3527 0002 00       		.byte	0
 3528 0003 00       		.byte	0
 3529 0004 00       		.byte	0
 3530 0005 3E       		.byte	62
 3531 0006 5B       		.byte	91
 3532 0007 4F       		.byte	79
 3533 0008 5B       		.byte	91
 3534 0009 3E       		.byte	62
 3535 000a 3E       		.byte	62
 3536 000b 6B       		.byte	107
 3537 000c 4F       		.byte	79
 3538 000d 6B       		.byte	107
 3539 000e 3E       		.byte	62
 3540 000f 1C       		.byte	28
 3541 0010 3E       		.byte	62
 3542 0011 7C       		.byte	124
 3543 0012 3E       		.byte	62
 3544 0013 1C       		.byte	28
 3545 0014 18       		.byte	24
 3546 0015 3C       		.byte	60
 3547 0016 7E       		.byte	126
 3548 0017 3C       		.byte	60
 3549 0018 18       		.byte	24
 3550 0019 1C       		.byte	28
 3551 001a 57       		.byte	87
 3552 001b 7D       		.byte	125
 3553 001c 57       		.byte	87
 3554 001d 1C       		.byte	28
 3555 001e 1C       		.byte	28
 3556 001f 5E       		.byte	94
 3557 0020 7F       		.byte	127
 3558 0021 5E       		.byte	94
 3559 0022 1C       		.byte	28
 3560 0023 00       		.byte	0
 3561 0024 18       		.byte	24
 3562 0025 3C       		.byte	60
 3563 0026 18       		.byte	24
 3564 0027 00       		.byte	0
 3565 0028 FF       		.byte	-1
 3566 0029 E7       		.byte	-25
 3567 002a C3       		.byte	-61
 3568 002b E7       		.byte	-25
 3569 002c FF       		.byte	-1
 3570 002d 00       		.byte	0
 3571 002e 18       		.byte	24
 3572 002f 24       		.byte	36
 3573 0030 18       		.byte	24
 3574 0031 00       		.byte	0
 3575 0032 FF       		.byte	-1
 3576 0033 E7       		.byte	-25
ARM GAS  C:\Users\PC\AppData\Local\Temp\ccF7GaWd.s 			page 86


 3577 0034 DB       		.byte	-37
 3578 0035 E7       		.byte	-25
 3579 0036 FF       		.byte	-1
 3580 0037 30       		.byte	48
 3581 0038 48       		.byte	72
 3582 0039 3A       		.byte	58
 3583 003a 06       		.byte	6
 3584 003b 0E       		.byte	14
 3585 003c 26       		.byte	38
 3586 003d 29       		.byte	41
 3587 003e 79       		.byte	121
 3588 003f 29       		.byte	41
 3589 0040 26       		.byte	38
 3590 0041 40       		.byte	64
 3591 0042 7F       		.byte	127
 3592 0043 05       		.byte	5
 3593 0044 05       		.byte	5
 3594 0045 07       		.byte	7
 3595 0046 40       		.byte	64
 3596 0047 7F       		.byte	127
 3597 0048 05       		.byte	5
 3598 0049 25       		.byte	37
 3599 004a 3F       		.byte	63
 3600 004b 5A       		.byte	90
 3601 004c 3C       		.byte	60
 3602 004d E7       		.byte	-25
 3603 004e 3C       		.byte	60
 3604 004f 5A       		.byte	90
 3605 0050 7F       		.byte	127
 3606 0051 3E       		.byte	62
 3607 0052 1C       		.byte	28
 3608 0053 1C       		.byte	28
 3609 0054 08       		.byte	8
 3610 0055 08       		.byte	8
 3611 0056 1C       		.byte	28
 3612 0057 1C       		.byte	28
 3613 0058 3E       		.byte	62
 3614 0059 7F       		.byte	127
 3615 005a 14       		.byte	20
 3616 005b 22       		.byte	34
 3617 005c 7F       		.byte	127
 3618 005d 22       		.byte	34
 3619 005e 14       		.byte	20
 3620 005f 5F       		.byte	95
 3621 0060 5F       		.byte	95
 3622 0061 00       		.byte	0
 3623 0062 5F       		.byte	95
 3624 0063 5F       		.byte	95
 3625 0064 06       		.byte	6
 3626 0065 09       		.byte	9
 3627 0066 7F       		.byte	127
 3628 0067 01       		.byte	1
 3629 0068 7F       		.byte	127
 3630 0069 00       		.byte	0
 3631 006a 66       		.byte	102
 3632 006b 89       		.byte	-119
 3633 006c 95       		.byte	-107
ARM GAS  C:\Users\PC\AppData\Local\Temp\ccF7GaWd.s 			page 87


 3634 006d 6A       		.byte	106
 3635 006e 60       		.byte	96
 3636 006f 60       		.byte	96
 3637 0070 60       		.byte	96
 3638 0071 60       		.byte	96
 3639 0072 60       		.byte	96
 3640 0073 94       		.byte	-108
 3641 0074 A2       		.byte	-94
 3642 0075 FF       		.byte	-1
 3643 0076 A2       		.byte	-94
 3644 0077 94       		.byte	-108
 3645 0078 08       		.byte	8
 3646 0079 04       		.byte	4
 3647 007a 7E       		.byte	126
 3648 007b 04       		.byte	4
 3649 007c 08       		.byte	8
 3650 007d 10       		.byte	16
 3651 007e 20       		.byte	32
 3652 007f 7E       		.byte	126
 3653 0080 20       		.byte	32
 3654 0081 10       		.byte	16
 3655 0082 08       		.byte	8
 3656 0083 08       		.byte	8
 3657 0084 2A       		.byte	42
 3658 0085 1C       		.byte	28
 3659 0086 08       		.byte	8
 3660 0087 08       		.byte	8
 3661 0088 1C       		.byte	28
 3662 0089 2A       		.byte	42
 3663 008a 08       		.byte	8
 3664 008b 08       		.byte	8
 3665 008c 1E       		.byte	30
 3666 008d 10       		.byte	16
 3667 008e 10       		.byte	16
 3668 008f 10       		.byte	16
 3669 0090 10       		.byte	16
 3670 0091 0C       		.byte	12
 3671 0092 1E       		.byte	30
 3672 0093 0C       		.byte	12
 3673 0094 1E       		.byte	30
 3674 0095 0C       		.byte	12
 3675 0096 30       		.byte	48
 3676 0097 38       		.byte	56
 3677 0098 3E       		.byte	62
 3678 0099 38       		.byte	56
 3679 009a 30       		.byte	48
 3680 009b 06       		.byte	6
 3681 009c 0E       		.byte	14
 3682 009d 3E       		.byte	62
 3683 009e 0E       		.byte	14
 3684 009f 06       		.byte	6
 3685 00a0 00       		.byte	0
 3686 00a1 00       		.byte	0
 3687 00a2 00       		.byte	0
 3688 00a3 00       		.byte	0
 3689 00a4 00       		.byte	0
 3690 00a5 00       		.byte	0
ARM GAS  C:\Users\PC\AppData\Local\Temp\ccF7GaWd.s 			page 88


 3691 00a6 00       		.byte	0
 3692 00a7 5F       		.byte	95
 3693 00a8 00       		.byte	0
 3694 00a9 00       		.byte	0
 3695 00aa 00       		.byte	0
 3696 00ab 07       		.byte	7
 3697 00ac 00       		.byte	0
 3698 00ad 07       		.byte	7
 3699 00ae 00       		.byte	0
 3700 00af 14       		.byte	20
 3701 00b0 7F       		.byte	127
 3702 00b1 14       		.byte	20
 3703 00b2 7F       		.byte	127
 3704 00b3 14       		.byte	20
 3705 00b4 24       		.byte	36
 3706 00b5 2A       		.byte	42
 3707 00b6 7F       		.byte	127
 3708 00b7 2A       		.byte	42
 3709 00b8 12       		.byte	18
 3710 00b9 23       		.byte	35
 3711 00ba 13       		.byte	19
 3712 00bb 08       		.byte	8
 3713 00bc 64       		.byte	100
 3714 00bd 62       		.byte	98
 3715 00be 36       		.byte	54
 3716 00bf 49       		.byte	73
 3717 00c0 56       		.byte	86
 3718 00c1 20       		.byte	32
 3719 00c2 50       		.byte	80
 3720 00c3 00       		.byte	0
 3721 00c4 08       		.byte	8
 3722 00c5 07       		.byte	7
 3723 00c6 03       		.byte	3
 3724 00c7 00       		.byte	0
 3725 00c8 00       		.byte	0
 3726 00c9 1C       		.byte	28
 3727 00ca 22       		.byte	34
 3728 00cb 41       		.byte	65
 3729 00cc 00       		.byte	0
 3730 00cd 00       		.byte	0
 3731 00ce 41       		.byte	65
 3732 00cf 22       		.byte	34
 3733 00d0 1C       		.byte	28
 3734 00d1 00       		.byte	0
 3735 00d2 2A       		.byte	42
 3736 00d3 1C       		.byte	28
 3737 00d4 7F       		.byte	127
 3738 00d5 1C       		.byte	28
 3739 00d6 2A       		.byte	42
 3740 00d7 08       		.byte	8
 3741 00d8 08       		.byte	8
 3742 00d9 3E       		.byte	62
 3743 00da 08       		.byte	8
 3744 00db 08       		.byte	8
 3745 00dc 00       		.byte	0
 3746 00dd 80       		.byte	-128
 3747 00de 70       		.byte	112
ARM GAS  C:\Users\PC\AppData\Local\Temp\ccF7GaWd.s 			page 89


 3748 00df 30       		.byte	48
 3749 00e0 00       		.byte	0
 3750 00e1 08       		.byte	8
 3751 00e2 08       		.byte	8
 3752 00e3 08       		.byte	8
 3753 00e4 08       		.byte	8
 3754 00e5 08       		.byte	8
 3755 00e6 00       		.byte	0
 3756 00e7 00       		.byte	0
 3757 00e8 60       		.byte	96
 3758 00e9 60       		.byte	96
 3759 00ea 00       		.byte	0
 3760 00eb 20       		.byte	32
 3761 00ec 10       		.byte	16
 3762 00ed 08       		.byte	8
 3763 00ee 04       		.byte	4
 3764 00ef 02       		.byte	2
 3765 00f0 3E       		.byte	62
 3766 00f1 51       		.byte	81
 3767 00f2 49       		.byte	73
 3768 00f3 45       		.byte	69
 3769 00f4 3E       		.byte	62
 3770 00f5 00       		.byte	0
 3771 00f6 42       		.byte	66
 3772 00f7 7F       		.byte	127
 3773 00f8 40       		.byte	64
 3774 00f9 00       		.byte	0
 3775 00fa 72       		.byte	114
 3776 00fb 49       		.byte	73
 3777 00fc 49       		.byte	73
 3778 00fd 49       		.byte	73
 3779 00fe 46       		.byte	70
 3780 00ff 21       		.byte	33
 3781 0100 41       		.byte	65
 3782 0101 49       		.byte	73
 3783 0102 4D       		.byte	77
 3784 0103 33       		.byte	51
 3785 0104 18       		.byte	24
 3786 0105 14       		.byte	20
 3787 0106 12       		.byte	18
 3788 0107 7F       		.byte	127
 3789 0108 10       		.byte	16
 3790 0109 27       		.byte	39
 3791 010a 45       		.byte	69
 3792 010b 45       		.byte	69
 3793 010c 45       		.byte	69
 3794 010d 39       		.byte	57
 3795 010e 3C       		.byte	60
 3796 010f 4A       		.byte	74
 3797 0110 49       		.byte	73
 3798 0111 49       		.byte	73
 3799 0112 31       		.byte	49
 3800 0113 41       		.byte	65
 3801 0114 21       		.byte	33
 3802 0115 11       		.byte	17
 3803 0116 09       		.byte	9
 3804 0117 07       		.byte	7
ARM GAS  C:\Users\PC\AppData\Local\Temp\ccF7GaWd.s 			page 90


 3805 0118 36       		.byte	54
 3806 0119 49       		.byte	73
 3807 011a 49       		.byte	73
 3808 011b 49       		.byte	73
 3809 011c 36       		.byte	54
 3810 011d 46       		.byte	70
 3811 011e 49       		.byte	73
 3812 011f 49       		.byte	73
 3813 0120 29       		.byte	41
 3814 0121 1E       		.byte	30
 3815 0122 00       		.byte	0
 3816 0123 00       		.byte	0
 3817 0124 14       		.byte	20
 3818 0125 00       		.byte	0
 3819 0126 00       		.byte	0
 3820 0127 00       		.byte	0
 3821 0128 40       		.byte	64
 3822 0129 34       		.byte	52
 3823 012a 00       		.byte	0
 3824 012b 00       		.byte	0
 3825 012c 00       		.byte	0
 3826 012d 08       		.byte	8
 3827 012e 14       		.byte	20
 3828 012f 22       		.byte	34
 3829 0130 41       		.byte	65
 3830 0131 14       		.byte	20
 3831 0132 14       		.byte	20
 3832 0133 14       		.byte	20
 3833 0134 14       		.byte	20
 3834 0135 14       		.byte	20
 3835 0136 00       		.byte	0
 3836 0137 41       		.byte	65
 3837 0138 22       		.byte	34
 3838 0139 14       		.byte	20
 3839 013a 08       		.byte	8
 3840 013b 02       		.byte	2
 3841 013c 01       		.byte	1
 3842 013d 59       		.byte	89
 3843 013e 09       		.byte	9
 3844 013f 06       		.byte	6
 3845 0140 3E       		.byte	62
 3846 0141 41       		.byte	65
 3847 0142 5D       		.byte	93
 3848 0143 59       		.byte	89
 3849 0144 4E       		.byte	78
 3850 0145 7C       		.byte	124
 3851 0146 12       		.byte	18
 3852 0147 11       		.byte	17
 3853 0148 12       		.byte	18
 3854 0149 7C       		.byte	124
 3855 014a 7F       		.byte	127
 3856 014b 49       		.byte	73
 3857 014c 49       		.byte	73
 3858 014d 49       		.byte	73
 3859 014e 36       		.byte	54
 3860 014f 3E       		.byte	62
 3861 0150 41       		.byte	65
ARM GAS  C:\Users\PC\AppData\Local\Temp\ccF7GaWd.s 			page 91


 3862 0151 41       		.byte	65
 3863 0152 41       		.byte	65
 3864 0153 22       		.byte	34
 3865 0154 7F       		.byte	127
 3866 0155 41       		.byte	65
 3867 0156 41       		.byte	65
 3868 0157 41       		.byte	65
 3869 0158 3E       		.byte	62
 3870 0159 7F       		.byte	127
 3871 015a 49       		.byte	73
 3872 015b 49       		.byte	73
 3873 015c 49       		.byte	73
 3874 015d 41       		.byte	65
 3875 015e 7F       		.byte	127
 3876 015f 09       		.byte	9
 3877 0160 09       		.byte	9
 3878 0161 09       		.byte	9
 3879 0162 01       		.byte	1
 3880 0163 3E       		.byte	62
 3881 0164 41       		.byte	65
 3882 0165 41       		.byte	65
 3883 0166 51       		.byte	81
 3884 0167 73       		.byte	115
 3885 0168 7F       		.byte	127
 3886 0169 08       		.byte	8
 3887 016a 08       		.byte	8
 3888 016b 08       		.byte	8
 3889 016c 7F       		.byte	127
 3890 016d 00       		.byte	0
 3891 016e 41       		.byte	65
 3892 016f 7F       		.byte	127
 3893 0170 41       		.byte	65
 3894 0171 00       		.byte	0
 3895 0172 20       		.byte	32
 3896 0173 40       		.byte	64
 3897 0174 41       		.byte	65
 3898 0175 3F       		.byte	63
 3899 0176 01       		.byte	1
 3900 0177 7F       		.byte	127
 3901 0178 08       		.byte	8
 3902 0179 14       		.byte	20
 3903 017a 22       		.byte	34
 3904 017b 41       		.byte	65
 3905 017c 7F       		.byte	127
 3906 017d 40       		.byte	64
 3907 017e 40       		.byte	64
 3908 017f 40       		.byte	64
 3909 0180 40       		.byte	64
 3910 0181 7F       		.byte	127
 3911 0182 02       		.byte	2
 3912 0183 1C       		.byte	28
 3913 0184 02       		.byte	2
 3914 0185 7F       		.byte	127
 3915 0186 7F       		.byte	127
 3916 0187 04       		.byte	4
 3917 0188 08       		.byte	8
 3918 0189 10       		.byte	16
ARM GAS  C:\Users\PC\AppData\Local\Temp\ccF7GaWd.s 			page 92


 3919 018a 7F       		.byte	127
 3920 018b 3E       		.byte	62
 3921 018c 41       		.byte	65
 3922 018d 41       		.byte	65
 3923 018e 41       		.byte	65
 3924 018f 3E       		.byte	62
 3925 0190 7F       		.byte	127
 3926 0191 09       		.byte	9
 3927 0192 09       		.byte	9
 3928 0193 09       		.byte	9
 3929 0194 06       		.byte	6
 3930 0195 3E       		.byte	62
 3931 0196 41       		.byte	65
 3932 0197 51       		.byte	81
 3933 0198 21       		.byte	33
 3934 0199 5E       		.byte	94
 3935 019a 7F       		.byte	127
 3936 019b 09       		.byte	9
 3937 019c 19       		.byte	25
 3938 019d 29       		.byte	41
 3939 019e 46       		.byte	70
 3940 019f 26       		.byte	38
 3941 01a0 49       		.byte	73
 3942 01a1 49       		.byte	73
 3943 01a2 49       		.byte	73
 3944 01a3 32       		.byte	50
 3945 01a4 03       		.byte	3
 3946 01a5 01       		.byte	1
 3947 01a6 7F       		.byte	127
 3948 01a7 01       		.byte	1
 3949 01a8 03       		.byte	3
 3950 01a9 3F       		.byte	63
 3951 01aa 40       		.byte	64
 3952 01ab 40       		.byte	64
 3953 01ac 40       		.byte	64
 3954 01ad 3F       		.byte	63
 3955 01ae 1F       		.byte	31
 3956 01af 20       		.byte	32
 3957 01b0 40       		.byte	64
 3958 01b1 20       		.byte	32
 3959 01b2 1F       		.byte	31
 3960 01b3 3F       		.byte	63
 3961 01b4 40       		.byte	64
 3962 01b5 38       		.byte	56
 3963 01b6 40       		.byte	64
 3964 01b7 3F       		.byte	63
 3965 01b8 63       		.byte	99
 3966 01b9 14       		.byte	20
 3967 01ba 08       		.byte	8
 3968 01bb 14       		.byte	20
 3969 01bc 63       		.byte	99
 3970 01bd 03       		.byte	3
 3971 01be 04       		.byte	4
 3972 01bf 78       		.byte	120
 3973 01c0 04       		.byte	4
 3974 01c1 03       		.byte	3
 3975 01c2 61       		.byte	97
ARM GAS  C:\Users\PC\AppData\Local\Temp\ccF7GaWd.s 			page 93


 3976 01c3 59       		.byte	89
 3977 01c4 49       		.byte	73
 3978 01c5 4D       		.byte	77
 3979 01c6 43       		.byte	67
 3980 01c7 00       		.byte	0
 3981 01c8 7F       		.byte	127
 3982 01c9 41       		.byte	65
 3983 01ca 41       		.byte	65
 3984 01cb 41       		.byte	65
 3985 01cc 02       		.byte	2
 3986 01cd 04       		.byte	4
 3987 01ce 08       		.byte	8
 3988 01cf 10       		.byte	16
 3989 01d0 20       		.byte	32
 3990 01d1 00       		.byte	0
 3991 01d2 41       		.byte	65
 3992 01d3 41       		.byte	65
 3993 01d4 41       		.byte	65
 3994 01d5 7F       		.byte	127
 3995 01d6 04       		.byte	4
 3996 01d7 02       		.byte	2
 3997 01d8 01       		.byte	1
 3998 01d9 02       		.byte	2
 3999 01da 04       		.byte	4
 4000 01db 40       		.byte	64
 4001 01dc 40       		.byte	64
 4002 01dd 40       		.byte	64
 4003 01de 40       		.byte	64
 4004 01df 40       		.byte	64
 4005 01e0 00       		.byte	0
 4006 01e1 03       		.byte	3
 4007 01e2 07       		.byte	7
 4008 01e3 08       		.byte	8
 4009 01e4 00       		.byte	0
 4010 01e5 20       		.byte	32
 4011 01e6 54       		.byte	84
 4012 01e7 54       		.byte	84
 4013 01e8 78       		.byte	120
 4014 01e9 40       		.byte	64
 4015 01ea 7F       		.byte	127
 4016 01eb 28       		.byte	40
 4017 01ec 44       		.byte	68
 4018 01ed 44       		.byte	68
 4019 01ee 38       		.byte	56
 4020 01ef 38       		.byte	56
 4021 01f0 44       		.byte	68
 4022 01f1 44       		.byte	68
 4023 01f2 44       		.byte	68
 4024 01f3 28       		.byte	40
 4025 01f4 38       		.byte	56
 4026 01f5 44       		.byte	68
 4027 01f6 44       		.byte	68
 4028 01f7 28       		.byte	40
 4029 01f8 7F       		.byte	127
 4030 01f9 38       		.byte	56
 4031 01fa 54       		.byte	84
 4032 01fb 54       		.byte	84
ARM GAS  C:\Users\PC\AppData\Local\Temp\ccF7GaWd.s 			page 94


 4033 01fc 54       		.byte	84
 4034 01fd 18       		.byte	24
 4035 01fe 00       		.byte	0
 4036 01ff 08       		.byte	8
 4037 0200 7E       		.byte	126
 4038 0201 09       		.byte	9
 4039 0202 02       		.byte	2
 4040 0203 18       		.byte	24
 4041 0204 A4       		.byte	-92
 4042 0205 A4       		.byte	-92
 4043 0206 9C       		.byte	-100
 4044 0207 78       		.byte	120
 4045 0208 7F       		.byte	127
 4046 0209 08       		.byte	8
 4047 020a 04       		.byte	4
 4048 020b 04       		.byte	4
 4049 020c 78       		.byte	120
 4050 020d 00       		.byte	0
 4051 020e 44       		.byte	68
 4052 020f 7D       		.byte	125
 4053 0210 40       		.byte	64
 4054 0211 00       		.byte	0
 4055 0212 20       		.byte	32
 4056 0213 40       		.byte	64
 4057 0214 40       		.byte	64
 4058 0215 3D       		.byte	61
 4059 0216 00       		.byte	0
 4060 0217 7F       		.byte	127
 4061 0218 10       		.byte	16
 4062 0219 28       		.byte	40
 4063 021a 44       		.byte	68
 4064 021b 00       		.byte	0
 4065 021c 00       		.byte	0
 4066 021d 41       		.byte	65
 4067 021e 7F       		.byte	127
 4068 021f 40       		.byte	64
 4069 0220 00       		.byte	0
 4070 0221 7C       		.byte	124
 4071 0222 04       		.byte	4
 4072 0223 78       		.byte	120
 4073 0224 04       		.byte	4
 4074 0225 78       		.byte	120
 4075 0226 7C       		.byte	124
 4076 0227 08       		.byte	8
 4077 0228 04       		.byte	4
 4078 0229 04       		.byte	4
 4079 022a 78       		.byte	120
 4080 022b 38       		.byte	56
 4081 022c 44       		.byte	68
 4082 022d 44       		.byte	68
 4083 022e 44       		.byte	68
 4084 022f 38       		.byte	56
 4085 0230 FC       		.byte	-4
 4086 0231 18       		.byte	24
 4087 0232 24       		.byte	36
 4088 0233 24       		.byte	36
 4089 0234 18       		.byte	24
ARM GAS  C:\Users\PC\AppData\Local\Temp\ccF7GaWd.s 			page 95


 4090 0235 18       		.byte	24
 4091 0236 24       		.byte	36
 4092 0237 24       		.byte	36
 4093 0238 18       		.byte	24
 4094 0239 FC       		.byte	-4
 4095 023a 7C       		.byte	124
 4096 023b 08       		.byte	8
 4097 023c 04       		.byte	4
 4098 023d 04       		.byte	4
 4099 023e 08       		.byte	8
 4100 023f 48       		.byte	72
 4101 0240 54       		.byte	84
 4102 0241 54       		.byte	84
 4103 0242 54       		.byte	84
 4104 0243 24       		.byte	36
 4105 0244 04       		.byte	4
 4106 0245 04       		.byte	4
 4107 0246 3F       		.byte	63
 4108 0247 44       		.byte	68
 4109 0248 24       		.byte	36
 4110 0249 3C       		.byte	60
 4111 024a 40       		.byte	64
 4112 024b 40       		.byte	64
 4113 024c 20       		.byte	32
 4114 024d 7C       		.byte	124
 4115 024e 1C       		.byte	28
 4116 024f 20       		.byte	32
 4117 0250 40       		.byte	64
 4118 0251 20       		.byte	32
 4119 0252 1C       		.byte	28
 4120 0253 3C       		.byte	60
 4121 0254 40       		.byte	64
 4122 0255 30       		.byte	48
 4123 0256 40       		.byte	64
 4124 0257 3C       		.byte	60
 4125 0258 44       		.byte	68
 4126 0259 28       		.byte	40
 4127 025a 10       		.byte	16
 4128 025b 28       		.byte	40
 4129 025c 44       		.byte	68
 4130 025d 4C       		.byte	76
 4131 025e 90       		.byte	-112
 4132 025f 90       		.byte	-112
 4133 0260 90       		.byte	-112
 4134 0261 7C       		.byte	124
 4135 0262 44       		.byte	68
 4136 0263 64       		.byte	100
 4137 0264 54       		.byte	84
 4138 0265 4C       		.byte	76
 4139 0266 44       		.byte	68
 4140 0267 00       		.byte	0
 4141 0268 08       		.byte	8
 4142 0269 36       		.byte	54
 4143 026a 41       		.byte	65
 4144 026b 00       		.byte	0
 4145 026c 00       		.byte	0
 4146 026d 00       		.byte	0
ARM GAS  C:\Users\PC\AppData\Local\Temp\ccF7GaWd.s 			page 96


 4147 026e 77       		.byte	119
 4148 026f 00       		.byte	0
 4149 0270 00       		.byte	0
 4150 0271 00       		.byte	0
 4151 0272 41       		.byte	65
 4152 0273 36       		.byte	54
 4153 0274 08       		.byte	8
 4154 0275 00       		.byte	0
 4155 0276 02       		.byte	2
 4156 0277 01       		.byte	1
 4157 0278 02       		.byte	2
 4158 0279 04       		.byte	4
 4159 027a 02       		.byte	2
 4160 027b 3C       		.byte	60
 4161 027c 26       		.byte	38
 4162 027d 23       		.byte	35
 4163 027e 26       		.byte	38
 4164 027f 3C       		.byte	60
 4165 0280 1E       		.byte	30
 4166 0281 A1       		.byte	-95
 4167 0282 A1       		.byte	-95
 4168 0283 61       		.byte	97
 4169 0284 12       		.byte	18
 4170 0285 3A       		.byte	58
 4171 0286 40       		.byte	64
 4172 0287 40       		.byte	64
 4173 0288 20       		.byte	32
 4174 0289 7A       		.byte	122
 4175 028a 38       		.byte	56
 4176 028b 54       		.byte	84
 4177 028c 54       		.byte	84
 4178 028d 55       		.byte	85
 4179 028e 59       		.byte	89
 4180 028f 21       		.byte	33
 4181 0290 55       		.byte	85
 4182 0291 55       		.byte	85
 4183 0292 79       		.byte	121
 4184 0293 41       		.byte	65
 4185 0294 22       		.byte	34
 4186 0295 54       		.byte	84
 4187 0296 54       		.byte	84
 4188 0297 78       		.byte	120
 4189 0298 42       		.byte	66
 4190 0299 21       		.byte	33
 4191 029a 55       		.byte	85
 4192 029b 54       		.byte	84
 4193 029c 78       		.byte	120
 4194 029d 40       		.byte	64
 4195 029e 20       		.byte	32
 4196 029f 54       		.byte	84
 4197 02a0 55       		.byte	85
 4198 02a1 79       		.byte	121
 4199 02a2 40       		.byte	64
 4200 02a3 0C       		.byte	12
 4201 02a4 1E       		.byte	30
 4202 02a5 52       		.byte	82
 4203 02a6 72       		.byte	114
ARM GAS  C:\Users\PC\AppData\Local\Temp\ccF7GaWd.s 			page 97


 4204 02a7 12       		.byte	18
 4205 02a8 39       		.byte	57
 4206 02a9 55       		.byte	85
 4207 02aa 55       		.byte	85
 4208 02ab 55       		.byte	85
 4209 02ac 59       		.byte	89
 4210 02ad 39       		.byte	57
 4211 02ae 54       		.byte	84
 4212 02af 54       		.byte	84
 4213 02b0 54       		.byte	84
 4214 02b1 59       		.byte	89
 4215 02b2 39       		.byte	57
 4216 02b3 55       		.byte	85
 4217 02b4 54       		.byte	84
 4218 02b5 54       		.byte	84
 4219 02b6 58       		.byte	88
 4220 02b7 00       		.byte	0
 4221 02b8 00       		.byte	0
 4222 02b9 45       		.byte	69
 4223 02ba 7C       		.byte	124
 4224 02bb 41       		.byte	65
 4225 02bc 00       		.byte	0
 4226 02bd 02       		.byte	2
 4227 02be 45       		.byte	69
 4228 02bf 7D       		.byte	125
 4229 02c0 42       		.byte	66
 4230 02c1 00       		.byte	0
 4231 02c2 01       		.byte	1
 4232 02c3 45       		.byte	69
 4233 02c4 7C       		.byte	124
 4234 02c5 40       		.byte	64
 4235 02c6 7D       		.byte	125
 4236 02c7 12       		.byte	18
 4237 02c8 11       		.byte	17
 4238 02c9 12       		.byte	18
 4239 02ca 7D       		.byte	125
 4240 02cb F0       		.byte	-16
 4241 02cc 28       		.byte	40
 4242 02cd 25       		.byte	37
 4243 02ce 28       		.byte	40
 4244 02cf F0       		.byte	-16
 4245 02d0 7C       		.byte	124
 4246 02d1 54       		.byte	84
 4247 02d2 55       		.byte	85
 4248 02d3 45       		.byte	69
 4249 02d4 00       		.byte	0
 4250 02d5 20       		.byte	32
 4251 02d6 54       		.byte	84
 4252 02d7 54       		.byte	84
 4253 02d8 7C       		.byte	124
 4254 02d9 54       		.byte	84
 4255 02da 7C       		.byte	124
 4256 02db 0A       		.byte	10
 4257 02dc 09       		.byte	9
 4258 02dd 7F       		.byte	127
 4259 02de 49       		.byte	73
 4260 02df 32       		.byte	50
ARM GAS  C:\Users\PC\AppData\Local\Temp\ccF7GaWd.s 			page 98


 4261 02e0 49       		.byte	73
 4262 02e1 49       		.byte	73
 4263 02e2 49       		.byte	73
 4264 02e3 32       		.byte	50
 4265 02e4 3A       		.byte	58
 4266 02e5 44       		.byte	68
 4267 02e6 44       		.byte	68
 4268 02e7 44       		.byte	68
 4269 02e8 3A       		.byte	58
 4270 02e9 32       		.byte	50
 4271 02ea 4A       		.byte	74
 4272 02eb 48       		.byte	72
 4273 02ec 48       		.byte	72
 4274 02ed 30       		.byte	48
 4275 02ee 3A       		.byte	58
 4276 02ef 41       		.byte	65
 4277 02f0 41       		.byte	65
 4278 02f1 21       		.byte	33
 4279 02f2 7A       		.byte	122
 4280 02f3 3A       		.byte	58
 4281 02f4 42       		.byte	66
 4282 02f5 40       		.byte	64
 4283 02f6 20       		.byte	32
 4284 02f7 78       		.byte	120
 4285 02f8 00       		.byte	0
 4286 02f9 9D       		.byte	-99
 4287 02fa A0       		.byte	-96
 4288 02fb A0       		.byte	-96
 4289 02fc 7D       		.byte	125
 4290 02fd 3D       		.byte	61
 4291 02fe 42       		.byte	66
 4292 02ff 42       		.byte	66
 4293 0300 42       		.byte	66
 4294 0301 3D       		.byte	61
 4295 0302 3D       		.byte	61
 4296 0303 40       		.byte	64
 4297 0304 40       		.byte	64
 4298 0305 40       		.byte	64
 4299 0306 3D       		.byte	61
 4300 0307 3C       		.byte	60
 4301 0308 24       		.byte	36
 4302 0309 FF       		.byte	-1
 4303 030a 24       		.byte	36
 4304 030b 24       		.byte	36
 4305 030c 48       		.byte	72
 4306 030d 7E       		.byte	126
 4307 030e 49       		.byte	73
 4308 030f 43       		.byte	67
 4309 0310 66       		.byte	102
 4310 0311 2B       		.byte	43
 4311 0312 2F       		.byte	47
 4312 0313 FC       		.byte	-4
 4313 0314 2F       		.byte	47
 4314 0315 2B       		.byte	43
 4315 0316 FF       		.byte	-1
 4316 0317 09       		.byte	9
 4317 0318 29       		.byte	41
ARM GAS  C:\Users\PC\AppData\Local\Temp\ccF7GaWd.s 			page 99


 4318 0319 F6       		.byte	-10
 4319 031a 20       		.byte	32
 4320 031b C0       		.byte	-64
 4321 031c 88       		.byte	-120
 4322 031d 7E       		.byte	126
 4323 031e 09       		.byte	9
 4324 031f 03       		.byte	3
 4325 0320 20       		.byte	32
 4326 0321 54       		.byte	84
 4327 0322 54       		.byte	84
 4328 0323 79       		.byte	121
 4329 0324 41       		.byte	65
 4330 0325 00       		.byte	0
 4331 0326 00       		.byte	0
 4332 0327 44       		.byte	68
 4333 0328 7D       		.byte	125
 4334 0329 41       		.byte	65
 4335 032a 30       		.byte	48
 4336 032b 48       		.byte	72
 4337 032c 48       		.byte	72
 4338 032d 4A       		.byte	74
 4339 032e 32       		.byte	50
 4340 032f 38       		.byte	56
 4341 0330 40       		.byte	64
 4342 0331 40       		.byte	64
 4343 0332 22       		.byte	34
 4344 0333 7A       		.byte	122
 4345 0334 00       		.byte	0
 4346 0335 7A       		.byte	122
 4347 0336 0A       		.byte	10
 4348 0337 0A       		.byte	10
 4349 0338 72       		.byte	114
 4350 0339 7D       		.byte	125
 4351 033a 0D       		.byte	13
 4352 033b 19       		.byte	25
 4353 033c 31       		.byte	49
 4354 033d 7D       		.byte	125
 4355 033e 26       		.byte	38
 4356 033f 29       		.byte	41
 4357 0340 29       		.byte	41
 4358 0341 2F       		.byte	47
 4359 0342 28       		.byte	40
 4360 0343 26       		.byte	38
 4361 0344 29       		.byte	41
 4362 0345 29       		.byte	41
 4363 0346 29       		.byte	41
 4364 0347 26       		.byte	38
 4365 0348 30       		.byte	48
 4366 0349 48       		.byte	72
 4367 034a 4D       		.byte	77
 4368 034b 40       		.byte	64
 4369 034c 20       		.byte	32
 4370 034d 38       		.byte	56
 4371 034e 08       		.byte	8
 4372 034f 08       		.byte	8
 4373 0350 08       		.byte	8
 4374 0351 08       		.byte	8
ARM GAS  C:\Users\PC\AppData\Local\Temp\ccF7GaWd.s 			page 100


 4375 0352 08       		.byte	8
 4376 0353 08       		.byte	8
 4377 0354 08       		.byte	8
 4378 0355 08       		.byte	8
 4379 0356 38       		.byte	56
 4380 0357 2F       		.byte	47
 4381 0358 10       		.byte	16
 4382 0359 C8       		.byte	-56
 4383 035a AC       		.byte	-84
 4384 035b BA       		.byte	-70
 4385 035c 2F       		.byte	47
 4386 035d 10       		.byte	16
 4387 035e 28       		.byte	40
 4388 035f 34       		.byte	52
 4389 0360 FA       		.byte	-6
 4390 0361 00       		.byte	0
 4391 0362 00       		.byte	0
 4392 0363 7B       		.byte	123
 4393 0364 00       		.byte	0
 4394 0365 00       		.byte	0
 4395 0366 08       		.byte	8
 4396 0367 14       		.byte	20
 4397 0368 2A       		.byte	42
 4398 0369 14       		.byte	20
 4399 036a 22       		.byte	34
 4400 036b 22       		.byte	34
 4401 036c 14       		.byte	20
 4402 036d 2A       		.byte	42
 4403 036e 14       		.byte	20
 4404 036f 08       		.byte	8
 4405 0370 55       		.byte	85
 4406 0371 00       		.byte	0
 4407 0372 55       		.byte	85
 4408 0373 00       		.byte	0
 4409 0374 55       		.byte	85
 4410 0375 AA       		.byte	-86
 4411 0376 55       		.byte	85
 4412 0377 AA       		.byte	-86
 4413 0378 55       		.byte	85
 4414 0379 AA       		.byte	-86
 4415 037a FF       		.byte	-1
 4416 037b 55       		.byte	85
 4417 037c FF       		.byte	-1
 4418 037d 55       		.byte	85
 4419 037e FF       		.byte	-1
 4420 037f 00       		.byte	0
 4421 0380 00       		.byte	0
 4422 0381 00       		.byte	0
 4423 0382 FF       		.byte	-1
 4424 0383 00       		.byte	0
 4425 0384 10       		.byte	16
 4426 0385 10       		.byte	16
 4427 0386 10       		.byte	16
 4428 0387 FF       		.byte	-1
 4429 0388 00       		.byte	0
 4430 0389 14       		.byte	20
 4431 038a 14       		.byte	20
ARM GAS  C:\Users\PC\AppData\Local\Temp\ccF7GaWd.s 			page 101


 4432 038b 14       		.byte	20
 4433 038c FF       		.byte	-1
 4434 038d 00       		.byte	0
 4435 038e 10       		.byte	16
 4436 038f 10       		.byte	16
 4437 0390 FF       		.byte	-1
 4438 0391 00       		.byte	0
 4439 0392 FF       		.byte	-1
 4440 0393 10       		.byte	16
 4441 0394 10       		.byte	16
 4442 0395 F0       		.byte	-16
 4443 0396 10       		.byte	16
 4444 0397 F0       		.byte	-16
 4445 0398 14       		.byte	20
 4446 0399 14       		.byte	20
 4447 039a 14       		.byte	20
 4448 039b FC       		.byte	-4
 4449 039c 00       		.byte	0
 4450 039d 14       		.byte	20
 4451 039e 14       		.byte	20
 4452 039f F7       		.byte	-9
 4453 03a0 00       		.byte	0
 4454 03a1 FF       		.byte	-1
 4455 03a2 00       		.byte	0
 4456 03a3 00       		.byte	0
 4457 03a4 FF       		.byte	-1
 4458 03a5 00       		.byte	0
 4459 03a6 FF       		.byte	-1
 4460 03a7 14       		.byte	20
 4461 03a8 14       		.byte	20
 4462 03a9 F4       		.byte	-12
 4463 03aa 04       		.byte	4
 4464 03ab FC       		.byte	-4
 4465 03ac 14       		.byte	20
 4466 03ad 14       		.byte	20
 4467 03ae 17       		.byte	23
 4468 03af 10       		.byte	16
 4469 03b0 1F       		.byte	31
 4470 03b1 10       		.byte	16
 4471 03b2 10       		.byte	16
 4472 03b3 1F       		.byte	31
 4473 03b4 10       		.byte	16
 4474 03b5 1F       		.byte	31
 4475 03b6 14       		.byte	20
 4476 03b7 14       		.byte	20
 4477 03b8 14       		.byte	20
 4478 03b9 1F       		.byte	31
 4479 03ba 00       		.byte	0
 4480 03bb 10       		.byte	16
 4481 03bc 10       		.byte	16
 4482 03bd 10       		.byte	16
 4483 03be F0       		.byte	-16
 4484 03bf 00       		.byte	0
 4485 03c0 00       		.byte	0
 4486 03c1 00       		.byte	0
 4487 03c2 00       		.byte	0
 4488 03c3 1F       		.byte	31
ARM GAS  C:\Users\PC\AppData\Local\Temp\ccF7GaWd.s 			page 102


 4489 03c4 10       		.byte	16
 4490 03c5 10       		.byte	16
 4491 03c6 10       		.byte	16
 4492 03c7 10       		.byte	16
 4493 03c8 1F       		.byte	31
 4494 03c9 10       		.byte	16
 4495 03ca 10       		.byte	16
 4496 03cb 10       		.byte	16
 4497 03cc 10       		.byte	16
 4498 03cd F0       		.byte	-16
 4499 03ce 10       		.byte	16
 4500 03cf 00       		.byte	0
 4501 03d0 00       		.byte	0
 4502 03d1 00       		.byte	0
 4503 03d2 FF       		.byte	-1
 4504 03d3 10       		.byte	16
 4505 03d4 10       		.byte	16
 4506 03d5 10       		.byte	16
 4507 03d6 10       		.byte	16
 4508 03d7 10       		.byte	16
 4509 03d8 10       		.byte	16
 4510 03d9 10       		.byte	16
 4511 03da 10       		.byte	16
 4512 03db 10       		.byte	16
 4513 03dc FF       		.byte	-1
 4514 03dd 10       		.byte	16
 4515 03de 00       		.byte	0
 4516 03df 00       		.byte	0
 4517 03e0 00       		.byte	0
 4518 03e1 FF       		.byte	-1
 4519 03e2 14       		.byte	20
 4520 03e3 00       		.byte	0
 4521 03e4 00       		.byte	0
 4522 03e5 FF       		.byte	-1
 4523 03e6 00       		.byte	0
 4524 03e7 FF       		.byte	-1
 4525 03e8 00       		.byte	0
 4526 03e9 00       		.byte	0
 4527 03ea 1F       		.byte	31
 4528 03eb 10       		.byte	16
 4529 03ec 17       		.byte	23
 4530 03ed 00       		.byte	0
 4531 03ee 00       		.byte	0
 4532 03ef FC       		.byte	-4
 4533 03f0 04       		.byte	4
 4534 03f1 F4       		.byte	-12
 4535 03f2 14       		.byte	20
 4536 03f3 14       		.byte	20
 4537 03f4 17       		.byte	23
 4538 03f5 10       		.byte	16
 4539 03f6 17       		.byte	23
 4540 03f7 14       		.byte	20
 4541 03f8 14       		.byte	20
 4542 03f9 F4       		.byte	-12
 4543 03fa 04       		.byte	4
 4544 03fb F4       		.byte	-12
 4545 03fc 00       		.byte	0
ARM GAS  C:\Users\PC\AppData\Local\Temp\ccF7GaWd.s 			page 103


 4546 03fd 00       		.byte	0
 4547 03fe FF       		.byte	-1
 4548 03ff 00       		.byte	0
 4549 0400 F7       		.byte	-9
 4550 0401 14       		.byte	20
 4551 0402 14       		.byte	20
 4552 0403 14       		.byte	20
 4553 0404 14       		.byte	20
 4554 0405 14       		.byte	20
 4555 0406 14       		.byte	20
 4556 0407 14       		.byte	20
 4557 0408 F7       		.byte	-9
 4558 0409 00       		.byte	0
 4559 040a F7       		.byte	-9
 4560 040b 14       		.byte	20
 4561 040c 14       		.byte	20
 4562 040d 14       		.byte	20
 4563 040e 17       		.byte	23
 4564 040f 14       		.byte	20
 4565 0410 10       		.byte	16
 4566 0411 10       		.byte	16
 4567 0412 1F       		.byte	31
 4568 0413 10       		.byte	16
 4569 0414 1F       		.byte	31
 4570 0415 14       		.byte	20
 4571 0416 14       		.byte	20
 4572 0417 14       		.byte	20
 4573 0418 F4       		.byte	-12
 4574 0419 14       		.byte	20
 4575 041a 10       		.byte	16
 4576 041b 10       		.byte	16
 4577 041c F0       		.byte	-16
 4578 041d 10       		.byte	16
 4579 041e F0       		.byte	-16
 4580 041f 00       		.byte	0
 4581 0420 00       		.byte	0
 4582 0421 1F       		.byte	31
 4583 0422 10       		.byte	16
 4584 0423 1F       		.byte	31
 4585 0424 00       		.byte	0
 4586 0425 00       		.byte	0
 4587 0426 00       		.byte	0
 4588 0427 1F       		.byte	31
 4589 0428 14       		.byte	20
 4590 0429 00       		.byte	0
 4591 042a 00       		.byte	0
 4592 042b 00       		.byte	0
 4593 042c FC       		.byte	-4
 4594 042d 14       		.byte	20
 4595 042e 00       		.byte	0
 4596 042f 00       		.byte	0
 4597 0430 F0       		.byte	-16
 4598 0431 10       		.byte	16
 4599 0432 F0       		.byte	-16
 4600 0433 10       		.byte	16
 4601 0434 10       		.byte	16
 4602 0435 FF       		.byte	-1
ARM GAS  C:\Users\PC\AppData\Local\Temp\ccF7GaWd.s 			page 104


 4603 0436 10       		.byte	16
 4604 0437 FF       		.byte	-1
 4605 0438 14       		.byte	20
 4606 0439 14       		.byte	20
 4607 043a 14       		.byte	20
 4608 043b FF       		.byte	-1
 4609 043c 14       		.byte	20
 4610 043d 10       		.byte	16
 4611 043e 10       		.byte	16
 4612 043f 10       		.byte	16
 4613 0440 1F       		.byte	31
 4614 0441 00       		.byte	0
 4615 0442 00       		.byte	0
 4616 0443 00       		.byte	0
 4617 0444 00       		.byte	0
 4618 0445 F0       		.byte	-16
 4619 0446 10       		.byte	16
 4620 0447 FF       		.byte	-1
 4621 0448 FF       		.byte	-1
 4622 0449 FF       		.byte	-1
 4623 044a FF       		.byte	-1
 4624 044b FF       		.byte	-1
 4625 044c F0       		.byte	-16
 4626 044d F0       		.byte	-16
 4627 044e F0       		.byte	-16
 4628 044f F0       		.byte	-16
 4629 0450 F0       		.byte	-16
 4630 0451 FF       		.byte	-1
 4631 0452 FF       		.byte	-1
 4632 0453 FF       		.byte	-1
 4633 0454 00       		.byte	0
 4634 0455 00       		.byte	0
 4635 0456 00       		.byte	0
 4636 0457 00       		.byte	0
 4637 0458 00       		.byte	0
 4638 0459 FF       		.byte	-1
 4639 045a FF       		.byte	-1
 4640 045b 0F       		.byte	15
 4641 045c 0F       		.byte	15
 4642 045d 0F       		.byte	15
 4643 045e 0F       		.byte	15
 4644 045f 0F       		.byte	15
 4645 0460 38       		.byte	56
 4646 0461 44       		.byte	68
 4647 0462 44       		.byte	68
 4648 0463 38       		.byte	56
 4649 0464 44       		.byte	68
 4650 0465 FC       		.byte	-4
 4651 0466 4A       		.byte	74
 4652 0467 4A       		.byte	74
 4653 0468 4A       		.byte	74
 4654 0469 34       		.byte	52
 4655 046a 7E       		.byte	126
 4656 046b 02       		.byte	2
 4657 046c 02       		.byte	2
 4658 046d 06       		.byte	6
 4659 046e 06       		.byte	6
ARM GAS  C:\Users\PC\AppData\Local\Temp\ccF7GaWd.s 			page 105


 4660 046f 02       		.byte	2
 4661 0470 7E       		.byte	126
 4662 0471 02       		.byte	2
 4663 0472 7E       		.byte	126
 4664 0473 02       		.byte	2
 4665 0474 63       		.byte	99
 4666 0475 55       		.byte	85
 4667 0476 49       		.byte	73
 4668 0477 41       		.byte	65
 4669 0478 63       		.byte	99
 4670 0479 38       		.byte	56
 4671 047a 44       		.byte	68
 4672 047b 44       		.byte	68
 4673 047c 3C       		.byte	60
 4674 047d 04       		.byte	4
 4675 047e 40       		.byte	64
 4676 047f 7E       		.byte	126
 4677 0480 20       		.byte	32
 4678 0481 1E       		.byte	30
 4679 0482 20       		.byte	32
 4680 0483 06       		.byte	6
 4681 0484 02       		.byte	2
 4682 0485 7E       		.byte	126
 4683 0486 02       		.byte	2
 4684 0487 02       		.byte	2
 4685 0488 99       		.byte	-103
 4686 0489 A5       		.byte	-91
 4687 048a E7       		.byte	-25
 4688 048b A5       		.byte	-91
 4689 048c 99       		.byte	-103
 4690 048d 1C       		.byte	28
 4691 048e 2A       		.byte	42
 4692 048f 49       		.byte	73
 4693 0490 2A       		.byte	42
 4694 0491 1C       		.byte	28
 4695 0492 4C       		.byte	76
 4696 0493 72       		.byte	114
 4697 0494 01       		.byte	1
 4698 0495 72       		.byte	114
 4699 0496 4C       		.byte	76
 4700 0497 30       		.byte	48
 4701 0498 4A       		.byte	74
 4702 0499 4D       		.byte	77
 4703 049a 4D       		.byte	77
 4704 049b 30       		.byte	48
 4705 049c 30       		.byte	48
 4706 049d 48       		.byte	72
 4707 049e 78       		.byte	120
 4708 049f 48       		.byte	72
 4709 04a0 30       		.byte	48
 4710 04a1 BC       		.byte	-68
 4711 04a2 62       		.byte	98
 4712 04a3 5A       		.byte	90
 4713 04a4 46       		.byte	70
 4714 04a5 3D       		.byte	61
 4715 04a6 3E       		.byte	62
 4716 04a7 49       		.byte	73
ARM GAS  C:\Users\PC\AppData\Local\Temp\ccF7GaWd.s 			page 106


 4717 04a8 49       		.byte	73
 4718 04a9 49       		.byte	73
 4719 04aa 00       		.byte	0
 4720 04ab 7E       		.byte	126
 4721 04ac 01       		.byte	1
 4722 04ad 01       		.byte	1
 4723 04ae 01       		.byte	1
 4724 04af 7E       		.byte	126
 4725 04b0 2A       		.byte	42
 4726 04b1 2A       		.byte	42
 4727 04b2 2A       		.byte	42
 4728 04b3 2A       		.byte	42
 4729 04b4 2A       		.byte	42
 4730 04b5 44       		.byte	68
 4731 04b6 44       		.byte	68
 4732 04b7 5F       		.byte	95
 4733 04b8 44       		.byte	68
 4734 04b9 44       		.byte	68
 4735 04ba 40       		.byte	64
 4736 04bb 51       		.byte	81
 4737 04bc 4A       		.byte	74
 4738 04bd 44       		.byte	68
 4739 04be 40       		.byte	64
 4740 04bf 40       		.byte	64
 4741 04c0 44       		.byte	68
 4742 04c1 4A       		.byte	74
 4743 04c2 51       		.byte	81
 4744 04c3 40       		.byte	64
 4745 04c4 00       		.byte	0
 4746 04c5 00       		.byte	0
 4747 04c6 FF       		.byte	-1
 4748 04c7 01       		.byte	1
 4749 04c8 03       		.byte	3
 4750 04c9 E0       		.byte	-32
 4751 04ca 80       		.byte	-128
 4752 04cb FF       		.byte	-1
 4753 04cc 00       		.byte	0
 4754 04cd 00       		.byte	0
 4755 04ce 08       		.byte	8
 4756 04cf 08       		.byte	8
 4757 04d0 6B       		.byte	107
 4758 04d1 6B       		.byte	107
 4759 04d2 08       		.byte	8
 4760 04d3 36       		.byte	54
 4761 04d4 12       		.byte	18
 4762 04d5 36       		.byte	54
 4763 04d6 24       		.byte	36
 4764 04d7 36       		.byte	54
 4765 04d8 06       		.byte	6
 4766 04d9 0F       		.byte	15
 4767 04da 09       		.byte	9
 4768 04db 0F       		.byte	15
 4769 04dc 06       		.byte	6
 4770 04dd 00       		.byte	0
 4771 04de 00       		.byte	0
 4772 04df 18       		.byte	24
 4773 04e0 18       		.byte	24
ARM GAS  C:\Users\PC\AppData\Local\Temp\ccF7GaWd.s 			page 107


 4774 04e1 00       		.byte	0
 4775 04e2 00       		.byte	0
 4776 04e3 00       		.byte	0
 4777 04e4 10       		.byte	16
 4778 04e5 10       		.byte	16
 4779 04e6 00       		.byte	0
 4780 04e7 30       		.byte	48
 4781 04e8 40       		.byte	64
 4782 04e9 FF       		.byte	-1
 4783 04ea 01       		.byte	1
 4784 04eb 01       		.byte	1
 4785 04ec 00       		.byte	0
 4786 04ed 1F       		.byte	31
 4787 04ee 01       		.byte	1
 4788 04ef 01       		.byte	1
 4789 04f0 1E       		.byte	30
 4790 04f1 00       		.byte	0
 4791 04f2 19       		.byte	25
 4792 04f3 1D       		.byte	29
 4793 04f4 17       		.byte	23
 4794 04f5 12       		.byte	18
 4795 04f6 00       		.byte	0
 4796 04f7 3C       		.byte	60
 4797 04f8 3C       		.byte	60
 4798 04f9 3C       		.byte	60
 4799 04fa 3C       		.byte	60
 4800 04fb 00       		.byte	0
 4801 04fc 00       		.byte	0
 4802 04fd 00       		.byte	0
 4803 04fe 00       		.byte	0
 4804 04ff 00       		.byte	0
 4805              		.data
 4806              		.align	1
 4807              		.set	.LANCHOR1,. + 0
 4808              		.type	wrap, %object
 4809              		.size	wrap, 1
 4810              	wrap:
 4811 0000 01       		.byte	1
 4812              		.type	textsize, %object
 4813              		.size	textsize, 1
 4814              	textsize:
 4815 0001 01       		.byte	1
 4816              		.type	textcolor, %object
 4817              		.size	textcolor, 2
 4818              	textcolor:
 4819 0002 FFFF     		.short	-1
 4820              		.type	textbgcolor, %object
 4821              		.size	textbgcolor, 2
 4822              	textbgcolor:
 4823 0004 FFFF     		.short	-1
 4824              		.bss
 4825              		.align	1
 4826              		.set	.LANCHOR0,. + 0
 4827              		.type	cursor_x, %object
 4828              		.size	cursor_x, 2
 4829              	cursor_x:
 4830 0000 0000     		.space	2
ARM GAS  C:\Users\PC\AppData\Local\Temp\ccF7GaWd.s 			page 108


 4831              		.type	cursor_y, %object
 4832              		.size	cursor_y, 2
 4833              	cursor_y:
 4834 0002 0000     		.space	2
 4835              		.text
 4836              	.Letext0:
 4837              		.file 2 "c:\\program files (x86)\\cypress\\psoc creator\\4.4\\psoc creator\\import\\gnu\\arm\\5.4.
 4838              		.file 3 "c:\\program files (x86)\\cypress\\psoc creator\\4.4\\psoc creator\\import\\gnu\\arm\\5.4.
 4839              		.file 4 "ssd1306.h"
 4840              		.file 5 "<built-in>"
 4841              		.section	.debug_info,"",%progbits
 4842              	.Ldebug_info0:
 4843 0000 39190000 		.4byte	0x1939
 4844 0004 0400     		.2byte	0x4
 4845 0006 00000000 		.4byte	.Ldebug_abbrev0
 4846 000a 04       		.byte	0x4
 4847 000b 01       		.uleb128 0x1
 4848 000c B9030000 		.4byte	.LASF96
 4849 0010 0C       		.byte	0xc
 4850 0011 5F050000 		.4byte	.LASF97
 4851 0015 A7000000 		.4byte	.LASF98
 4852 0019 60010000 		.4byte	.Ldebug_ranges0+0x160
 4853 001d 00000000 		.4byte	0
 4854 0021 00000000 		.4byte	.Ldebug_line0
 4855 0025 02       		.uleb128 0x2
 4856 0026 01       		.byte	0x1
 4857 0027 06       		.byte	0x6
 4858 0028 EE040000 		.4byte	.LASF0
 4859 002c 03       		.uleb128 0x3
 4860 002d 9B030000 		.4byte	.LASF2
 4861 0031 02       		.byte	0x2
 4862 0032 1D       		.byte	0x1d
 4863 0033 37000000 		.4byte	0x37
 4864 0037 02       		.uleb128 0x2
 4865 0038 01       		.byte	0x1
 4866 0039 08       		.byte	0x8
 4867 003a 7E040000 		.4byte	.LASF1
 4868 003e 03       		.uleb128 0x3
 4869 003f 48020000 		.4byte	.LASF3
 4870 0043 02       		.byte	0x2
 4871 0044 29       		.byte	0x29
 4872 0045 49000000 		.4byte	0x49
 4873 0049 02       		.uleb128 0x2
 4874 004a 02       		.byte	0x2
 4875 004b 05       		.byte	0x5
 4876 004c 08030000 		.4byte	.LASF4
 4877 0050 03       		.uleb128 0x3
 4878 0051 74010000 		.4byte	.LASF5
 4879 0055 02       		.byte	0x2
 4880 0056 2B       		.byte	0x2b
 4881 0057 5B000000 		.4byte	0x5b
 4882 005b 02       		.uleb128 0x2
 4883 005c 02       		.byte	0x2
 4884 005d 07       		.byte	0x7
 4885 005e 00050000 		.4byte	.LASF6
 4886 0062 03       		.uleb128 0x3
 4887 0063 33000000 		.4byte	.LASF7
ARM GAS  C:\Users\PC\AppData\Local\Temp\ccF7GaWd.s 			page 109


 4888 0067 02       		.byte	0x2
 4889 0068 3F       		.byte	0x3f
 4890 0069 6D000000 		.4byte	0x6d
 4891 006d 02       		.uleb128 0x2
 4892 006e 04       		.byte	0x4
 4893 006f 05       		.byte	0x5
 4894 0070 3D030000 		.4byte	.LASF8
 4895 0074 02       		.uleb128 0x2
 4896 0075 04       		.byte	0x4
 4897 0076 07       		.byte	0x7
 4898 0077 5F040000 		.4byte	.LASF9
 4899 007b 02       		.uleb128 0x2
 4900 007c 08       		.byte	0x8
 4901 007d 05       		.byte	0x5
 4902 007e 2B020000 		.4byte	.LASF10
 4903 0082 02       		.uleb128 0x2
 4904 0083 08       		.byte	0x8
 4905 0084 07       		.byte	0x7
 4906 0085 55010000 		.4byte	.LASF11
 4907 0089 04       		.uleb128 0x4
 4908 008a 04       		.byte	0x4
 4909 008b 05       		.byte	0x5
 4910 008c 696E7400 		.ascii	"int\000"
 4911 0090 02       		.uleb128 0x2
 4912 0091 04       		.byte	0x4
 4913 0092 07       		.byte	0x7
 4914 0093 20000000 		.4byte	.LASF12
 4915 0097 03       		.uleb128 0x3
 4916 0098 16020000 		.4byte	.LASF13
 4917 009c 03       		.byte	0x3
 4918 009d 18       		.byte	0x18
 4919 009e 2C000000 		.4byte	0x2c
 4920 00a2 03       		.uleb128 0x3
 4921 00a3 42010000 		.4byte	.LASF14
 4922 00a7 03       		.byte	0x3
 4923 00a8 20       		.byte	0x20
 4924 00a9 3E000000 		.4byte	0x3e
 4925 00ad 03       		.uleb128 0x3
 4926 00ae E6020000 		.4byte	.LASF15
 4927 00b2 03       		.byte	0x3
 4928 00b3 24       		.byte	0x24
 4929 00b4 50000000 		.4byte	0x50
 4930 00b8 03       		.uleb128 0x3
 4931 00b9 71040000 		.4byte	.LASF16
 4932 00bd 03       		.byte	0x3
 4933 00be 2C       		.byte	0x2c
 4934 00bf 62000000 		.4byte	0x62
 4935 00c3 02       		.uleb128 0x2
 4936 00c4 04       		.byte	0x4
 4937 00c5 04       		.byte	0x4
 4938 00c6 21010000 		.4byte	.LASF17
 4939 00ca 02       		.uleb128 0x2
 4940 00cb 08       		.byte	0x8
 4941 00cc 04       		.byte	0x4
 4942 00cd 13050000 		.4byte	.LASF18
 4943 00d1 02       		.uleb128 0x2
 4944 00d2 01       		.byte	0x1
ARM GAS  C:\Users\PC\AppData\Local\Temp\ccF7GaWd.s 			page 110


 4945 00d3 08       		.byte	0x8
 4946 00d4 07020000 		.4byte	.LASF19
 4947 00d8 02       		.uleb128 0x2
 4948 00d9 08       		.byte	0x8
 4949 00da 04       		.byte	0x4
 4950 00db DA020000 		.4byte	.LASF20
 4951 00df 02       		.uleb128 0x2
 4952 00e0 04       		.byte	0x4
 4953 00e1 07       		.byte	0x7
 4954 00e2 56040000 		.4byte	.LASF21
 4955 00e6 05       		.uleb128 0x5
 4956 00e7 04       		.byte	0x4
 4957 00e8 D1000000 		.4byte	0xd1
 4958 00ec 06       		.uleb128 0x6
 4959 00ed 2E050000 		.4byte	.LASF23
 4960 00f1 01       		.byte	0x1
 4961 00f2 9601     		.2byte	0x196
 4962 00f4 01       		.byte	0x1
 4963 00f5 4E010000 		.4byte	0x14e
 4964 00f9 07       		.uleb128 0x7
 4965 00fa 783000   		.ascii	"x0\000"
 4966 00fd 01       		.byte	0x1
 4967 00fe 9601     		.2byte	0x196
 4968 0100 AD000000 		.4byte	0xad
 4969 0104 07       		.uleb128 0x7
 4970 0105 793000   		.ascii	"y0\000"
 4971 0108 01       		.byte	0x1
 4972 0109 9601     		.2byte	0x196
 4973 010b AD000000 		.4byte	0xad
 4974 010f 07       		.uleb128 0x7
 4975 0110 783100   		.ascii	"x1\000"
 4976 0113 01       		.byte	0x1
 4977 0114 9601     		.2byte	0x196
 4978 0116 AD000000 		.4byte	0xad
 4979 011a 07       		.uleb128 0x7
 4980 011b 793100   		.ascii	"y1\000"
 4981 011e 01       		.byte	0x1
 4982 011f 9601     		.2byte	0x196
 4983 0121 AD000000 		.4byte	0xad
 4984 0125 08       		.uleb128 0x8
 4985 0126 6B030000 		.4byte	.LASF22
 4986 012a 01       		.byte	0x1
 4987 012b 9601     		.2byte	0x196
 4988 012d AD000000 		.4byte	0xad
 4989 0131 09       		.uleb128 0x9
 4990 0132 41010000 		.4byte	0x141
 4991 0136 0A       		.uleb128 0xa
 4992 0137 7400     		.ascii	"t\000"
 4993 0139 01       		.byte	0x1
 4994 013a 9901     		.2byte	0x199
 4995 013c A2000000 		.4byte	0xa2
 4996 0140 00       		.byte	0
 4997 0141 0B       		.uleb128 0xb
 4998 0142 0A       		.uleb128 0xa
 4999 0143 7400     		.ascii	"t\000"
 5000 0145 01       		.byte	0x1
 5001 0146 9C01     		.2byte	0x19c
ARM GAS  C:\Users\PC\AppData\Local\Temp\ccF7GaWd.s 			page 111


 5002 0148 A2000000 		.4byte	0xa2
 5003 014c 00       		.byte	0
 5004 014d 00       		.byte	0
 5005 014e 06       		.uleb128 0x6
 5006 014f 13010000 		.4byte	.LASF24
 5007 0153 01       		.byte	0x1
 5008 0154 EA02     		.2byte	0x2ea
 5009 0156 01       		.byte	0x1
 5010 0157 8C010000 		.4byte	0x18c
 5011 015b 07       		.uleb128 0x7
 5012 015c 6300     		.ascii	"c\000"
 5013 015e 01       		.byte	0x1
 5014 015f EA02     		.2byte	0x2ea
 5015 0161 97000000 		.4byte	0x97
 5016 0165 0B       		.uleb128 0xb
 5017 0166 0A       		.uleb128 0xa
 5018 0167 6900     		.ascii	"i\000"
 5019 0169 01       		.byte	0x1
 5020 016a F702     		.2byte	0x2f7
 5021 016c 97000000 		.4byte	0x97
 5022 0170 0B       		.uleb128 0xb
 5023 0171 0C       		.uleb128 0xc
 5024 0172 9A040000 		.4byte	.LASF25
 5025 0176 01       		.byte	0x1
 5026 0177 F802     		.2byte	0x2f8
 5027 0179 97000000 		.4byte	0x97
 5028 017d 0B       		.uleb128 0xb
 5029 017e 0A       		.uleb128 0xa
 5030 017f 6A00     		.ascii	"j\000"
 5031 0181 01       		.byte	0x1
 5032 0182 F902     		.2byte	0x2f9
 5033 0184 97000000 		.4byte	0x97
 5034 0188 00       		.byte	0
 5035 0189 00       		.byte	0
 5036 018a 00       		.byte	0
 5037 018b 00       		.byte	0
 5038 018c 06       		.uleb128 0x6
 5039 018d 85030000 		.4byte	.LASF26
 5040 0191 01       		.byte	0x1
 5041 0192 9D03     		.2byte	0x39d
 5042 0194 01       		.byte	0x1
 5043 0195 AE010000 		.4byte	0x1ae
 5044 0199 07       		.uleb128 0x7
 5045 019a 6300     		.ascii	"c\000"
 5046 019c 01       		.byte	0x1
 5047 019d 9D03     		.2byte	0x39d
 5048 019f AD000000 		.4byte	0xad
 5049 01a3 07       		.uleb128 0x7
 5050 01a4 6200     		.ascii	"b\000"
 5051 01a6 01       		.byte	0x1
 5052 01a7 9D03     		.2byte	0x39d
 5053 01a9 AD000000 		.4byte	0xad
 5054 01ad 00       		.byte	0
 5055 01ae 06       		.uleb128 0x6
 5056 01af D0040000 		.4byte	.LASF27
 5057 01b3 01       		.byte	0x1
 5058 01b4 7303     		.2byte	0x373
ARM GAS  C:\Users\PC\AppData\Local\Temp\ccF7GaWd.s 			page 112


 5059 01b6 01       		.byte	0x1
 5060 01b7 D0010000 		.4byte	0x1d0
 5061 01bb 07       		.uleb128 0x7
 5062 01bc 7800     		.ascii	"x\000"
 5063 01be 01       		.byte	0x1
 5064 01bf 7303     		.2byte	0x373
 5065 01c1 AD000000 		.4byte	0xad
 5066 01c5 07       		.uleb128 0x7
 5067 01c6 7900     		.ascii	"y\000"
 5068 01c8 01       		.byte	0x1
 5069 01c9 7303     		.2byte	0x373
 5070 01cb AD000000 		.4byte	0xad
 5071 01cf 00       		.byte	0
 5072 01d0 0D       		.uleb128 0xd
 5073 01d1 24050000 		.4byte	.LASF31
 5074 01d5 01       		.byte	0x1
 5075 01d6 6501     		.2byte	0x165
 5076 01d8 00000000 		.4byte	.LFB33
 5077 01dc B6000000 		.4byte	.LFE33-.LFB33
 5078 01e0 01       		.uleb128 0x1
 5079 01e1 9C       		.byte	0x9c
 5080 01e2 D8020000 		.4byte	0x2d8
 5081 01e6 0E       		.uleb128 0xe
 5082 01e7 783000   		.ascii	"x0\000"
 5083 01ea 01       		.byte	0x1
 5084 01eb 6501     		.2byte	0x165
 5085 01ed AD000000 		.4byte	0xad
 5086 01f1 00000000 		.4byte	.LLST0
 5087 01f5 0E       		.uleb128 0xe
 5088 01f6 793000   		.ascii	"y0\000"
 5089 01f9 01       		.byte	0x1
 5090 01fa 6501     		.2byte	0x165
 5091 01fc AD000000 		.4byte	0xad
 5092 0200 34000000 		.4byte	.LLST1
 5093 0204 0E       		.uleb128 0xe
 5094 0205 783100   		.ascii	"x1\000"
 5095 0208 01       		.byte	0x1
 5096 0209 6501     		.2byte	0x165
 5097 020b AD000000 		.4byte	0xad
 5098 020f 76000000 		.4byte	.LLST2
 5099 0213 0E       		.uleb128 0xe
 5100 0214 793100   		.ascii	"y1\000"
 5101 0217 01       		.byte	0x1
 5102 0218 6501     		.2byte	0x165
 5103 021a AD000000 		.4byte	0xad
 5104 021e A2000000 		.4byte	.LLST3
 5105 0222 0F       		.uleb128 0xf
 5106 0223 6B030000 		.4byte	.LASF22
 5107 0227 01       		.byte	0x1
 5108 0228 6501     		.2byte	0x165
 5109 022a AD000000 		.4byte	0xad
 5110 022e CB000000 		.4byte	.LLST4
 5111 0232 10       		.uleb128 0x10
 5112 0233 25020000 		.4byte	.LASF28
 5113 0237 01       		.byte	0x1
 5114 0238 6601     		.2byte	0x166
 5115 023a D8020000 		.4byte	0x2d8
ARM GAS  C:\Users\PC\AppData\Local\Temp\ccF7GaWd.s 			page 113


 5116 023e F7000000 		.4byte	.LLST5
 5117 0242 11       		.uleb128 0x11
 5118 0243 61627300 		.ascii	"abs\000"
 5119 0247 05       		.byte	0x5
 5120 0248 00       		.byte	0
 5121 0249 89000000 		.4byte	0x89
 5122 024d 53020000 		.4byte	0x253
 5123 0251 12       		.uleb128 0x12
 5124 0252 00       		.byte	0
 5125 0253 13       		.uleb128 0x13
 5126 0254 647800   		.ascii	"dx\000"
 5127 0257 01       		.byte	0x1
 5128 0258 7101     		.2byte	0x171
 5129 025a A2000000 		.4byte	0xa2
 5130 025e 02       		.uleb128 0x2
 5131 025f 91       		.byte	0x91
 5132 0260 58       		.sleb128 -40
 5133 0261 13       		.uleb128 0x13
 5134 0262 647900   		.ascii	"dy\000"
 5135 0265 01       		.byte	0x1
 5136 0266 7101     		.2byte	0x171
 5137 0268 A2000000 		.4byte	0xa2
 5138 026c 02       		.uleb128 0x2
 5139 026d 91       		.byte	0x91
 5140 026e 60       		.sleb128 -32
 5141 026f 14       		.uleb128 0x14
 5142 0270 65727200 		.ascii	"err\000"
 5143 0274 01       		.byte	0x1
 5144 0275 7501     		.2byte	0x175
 5145 0277 A2000000 		.4byte	0xa2
 5146 027b 45010000 		.4byte	.LLST6
 5147 027f 15       		.uleb128 0x15
 5148 0280 A5030000 		.4byte	.LASF29
 5149 0284 01       		.byte	0x1
 5150 0285 7601     		.2byte	0x176
 5151 0287 A2000000 		.4byte	0xa2
 5152 028b 02       		.uleb128 0x2
 5153 028c 91       		.byte	0x91
 5154 028d 5C       		.sleb128 -36
 5155 028e 16       		.uleb128 0x16
 5156 028f 00000000 		.4byte	.Ldebug_ranges0+0
 5157 0293 A2020000 		.4byte	0x2a2
 5158 0297 0A       		.uleb128 0xa
 5159 0298 7400     		.ascii	"t\000"
 5160 029a 01       		.byte	0x1
 5161 029b 6801     		.2byte	0x168
 5162 029d A2000000 		.4byte	0xa2
 5163 02a1 00       		.byte	0
 5164 02a2 16       		.uleb128 0x16
 5165 02a3 18000000 		.4byte	.Ldebug_ranges0+0x18
 5166 02a7 B6020000 		.4byte	0x2b6
 5167 02ab 0A       		.uleb128 0xa
 5168 02ac 7400     		.ascii	"t\000"
 5169 02ae 01       		.byte	0x1
 5170 02af 6901     		.2byte	0x169
 5171 02b1 A2000000 		.4byte	0xa2
 5172 02b5 00       		.byte	0
ARM GAS  C:\Users\PC\AppData\Local\Temp\ccF7GaWd.s 			page 114


 5173 02b6 17       		.uleb128 0x17
 5174 02b7 40000000 		.4byte	.LBB15
 5175 02bb 04000000 		.4byte	.LBE15-.LBB15
 5176 02bf CE020000 		.4byte	0x2ce
 5177 02c3 0A       		.uleb128 0xa
 5178 02c4 7400     		.ascii	"t\000"
 5179 02c6 01       		.byte	0x1
 5180 02c7 6E01     		.2byte	0x16e
 5181 02c9 A2000000 		.4byte	0xa2
 5182 02cd 00       		.byte	0
 5183 02ce 18       		.uleb128 0x18
 5184 02cf 94000000 		.4byte	.LVL17
 5185 02d3 04190000 		.4byte	0x1904
 5186 02d7 00       		.byte	0
 5187 02d8 02       		.uleb128 0x2
 5188 02d9 01       		.byte	0x1
 5189 02da 02       		.byte	0x2
 5190 02db A9010000 		.4byte	.LASF30
 5191 02df 19       		.uleb128 0x19
 5192 02e0 EC000000 		.4byte	0xec
 5193 02e4 00000000 		.4byte	.LFB34
 5194 02e8 50000000 		.4byte	.LFE34-.LFB34
 5195 02ec 01       		.uleb128 0x1
 5196 02ed 9C       		.byte	0x9c
 5197 02ee 90030000 		.4byte	0x390
 5198 02f2 1A       		.uleb128 0x1a
 5199 02f3 F9000000 		.4byte	0xf9
 5200 02f7 63010000 		.4byte	.LLST7
 5201 02fb 1A       		.uleb128 0x1a
 5202 02fc 04010000 		.4byte	0x104
 5203 0300 C1010000 		.4byte	.LLST8
 5204 0304 1A       		.uleb128 0x1a
 5205 0305 0F010000 		.4byte	0x10f
 5206 0309 14020000 		.4byte	.LLST9
 5207 030d 1A       		.uleb128 0x1a
 5208 030e 1A010000 		.4byte	0x11a
 5209 0312 59020000 		.4byte	.LLST10
 5210 0316 1A       		.uleb128 0x1a
 5211 0317 25010000 		.4byte	0x125
 5212 031b AC020000 		.4byte	.LLST11
 5213 031f 17       		.uleb128 0x17
 5214 0320 0A000000 		.4byte	.LBB21
 5215 0324 1E000000 		.4byte	.LBE21-.LBB21
 5216 0328 6A030000 		.4byte	0x36a
 5217 032c 1A       		.uleb128 0x1a
 5218 032d 0F010000 		.4byte	0x10f
 5219 0331 D8020000 		.4byte	.LLST12
 5220 0335 1A       		.uleb128 0x1a
 5221 0336 25010000 		.4byte	0x125
 5222 033a F9020000 		.4byte	.LLST13
 5223 033e 1A       		.uleb128 0x1a
 5224 033f 1A010000 		.4byte	0x11a
 5225 0343 18030000 		.4byte	.LLST14
 5226 0347 1A       		.uleb128 0x1a
 5227 0348 04010000 		.4byte	0x104
 5228 034c 2B030000 		.4byte	.LLST15
 5229 0350 1A       		.uleb128 0x1a
ARM GAS  C:\Users\PC\AppData\Local\Temp\ccF7GaWd.s 			page 115


 5230 0351 F9000000 		.4byte	0xf9
 5231 0355 57030000 		.4byte	.LLST16
 5232 0359 1B       		.uleb128 0x1b
 5233 035a 26000000 		.4byte	.LVL41
 5234 035e 0F190000 		.4byte	0x190f
 5235 0362 1C       		.uleb128 0x1c
 5236 0363 01       		.uleb128 0x1
 5237 0364 53       		.byte	0x53
 5238 0365 02       		.uleb128 0x2
 5239 0366 74       		.byte	0x74
 5240 0367 00       		.sleb128 0
 5241 0368 00       		.byte	0
 5242 0369 00       		.byte	0
 5243 036a 1D       		.uleb128 0x1d
 5244 036b 46000000 		.4byte	.LVL49
 5245 036f 1A190000 		.4byte	0x191a
 5246 0373 7E030000 		.4byte	0x37e
 5247 0377 1C       		.uleb128 0x1c
 5248 0378 01       		.uleb128 0x1
 5249 0379 53       		.byte	0x53
 5250 037a 02       		.uleb128 0x2
 5251 037b 74       		.byte	0x74
 5252 037c 00       		.sleb128 0
 5253 037d 00       		.byte	0
 5254 037e 1B       		.uleb128 0x1b
 5255 037f 4E000000 		.4byte	.LVL51
 5256 0383 D0010000 		.4byte	0x1d0
 5257 0387 1C       		.uleb128 0x1c
 5258 0388 02       		.uleb128 0x2
 5259 0389 7D       		.byte	0x7d
 5260 038a 00       		.sleb128 0
 5261 038b 02       		.uleb128 0x2
 5262 038c 74       		.byte	0x74
 5263 038d 00       		.sleb128 0
 5264 038e 00       		.byte	0
 5265 038f 00       		.byte	0
 5266 0390 0D       		.uleb128 0xd
 5267 0391 58030000 		.4byte	.LASF32
 5268 0395 01       		.byte	0x1
 5269 0396 AC01     		.2byte	0x1ac
 5270 0398 00000000 		.4byte	.LFB35
 5271 039c 3A010000 		.4byte	.LFE35-.LFB35
 5272 03a0 01       		.uleb128 0x1
 5273 03a1 9C       		.byte	0x9c
 5274 03a2 BE050000 		.4byte	0x5be
 5275 03a6 0E       		.uleb128 0xe
 5276 03a7 783000   		.ascii	"x0\000"
 5277 03aa 01       		.byte	0x1
 5278 03ab AC01     		.2byte	0x1ac
 5279 03ad AD000000 		.4byte	0xad
 5280 03b1 78030000 		.4byte	.LLST17
 5281 03b5 0E       		.uleb128 0xe
 5282 03b6 793000   		.ascii	"y0\000"
 5283 03b9 01       		.byte	0x1
 5284 03ba AC01     		.2byte	0x1ac
 5285 03bc AD000000 		.4byte	0xad
 5286 03c0 99030000 		.4byte	.LLST18
ARM GAS  C:\Users\PC\AppData\Local\Temp\ccF7GaWd.s 			page 116


 5287 03c4 0E       		.uleb128 0xe
 5288 03c5 7200     		.ascii	"r\000"
 5289 03c7 01       		.byte	0x1
 5290 03c8 AC01     		.2byte	0x1ac
 5291 03ca AD000000 		.4byte	0xad
 5292 03ce BA030000 		.4byte	.LLST19
 5293 03d2 0F       		.uleb128 0xf
 5294 03d3 6B030000 		.4byte	.LASF22
 5295 03d7 01       		.byte	0x1
 5296 03d8 AC01     		.2byte	0x1ac
 5297 03da AD000000 		.4byte	0xad
 5298 03de E7030000 		.4byte	.LLST20
 5299 03e2 13       		.uleb128 0x13
 5300 03e3 6600     		.ascii	"f\000"
 5301 03e5 01       		.byte	0x1
 5302 03e6 AD01     		.2byte	0x1ad
 5303 03e8 A2000000 		.4byte	0xa2
 5304 03ec 02       		.uleb128 0x2
 5305 03ed 91       		.byte	0x91
 5306 03ee 50       		.sleb128 -48
 5307 03ef 10       		.uleb128 0x10
 5308 03f0 E2040000 		.4byte	.LASF33
 5309 03f4 01       		.byte	0x1
 5310 03f5 AE01     		.2byte	0x1ae
 5311 03f7 A2000000 		.4byte	0xa2
 5312 03fb 08040000 		.4byte	.LLST21
 5313 03ff 15       		.uleb128 0x15
 5314 0400 E8040000 		.4byte	.LASF34
 5315 0404 01       		.byte	0x1
 5316 0405 AF01     		.2byte	0x1af
 5317 0407 A2000000 		.4byte	0xa2
 5318 040b 02       		.uleb128 0x2
 5319 040c 91       		.byte	0x91
 5320 040d 64       		.sleb128 -28
 5321 040e 14       		.uleb128 0x14
 5322 040f 7800     		.ascii	"x\000"
 5323 0411 01       		.byte	0x1
 5324 0412 B001     		.2byte	0x1b0
 5325 0414 A2000000 		.4byte	0xa2
 5326 0418 2F040000 		.4byte	.LLST22
 5327 041c 13       		.uleb128 0x13
 5328 041d 7900     		.ascii	"y\000"
 5329 041f 01       		.byte	0x1
 5330 0420 B101     		.2byte	0x1b1
 5331 0422 A2000000 		.4byte	0xa2
 5332 0426 02       		.uleb128 0x2
 5333 0427 91       		.byte	0x91
 5334 0428 54       		.sleb128 -44
 5335 0429 1D       		.uleb128 0x1d
 5336 042a 2E000000 		.4byte	.LVL59
 5337 042e 04190000 		.4byte	0x1904
 5338 0432 4F040000 		.4byte	0x44f
 5339 0436 1C       		.uleb128 0x1c
 5340 0437 01       		.uleb128 0x1
 5341 0438 50       		.byte	0x50
 5342 0439 04       		.uleb128 0x4
 5343 043a 7D       		.byte	0x7d
ARM GAS  C:\Users\PC\AppData\Local\Temp\ccF7GaWd.s 			page 117


 5344 043b 00       		.sleb128 0
 5345 043c 94       		.byte	0x94
 5346 043d 01       		.byte	0x1
 5347 043e 1C       		.uleb128 0x1c
 5348 043f 01       		.uleb128 0x1
 5349 0440 51       		.byte	0x51
 5350 0441 06       		.uleb128 0x6
 5351 0442 91       		.byte	0x91
 5352 0443 4C       		.sleb128 -52
 5353 0444 06       		.byte	0x6
 5354 0445 75       		.byte	0x75
 5355 0446 00       		.sleb128 0
 5356 0447 22       		.byte	0x22
 5357 0448 1C       		.uleb128 0x1c
 5358 0449 01       		.uleb128 0x1
 5359 044a 52       		.byte	0x52
 5360 044b 02       		.uleb128 0x2
 5361 044c 74       		.byte	0x74
 5362 044d 00       		.sleb128 0
 5363 044e 00       		.byte	0
 5364 044f 1D       		.uleb128 0x1d
 5365 0450 3C000000 		.4byte	.LVL60
 5366 0454 04190000 		.4byte	0x1904
 5367 0458 75040000 		.4byte	0x475
 5368 045c 1C       		.uleb128 0x1c
 5369 045d 01       		.uleb128 0x1
 5370 045e 50       		.byte	0x50
 5371 045f 04       		.uleb128 0x4
 5372 0460 7D       		.byte	0x7d
 5373 0461 00       		.sleb128 0
 5374 0462 94       		.byte	0x94
 5375 0463 01       		.byte	0x1
 5376 0464 1C       		.uleb128 0x1c
 5377 0465 01       		.uleb128 0x1
 5378 0466 51       		.byte	0x51
 5379 0467 06       		.uleb128 0x6
 5380 0468 91       		.byte	0x91
 5381 0469 4C       		.sleb128 -52
 5382 046a 06       		.byte	0x6
 5383 046b 75       		.byte	0x75
 5384 046c 00       		.sleb128 0
 5385 046d 1C       		.byte	0x1c
 5386 046e 1C       		.uleb128 0x1c
 5387 046f 01       		.uleb128 0x1
 5388 0470 52       		.byte	0x52
 5389 0471 02       		.uleb128 0x2
 5390 0472 74       		.byte	0x74
 5391 0473 00       		.sleb128 0
 5392 0474 00       		.byte	0
 5393 0475 1D       		.uleb128 0x1d
 5394 0476 4A000000 		.4byte	.LVL61
 5395 047a 04190000 		.4byte	0x1904
 5396 047e 9B040000 		.4byte	0x49b
 5397 0482 1C       		.uleb128 0x1c
 5398 0483 01       		.uleb128 0x1
 5399 0484 50       		.byte	0x50
 5400 0485 06       		.uleb128 0x6
ARM GAS  C:\Users\PC\AppData\Local\Temp\ccF7GaWd.s 			page 118


 5401 0486 7D       		.byte	0x7d
 5402 0487 00       		.sleb128 0
 5403 0488 06       		.byte	0x6
 5404 0489 75       		.byte	0x75
 5405 048a 00       		.sleb128 0
 5406 048b 22       		.byte	0x22
 5407 048c 1C       		.uleb128 0x1c
 5408 048d 01       		.uleb128 0x1
 5409 048e 51       		.byte	0x51
 5410 048f 04       		.uleb128 0x4
 5411 0490 91       		.byte	0x91
 5412 0491 4C       		.sleb128 -52
 5413 0492 94       		.byte	0x94
 5414 0493 01       		.byte	0x1
 5415 0494 1C       		.uleb128 0x1c
 5416 0495 01       		.uleb128 0x1
 5417 0496 52       		.byte	0x52
 5418 0497 02       		.uleb128 0x2
 5419 0498 74       		.byte	0x74
 5420 0499 00       		.sleb128 0
 5421 049a 00       		.byte	0
 5422 049b 1D       		.uleb128 0x1d
 5423 049c 58000000 		.4byte	.LVL62
 5424 04a0 04190000 		.4byte	0x1904
 5425 04a4 C1040000 		.4byte	0x4c1
 5426 04a8 1C       		.uleb128 0x1c
 5427 04a9 01       		.uleb128 0x1
 5428 04aa 50       		.byte	0x50
 5429 04ab 06       		.uleb128 0x6
 5430 04ac 7D       		.byte	0x7d
 5431 04ad 00       		.sleb128 0
 5432 04ae 06       		.byte	0x6
 5433 04af 75       		.byte	0x75
 5434 04b0 00       		.sleb128 0
 5435 04b1 1C       		.byte	0x1c
 5436 04b2 1C       		.uleb128 0x1c
 5437 04b3 01       		.uleb128 0x1
 5438 04b4 51       		.byte	0x51
 5439 04b5 04       		.uleb128 0x4
 5440 04b6 91       		.byte	0x91
 5441 04b7 4C       		.sleb128 -52
 5442 04b8 94       		.byte	0x94
 5443 04b9 01       		.byte	0x1
 5444 04ba 1C       		.uleb128 0x1c
 5445 04bb 01       		.uleb128 0x1
 5446 04bc 52       		.byte	0x52
 5447 04bd 02       		.uleb128 0x2
 5448 04be 74       		.byte	0x74
 5449 04bf 00       		.sleb128 0
 5450 04c0 00       		.byte	0
 5451 04c1 1D       		.uleb128 0x1d
 5452 04c2 BE000000 		.4byte	.LVL69
 5453 04c6 04190000 		.4byte	0x1904
 5454 04ca E1040000 		.4byte	0x4e1
 5455 04ce 1C       		.uleb128 0x1c
 5456 04cf 01       		.uleb128 0x1
 5457 04d0 50       		.byte	0x50
ARM GAS  C:\Users\PC\AppData\Local\Temp\ccF7GaWd.s 			page 119


 5458 04d1 02       		.uleb128 0x2
 5459 04d2 77       		.byte	0x77
 5460 04d3 00       		.sleb128 0
 5461 04d4 1C       		.uleb128 0x1c
 5462 04d5 01       		.uleb128 0x1
 5463 04d6 51       		.byte	0x51
 5464 04d7 02       		.uleb128 0x2
 5465 04d8 76       		.byte	0x76
 5466 04d9 00       		.sleb128 0
 5467 04da 1C       		.uleb128 0x1c
 5468 04db 01       		.uleb128 0x1
 5469 04dc 52       		.byte	0x52
 5470 04dd 02       		.uleb128 0x2
 5471 04de 74       		.byte	0x74
 5472 04df 00       		.sleb128 0
 5473 04e0 00       		.byte	0
 5474 04e1 1D       		.uleb128 0x1d
 5475 04e2 D0000000 		.4byte	.LVL70
 5476 04e6 04190000 		.4byte	0x1904
 5477 04ea 01050000 		.4byte	0x501
 5478 04ee 1C       		.uleb128 0x1c
 5479 04ef 01       		.uleb128 0x1
 5480 04f0 50       		.byte	0x50
 5481 04f1 02       		.uleb128 0x2
 5482 04f2 75       		.byte	0x75
 5483 04f3 00       		.sleb128 0
 5484 04f4 1C       		.uleb128 0x1c
 5485 04f5 01       		.uleb128 0x1
 5486 04f6 51       		.byte	0x51
 5487 04f7 02       		.uleb128 0x2
 5488 04f8 76       		.byte	0x76
 5489 04f9 00       		.sleb128 0
 5490 04fa 1C       		.uleb128 0x1c
 5491 04fb 01       		.uleb128 0x1
 5492 04fc 52       		.byte	0x52
 5493 04fd 02       		.uleb128 0x2
 5494 04fe 74       		.byte	0x74
 5495 04ff 00       		.sleb128 0
 5496 0500 00       		.byte	0
 5497 0501 1D       		.uleb128 0x1d
 5498 0502 E2000000 		.4byte	.LVL71
 5499 0506 04190000 		.4byte	0x1904
 5500 050a 21050000 		.4byte	0x521
 5501 050e 1C       		.uleb128 0x1c
 5502 050f 01       		.uleb128 0x1
 5503 0510 50       		.byte	0x50
 5504 0511 02       		.uleb128 0x2
 5505 0512 77       		.byte	0x77
 5506 0513 00       		.sleb128 0
 5507 0514 1C       		.uleb128 0x1c
 5508 0515 01       		.uleb128 0x1
 5509 0516 51       		.byte	0x51
 5510 0517 02       		.uleb128 0x2
 5511 0518 76       		.byte	0x76
 5512 0519 00       		.sleb128 0
 5513 051a 1C       		.uleb128 0x1c
 5514 051b 01       		.uleb128 0x1
ARM GAS  C:\Users\PC\AppData\Local\Temp\ccF7GaWd.s 			page 120


 5515 051c 52       		.byte	0x52
 5516 051d 02       		.uleb128 0x2
 5517 051e 74       		.byte	0x74
 5518 051f 00       		.sleb128 0
 5519 0520 00       		.byte	0
 5520 0521 1D       		.uleb128 0x1d
 5521 0522 EC000000 		.4byte	.LVL72
 5522 0526 04190000 		.4byte	0x1904
 5523 052a 41050000 		.4byte	0x541
 5524 052e 1C       		.uleb128 0x1c
 5525 052f 01       		.uleb128 0x1
 5526 0530 50       		.byte	0x50
 5527 0531 02       		.uleb128 0x2
 5528 0532 75       		.byte	0x75
 5529 0533 00       		.sleb128 0
 5530 0534 1C       		.uleb128 0x1c
 5531 0535 01       		.uleb128 0x1
 5532 0536 51       		.byte	0x51
 5533 0537 02       		.uleb128 0x2
 5534 0538 76       		.byte	0x76
 5535 0539 00       		.sleb128 0
 5536 053a 1C       		.uleb128 0x1c
 5537 053b 01       		.uleb128 0x1
 5538 053c 52       		.byte	0x52
 5539 053d 02       		.uleb128 0x2
 5540 053e 74       		.byte	0x74
 5541 053f 00       		.sleb128 0
 5542 0540 00       		.byte	0
 5543 0541 1D       		.uleb128 0x1d
 5544 0542 06010000 		.4byte	.LVL73
 5545 0546 04190000 		.4byte	0x1904
 5546 054a 61050000 		.4byte	0x561
 5547 054e 1C       		.uleb128 0x1c
 5548 054f 01       		.uleb128 0x1
 5549 0550 50       		.byte	0x50
 5550 0551 02       		.uleb128 0x2
 5551 0552 77       		.byte	0x77
 5552 0553 00       		.sleb128 0
 5553 0554 1C       		.uleb128 0x1c
 5554 0555 01       		.uleb128 0x1
 5555 0556 51       		.byte	0x51
 5556 0557 02       		.uleb128 0x2
 5557 0558 76       		.byte	0x76
 5558 0559 00       		.sleb128 0
 5559 055a 1C       		.uleb128 0x1c
 5560 055b 01       		.uleb128 0x1
 5561 055c 52       		.byte	0x52
 5562 055d 02       		.uleb128 0x2
 5563 055e 74       		.byte	0x74
 5564 055f 00       		.sleb128 0
 5565 0560 00       		.byte	0
 5566 0561 1D       		.uleb128 0x1d
 5567 0562 18010000 		.4byte	.LVL74
 5568 0566 04190000 		.4byte	0x1904
 5569 056a 81050000 		.4byte	0x581
 5570 056e 1C       		.uleb128 0x1c
 5571 056f 01       		.uleb128 0x1
ARM GAS  C:\Users\PC\AppData\Local\Temp\ccF7GaWd.s 			page 121


 5572 0570 50       		.byte	0x50
 5573 0571 02       		.uleb128 0x2
 5574 0572 75       		.byte	0x75
 5575 0573 00       		.sleb128 0
 5576 0574 1C       		.uleb128 0x1c
 5577 0575 01       		.uleb128 0x1
 5578 0576 51       		.byte	0x51
 5579 0577 02       		.uleb128 0x2
 5580 0578 76       		.byte	0x76
 5581 0579 00       		.sleb128 0
 5582 057a 1C       		.uleb128 0x1c
 5583 057b 01       		.uleb128 0x1
 5584 057c 52       		.byte	0x52
 5585 057d 02       		.uleb128 0x2
 5586 057e 74       		.byte	0x74
 5587 057f 00       		.sleb128 0
 5588 0580 00       		.byte	0
 5589 0581 1D       		.uleb128 0x1d
 5590 0582 2A010000 		.4byte	.LVL75
 5591 0586 04190000 		.4byte	0x1904
 5592 058a A1050000 		.4byte	0x5a1
 5593 058e 1C       		.uleb128 0x1c
 5594 058f 01       		.uleb128 0x1
 5595 0590 50       		.byte	0x50
 5596 0591 02       		.uleb128 0x2
 5597 0592 77       		.byte	0x77
 5598 0593 00       		.sleb128 0
 5599 0594 1C       		.uleb128 0x1c
 5600 0595 01       		.uleb128 0x1
 5601 0596 51       		.byte	0x51
 5602 0597 02       		.uleb128 0x2
 5603 0598 76       		.byte	0x76
 5604 0599 00       		.sleb128 0
 5605 059a 1C       		.uleb128 0x1c
 5606 059b 01       		.uleb128 0x1
 5607 059c 52       		.byte	0x52
 5608 059d 02       		.uleb128 0x2
 5609 059e 74       		.byte	0x74
 5610 059f 00       		.sleb128 0
 5611 05a0 00       		.byte	0
 5612 05a1 1B       		.uleb128 0x1b
 5613 05a2 34010000 		.4byte	.LVL76
 5614 05a6 04190000 		.4byte	0x1904
 5615 05aa 1C       		.uleb128 0x1c
 5616 05ab 01       		.uleb128 0x1
 5617 05ac 50       		.byte	0x50
 5618 05ad 02       		.uleb128 0x2
 5619 05ae 75       		.byte	0x75
 5620 05af 00       		.sleb128 0
 5621 05b0 1C       		.uleb128 0x1c
 5622 05b1 01       		.uleb128 0x1
 5623 05b2 51       		.byte	0x51
 5624 05b3 02       		.uleb128 0x2
 5625 05b4 76       		.byte	0x76
 5626 05b5 00       		.sleb128 0
 5627 05b6 1C       		.uleb128 0x1c
 5628 05b7 01       		.uleb128 0x1
ARM GAS  C:\Users\PC\AppData\Local\Temp\ccF7GaWd.s 			page 122


 5629 05b8 52       		.byte	0x52
 5630 05b9 02       		.uleb128 0x2
 5631 05ba 74       		.byte	0x74
 5632 05bb 00       		.sleb128 0
 5633 05bc 00       		.byte	0
 5634 05bd 00       		.byte	0
 5635 05be 0D       		.uleb128 0xd
 5636 05bf 84000000 		.4byte	.LASF35
 5637 05c3 01       		.byte	0x1
 5638 05c4 D701     		.2byte	0x1d7
 5639 05c6 00000000 		.4byte	.LFB36
 5640 05ca 3C010000 		.4byte	.LFE36-.LFB36
 5641 05ce 01       		.uleb128 0x1
 5642 05cf 9C       		.byte	0x9c
 5643 05d0 93070000 		.4byte	0x793
 5644 05d4 0E       		.uleb128 0xe
 5645 05d5 783000   		.ascii	"x0\000"
 5646 05d8 01       		.byte	0x1
 5647 05d9 D701     		.2byte	0x1d7
 5648 05db AD000000 		.4byte	0xad
 5649 05df 4F040000 		.4byte	.LLST23
 5650 05e3 0E       		.uleb128 0xe
 5651 05e4 793000   		.ascii	"y0\000"
 5652 05e7 01       		.byte	0x1
 5653 05e8 D701     		.2byte	0x1d7
 5654 05ea AD000000 		.4byte	0xad
 5655 05ee 70040000 		.4byte	.LLST24
 5656 05f2 0E       		.uleb128 0xe
 5657 05f3 7200     		.ascii	"r\000"
 5658 05f5 01       		.byte	0x1
 5659 05f6 D701     		.2byte	0x1d7
 5660 05f8 AD000000 		.4byte	0xad
 5661 05fc 91040000 		.4byte	.LLST25
 5662 0600 0F       		.uleb128 0xf
 5663 0601 B0040000 		.4byte	.LASF36
 5664 0605 01       		.byte	0x1
 5665 0606 D701     		.2byte	0x1d7
 5666 0608 97000000 		.4byte	0x97
 5667 060c B2040000 		.4byte	.LLST26
 5668 0610 0F       		.uleb128 0xf
 5669 0611 6B030000 		.4byte	.LASF22
 5670 0615 01       		.byte	0x1
 5671 0616 D701     		.2byte	0x1d7
 5672 0618 AD000000 		.4byte	0xad
 5673 061c D3040000 		.4byte	.LLST27
 5674 0620 13       		.uleb128 0x13
 5675 0621 6600     		.ascii	"f\000"
 5676 0623 01       		.byte	0x1
 5677 0624 D801     		.2byte	0x1d8
 5678 0626 A2000000 		.4byte	0xa2
 5679 062a 02       		.uleb128 0x2
 5680 062b 91       		.byte	0x91
 5681 062c 50       		.sleb128 -48
 5682 062d 10       		.uleb128 0x10
 5683 062e E2040000 		.4byte	.LASF33
 5684 0632 01       		.byte	0x1
 5685 0633 D901     		.2byte	0x1d9
ARM GAS  C:\Users\PC\AppData\Local\Temp\ccF7GaWd.s 			page 123


 5686 0635 A2000000 		.4byte	0xa2
 5687 0639 FF040000 		.4byte	.LLST28
 5688 063d 15       		.uleb128 0x15
 5689 063e E8040000 		.4byte	.LASF34
 5690 0642 01       		.byte	0x1
 5691 0643 DA01     		.2byte	0x1da
 5692 0645 A2000000 		.4byte	0xa2
 5693 0649 02       		.uleb128 0x2
 5694 064a 91       		.byte	0x91
 5695 064b 64       		.sleb128 -28
 5696 064c 14       		.uleb128 0x14
 5697 064d 7800     		.ascii	"x\000"
 5698 064f 01       		.byte	0x1
 5699 0650 DB01     		.2byte	0x1db
 5700 0652 A2000000 		.4byte	0xa2
 5701 0656 26050000 		.4byte	.LLST29
 5702 065a 13       		.uleb128 0x13
 5703 065b 7900     		.ascii	"y\000"
 5704 065d 01       		.byte	0x1
 5705 065e DC01     		.2byte	0x1dc
 5706 0660 A2000000 		.4byte	0xa2
 5707 0664 02       		.uleb128 0x2
 5708 0665 91       		.byte	0x91
 5709 0666 44       		.sleb128 -60
 5710 0667 1D       		.uleb128 0x1d
 5711 0668 96000000 		.4byte	.LVL89
 5712 066c 04190000 		.4byte	0x1904
 5713 0670 96060000 		.4byte	0x696
 5714 0674 1C       		.uleb128 0x1c
 5715 0675 01       		.uleb128 0x1
 5716 0676 50       		.byte	0x50
 5717 0677 09       		.uleb128 0x9
 5718 0678 77       		.byte	0x77
 5719 0679 00       		.sleb128 0
 5720 067a 91       		.byte	0x91
 5721 067b 48       		.sleb128 -56
 5722 067c 06       		.byte	0x6
 5723 067d 22       		.byte	0x22
 5724 067e 74       		.byte	0x74
 5725 067f 00       		.sleb128 0
 5726 0680 1C       		.byte	0x1c
 5727 0681 1C       		.uleb128 0x1c
 5728 0682 01       		.uleb128 0x1
 5729 0683 51       		.byte	0x51
 5730 0684 0A       		.uleb128 0xa
 5731 0685 7D       		.byte	0x7d
 5732 0686 04       		.sleb128 4
 5733 0687 94       		.byte	0x94
 5734 0688 01       		.byte	0x1
 5735 0689 08       		.byte	0x8
 5736 068a FF       		.byte	0xff
 5737 068b 1A       		.byte	0x1a
 5738 068c 74       		.byte	0x74
 5739 068d 00       		.sleb128 0
 5740 068e 22       		.byte	0x22
 5741 068f 1C       		.uleb128 0x1c
 5742 0690 01       		.uleb128 0x1
ARM GAS  C:\Users\PC\AppData\Local\Temp\ccF7GaWd.s 			page 124


 5743 0691 52       		.byte	0x52
 5744 0692 02       		.uleb128 0x2
 5745 0693 76       		.byte	0x76
 5746 0694 00       		.sleb128 0
 5747 0695 00       		.byte	0
 5748 0696 1D       		.uleb128 0x1d
 5749 0697 A0000000 		.4byte	.LVL90
 5750 069b 04190000 		.4byte	0x1904
 5751 069f B8060000 		.4byte	0x6b8
 5752 06a3 1C       		.uleb128 0x1c
 5753 06a4 01       		.uleb128 0x1
 5754 06a5 50       		.byte	0x50
 5755 06a6 02       		.uleb128 0x2
 5756 06a7 75       		.byte	0x75
 5757 06a8 00       		.sleb128 0
 5758 06a9 1C       		.uleb128 0x1c
 5759 06aa 01       		.uleb128 0x1
 5760 06ab 51       		.byte	0x51
 5761 06ac 04       		.uleb128 0x4
 5762 06ad 91       		.byte	0x91
 5763 06ae 48       		.sleb128 -56
 5764 06af 94       		.byte	0x94
 5765 06b0 01       		.byte	0x1
 5766 06b1 1C       		.uleb128 0x1c
 5767 06b2 01       		.uleb128 0x1
 5768 06b3 52       		.byte	0x52
 5769 06b4 02       		.uleb128 0x2
 5770 06b5 76       		.byte	0x76
 5771 06b6 00       		.sleb128 0
 5772 06b7 00       		.byte	0
 5773 06b8 1D       		.uleb128 0x1d
 5774 06b9 C4000000 		.4byte	.LVL91
 5775 06bd 04190000 		.4byte	0x1904
 5776 06c1 E7060000 		.4byte	0x6e7
 5777 06c5 1C       		.uleb128 0x1c
 5778 06c6 01       		.uleb128 0x1
 5779 06c7 50       		.byte	0x50
 5780 06c8 09       		.uleb128 0x9
 5781 06c9 77       		.byte	0x77
 5782 06ca 00       		.sleb128 0
 5783 06cb 91       		.byte	0x91
 5784 06cc 48       		.sleb128 -56
 5785 06cd 06       		.byte	0x6
 5786 06ce 22       		.byte	0x22
 5787 06cf 74       		.byte	0x74
 5788 06d0 00       		.sleb128 0
 5789 06d1 1C       		.byte	0x1c
 5790 06d2 1C       		.uleb128 0x1c
 5791 06d3 01       		.uleb128 0x1
 5792 06d4 51       		.byte	0x51
 5793 06d5 0A       		.uleb128 0xa
 5794 06d6 74       		.byte	0x74
 5795 06d7 00       		.sleb128 0
 5796 06d8 7D       		.byte	0x7d
 5797 06d9 04       		.sleb128 4
 5798 06da 94       		.byte	0x94
 5799 06db 01       		.byte	0x1
ARM GAS  C:\Users\PC\AppData\Local\Temp\ccF7GaWd.s 			page 125


 5800 06dc 08       		.byte	0x8
 5801 06dd FF       		.byte	0xff
 5802 06de 1A       		.byte	0x1a
 5803 06df 1C       		.byte	0x1c
 5804 06e0 1C       		.uleb128 0x1c
 5805 06e1 01       		.uleb128 0x1
 5806 06e2 52       		.byte	0x52
 5807 06e3 02       		.uleb128 0x2
 5808 06e4 76       		.byte	0x76
 5809 06e5 00       		.sleb128 0
 5810 06e6 00       		.byte	0
 5811 06e7 1D       		.uleb128 0x1d
 5812 06e8 CE000000 		.4byte	.LVL92
 5813 06ec 04190000 		.4byte	0x1904
 5814 06f0 09070000 		.4byte	0x709
 5815 06f4 1C       		.uleb128 0x1c
 5816 06f5 01       		.uleb128 0x1
 5817 06f6 50       		.byte	0x50
 5818 06f7 02       		.uleb128 0x2
 5819 06f8 75       		.byte	0x75
 5820 06f9 00       		.sleb128 0
 5821 06fa 1C       		.uleb128 0x1c
 5822 06fb 01       		.uleb128 0x1
 5823 06fc 51       		.byte	0x51
 5824 06fd 04       		.uleb128 0x4
 5825 06fe 91       		.byte	0x91
 5826 06ff 4C       		.sleb128 -52
 5827 0700 94       		.byte	0x94
 5828 0701 01       		.byte	0x1
 5829 0702 1C       		.uleb128 0x1c
 5830 0703 01       		.uleb128 0x1
 5831 0704 52       		.byte	0x52
 5832 0705 02       		.uleb128 0x2
 5833 0706 76       		.byte	0x76
 5834 0707 00       		.sleb128 0
 5835 0708 00       		.byte	0
 5836 0709 1D       		.uleb128 0x1d
 5837 070a E8000000 		.4byte	.LVL93
 5838 070e 04190000 		.4byte	0x1904
 5839 0712 2E070000 		.4byte	0x72e
 5840 0716 1C       		.uleb128 0x1c
 5841 0717 01       		.uleb128 0x1
 5842 0718 50       		.byte	0x50
 5843 0719 05       		.uleb128 0x5
 5844 071a 75       		.byte	0x75
 5845 071b 00       		.sleb128 0
 5846 071c 76       		.byte	0x76
 5847 071d 00       		.sleb128 0
 5848 071e 1C       		.byte	0x1c
 5849 071f 1C       		.uleb128 0x1c
 5850 0720 01       		.uleb128 0x1
 5851 0721 51       		.byte	0x51
 5852 0722 04       		.uleb128 0x4
 5853 0723 91       		.byte	0x91
 5854 0724 48       		.sleb128 -56
 5855 0725 94       		.byte	0x94
 5856 0726 01       		.byte	0x1
ARM GAS  C:\Users\PC\AppData\Local\Temp\ccF7GaWd.s 			page 126


 5857 0727 1C       		.uleb128 0x1c
 5858 0728 01       		.uleb128 0x1
 5859 0729 52       		.byte	0x52
 5860 072a 02       		.uleb128 0x2
 5861 072b 77       		.byte	0x77
 5862 072c 00       		.sleb128 0
 5863 072d 00       		.byte	0
 5864 072e 1D       		.uleb128 0x1d
 5865 072f FA000000 		.4byte	.LVL94
 5866 0733 04190000 		.4byte	0x1904
 5867 0737 4E070000 		.4byte	0x74e
 5868 073b 1C       		.uleb128 0x1c
 5869 073c 01       		.uleb128 0x1
 5870 073d 50       		.byte	0x50
 5871 073e 02       		.uleb128 0x2
 5872 073f 75       		.byte	0x75
 5873 0740 00       		.sleb128 0
 5874 0741 1C       		.uleb128 0x1c
 5875 0742 01       		.uleb128 0x1
 5876 0743 51       		.byte	0x51
 5877 0744 02       		.uleb128 0x2
 5878 0745 76       		.byte	0x76
 5879 0746 00       		.sleb128 0
 5880 0747 1C       		.uleb128 0x1c
 5881 0748 01       		.uleb128 0x1
 5882 0749 52       		.byte	0x52
 5883 074a 02       		.uleb128 0x2
 5884 074b 77       		.byte	0x77
 5885 074c 00       		.sleb128 0
 5886 074d 00       		.byte	0
 5887 074e 1D       		.uleb128 0x1d
 5888 074f 14010000 		.4byte	.LVL95
 5889 0753 04190000 		.4byte	0x1904
 5890 0757 73070000 		.4byte	0x773
 5891 075b 1C       		.uleb128 0x1c
 5892 075c 01       		.uleb128 0x1
 5893 075d 50       		.byte	0x50
 5894 075e 05       		.uleb128 0x5
 5895 075f 75       		.byte	0x75
 5896 0760 00       		.sleb128 0
 5897 0761 76       		.byte	0x76
 5898 0762 00       		.sleb128 0
 5899 0763 1C       		.byte	0x1c
 5900 0764 1C       		.uleb128 0x1c
 5901 0765 01       		.uleb128 0x1
 5902 0766 51       		.byte	0x51
 5903 0767 04       		.uleb128 0x4
 5904 0768 91       		.byte	0x91
 5905 0769 4C       		.sleb128 -52
 5906 076a 94       		.byte	0x94
 5907 076b 01       		.byte	0x1
 5908 076c 1C       		.uleb128 0x1c
 5909 076d 01       		.uleb128 0x1
 5910 076e 52       		.byte	0x52
 5911 076f 02       		.uleb128 0x2
 5912 0770 77       		.byte	0x77
 5913 0771 00       		.sleb128 0
ARM GAS  C:\Users\PC\AppData\Local\Temp\ccF7GaWd.s 			page 127


 5914 0772 00       		.byte	0
 5915 0773 1B       		.uleb128 0x1b
 5916 0774 26010000 		.4byte	.LVL96
 5917 0778 04190000 		.4byte	0x1904
 5918 077c 1C       		.uleb128 0x1c
 5919 077d 01       		.uleb128 0x1
 5920 077e 50       		.byte	0x50
 5921 077f 02       		.uleb128 0x2
 5922 0780 75       		.byte	0x75
 5923 0781 00       		.sleb128 0
 5924 0782 1C       		.uleb128 0x1c
 5925 0783 01       		.uleb128 0x1
 5926 0784 51       		.byte	0x51
 5927 0785 05       		.uleb128 0x5
 5928 0786 74       		.byte	0x74
 5929 0787 00       		.sleb128 0
 5930 0788 76       		.byte	0x76
 5931 0789 00       		.sleb128 0
 5932 078a 1C       		.byte	0x1c
 5933 078b 1C       		.uleb128 0x1c
 5934 078c 01       		.uleb128 0x1
 5935 078d 52       		.byte	0x52
 5936 078e 02       		.uleb128 0x2
 5937 078f 77       		.byte	0x77
 5938 0790 00       		.sleb128 0
 5939 0791 00       		.byte	0
 5940 0792 00       		.byte	0
 5941 0793 0D       		.uleb128 0xd
 5942 0794 83020000 		.4byte	.LASF37
 5943 0798 01       		.byte	0x1
 5944 0799 1402     		.2byte	0x214
 5945 079b 00000000 		.4byte	.LFB38
 5946 079f 0E010000 		.4byte	.LFE38-.LFB38
 5947 07a3 01       		.uleb128 0x1
 5948 07a4 9C       		.byte	0x9c
 5949 07a5 53090000 		.4byte	0x953
 5950 07a9 0E       		.uleb128 0xe
 5951 07aa 783000   		.ascii	"x0\000"
 5952 07ad 01       		.byte	0x1
 5953 07ae 1402     		.2byte	0x214
 5954 07b0 AD000000 		.4byte	0xad
 5955 07b4 46050000 		.4byte	.LLST30
 5956 07b8 0E       		.uleb128 0xe
 5957 07b9 793000   		.ascii	"y0\000"
 5958 07bc 01       		.byte	0x1
 5959 07bd 1402     		.2byte	0x214
 5960 07bf AD000000 		.4byte	0xad
 5961 07c3 67050000 		.4byte	.LLST31
 5962 07c7 0E       		.uleb128 0xe
 5963 07c8 7200     		.ascii	"r\000"
 5964 07ca 01       		.byte	0x1
 5965 07cb 1402     		.2byte	0x214
 5966 07cd AD000000 		.4byte	0xad
 5967 07d1 88050000 		.4byte	.LLST32
 5968 07d5 0F       		.uleb128 0xf
 5969 07d6 6C010000 		.4byte	.LASF38
 5970 07da 01       		.byte	0x1
ARM GAS  C:\Users\PC\AppData\Local\Temp\ccF7GaWd.s 			page 128


 5971 07db 1402     		.2byte	0x214
 5972 07dd 97000000 		.4byte	0x97
 5973 07e1 A9050000 		.4byte	.LLST33
 5974 07e5 0F       		.uleb128 0xf
 5975 07e6 FA040000 		.4byte	.LASF39
 5976 07ea 01       		.byte	0x1
 5977 07eb 1402     		.2byte	0x214
 5978 07ed AD000000 		.4byte	0xad
 5979 07f1 CA050000 		.4byte	.LLST34
 5980 07f5 0F       		.uleb128 0xf
 5981 07f6 6B030000 		.4byte	.LASF22
 5982 07fa 01       		.byte	0x1
 5983 07fb 1402     		.2byte	0x214
 5984 07fd AD000000 		.4byte	0xad
 5985 0801 02060000 		.4byte	.LLST35
 5986 0805 14       		.uleb128 0x14
 5987 0806 6600     		.ascii	"f\000"
 5988 0808 01       		.byte	0x1
 5989 0809 1502     		.2byte	0x215
 5990 080b A2000000 		.4byte	0xa2
 5991 080f 46060000 		.4byte	.LLST36
 5992 0813 10       		.uleb128 0x10
 5993 0814 E2040000 		.4byte	.LASF33
 5994 0818 01       		.byte	0x1
 5995 0819 1602     		.2byte	0x216
 5996 081b A2000000 		.4byte	0xa2
 5997 081f 6F060000 		.4byte	.LLST37
 5998 0823 15       		.uleb128 0x15
 5999 0824 E8040000 		.4byte	.LASF34
 6000 0828 01       		.byte	0x1
 6001 0829 1702     		.2byte	0x217
 6002 082b A2000000 		.4byte	0xa2
 6003 082f 02       		.uleb128 0x2
 6004 0830 91       		.byte	0x91
 6005 0831 60       		.sleb128 -32
 6006 0832 14       		.uleb128 0x14
 6007 0833 7800     		.ascii	"x\000"
 6008 0835 01       		.byte	0x1
 6009 0836 1802     		.2byte	0x218
 6010 0838 A2000000 		.4byte	0xa2
 6011 083c A9060000 		.4byte	.LLST38
 6012 0840 14       		.uleb128 0x14
 6013 0841 7900     		.ascii	"y\000"
 6014 0843 01       		.byte	0x1
 6015 0844 1902     		.2byte	0x219
 6016 0846 A2000000 		.4byte	0xa2
 6017 084a D5060000 		.4byte	.LLST39
 6018 084e 14       		.uleb128 0x14
 6019 084f 707800   		.ascii	"px\000"
 6020 0852 01       		.byte	0x1
 6021 0853 1A02     		.2byte	0x21a
 6022 0855 A2000000 		.4byte	0xa2
 6023 0859 F3060000 		.4byte	.LLST40
 6024 085d 14       		.uleb128 0x14
 6025 085e 707900   		.ascii	"py\000"
 6026 0861 01       		.byte	0x1
 6027 0862 1B02     		.2byte	0x21b
ARM GAS  C:\Users\PC\AppData\Local\Temp\ccF7GaWd.s 			page 129


 6028 0864 A2000000 		.4byte	0xa2
 6029 0868 2B070000 		.4byte	.LLST41
 6030 086c 1D       		.uleb128 0x1d
 6031 086d 8C000000 		.4byte	.LVL114
 6032 0871 0F190000 		.4byte	0x190f
 6033 0875 A8080000 		.4byte	0x8a8
 6034 0879 1C       		.uleb128 0x1c
 6035 087a 01       		.uleb128 0x1
 6036 087b 50       		.byte	0x50
 6037 087c 06       		.uleb128 0x6
 6038 087d 91       		.byte	0x91
 6039 087e 50       		.sleb128 -48
 6040 087f 06       		.byte	0x6
 6041 0880 74       		.byte	0x74
 6042 0881 00       		.sleb128 0
 6043 0882 22       		.byte	0x22
 6044 0883 1C       		.uleb128 0x1c
 6045 0884 01       		.uleb128 0x1
 6046 0885 51       		.byte	0x51
 6047 0886 09       		.uleb128 0x9
 6048 0887 91       		.byte	0x91
 6049 0888 54       		.sleb128 -44
 6050 0889 06       		.byte	0x6
 6051 088a 75       		.byte	0x75
 6052 088b 00       		.sleb128 0
 6053 088c 08       		.byte	0x8
 6054 088d FF       		.byte	0xff
 6055 088e 1A       		.byte	0x1a
 6056 088f 1C       		.byte	0x1c
 6057 0890 1C       		.uleb128 0x1c
 6058 0891 01       		.uleb128 0x1
 6059 0892 52       		.byte	0x52
 6060 0893 0B       		.uleb128 0xb
 6061 0894 75       		.byte	0x75
 6062 0895 00       		.sleb128 0
 6063 0896 08       		.byte	0x8
 6064 0897 FF       		.byte	0xff
 6065 0898 1A       		.byte	0x1a
 6066 0899 31       		.byte	0x31
 6067 089a 24       		.byte	0x24
 6068 089b 91       		.byte	0x91
 6069 089c 4C       		.sleb128 -52
 6070 089d 06       		.byte	0x6
 6071 089e 22       		.byte	0x22
 6072 089f 1C       		.uleb128 0x1c
 6073 08a0 01       		.uleb128 0x1
 6074 08a1 53       		.byte	0x53
 6075 08a2 04       		.uleb128 0x4
 6076 08a3 7D       		.byte	0x7d
 6077 08a4 14       		.sleb128 20
 6078 08a5 94       		.byte	0x94
 6079 08a6 01       		.byte	0x1
 6080 08a7 00       		.byte	0
 6081 08a8 1D       		.uleb128 0x1d
 6082 08a9 B2000000 		.4byte	.LVL115
 6083 08ad 0F190000 		.4byte	0x190f
 6084 08b1 E4080000 		.4byte	0x8e4
ARM GAS  C:\Users\PC\AppData\Local\Temp\ccF7GaWd.s 			page 130


 6085 08b5 1C       		.uleb128 0x1c
 6086 08b6 01       		.uleb128 0x1
 6087 08b7 50       		.byte	0x50
 6088 08b8 06       		.uleb128 0x6
 6089 08b9 91       		.byte	0x91
 6090 08ba 50       		.sleb128 -48
 6091 08bb 06       		.byte	0x6
 6092 08bc 74       		.byte	0x74
 6093 08bd 00       		.sleb128 0
 6094 08be 1C       		.byte	0x1c
 6095 08bf 1C       		.uleb128 0x1c
 6096 08c0 01       		.uleb128 0x1
 6097 08c1 51       		.byte	0x51
 6098 08c2 09       		.uleb128 0x9
 6099 08c3 91       		.byte	0x91
 6100 08c4 54       		.sleb128 -44
 6101 08c5 06       		.byte	0x6
 6102 08c6 75       		.byte	0x75
 6103 08c7 00       		.sleb128 0
 6104 08c8 08       		.byte	0x8
 6105 08c9 FF       		.byte	0xff
 6106 08ca 1A       		.byte	0x1a
 6107 08cb 1C       		.byte	0x1c
 6108 08cc 1C       		.uleb128 0x1c
 6109 08cd 01       		.uleb128 0x1
 6110 08ce 52       		.byte	0x52
 6111 08cf 0B       		.uleb128 0xb
 6112 08d0 75       		.byte	0x75
 6113 08d1 00       		.sleb128 0
 6114 08d2 08       		.byte	0x8
 6115 08d3 FF       		.byte	0xff
 6116 08d4 1A       		.byte	0x1a
 6117 08d5 31       		.byte	0x31
 6118 08d6 24       		.byte	0x24
 6119 08d7 91       		.byte	0x91
 6120 08d8 4C       		.sleb128 -52
 6121 08d9 06       		.byte	0x6
 6122 08da 22       		.byte	0x22
 6123 08db 1C       		.uleb128 0x1c
 6124 08dc 01       		.uleb128 0x1
 6125 08dd 53       		.byte	0x53
 6126 08de 04       		.uleb128 0x4
 6127 08df 7D       		.byte	0x7d
 6128 08e0 14       		.sleb128 20
 6129 08e1 94       		.byte	0x94
 6130 08e2 01       		.byte	0x1
 6131 08e3 00       		.byte	0
 6132 08e4 1D       		.uleb128 0x1d
 6133 08e5 DE000000 		.4byte	.LVL116
 6134 08e9 0F190000 		.4byte	0x190f
 6135 08ed 20090000 		.4byte	0x920
 6136 08f1 1C       		.uleb128 0x1c
 6137 08f2 01       		.uleb128 0x1
 6138 08f3 50       		.byte	0x50
 6139 08f4 06       		.uleb128 0x6
 6140 08f5 91       		.byte	0x91
 6141 08f6 50       		.sleb128 -48
ARM GAS  C:\Users\PC\AppData\Local\Temp\ccF7GaWd.s 			page 131


 6142 08f7 06       		.byte	0x6
 6143 08f8 76       		.byte	0x76
 6144 08f9 00       		.sleb128 0
 6145 08fa 22       		.byte	0x22
 6146 08fb 1C       		.uleb128 0x1c
 6147 08fc 01       		.uleb128 0x1
 6148 08fd 51       		.byte	0x51
 6149 08fe 09       		.uleb128 0x9
 6150 08ff 91       		.byte	0x91
 6151 0900 54       		.sleb128 -44
 6152 0901 06       		.byte	0x6
 6153 0902 74       		.byte	0x74
 6154 0903 7F       		.sleb128 -1
 6155 0904 08       		.byte	0x8
 6156 0905 FF       		.byte	0xff
 6157 0906 1A       		.byte	0x1a
 6158 0907 1C       		.byte	0x1c
 6159 0908 1C       		.uleb128 0x1c
 6160 0909 01       		.uleb128 0x1
 6161 090a 52       		.byte	0x52
 6162 090b 0B       		.uleb128 0xb
 6163 090c 74       		.byte	0x74
 6164 090d 7F       		.sleb128 -1
 6165 090e 08       		.byte	0x8
 6166 090f FF       		.byte	0xff
 6167 0910 1A       		.byte	0x1a
 6168 0911 31       		.byte	0x31
 6169 0912 24       		.byte	0x24
 6170 0913 91       		.byte	0x91
 6171 0914 4C       		.sleb128 -52
 6172 0915 06       		.byte	0x6
 6173 0916 22       		.byte	0x22
 6174 0917 1C       		.uleb128 0x1c
 6175 0918 01       		.uleb128 0x1
 6176 0919 53       		.byte	0x53
 6177 091a 04       		.uleb128 0x4
 6178 091b 7D       		.byte	0x7d
 6179 091c 14       		.sleb128 20
 6180 091d 94       		.byte	0x94
 6181 091e 01       		.byte	0x1
 6182 091f 00       		.byte	0
 6183 0920 1B       		.uleb128 0x1b
 6184 0921 06010000 		.4byte	.LVL117
 6185 0925 0F190000 		.4byte	0x190f
 6186 0929 1C       		.uleb128 0x1c
 6187 092a 01       		.uleb128 0x1
 6188 092b 50       		.byte	0x50
 6189 092c 06       		.uleb128 0x6
 6190 092d 91       		.byte	0x91
 6191 092e 50       		.sleb128 -48
 6192 092f 06       		.byte	0x6
 6193 0930 76       		.byte	0x76
 6194 0931 00       		.sleb128 0
 6195 0932 1C       		.byte	0x1c
 6196 0933 1C       		.uleb128 0x1c
 6197 0934 01       		.uleb128 0x1
 6198 0935 51       		.byte	0x51
ARM GAS  C:\Users\PC\AppData\Local\Temp\ccF7GaWd.s 			page 132


 6199 0936 06       		.uleb128 0x6
 6200 0937 91       		.byte	0x91
 6201 0938 54       		.sleb128 -44
 6202 0939 06       		.byte	0x6
 6203 093a 74       		.byte	0x74
 6204 093b 00       		.sleb128 0
 6205 093c 1C       		.byte	0x1c
 6206 093d 1C       		.uleb128 0x1c
 6207 093e 01       		.uleb128 0x1
 6208 093f 52       		.byte	0x52
 6209 0940 08       		.uleb128 0x8
 6210 0941 74       		.byte	0x74
 6211 0942 00       		.sleb128 0
 6212 0943 31       		.byte	0x31
 6213 0944 24       		.byte	0x24
 6214 0945 91       		.byte	0x91
 6215 0946 4C       		.sleb128 -52
 6216 0947 06       		.byte	0x6
 6217 0948 22       		.byte	0x22
 6218 0949 1C       		.uleb128 0x1c
 6219 094a 01       		.uleb128 0x1
 6220 094b 53       		.byte	0x53
 6221 094c 04       		.uleb128 0x4
 6222 094d 7D       		.byte	0x7d
 6223 094e 14       		.sleb128 20
 6224 094f 94       		.byte	0x94
 6225 0950 01       		.byte	0x1
 6226 0951 00       		.byte	0
 6227 0952 00       		.byte	0
 6228 0953 0D       		.uleb128 0xd
 6229 0954 F4010000 		.4byte	.LASF40
 6230 0958 01       		.byte	0x1
 6231 0959 0302     		.2byte	0x203
 6232 095b 00000000 		.4byte	.LFB37
 6233 095f 32000000 		.4byte	.LFE37-.LFB37
 6234 0963 01       		.uleb128 0x1
 6235 0964 9C       		.byte	0x9c
 6236 0965 0B0A0000 		.4byte	0xa0b
 6237 0969 0E       		.uleb128 0xe
 6238 096a 783000   		.ascii	"x0\000"
 6239 096d 01       		.byte	0x1
 6240 096e 0302     		.2byte	0x203
 6241 0970 AD000000 		.4byte	0xad
 6242 0974 54070000 		.4byte	.LLST42
 6243 0978 0E       		.uleb128 0xe
 6244 0979 793000   		.ascii	"y0\000"
 6245 097c 01       		.byte	0x1
 6246 097d 0302     		.2byte	0x203
 6247 097f AD000000 		.4byte	0xad
 6248 0983 75070000 		.4byte	.LLST43
 6249 0987 0E       		.uleb128 0xe
 6250 0988 7200     		.ascii	"r\000"
 6251 098a 01       		.byte	0x1
 6252 098b 0302     		.2byte	0x203
 6253 098d AD000000 		.4byte	0xad
 6254 0991 96070000 		.4byte	.LLST44
 6255 0995 0F       		.uleb128 0xf
ARM GAS  C:\Users\PC\AppData\Local\Temp\ccF7GaWd.s 			page 133


 6256 0996 6B030000 		.4byte	.LASF22
 6257 099a 01       		.byte	0x1
 6258 099b 0302     		.2byte	0x203
 6259 099d AD000000 		.4byte	0xad
 6260 09a1 B7070000 		.4byte	.LLST45
 6261 09a5 1D       		.uleb128 0x1d
 6262 09a6 1E000000 		.4byte	.LVL129
 6263 09aa 0F190000 		.4byte	0x190f
 6264 09ae DC090000 		.4byte	0x9dc
 6265 09b2 1C       		.uleb128 0x1c
 6266 09b3 01       		.uleb128 0x1
 6267 09b4 50       		.byte	0x50
 6268 09b5 03       		.uleb128 0x3
 6269 09b6 F3       		.byte	0xf3
 6270 09b7 01       		.uleb128 0x1
 6271 09b8 50       		.byte	0x50
 6272 09b9 1C       		.uleb128 0x1c
 6273 09ba 01       		.uleb128 0x1
 6274 09bb 51       		.byte	0x51
 6275 09bc 09       		.uleb128 0x9
 6276 09bd 75       		.byte	0x75
 6277 09be 00       		.sleb128 0
 6278 09bf F3       		.byte	0xf3
 6279 09c0 01       		.uleb128 0x1
 6280 09c1 52       		.byte	0x52
 6281 09c2 08       		.byte	0x8
 6282 09c3 FF       		.byte	0xff
 6283 09c4 1A       		.byte	0x1a
 6284 09c5 1C       		.byte	0x1c
 6285 09c6 1C       		.uleb128 0x1c
 6286 09c7 01       		.uleb128 0x1
 6287 09c8 52       		.byte	0x52
 6288 09c9 0A       		.uleb128 0xa
 6289 09ca F3       		.byte	0xf3
 6290 09cb 01       		.uleb128 0x1
 6291 09cc 52       		.byte	0x52
 6292 09cd 08       		.byte	0x8
 6293 09ce FF       		.byte	0xff
 6294 09cf 1A       		.byte	0x1a
 6295 09d0 31       		.byte	0x31
 6296 09d1 24       		.byte	0x24
 6297 09d2 23       		.byte	0x23
 6298 09d3 01       		.uleb128 0x1
 6299 09d4 1C       		.uleb128 0x1c
 6300 09d5 01       		.uleb128 0x1
 6301 09d6 53       		.byte	0x53
 6302 09d7 03       		.uleb128 0x3
 6303 09d8 F3       		.byte	0xf3
 6304 09d9 01       		.uleb128 0x1
 6305 09da 53       		.byte	0x53
 6306 09db 00       		.byte	0
 6307 09dc 1B       		.uleb128 0x1b
 6308 09dd 30000000 		.4byte	.LVL130
 6309 09e1 93070000 		.4byte	0x793
 6310 09e5 1C       		.uleb128 0x1c
 6311 09e6 01       		.uleb128 0x1
 6312 09e7 50       		.byte	0x50
ARM GAS  C:\Users\PC\AppData\Local\Temp\ccF7GaWd.s 			page 134


 6313 09e8 02       		.uleb128 0x2
 6314 09e9 74       		.byte	0x74
 6315 09ea 00       		.sleb128 0
 6316 09eb 1C       		.uleb128 0x1c
 6317 09ec 01       		.uleb128 0x1
 6318 09ed 51       		.byte	0x51
 6319 09ee 02       		.uleb128 0x2
 6320 09ef 75       		.byte	0x75
 6321 09f0 00       		.sleb128 0
 6322 09f1 1C       		.uleb128 0x1c
 6323 09f2 01       		.uleb128 0x1
 6324 09f3 52       		.byte	0x52
 6325 09f4 02       		.uleb128 0x2
 6326 09f5 76       		.byte	0x76
 6327 09f6 00       		.sleb128 0
 6328 09f7 1C       		.uleb128 0x1c
 6329 09f8 01       		.uleb128 0x1
 6330 09f9 53       		.byte	0x53
 6331 09fa 01       		.uleb128 0x1
 6332 09fb 33       		.byte	0x33
 6333 09fc 1C       		.uleb128 0x1c
 6334 09fd 02       		.uleb128 0x2
 6335 09fe 7D       		.byte	0x7d
 6336 09ff 00       		.sleb128 0
 6337 0a00 01       		.uleb128 0x1
 6338 0a01 30       		.byte	0x30
 6339 0a02 1C       		.uleb128 0x1c
 6340 0a03 02       		.uleb128 0x2
 6341 0a04 7D       		.byte	0x7d
 6342 0a05 04       		.sleb128 4
 6343 0a06 02       		.uleb128 0x2
 6344 0a07 77       		.byte	0x77
 6345 0a08 00       		.sleb128 0
 6346 0a09 00       		.byte	0
 6347 0a0a 00       		.byte	0
 6348 0a0b 0D       		.uleb128 0xd
 6349 0a0c 73000000 		.4byte	.LASF41
 6350 0a10 01       		.byte	0x1
 6351 0a11 4102     		.2byte	0x241
 6352 0a13 00000000 		.4byte	.LFB39
 6353 0a17 4E000000 		.4byte	.LFE39-.LFB39
 6354 0a1b 01       		.uleb128 0x1
 6355 0a1c 9C       		.byte	0x9c
 6356 0a1d 070B0000 		.4byte	0xb07
 6357 0a21 0E       		.uleb128 0xe
 6358 0a22 7800     		.ascii	"x\000"
 6359 0a24 01       		.byte	0x1
 6360 0a25 4102     		.2byte	0x241
 6361 0a27 AD000000 		.4byte	0xad
 6362 0a2b D8070000 		.4byte	.LLST46
 6363 0a2f 0E       		.uleb128 0xe
 6364 0a30 7900     		.ascii	"y\000"
 6365 0a32 01       		.byte	0x1
 6366 0a33 4102     		.2byte	0x241
 6367 0a35 AD000000 		.4byte	0xad
 6368 0a39 F9070000 		.4byte	.LLST47
 6369 0a3d 0E       		.uleb128 0xe
ARM GAS  C:\Users\PC\AppData\Local\Temp\ccF7GaWd.s 			page 135


 6370 0a3e 7700     		.ascii	"w\000"
 6371 0a40 01       		.byte	0x1
 6372 0a41 4102     		.2byte	0x241
 6373 0a43 AD000000 		.4byte	0xad
 6374 0a47 1A080000 		.4byte	.LLST48
 6375 0a4b 0E       		.uleb128 0xe
 6376 0a4c 6800     		.ascii	"h\000"
 6377 0a4e 01       		.byte	0x1
 6378 0a4f 4102     		.2byte	0x241
 6379 0a51 AD000000 		.4byte	0xad
 6380 0a55 3B080000 		.4byte	.LLST49
 6381 0a59 0F       		.uleb128 0xf
 6382 0a5a 6B030000 		.4byte	.LASF22
 6383 0a5e 01       		.byte	0x1
 6384 0a5f 4102     		.2byte	0x241
 6385 0a61 AD000000 		.4byte	0xad
 6386 0a65 5C080000 		.4byte	.LLST50
 6387 0a69 1D       		.uleb128 0x1d
 6388 0a6a 1E000000 		.4byte	.LVL138
 6389 0a6e 1A190000 		.4byte	0x191a
 6390 0a72 910A0000 		.4byte	0xa91
 6391 0a76 1C       		.uleb128 0x1c
 6392 0a77 01       		.uleb128 0x1
 6393 0a78 50       		.byte	0x50
 6394 0a79 02       		.uleb128 0x2
 6395 0a7a 75       		.byte	0x75
 6396 0a7b 00       		.sleb128 0
 6397 0a7c 1C       		.uleb128 0x1c
 6398 0a7d 01       		.uleb128 0x1
 6399 0a7e 51       		.byte	0x51
 6400 0a7f 02       		.uleb128 0x2
 6401 0a80 74       		.byte	0x74
 6402 0a81 00       		.sleb128 0
 6403 0a82 1C       		.uleb128 0x1c
 6404 0a83 01       		.uleb128 0x1
 6405 0a84 52       		.byte	0x52
 6406 0a85 04       		.uleb128 0x4
 6407 0a86 91       		.byte	0x91
 6408 0a87 64       		.sleb128 -28
 6409 0a88 94       		.byte	0x94
 6410 0a89 01       		.byte	0x1
 6411 0a8a 1C       		.uleb128 0x1c
 6412 0a8b 01       		.uleb128 0x1
 6413 0a8c 53       		.byte	0x53
 6414 0a8d 02       		.uleb128 0x2
 6415 0a8e 77       		.byte	0x77
 6416 0a8f 00       		.sleb128 0
 6417 0a90 00       		.byte	0
 6418 0a91 1D       		.uleb128 0x1d
 6419 0a92 2E000000 		.4byte	.LVL139
 6420 0a96 1A190000 		.4byte	0x191a
 6421 0a9a BE0A0000 		.4byte	0xabe
 6422 0a9e 1C       		.uleb128 0x1c
 6423 0a9f 01       		.uleb128 0x1
 6424 0aa0 50       		.byte	0x50
 6425 0aa1 02       		.uleb128 0x2
 6426 0aa2 75       		.byte	0x75
ARM GAS  C:\Users\PC\AppData\Local\Temp\ccF7GaWd.s 			page 136


 6427 0aa3 00       		.sleb128 0
 6428 0aa4 1C       		.uleb128 0x1c
 6429 0aa5 01       		.uleb128 0x1
 6430 0aa6 51       		.byte	0x51
 6431 0aa7 07       		.uleb128 0x7
 6432 0aa8 74       		.byte	0x74
 6433 0aa9 00       		.sleb128 0
 6434 0aaa 76       		.byte	0x76
 6435 0aab 00       		.sleb128 0
 6436 0aac 22       		.byte	0x22
 6437 0aad 31       		.byte	0x31
 6438 0aae 1C       		.byte	0x1c
 6439 0aaf 1C       		.uleb128 0x1c
 6440 0ab0 01       		.uleb128 0x1
 6441 0ab1 52       		.byte	0x52
 6442 0ab2 04       		.uleb128 0x4
 6443 0ab3 91       		.byte	0x91
 6444 0ab4 64       		.sleb128 -28
 6445 0ab5 94       		.byte	0x94
 6446 0ab6 01       		.byte	0x1
 6447 0ab7 1C       		.uleb128 0x1c
 6448 0ab8 01       		.uleb128 0x1
 6449 0ab9 53       		.byte	0x53
 6450 0aba 02       		.uleb128 0x2
 6451 0abb 77       		.byte	0x77
 6452 0abc 00       		.sleb128 0
 6453 0abd 00       		.byte	0
 6454 0abe 1D       		.uleb128 0x1d
 6455 0abf 3A000000 		.4byte	.LVL140
 6456 0ac3 0F190000 		.4byte	0x190f
 6457 0ac7 E40A0000 		.4byte	0xae4
 6458 0acb 1C       		.uleb128 0x1c
 6459 0acc 01       		.uleb128 0x1
 6460 0acd 50       		.byte	0x50
 6461 0ace 02       		.uleb128 0x2
 6462 0acf 75       		.byte	0x75
 6463 0ad0 00       		.sleb128 0
 6464 0ad1 1C       		.uleb128 0x1c
 6465 0ad2 01       		.uleb128 0x1
 6466 0ad3 51       		.byte	0x51
 6467 0ad4 02       		.uleb128 0x2
 6468 0ad5 74       		.byte	0x74
 6469 0ad6 00       		.sleb128 0
 6470 0ad7 1C       		.uleb128 0x1c
 6471 0ad8 01       		.uleb128 0x1
 6472 0ad9 52       		.byte	0x52
 6473 0ada 02       		.uleb128 0x2
 6474 0adb 76       		.byte	0x76
 6475 0adc 00       		.sleb128 0
 6476 0add 1C       		.uleb128 0x1c
 6477 0ade 01       		.uleb128 0x1
 6478 0adf 53       		.byte	0x53
 6479 0ae0 02       		.uleb128 0x2
 6480 0ae1 77       		.byte	0x77
 6481 0ae2 00       		.sleb128 0
 6482 0ae3 00       		.byte	0
 6483 0ae4 1B       		.uleb128 0x1b
ARM GAS  C:\Users\PC\AppData\Local\Temp\ccF7GaWd.s 			page 137


 6484 0ae5 4C000000 		.4byte	.LVL141
 6485 0ae9 0F190000 		.4byte	0x190f
 6486 0aed 1C       		.uleb128 0x1c
 6487 0aee 01       		.uleb128 0x1
 6488 0aef 50       		.byte	0x50
 6489 0af0 02       		.uleb128 0x2
 6490 0af1 75       		.byte	0x75
 6491 0af2 00       		.sleb128 0
 6492 0af3 1C       		.uleb128 0x1c
 6493 0af4 01       		.uleb128 0x1
 6494 0af5 51       		.byte	0x51
 6495 0af6 02       		.uleb128 0x2
 6496 0af7 74       		.byte	0x74
 6497 0af8 00       		.sleb128 0
 6498 0af9 1C       		.uleb128 0x1c
 6499 0afa 01       		.uleb128 0x1
 6500 0afb 52       		.byte	0x52
 6501 0afc 02       		.uleb128 0x2
 6502 0afd 76       		.byte	0x76
 6503 0afe 00       		.sleb128 0
 6504 0aff 1C       		.uleb128 0x1c
 6505 0b00 01       		.uleb128 0x1
 6506 0b01 53       		.byte	0x53
 6507 0b02 02       		.uleb128 0x2
 6508 0b03 77       		.byte	0x77
 6509 0b04 00       		.sleb128 0
 6510 0b05 00       		.byte	0
 6511 0b06 00       		.byte	0
 6512 0b07 0D       		.uleb128 0xd
 6513 0b08 7F010000 		.4byte	.LASF42
 6514 0b0c 01       		.byte	0x1
 6515 0b0d 5302     		.2byte	0x253
 6516 0b0f 00000000 		.4byte	.LFB40
 6517 0b13 1C010000 		.4byte	.LFE40-.LFB40
 6518 0b17 01       		.uleb128 0x1
 6519 0b18 9C       		.byte	0x9c
 6520 0b19 E50C0000 		.4byte	0xce5
 6521 0b1d 0E       		.uleb128 0xe
 6522 0b1e 7800     		.ascii	"x\000"
 6523 0b20 01       		.byte	0x1
 6524 0b21 5302     		.2byte	0x253
 6525 0b23 AD000000 		.4byte	0xad
 6526 0b27 88080000 		.4byte	.LLST51
 6527 0b2b 0E       		.uleb128 0xe
 6528 0b2c 7900     		.ascii	"y\000"
 6529 0b2e 01       		.byte	0x1
 6530 0b2f 5302     		.2byte	0x253
 6531 0b31 AD000000 		.4byte	0xad
 6532 0b35 A9080000 		.4byte	.LLST52
 6533 0b39 0E       		.uleb128 0xe
 6534 0b3a 7700     		.ascii	"w\000"
 6535 0b3c 01       		.byte	0x1
 6536 0b3d 5302     		.2byte	0x253
 6537 0b3f AD000000 		.4byte	0xad
 6538 0b43 CA080000 		.4byte	.LLST53
 6539 0b47 0E       		.uleb128 0xe
 6540 0b48 6800     		.ascii	"h\000"
ARM GAS  C:\Users\PC\AppData\Local\Temp\ccF7GaWd.s 			page 138


 6541 0b4a 01       		.byte	0x1
 6542 0b4b 5302     		.2byte	0x253
 6543 0b4d AD000000 		.4byte	0xad
 6544 0b51 EB080000 		.4byte	.LLST54
 6545 0b55 0E       		.uleb128 0xe
 6546 0b56 7200     		.ascii	"r\000"
 6547 0b58 01       		.byte	0x1
 6548 0b59 5302     		.2byte	0x253
 6549 0b5b AD000000 		.4byte	0xad
 6550 0b5f 0C090000 		.4byte	.LLST55
 6551 0b63 0F       		.uleb128 0xf
 6552 0b64 6B030000 		.4byte	.LASF22
 6553 0b68 01       		.byte	0x1
 6554 0b69 5302     		.2byte	0x253
 6555 0b6b AD000000 		.4byte	0xad
 6556 0b6f 43090000 		.4byte	.LLST56
 6557 0b73 10       		.uleb128 0x10
 6558 0b74 4B040000 		.4byte	.LASF43
 6559 0b78 01       		.byte	0x1
 6560 0b79 5402     		.2byte	0x254
 6561 0b7b A2000000 		.4byte	0xa2
 6562 0b7f 7B090000 		.4byte	.LLST57
 6563 0b83 1D       		.uleb128 0x1d
 6564 0b84 6E000000 		.4byte	.LVL152
 6565 0b88 1A190000 		.4byte	0x191a
 6566 0b8c AD0B0000 		.4byte	0xbad
 6567 0b90 1C       		.uleb128 0x1c
 6568 0b91 01       		.uleb128 0x1
 6569 0b92 50       		.byte	0x50
 6570 0b93 04       		.uleb128 0x4
 6571 0b94 91       		.byte	0x91
 6572 0b95 5C       		.sleb128 -36
 6573 0b96 94       		.byte	0x94
 6574 0b97 01       		.byte	0x1
 6575 0b98 1C       		.uleb128 0x1c
 6576 0b99 01       		.uleb128 0x1
 6577 0b9a 51       		.byte	0x51
 6578 0b9b 04       		.uleb128 0x4
 6579 0b9c 91       		.byte	0x91
 6580 0b9d 50       		.sleb128 -48
 6581 0b9e 94       		.byte	0x94
 6582 0b9f 01       		.byte	0x1
 6583 0ba0 1C       		.uleb128 0x1c
 6584 0ba1 01       		.uleb128 0x1
 6585 0ba2 52       		.byte	0x52
 6586 0ba3 02       		.uleb128 0x2
 6587 0ba4 77       		.byte	0x77
 6588 0ba5 00       		.sleb128 0
 6589 0ba6 1C       		.uleb128 0x1c
 6590 0ba7 01       		.uleb128 0x1
 6591 0ba8 53       		.byte	0x53
 6592 0ba9 02       		.uleb128 0x2
 6593 0baa 76       		.byte	0x76
 6594 0bab 00       		.sleb128 0
 6595 0bac 00       		.byte	0
 6596 0bad 1D       		.uleb128 0x1d
 6597 0bae 84000000 		.4byte	.LVL153
ARM GAS  C:\Users\PC\AppData\Local\Temp\ccF7GaWd.s 			page 139


 6598 0bb2 1A190000 		.4byte	0x191a
 6599 0bb6 DB0B0000 		.4byte	0xbdb
 6600 0bba 1C       		.uleb128 0x1c
 6601 0bbb 01       		.uleb128 0x1
 6602 0bbc 50       		.byte	0x50
 6603 0bbd 04       		.uleb128 0x4
 6604 0bbe 91       		.byte	0x91
 6605 0bbf 5C       		.sleb128 -36
 6606 0bc0 94       		.byte	0x94
 6607 0bc1 01       		.byte	0x1
 6608 0bc2 1C       		.uleb128 0x1c
 6609 0bc3 01       		.uleb128 0x1
 6610 0bc4 51       		.byte	0x51
 6611 0bc5 08       		.uleb128 0x8
 6612 0bc6 91       		.byte	0x91
 6613 0bc7 50       		.sleb128 -48
 6614 0bc8 06       		.byte	0x6
 6615 0bc9 75       		.byte	0x75
 6616 0bca 00       		.sleb128 0
 6617 0bcb 22       		.byte	0x22
 6618 0bcc 31       		.byte	0x31
 6619 0bcd 1C       		.byte	0x1c
 6620 0bce 1C       		.uleb128 0x1c
 6621 0bcf 01       		.uleb128 0x1
 6622 0bd0 52       		.byte	0x52
 6623 0bd1 02       		.uleb128 0x2
 6624 0bd2 77       		.byte	0x77
 6625 0bd3 00       		.sleb128 0
 6626 0bd4 1C       		.uleb128 0x1c
 6627 0bd5 01       		.uleb128 0x1
 6628 0bd6 53       		.byte	0x53
 6629 0bd7 02       		.uleb128 0x2
 6630 0bd8 76       		.byte	0x76
 6631 0bd9 00       		.sleb128 0
 6632 0bda 00       		.byte	0
 6633 0bdb 1D       		.uleb128 0x1d
 6634 0bdc A0000000 		.4byte	.LVL154
 6635 0be0 0F190000 		.4byte	0x190f
 6636 0be4 030C0000 		.4byte	0xc03
 6637 0be8 1C       		.uleb128 0x1c
 6638 0be9 01       		.uleb128 0x1
 6639 0bea 50       		.byte	0x50
 6640 0beb 04       		.uleb128 0x4
 6641 0bec 91       		.byte	0x91
 6642 0bed 4C       		.sleb128 -52
 6643 0bee 94       		.byte	0x94
 6644 0bef 01       		.byte	0x1
 6645 0bf0 1C       		.uleb128 0x1c
 6646 0bf1 01       		.uleb128 0x1
 6647 0bf2 51       		.byte	0x51
 6648 0bf3 02       		.uleb128 0x2
 6649 0bf4 77       		.byte	0x77
 6650 0bf5 00       		.sleb128 0
 6651 0bf6 1C       		.uleb128 0x1c
 6652 0bf7 01       		.uleb128 0x1
 6653 0bf8 52       		.byte	0x52
 6654 0bf9 02       		.uleb128 0x2
ARM GAS  C:\Users\PC\AppData\Local\Temp\ccF7GaWd.s 			page 140


 6655 0bfa 75       		.byte	0x75
 6656 0bfb 00       		.sleb128 0
 6657 0bfc 1C       		.uleb128 0x1c
 6658 0bfd 01       		.uleb128 0x1
 6659 0bfe 53       		.byte	0x53
 6660 0bff 02       		.uleb128 0x2
 6661 0c00 76       		.byte	0x76
 6662 0c01 00       		.sleb128 0
 6663 0c02 00       		.byte	0
 6664 0c03 1D       		.uleb128 0x1d
 6665 0c04 B4000000 		.4byte	.LVL155
 6666 0c08 0F190000 		.4byte	0x190f
 6667 0c0c 300C0000 		.4byte	0xc30
 6668 0c10 1C       		.uleb128 0x1c
 6669 0c11 01       		.uleb128 0x1
 6670 0c12 50       		.byte	0x50
 6671 0c13 09       		.uleb128 0x9
 6672 0c14 91       		.byte	0x91
 6673 0c15 4C       		.sleb128 -52
 6674 0c16 06       		.byte	0x6
 6675 0c17 91       		.byte	0x91
 6676 0c18 60       		.sleb128 -32
 6677 0c19 06       		.byte	0x6
 6678 0c1a 22       		.byte	0x22
 6679 0c1b 31       		.byte	0x31
 6680 0c1c 1C       		.byte	0x1c
 6681 0c1d 1C       		.uleb128 0x1c
 6682 0c1e 01       		.uleb128 0x1
 6683 0c1f 51       		.byte	0x51
 6684 0c20 02       		.uleb128 0x2
 6685 0c21 77       		.byte	0x77
 6686 0c22 00       		.sleb128 0
 6687 0c23 1C       		.uleb128 0x1c
 6688 0c24 01       		.uleb128 0x1
 6689 0c25 52       		.byte	0x52
 6690 0c26 02       		.uleb128 0x2
 6691 0c27 75       		.byte	0x75
 6692 0c28 00       		.sleb128 0
 6693 0c29 1C       		.uleb128 0x1c
 6694 0c2a 01       		.uleb128 0x1
 6695 0c2b 53       		.byte	0x53
 6696 0c2c 02       		.uleb128 0x2
 6697 0c2d 76       		.byte	0x76
 6698 0c2e 00       		.sleb128 0
 6699 0c2f 00       		.byte	0
 6700 0c30 1D       		.uleb128 0x1d
 6701 0c31 D0000000 		.4byte	.LVL156
 6702 0c35 BE050000 		.4byte	0x5be
 6703 0c39 5E0C0000 		.4byte	0xc5e
 6704 0c3d 1C       		.uleb128 0x1c
 6705 0c3e 01       		.uleb128 0x1
 6706 0c3f 50       		.byte	0x50
 6707 0c40 02       		.uleb128 0x2
 6708 0c41 75       		.byte	0x75
 6709 0c42 00       		.sleb128 0
 6710 0c43 1C       		.uleb128 0x1c
 6711 0c44 01       		.uleb128 0x1
ARM GAS  C:\Users\PC\AppData\Local\Temp\ccF7GaWd.s 			page 141


 6712 0c45 51       		.byte	0x51
 6713 0c46 02       		.uleb128 0x2
 6714 0c47 76       		.byte	0x76
 6715 0c48 00       		.sleb128 0
 6716 0c49 1C       		.uleb128 0x1c
 6717 0c4a 01       		.uleb128 0x1
 6718 0c4b 52       		.byte	0x52
 6719 0c4c 02       		.uleb128 0x2
 6720 0c4d 74       		.byte	0x74
 6721 0c4e 00       		.sleb128 0
 6722 0c4f 1C       		.uleb128 0x1c
 6723 0c50 01       		.uleb128 0x1
 6724 0c51 53       		.byte	0x53
 6725 0c52 01       		.uleb128 0x1
 6726 0c53 31       		.byte	0x31
 6727 0c54 1C       		.uleb128 0x1c
 6728 0c55 02       		.uleb128 0x2
 6729 0c56 7D       		.byte	0x7d
 6730 0c57 00       		.sleb128 0
 6731 0c58 04       		.uleb128 0x4
 6732 0c59 91       		.byte	0x91
 6733 0c5a 40       		.sleb128 -64
 6734 0c5b 94       		.byte	0x94
 6735 0c5c 02       		.byte	0x2
 6736 0c5d 00       		.byte	0
 6737 0c5e 1D       		.uleb128 0x1d
 6738 0c5f EC000000 		.4byte	.LVL157
 6739 0c63 BE050000 		.4byte	0x5be
 6740 0c67 8C0C0000 		.4byte	0xc8c
 6741 0c6b 1C       		.uleb128 0x1c
 6742 0c6c 01       		.uleb128 0x1
 6743 0c6d 50       		.byte	0x50
 6744 0c6e 02       		.uleb128 0x2
 6745 0c6f 77       		.byte	0x77
 6746 0c70 00       		.sleb128 0
 6747 0c71 1C       		.uleb128 0x1c
 6748 0c72 01       		.uleb128 0x1
 6749 0c73 51       		.byte	0x51
 6750 0c74 02       		.uleb128 0x2
 6751 0c75 76       		.byte	0x76
 6752 0c76 00       		.sleb128 0
 6753 0c77 1C       		.uleb128 0x1c
 6754 0c78 01       		.uleb128 0x1
 6755 0c79 52       		.byte	0x52
 6756 0c7a 02       		.uleb128 0x2
 6757 0c7b 74       		.byte	0x74
 6758 0c7c 00       		.sleb128 0
 6759 0c7d 1C       		.uleb128 0x1c
 6760 0c7e 01       		.uleb128 0x1
 6761 0c7f 53       		.byte	0x53
 6762 0c80 01       		.uleb128 0x1
 6763 0c81 32       		.byte	0x32
 6764 0c82 1C       		.uleb128 0x1c
 6765 0c83 02       		.uleb128 0x2
 6766 0c84 7D       		.byte	0x7d
 6767 0c85 00       		.sleb128 0
 6768 0c86 04       		.uleb128 0x4
ARM GAS  C:\Users\PC\AppData\Local\Temp\ccF7GaWd.s 			page 142


 6769 0c87 91       		.byte	0x91
 6770 0c88 40       		.sleb128 -64
 6771 0c89 94       		.byte	0x94
 6772 0c8a 02       		.byte	0x2
 6773 0c8b 00       		.byte	0
 6774 0c8c 1D       		.uleb128 0x1d
 6775 0c8d 08010000 		.4byte	.LVL158
 6776 0c91 BE050000 		.4byte	0x5be
 6777 0c95 BA0C0000 		.4byte	0xcba
 6778 0c99 1C       		.uleb128 0x1c
 6779 0c9a 01       		.uleb128 0x1
 6780 0c9b 50       		.byte	0x50
 6781 0c9c 02       		.uleb128 0x2
 6782 0c9d 77       		.byte	0x77
 6783 0c9e 00       		.sleb128 0
 6784 0c9f 1C       		.uleb128 0x1c
 6785 0ca0 01       		.uleb128 0x1
 6786 0ca1 51       		.byte	0x51
 6787 0ca2 02       		.uleb128 0x2
 6788 0ca3 76       		.byte	0x76
 6789 0ca4 00       		.sleb128 0
 6790 0ca5 1C       		.uleb128 0x1c
 6791 0ca6 01       		.uleb128 0x1
 6792 0ca7 52       		.byte	0x52
 6793 0ca8 02       		.uleb128 0x2
 6794 0ca9 74       		.byte	0x74
 6795 0caa 00       		.sleb128 0
 6796 0cab 1C       		.uleb128 0x1c
 6797 0cac 01       		.uleb128 0x1
 6798 0cad 53       		.byte	0x53
 6799 0cae 01       		.uleb128 0x1
 6800 0caf 34       		.byte	0x34
 6801 0cb0 1C       		.uleb128 0x1c
 6802 0cb1 02       		.uleb128 0x2
 6803 0cb2 7D       		.byte	0x7d
 6804 0cb3 00       		.sleb128 0
 6805 0cb4 04       		.uleb128 0x4
 6806 0cb5 91       		.byte	0x91
 6807 0cb6 40       		.sleb128 -64
 6808 0cb7 94       		.byte	0x94
 6809 0cb8 02       		.byte	0x2
 6810 0cb9 00       		.byte	0
 6811 0cba 1B       		.uleb128 0x1b
 6812 0cbb 18010000 		.4byte	.LVL159
 6813 0cbf BE050000 		.4byte	0x5be
 6814 0cc3 1C       		.uleb128 0x1c
 6815 0cc4 01       		.uleb128 0x1
 6816 0cc5 50       		.byte	0x50
 6817 0cc6 02       		.uleb128 0x2
 6818 0cc7 75       		.byte	0x75
 6819 0cc8 00       		.sleb128 0
 6820 0cc9 1C       		.uleb128 0x1c
 6821 0cca 01       		.uleb128 0x1
 6822 0ccb 51       		.byte	0x51
 6823 0ccc 02       		.uleb128 0x2
 6824 0ccd 76       		.byte	0x76
 6825 0cce 00       		.sleb128 0
ARM GAS  C:\Users\PC\AppData\Local\Temp\ccF7GaWd.s 			page 143


 6826 0ccf 1C       		.uleb128 0x1c
 6827 0cd0 01       		.uleb128 0x1
 6828 0cd1 52       		.byte	0x52
 6829 0cd2 02       		.uleb128 0x2
 6830 0cd3 74       		.byte	0x74
 6831 0cd4 00       		.sleb128 0
 6832 0cd5 1C       		.uleb128 0x1c
 6833 0cd6 01       		.uleb128 0x1
 6834 0cd7 53       		.byte	0x53
 6835 0cd8 01       		.uleb128 0x1
 6836 0cd9 38       		.byte	0x38
 6837 0cda 1C       		.uleb128 0x1c
 6838 0cdb 02       		.uleb128 0x2
 6839 0cdc 7D       		.byte	0x7d
 6840 0cdd 00       		.sleb128 0
 6841 0cde 04       		.uleb128 0x4
 6842 0cdf 91       		.byte	0x91
 6843 0ce0 40       		.sleb128 -64
 6844 0ce1 94       		.byte	0x94
 6845 0ce2 02       		.byte	0x2
 6846 0ce3 00       		.byte	0
 6847 0ce4 00       		.byte	0
 6848 0ce5 0D       		.uleb128 0xd
 6849 0ce6 27030000 		.4byte	.LASF44
 6850 0cea 01       		.byte	0x1
 6851 0ceb 6D02     		.2byte	0x26d
 6852 0ced 00000000 		.4byte	.LFB41
 6853 0cf1 7E000000 		.4byte	.LFE41-.LFB41
 6854 0cf5 01       		.uleb128 0x1
 6855 0cf6 9C       		.byte	0x9c
 6856 0cf7 130E0000 		.4byte	0xe13
 6857 0cfb 0E       		.uleb128 0xe
 6858 0cfc 7800     		.ascii	"x\000"
 6859 0cfe 01       		.byte	0x1
 6860 0cff 6D02     		.2byte	0x26d
 6861 0d01 AD000000 		.4byte	0xad
 6862 0d05 8E090000 		.4byte	.LLST58
 6863 0d09 0E       		.uleb128 0xe
 6864 0d0a 7900     		.ascii	"y\000"
 6865 0d0c 01       		.byte	0x1
 6866 0d0d 6D02     		.2byte	0x26d
 6867 0d0f AD000000 		.4byte	0xad
 6868 0d13 AF090000 		.4byte	.LLST59
 6869 0d17 0E       		.uleb128 0xe
 6870 0d18 7700     		.ascii	"w\000"
 6871 0d1a 01       		.byte	0x1
 6872 0d1b 6D02     		.2byte	0x26d
 6873 0d1d AD000000 		.4byte	0xad
 6874 0d21 D0090000 		.4byte	.LLST60
 6875 0d25 0E       		.uleb128 0xe
 6876 0d26 6800     		.ascii	"h\000"
 6877 0d28 01       		.byte	0x1
 6878 0d29 6E02     		.2byte	0x26e
 6879 0d2b AD000000 		.4byte	0xad
 6880 0d2f F1090000 		.4byte	.LLST61
 6881 0d33 0E       		.uleb128 0xe
 6882 0d34 7200     		.ascii	"r\000"
ARM GAS  C:\Users\PC\AppData\Local\Temp\ccF7GaWd.s 			page 144


 6883 0d36 01       		.byte	0x1
 6884 0d37 6E02     		.2byte	0x26e
 6885 0d39 AD000000 		.4byte	0xad
 6886 0d3d 120A0000 		.4byte	.LLST62
 6887 0d41 0F       		.uleb128 0xf
 6888 0d42 6B030000 		.4byte	.LASF22
 6889 0d46 01       		.byte	0x1
 6890 0d47 6E02     		.2byte	0x26e
 6891 0d49 AD000000 		.4byte	0xad
 6892 0d4d 490A0000 		.4byte	.LLST63
 6893 0d51 10       		.uleb128 0x10
 6894 0d52 4B040000 		.4byte	.LASF43
 6895 0d56 01       		.byte	0x1
 6896 0d57 6F02     		.2byte	0x26f
 6897 0d59 A2000000 		.4byte	0xa2
 6898 0d5d 810A0000 		.4byte	.LLST64
 6899 0d61 1E       		.uleb128 0x1e
 6900 0d62 EF020000 		.4byte	.LASF45
 6901 0d66 01       		.byte	0x1
 6902 0d67 7202     		.2byte	0x272
 6903 0d69 89000000 		.4byte	0x89
 6904 0d6d 730D0000 		.4byte	0xd73
 6905 0d71 12       		.uleb128 0x12
 6906 0d72 00       		.byte	0
 6907 0d73 1D       		.uleb128 0x1d
 6908 0d74 40000000 		.4byte	.LVL171
 6909 0d78 25190000 		.4byte	0x1925
 6910 0d7c A70D0000 		.4byte	0xda7
 6911 0d80 1C       		.uleb128 0x1c
 6912 0d81 01       		.uleb128 0x1
 6913 0d82 50       		.byte	0x50
 6914 0d83 03       		.uleb128 0x3
 6915 0d84 91       		.byte	0x91
 6916 0d85 64       		.sleb128 -28
 6917 0d86 06       		.byte	0x6
 6918 0d87 1C       		.uleb128 0x1c
 6919 0d88 01       		.uleb128 0x1
 6920 0d89 51       		.byte	0x51
 6921 0d8a 02       		.uleb128 0x2
 6922 0d8b 76       		.byte	0x76
 6923 0d8c 00       		.sleb128 0
 6924 0d8d 1C       		.uleb128 0x1c
 6925 0d8e 01       		.uleb128 0x1
 6926 0d8f 52       		.byte	0x52
 6927 0d90 07       		.uleb128 0x7
 6928 0d91 77       		.byte	0x77
 6929 0d92 00       		.sleb128 0
 6930 0d93 75       		.byte	0x75
 6931 0d94 00       		.sleb128 0
 6932 0d95 31       		.byte	0x31
 6933 0d96 24       		.byte	0x24
 6934 0d97 1C       		.byte	0x1c
 6935 0d98 1C       		.uleb128 0x1c
 6936 0d99 01       		.uleb128 0x1
 6937 0d9a 53       		.byte	0x53
 6938 0d9b 02       		.uleb128 0x2
 6939 0d9c 74       		.byte	0x74
ARM GAS  C:\Users\PC\AppData\Local\Temp\ccF7GaWd.s 			page 145


 6940 0d9d 00       		.sleb128 0
 6941 0d9e 1C       		.uleb128 0x1c
 6942 0d9f 02       		.uleb128 0x2
 6943 0da0 7D       		.byte	0x7d
 6944 0da1 00       		.sleb128 0
 6945 0da2 03       		.uleb128 0x3
 6946 0da3 91       		.byte	0x91
 6947 0da4 5C       		.sleb128 -36
 6948 0da5 06       		.byte	0x6
 6949 0da6 00       		.byte	0
 6950 0da7 1D       		.uleb128 0x1d
 6951 0da8 66000000 		.4byte	.LVL172
 6952 0dac 93070000 		.4byte	0x793
 6953 0db0 DF0D0000 		.4byte	0xddf
 6954 0db4 1C       		.uleb128 0x1c
 6955 0db5 01       		.uleb128 0x1
 6956 0db6 50       		.byte	0x50
 6957 0db7 05       		.uleb128 0x5
 6958 0db8 77       		.byte	0x77
 6959 0db9 00       		.sleb128 0
 6960 0dba 75       		.byte	0x75
 6961 0dbb 00       		.sleb128 0
 6962 0dbc 1C       		.byte	0x1c
 6963 0dbd 1C       		.uleb128 0x1c
 6964 0dbe 01       		.uleb128 0x1
 6965 0dbf 51       		.byte	0x51
 6966 0dc0 02       		.uleb128 0x2
 6967 0dc1 76       		.byte	0x76
 6968 0dc2 00       		.sleb128 0
 6969 0dc3 1C       		.uleb128 0x1c
 6970 0dc4 01       		.uleb128 0x1
 6971 0dc5 52       		.byte	0x52
 6972 0dc6 02       		.uleb128 0x2
 6973 0dc7 75       		.byte	0x75
 6974 0dc8 00       		.sleb128 0
 6975 0dc9 1C       		.uleb128 0x1c
 6976 0dca 01       		.uleb128 0x1
 6977 0dcb 53       		.byte	0x53
 6978 0dcc 01       		.uleb128 0x1
 6979 0dcd 31       		.byte	0x31
 6980 0dce 1C       		.uleb128 0x1c
 6981 0dcf 02       		.uleb128 0x2
 6982 0dd0 7D       		.byte	0x7d
 6983 0dd1 00       		.sleb128 0
 6984 0dd2 02       		.uleb128 0x2
 6985 0dd3 74       		.byte	0x74
 6986 0dd4 00       		.sleb128 0
 6987 0dd5 1C       		.uleb128 0x1c
 6988 0dd6 02       		.uleb128 0x2
 6989 0dd7 7D       		.byte	0x7d
 6990 0dd8 04       		.sleb128 4
 6991 0dd9 04       		.uleb128 0x4
 6992 0dda 91       		.byte	0x91
 6993 0ddb 5C       		.sleb128 -36
 6994 0ddc 94       		.byte	0x94
 6995 0ddd 02       		.byte	0x2
 6996 0dde 00       		.byte	0
ARM GAS  C:\Users\PC\AppData\Local\Temp\ccF7GaWd.s 			page 146


 6997 0ddf 1B       		.uleb128 0x1b
 6998 0de0 7A000000 		.4byte	.LVL173
 6999 0de4 93070000 		.4byte	0x793
 7000 0de8 1C       		.uleb128 0x1c
 7001 0de9 01       		.uleb128 0x1
 7002 0dea 50       		.byte	0x50
 7003 0deb 04       		.uleb128 0x4
 7004 0dec 7D       		.byte	0x7d
 7005 0ded 14       		.sleb128 20
 7006 0dee 94       		.byte	0x94
 7007 0def 02       		.byte	0x2
 7008 0df0 1C       		.uleb128 0x1c
 7009 0df1 01       		.uleb128 0x1
 7010 0df2 51       		.byte	0x51
 7011 0df3 02       		.uleb128 0x2
 7012 0df4 76       		.byte	0x76
 7013 0df5 00       		.sleb128 0
 7014 0df6 1C       		.uleb128 0x1c
 7015 0df7 01       		.uleb128 0x1
 7016 0df8 52       		.byte	0x52
 7017 0df9 02       		.uleb128 0x2
 7018 0dfa 75       		.byte	0x75
 7019 0dfb 00       		.sleb128 0
 7020 0dfc 1C       		.uleb128 0x1c
 7021 0dfd 01       		.uleb128 0x1
 7022 0dfe 53       		.byte	0x53
 7023 0dff 01       		.uleb128 0x1
 7024 0e00 32       		.byte	0x32
 7025 0e01 1C       		.uleb128 0x1c
 7026 0e02 02       		.uleb128 0x2
 7027 0e03 7D       		.byte	0x7d
 7028 0e04 00       		.sleb128 0
 7029 0e05 02       		.uleb128 0x2
 7030 0e06 74       		.byte	0x74
 7031 0e07 00       		.sleb128 0
 7032 0e08 1C       		.uleb128 0x1c
 7033 0e09 02       		.uleb128 0x2
 7034 0e0a 7D       		.byte	0x7d
 7035 0e0b 04       		.sleb128 4
 7036 0e0c 04       		.uleb128 0x4
 7037 0e0d 91       		.byte	0x91
 7038 0e0e 5C       		.sleb128 -36
 7039 0e0f 94       		.byte	0x94
 7040 0e10 02       		.byte	0x2
 7041 0e11 00       		.byte	0
 7042 0e12 00       		.byte	0
 7043 0e13 0D       		.uleb128 0xd
 7044 0e14 12030000 		.4byte	.LASF46
 7045 0e18 01       		.byte	0x1
 7046 0e19 8502     		.2byte	0x285
 7047 0e1b 00000000 		.4byte	.LFB42
 7048 0e1f 44000000 		.4byte	.LFE42-.LFB42
 7049 0e23 01       		.uleb128 0x1
 7050 0e24 9C       		.byte	0x9c
 7051 0e25 230F0000 		.4byte	0xf23
 7052 0e29 0E       		.uleb128 0xe
 7053 0e2a 783000   		.ascii	"x0\000"
ARM GAS  C:\Users\PC\AppData\Local\Temp\ccF7GaWd.s 			page 147


 7054 0e2d 01       		.byte	0x1
 7055 0e2e 8502     		.2byte	0x285
 7056 0e30 AD000000 		.4byte	0xad
 7057 0e34 940A0000 		.4byte	.LLST65
 7058 0e38 0E       		.uleb128 0xe
 7059 0e39 793000   		.ascii	"y0\000"
 7060 0e3c 01       		.byte	0x1
 7061 0e3d 8502     		.2byte	0x285
 7062 0e3f AD000000 		.4byte	0xad
 7063 0e43 B50A0000 		.4byte	.LLST66
 7064 0e47 0E       		.uleb128 0xe
 7065 0e48 783100   		.ascii	"x1\000"
 7066 0e4b 01       		.byte	0x1
 7067 0e4c 8502     		.2byte	0x285
 7068 0e4e AD000000 		.4byte	0xad
 7069 0e52 D60A0000 		.4byte	.LLST67
 7070 0e56 0E       		.uleb128 0xe
 7071 0e57 793100   		.ascii	"y1\000"
 7072 0e5a 01       		.byte	0x1
 7073 0e5b 8502     		.2byte	0x285
 7074 0e5d AD000000 		.4byte	0xad
 7075 0e61 F70A0000 		.4byte	.LLST68
 7076 0e65 0E       		.uleb128 0xe
 7077 0e66 783200   		.ascii	"x2\000"
 7078 0e69 01       		.byte	0x1
 7079 0e6a 8602     		.2byte	0x286
 7080 0e6c AD000000 		.4byte	0xad
 7081 0e70 180B0000 		.4byte	.LLST69
 7082 0e74 0E       		.uleb128 0xe
 7083 0e75 793200   		.ascii	"y2\000"
 7084 0e78 01       		.byte	0x1
 7085 0e79 8602     		.2byte	0x286
 7086 0e7b AD000000 		.4byte	0xad
 7087 0e7f 440B0000 		.4byte	.LLST70
 7088 0e83 0F       		.uleb128 0xf
 7089 0e84 6B030000 		.4byte	.LASF22
 7090 0e88 01       		.byte	0x1
 7091 0e89 8602     		.2byte	0x286
 7092 0e8b AD000000 		.4byte	0xad
 7093 0e8f 880B0000 		.4byte	.LLST71
 7094 0e93 1D       		.uleb128 0x1d
 7095 0e94 24000000 		.4byte	.LVL182
 7096 0e98 EC000000 		.4byte	0xec
 7097 0e9c C20E0000 		.4byte	0xec2
 7098 0ea0 1C       		.uleb128 0x1c
 7099 0ea1 01       		.uleb128 0x1
 7100 0ea2 50       		.byte	0x50
 7101 0ea3 04       		.uleb128 0x4
 7102 0ea4 91       		.byte	0x91
 7103 0ea5 5C       		.sleb128 -36
 7104 0ea6 94       		.byte	0x94
 7105 0ea7 02       		.byte	0x2
 7106 0ea8 1C       		.uleb128 0x1c
 7107 0ea9 01       		.uleb128 0x1
 7108 0eaa 51       		.byte	0x51
 7109 0eab 02       		.uleb128 0x2
 7110 0eac 75       		.byte	0x75
ARM GAS  C:\Users\PC\AppData\Local\Temp\ccF7GaWd.s 			page 148


 7111 0ead 00       		.sleb128 0
 7112 0eae 1C       		.uleb128 0x1c
 7113 0eaf 01       		.uleb128 0x1
 7114 0eb0 52       		.byte	0x52
 7115 0eb1 02       		.uleb128 0x2
 7116 0eb2 76       		.byte	0x76
 7117 0eb3 00       		.sleb128 0
 7118 0eb4 1C       		.uleb128 0x1c
 7119 0eb5 01       		.uleb128 0x1
 7120 0eb6 53       		.byte	0x53
 7121 0eb7 02       		.uleb128 0x2
 7122 0eb8 77       		.byte	0x77
 7123 0eb9 00       		.sleb128 0
 7124 0eba 1C       		.uleb128 0x1c
 7125 0ebb 02       		.uleb128 0x2
 7126 0ebc 7D       		.byte	0x7d
 7127 0ebd 00       		.sleb128 0
 7128 0ebe 02       		.uleb128 0x2
 7129 0ebf 74       		.byte	0x74
 7130 0ec0 00       		.sleb128 0
 7131 0ec1 00       		.byte	0
 7132 0ec2 1D       		.uleb128 0x1d
 7133 0ec3 32000000 		.4byte	.LVL183
 7134 0ec7 EC000000 		.4byte	0xec
 7135 0ecb F30E0000 		.4byte	0xef3
 7136 0ecf 1C       		.uleb128 0x1c
 7137 0ed0 01       		.uleb128 0x1
 7138 0ed1 50       		.byte	0x50
 7139 0ed2 02       		.uleb128 0x2
 7140 0ed3 76       		.byte	0x76
 7141 0ed4 00       		.sleb128 0
 7142 0ed5 1C       		.uleb128 0x1c
 7143 0ed6 01       		.uleb128 0x1
 7144 0ed7 51       		.byte	0x51
 7145 0ed8 02       		.uleb128 0x2
 7146 0ed9 77       		.byte	0x77
 7147 0eda 00       		.sleb128 0
 7148 0edb 1C       		.uleb128 0x1c
 7149 0edc 01       		.uleb128 0x1
 7150 0edd 52       		.byte	0x52
 7151 0ede 04       		.uleb128 0x4
 7152 0edf 91       		.byte	0x91
 7153 0ee0 60       		.sleb128 -32
 7154 0ee1 94       		.byte	0x94
 7155 0ee2 02       		.byte	0x2
 7156 0ee3 1C       		.uleb128 0x1c
 7157 0ee4 01       		.uleb128 0x1
 7158 0ee5 53       		.byte	0x53
 7159 0ee6 04       		.uleb128 0x4
 7160 0ee7 91       		.byte	0x91
 7161 0ee8 64       		.sleb128 -28
 7162 0ee9 94       		.byte	0x94
 7163 0eea 02       		.byte	0x2
 7164 0eeb 1C       		.uleb128 0x1c
 7165 0eec 02       		.uleb128 0x2
 7166 0eed 7D       		.byte	0x7d
 7167 0eee 00       		.sleb128 0
ARM GAS  C:\Users\PC\AppData\Local\Temp\ccF7GaWd.s 			page 149


 7168 0eef 02       		.uleb128 0x2
 7169 0ef0 74       		.byte	0x74
 7170 0ef1 00       		.sleb128 0
 7171 0ef2 00       		.byte	0
 7172 0ef3 1B       		.uleb128 0x1b
 7173 0ef4 40000000 		.4byte	.LVL184
 7174 0ef8 EC000000 		.4byte	0xec
 7175 0efc 1C       		.uleb128 0x1c
 7176 0efd 01       		.uleb128 0x1
 7177 0efe 50       		.byte	0x50
 7178 0eff 04       		.uleb128 0x4
 7179 0f00 91       		.byte	0x91
 7180 0f01 60       		.sleb128 -32
 7181 0f02 94       		.byte	0x94
 7182 0f03 02       		.byte	0x2
 7183 0f04 1C       		.uleb128 0x1c
 7184 0f05 01       		.uleb128 0x1
 7185 0f06 51       		.byte	0x51
 7186 0f07 04       		.uleb128 0x4
 7187 0f08 91       		.byte	0x91
 7188 0f09 64       		.sleb128 -28
 7189 0f0a 94       		.byte	0x94
 7190 0f0b 02       		.byte	0x2
 7191 0f0c 1C       		.uleb128 0x1c
 7192 0f0d 01       		.uleb128 0x1
 7193 0f0e 52       		.byte	0x52
 7194 0f0f 04       		.uleb128 0x4
 7195 0f10 91       		.byte	0x91
 7196 0f11 5C       		.sleb128 -36
 7197 0f12 94       		.byte	0x94
 7198 0f13 02       		.byte	0x2
 7199 0f14 1C       		.uleb128 0x1c
 7200 0f15 01       		.uleb128 0x1
 7201 0f16 53       		.byte	0x53
 7202 0f17 02       		.uleb128 0x2
 7203 0f18 75       		.byte	0x75
 7204 0f19 00       		.sleb128 0
 7205 0f1a 1C       		.uleb128 0x1c
 7206 0f1b 02       		.uleb128 0x2
 7207 0f1c 7D       		.byte	0x7d
 7208 0f1d 00       		.sleb128 0
 7209 0f1e 02       		.uleb128 0x2
 7210 0f1f 74       		.byte	0x74
 7211 0f20 00       		.sleb128 0
 7212 0f21 00       		.byte	0
 7213 0f22 00       		.byte	0
 7214 0f23 1F       		.uleb128 0x1f
 7215 0f24 B9010000 		.4byte	.LASF47
 7216 0f28 01       		.byte	0x1
 7217 0f29 9802     		.2byte	0x298
 7218 0f2b 00000000 		.4byte	.LFB43
 7219 0f2f A8010000 		.4byte	.LFE43-.LFB43
 7220 0f33 01       		.uleb128 0x1
 7221 0f34 9C       		.byte	0x9c
 7222 0f35 E6100000 		.4byte	0x10e6
 7223 0f39 0E       		.uleb128 0xe
 7224 0f3a 783000   		.ascii	"x0\000"
ARM GAS  C:\Users\PC\AppData\Local\Temp\ccF7GaWd.s 			page 150


 7225 0f3d 01       		.byte	0x1
 7226 0f3e 9802     		.2byte	0x298
 7227 0f40 AD000000 		.4byte	0xad
 7228 0f44 CC0B0000 		.4byte	.LLST72
 7229 0f48 0E       		.uleb128 0xe
 7230 0f49 793000   		.ascii	"y0\000"
 7231 0f4c 01       		.byte	0x1
 7232 0f4d 9802     		.2byte	0x298
 7233 0f4f AD000000 		.4byte	0xad
 7234 0f53 0B0C0000 		.4byte	.LLST73
 7235 0f57 0E       		.uleb128 0xe
 7236 0f58 783100   		.ascii	"x1\000"
 7237 0f5b 01       		.byte	0x1
 7238 0f5c 9802     		.2byte	0x298
 7239 0f5e AD000000 		.4byte	0xad
 7240 0f62 4A0C0000 		.4byte	.LLST74
 7241 0f66 0E       		.uleb128 0xe
 7242 0f67 793100   		.ascii	"y1\000"
 7243 0f6a 01       		.byte	0x1
 7244 0f6b 9802     		.2byte	0x298
 7245 0f6d AD000000 		.4byte	0xad
 7246 0f71 8C0C0000 		.4byte	.LLST75
 7247 0f75 0E       		.uleb128 0xe
 7248 0f76 783200   		.ascii	"x2\000"
 7249 0f79 01       		.byte	0x1
 7250 0f7a 9902     		.2byte	0x299
 7251 0f7c AD000000 		.4byte	0xad
 7252 0f80 D90C0000 		.4byte	.LLST76
 7253 0f84 0E       		.uleb128 0xe
 7254 0f85 793200   		.ascii	"y2\000"
 7255 0f88 01       		.byte	0x1
 7256 0f89 9902     		.2byte	0x299
 7257 0f8b AD000000 		.4byte	0xad
 7258 0f8f 100D0000 		.4byte	.LLST77
 7259 0f93 0F       		.uleb128 0xf
 7260 0f94 6B030000 		.4byte	.LASF22
 7261 0f98 01       		.byte	0x1
 7262 0f99 9902     		.2byte	0x299
 7263 0f9b AD000000 		.4byte	0xad
 7264 0f9f 610D0000 		.4byte	.LLST78
 7265 0fa3 14       		.uleb128 0x14
 7266 0fa4 6100     		.ascii	"a\000"
 7267 0fa6 01       		.byte	0x1
 7268 0fa7 9A02     		.2byte	0x29a
 7269 0fa9 A2000000 		.4byte	0xa2
 7270 0fad A50D0000 		.4byte	.LLST79
 7271 0fb1 14       		.uleb128 0x14
 7272 0fb2 6200     		.ascii	"b\000"
 7273 0fb4 01       		.byte	0x1
 7274 0fb5 9A02     		.2byte	0x29a
 7275 0fb7 A2000000 		.4byte	0xa2
 7276 0fbb 090E0000 		.4byte	.LLST80
 7277 0fbf 14       		.uleb128 0x14
 7278 0fc0 7900     		.ascii	"y\000"
 7279 0fc2 01       		.byte	0x1
 7280 0fc3 9A02     		.2byte	0x29a
 7281 0fc5 A2000000 		.4byte	0xa2
ARM GAS  C:\Users\PC\AppData\Local\Temp\ccF7GaWd.s 			page 151


 7282 0fc9 530E0000 		.4byte	.LLST81
 7283 0fcd 10       		.uleb128 0x10
 7284 0fce 07000000 		.4byte	.LASF48
 7285 0fd2 01       		.byte	0x1
 7286 0fd3 9A02     		.2byte	0x29a
 7287 0fd5 A2000000 		.4byte	0xa2
 7288 0fd9 680E0000 		.4byte	.LLST82
 7289 0fdd 10       		.uleb128 0x10
 7290 0fde 16000000 		.4byte	.LASF49
 7291 0fe2 01       		.byte	0x1
 7292 0fe3 B202     		.2byte	0x2b2
 7293 0fe5 A2000000 		.4byte	0xa2
 7294 0fe9 7C0E0000 		.4byte	.LLST83
 7295 0fed 10       		.uleb128 0x10
 7296 0fee 0C020000 		.4byte	.LASF50
 7297 0ff2 01       		.byte	0x1
 7298 0ff3 B302     		.2byte	0x2b3
 7299 0ff5 A2000000 		.4byte	0xa2
 7300 0ff9 900E0000 		.4byte	.LLST84
 7301 0ffd 10       		.uleb128 0x10
 7302 0ffe 1B000000 		.4byte	.LASF51
 7303 1002 01       		.byte	0x1
 7304 1003 B402     		.2byte	0x2b4
 7305 1005 A2000000 		.4byte	0xa2
 7306 1009 A40E0000 		.4byte	.LLST85
 7307 100d 10       		.uleb128 0x10
 7308 100e 11020000 		.4byte	.LASF52
 7309 1012 01       		.byte	0x1
 7310 1013 B502     		.2byte	0x2b5
 7311 1015 A2000000 		.4byte	0xa2
 7312 1019 B80E0000 		.4byte	.LLST86
 7313 101d 10       		.uleb128 0x10
 7314 101e 5A000000 		.4byte	.LASF53
 7315 1022 01       		.byte	0x1
 7316 1023 B602     		.2byte	0x2b6
 7317 1025 A2000000 		.4byte	0xa2
 7318 1029 CC0E0000 		.4byte	.LLST87
 7319 102d 10       		.uleb128 0x10
 7320 102e 39020000 		.4byte	.LASF54
 7321 1032 01       		.byte	0x1
 7322 1033 B702     		.2byte	0x2b7
 7323 1035 A2000000 		.4byte	0xa2
 7324 1039 E00E0000 		.4byte	.LLST88
 7325 103d 14       		.uleb128 0x14
 7326 103e 736100   		.ascii	"sa\000"
 7327 1041 01       		.byte	0x1
 7328 1042 B902     		.2byte	0x2b9
 7329 1044 B8000000 		.4byte	0xb8
 7330 1048 F40E0000 		.4byte	.LLST89
 7331 104c 14       		.uleb128 0x14
 7332 104d 736200   		.ascii	"sb\000"
 7333 1050 01       		.byte	0x1
 7334 1051 BA02     		.2byte	0x2ba
 7335 1053 B8000000 		.4byte	0xb8
 7336 1057 450F0000 		.4byte	.LLST90
 7337 105b 16       		.uleb128 0x16
 7338 105c 30000000 		.4byte	.Ldebug_ranges0+0x30
ARM GAS  C:\Users\PC\AppData\Local\Temp\ccF7GaWd.s 			page 152


 7339 1060 6F100000 		.4byte	0x106f
 7340 1064 0A       		.uleb128 0xa
 7341 1065 7400     		.ascii	"t\000"
 7342 1067 01       		.byte	0x1
 7343 1068 A102     		.2byte	0x2a1
 7344 106a A2000000 		.4byte	0xa2
 7345 106e 00       		.byte	0
 7346 106f 16       		.uleb128 0x16
 7347 1070 48000000 		.4byte	.Ldebug_ranges0+0x48
 7348 1074 83100000 		.4byte	0x1083
 7349 1078 0A       		.uleb128 0xa
 7350 1079 7400     		.ascii	"t\000"
 7351 107b 01       		.byte	0x1
 7352 107c 9E02     		.2byte	0x29e
 7353 107e A2000000 		.4byte	0xa2
 7354 1082 00       		.byte	0
 7355 1083 1D       		.uleb128 0x1d
 7356 1084 9C000000 		.4byte	.LVL213
 7357 1088 1A190000 		.4byte	0x191a
 7358 108c 9F100000 		.4byte	0x109f
 7359 1090 1C       		.uleb128 0x1c
 7360 1091 01       		.uleb128 0x1
 7361 1092 51       		.byte	0x51
 7362 1093 02       		.uleb128 0x2
 7363 1094 74       		.byte	0x74
 7364 1095 00       		.sleb128 0
 7365 1096 1C       		.uleb128 0x1c
 7366 1097 01       		.uleb128 0x1
 7367 1098 53       		.byte	0x53
 7368 1099 04       		.uleb128 0x4
 7369 109a 7D       		.byte	0x7d
 7370 109b 1C       		.sleb128 28
 7371 109c 94       		.byte	0x94
 7372 109d 01       		.byte	0x1
 7373 109e 00       		.byte	0
 7374 109f 1D       		.uleb128 0x1d
 7375 10a0 34010000 		.4byte	.LVL230
 7376 10a4 1A190000 		.4byte	0x191a
 7377 10a8 C5100000 		.4byte	0x10c5
 7378 10ac 1C       		.uleb128 0x1c
 7379 10ad 01       		.uleb128 0x1
 7380 10ae 50       		.byte	0x50
 7381 10af 04       		.uleb128 0x4
 7382 10b0 7D       		.byte	0x7d
 7383 10b1 0C       		.sleb128 12
 7384 10b2 94       		.byte	0x94
 7385 10b3 01       		.byte	0x1
 7386 10b4 1C       		.uleb128 0x1c
 7387 10b5 01       		.uleb128 0x1
 7388 10b6 51       		.byte	0x51
 7389 10b7 04       		.uleb128 0x4
 7390 10b8 7D       		.byte	0x7d
 7391 10b9 08       		.sleb128 8
 7392 10ba 94       		.byte	0x94
 7393 10bb 01       		.byte	0x1
 7394 10bc 1C       		.uleb128 0x1c
 7395 10bd 01       		.uleb128 0x1
ARM GAS  C:\Users\PC\AppData\Local\Temp\ccF7GaWd.s 			page 153


 7396 10be 53       		.byte	0x53
 7397 10bf 04       		.uleb128 0x4
 7398 10c0 7D       		.byte	0x7d
 7399 10c1 1C       		.sleb128 28
 7400 10c2 94       		.byte	0x94
 7401 10c3 01       		.byte	0x1
 7402 10c4 00       		.byte	0
 7403 10c5 1B       		.uleb128 0x1b
 7404 10c6 9A010000 		.4byte	.LVL245
 7405 10ca 1A190000 		.4byte	0x191a
 7406 10ce 1C       		.uleb128 0x1c
 7407 10cf 01       		.uleb128 0x1
 7408 10d0 50       		.byte	0x50
 7409 10d1 02       		.uleb128 0x2
 7410 10d2 74       		.byte	0x74
 7411 10d3 00       		.sleb128 0
 7412 10d4 1C       		.uleb128 0x1c
 7413 10d5 01       		.uleb128 0x1
 7414 10d6 51       		.byte	0x51
 7415 10d7 04       		.uleb128 0x4
 7416 10d8 7D       		.byte	0x7d
 7417 10d9 08       		.sleb128 8
 7418 10da 94       		.byte	0x94
 7419 10db 01       		.byte	0x1
 7420 10dc 1C       		.uleb128 0x1c
 7421 10dd 01       		.uleb128 0x1
 7422 10de 53       		.byte	0x53
 7423 10df 04       		.uleb128 0x4
 7424 10e0 7D       		.byte	0x7d
 7425 10e1 1C       		.sleb128 28
 7426 10e2 94       		.byte	0x94
 7427 10e3 01       		.byte	0x1
 7428 10e4 00       		.byte	0
 7429 10e5 00       		.byte	0
 7430 10e6 19       		.uleb128 0x19
 7431 10e7 4E010000 		.4byte	0x14e
 7432 10eb 00000000 		.4byte	.LFB44
 7433 10ef 94010000 		.4byte	.LFE44-.LFB44
 7434 10f3 01       		.uleb128 0x1
 7435 10f4 9C       		.byte	0x9c
 7436 10f5 83110000 		.4byte	0x1183
 7437 10f9 1A       		.uleb128 0x1a
 7438 10fa 5B010000 		.4byte	0x15b
 7439 10fe 7C0F0000 		.4byte	.LLST91
 7440 1102 20       		.uleb128 0x20
 7441 1103 4A000000 		.4byte	.LBB33
 7442 1107 30010000 		.4byte	.LBE33-.LBB33
 7443 110b 21       		.uleb128 0x21
 7444 110c 5B010000 		.4byte	0x15b
 7445 1110 17       		.uleb128 0x17
 7446 1111 4A000000 		.4byte	.LBB35
 7447 1115 A4000000 		.4byte	.LBE35-.LBB35
 7448 1119 57110000 		.4byte	0x1157
 7449 111d 22       		.uleb128 0x22
 7450 111e 66010000 		.4byte	0x166
 7451 1122 B60F0000 		.4byte	.LLST92
 7452 1126 23       		.uleb128 0x23
ARM GAS  C:\Users\PC\AppData\Local\Temp\ccF7GaWd.s 			page 154


 7453 1127 60000000 		.4byte	.Ldebug_ranges0+0x60
 7454 112b 22       		.uleb128 0x22
 7455 112c 71010000 		.4byte	0x171
 7456 1130 FB0F0000 		.4byte	.LLST93
 7457 1134 23       		.uleb128 0x23
 7458 1135 78000000 		.4byte	.Ldebug_ranges0+0x78
 7459 1139 22       		.uleb128 0x22
 7460 113a 7E010000 		.4byte	0x17e
 7461 113e 19100000 		.4byte	.LLST94
 7462 1142 18       		.uleb128 0x18
 7463 1143 CC000000 		.4byte	.LVL263
 7464 1147 04190000 		.4byte	0x1904
 7465 114b 18       		.uleb128 0x18
 7466 114c EC000000 		.4byte	.LVL264
 7467 1150 31190000 		.4byte	0x1931
 7468 1154 00       		.byte	0
 7469 1155 00       		.byte	0
 7470 1156 00       		.byte	0
 7471 1157 1D       		.uleb128 0x1d
 7472 1158 10010000 		.4byte	.LVL268
 7473 115c 0F190000 		.4byte	0x190f
 7474 1160 6B110000 		.4byte	0x116b
 7475 1164 1C       		.uleb128 0x1c
 7476 1165 01       		.uleb128 0x1
 7477 1166 52       		.byte	0x52
 7478 1167 02       		.uleb128 0x2
 7479 1168 76       		.byte	0x76
 7480 1169 00       		.sleb128 0
 7481 116a 00       		.byte	0
 7482 116b 1B       		.uleb128 0x1b
 7483 116c 28010000 		.4byte	.LVL270
 7484 1170 31190000 		.4byte	0x1931
 7485 1174 1C       		.uleb128 0x1c
 7486 1175 01       		.uleb128 0x1
 7487 1176 50       		.byte	0x50
 7488 1177 02       		.uleb128 0x2
 7489 1178 75       		.byte	0x75
 7490 1179 00       		.sleb128 0
 7491 117a 1C       		.uleb128 0x1c
 7492 117b 01       		.uleb128 0x1
 7493 117c 53       		.byte	0x53
 7494 117d 02       		.uleb128 0x2
 7495 117e 76       		.byte	0x76
 7496 117f 00       		.sleb128 0
 7497 1180 00       		.byte	0
 7498 1181 00       		.byte	0
 7499 1182 00       		.byte	0
 7500 1183 0D       		.uleb128 0xd
 7501 1184 C5020000 		.4byte	.LASF55
 7502 1188 01       		.byte	0x1
 7503 1189 1D03     		.2byte	0x31d
 7504 118b 00000000 		.4byte	.LFB45
 7505 118f 14000000 		.4byte	.LFE45-.LFB45
 7506 1193 01       		.uleb128 0x1
 7507 1194 9C       		.byte	0x9c
 7508 1195 B3110000 		.4byte	0x11b3
 7509 1199 0E       		.uleb128 0xe
ARM GAS  C:\Users\PC\AppData\Local\Temp\ccF7GaWd.s 			page 155


 7510 119a 73747200 		.ascii	"str\000"
 7511 119e 01       		.byte	0x1
 7512 119f 1D03     		.2byte	0x31d
 7513 11a1 E6000000 		.4byte	0xe6
 7514 11a5 4E100000 		.4byte	.LLST95
 7515 11a9 18       		.uleb128 0x18
 7516 11aa 0E000000 		.4byte	.LVL273
 7517 11ae 4E010000 		.4byte	0x14e
 7518 11b2 00       		.byte	0
 7519 11b3 0D       		.uleb128 0xd
 7520 11b4 B2020000 		.4byte	.LASF56
 7521 11b8 01       		.byte	0x1
 7522 11b9 2503     		.2byte	0x325
 7523 11bb 00000000 		.4byte	.LFB46
 7524 11bf 48010000 		.4byte	.LFE46-.LFB46
 7525 11c3 01       		.uleb128 0x1
 7526 11c4 9C       		.byte	0x9c
 7527 11c5 5E120000 		.4byte	0x125e
 7528 11c9 0E       		.uleb128 0xe
 7529 11ca 6300     		.ascii	"c\000"
 7530 11cc 01       		.byte	0x1
 7531 11cd 2503     		.2byte	0x325
 7532 11cf 5E120000 		.4byte	0x125e
 7533 11d3 6C100000 		.4byte	.LLST96
 7534 11d7 17       		.uleb128 0x17
 7535 11d8 08000000 		.4byte	.LBB40
 7536 11dc A0000000 		.4byte	.LBE40-.LBB40
 7537 11e0 33120000 		.4byte	0x1233
 7538 11e4 14       		.uleb128 0x14
 7539 11e5 6900     		.ascii	"i\000"
 7540 11e7 01       		.byte	0x1
 7541 11e8 2703     		.2byte	0x327
 7542 11ea 97000000 		.4byte	0x97
 7543 11ee 8B100000 		.4byte	.LLST97
 7544 11f2 20       		.uleb128 0x20
 7545 11f3 08000000 		.4byte	.LBB41
 7546 11f7 9C000000 		.4byte	.LBE41-.LBB41
 7547 11fb 10       		.uleb128 0x10
 7548 11fc 9A040000 		.4byte	.LASF25
 7549 1200 01       		.byte	0x1
 7550 1201 2803     		.2byte	0x328
 7551 1203 97000000 		.4byte	0x97
 7552 1207 C4100000 		.4byte	.LLST98
 7553 120b 23       		.uleb128 0x23
 7554 120c 90000000 		.4byte	.Ldebug_ranges0+0x90
 7555 1210 14       		.uleb128 0x14
 7556 1211 6A00     		.ascii	"j\000"
 7557 1213 01       		.byte	0x1
 7558 1214 2903     		.2byte	0x329
 7559 1216 97000000 		.4byte	0x97
 7560 121a D7100000 		.4byte	.LLST99
 7561 121e 18       		.uleb128 0x18
 7562 121f 78000000 		.4byte	.LVL280
 7563 1223 04190000 		.4byte	0x1904
 7564 1227 18       		.uleb128 0x18
 7565 1228 98000000 		.4byte	.LVL281
 7566 122c 31190000 		.4byte	0x1931
ARM GAS  C:\Users\PC\AppData\Local\Temp\ccF7GaWd.s 			page 156


 7567 1230 00       		.byte	0
 7568 1231 00       		.byte	0
 7569 1232 00       		.byte	0
 7570 1233 1D       		.uleb128 0x1d
 7571 1234 CA000000 		.4byte	.LVL289
 7572 1238 0F190000 		.4byte	0x190f
 7573 123c 47120000 		.4byte	0x1247
 7574 1240 1C       		.uleb128 0x1c
 7575 1241 01       		.uleb128 0x1
 7576 1242 52       		.byte	0x52
 7577 1243 02       		.uleb128 0x2
 7578 1244 76       		.byte	0x76
 7579 1245 00       		.sleb128 0
 7580 1246 00       		.byte	0
 7581 1247 1B       		.uleb128 0x1b
 7582 1248 E2000000 		.4byte	.LVL291
 7583 124c 31190000 		.4byte	0x1931
 7584 1250 1C       		.uleb128 0x1c
 7585 1251 01       		.uleb128 0x1
 7586 1252 50       		.byte	0x50
 7587 1253 02       		.uleb128 0x2
 7588 1254 75       		.byte	0x75
 7589 1255 00       		.sleb128 0
 7590 1256 1C       		.uleb128 0x1c
 7591 1257 01       		.uleb128 0x1
 7592 1258 53       		.byte	0x53
 7593 1259 02       		.uleb128 0x2
 7594 125a 76       		.byte	0x76
 7595 125b 00       		.sleb128 0
 7596 125c 00       		.byte	0
 7597 125d 00       		.byte	0
 7598 125e 05       		.uleb128 0x5
 7599 125f 04       		.byte	0x4
 7600 1260 64120000 		.4byte	0x1264
 7601 1264 24       		.uleb128 0x24
 7602 1265 97000000 		.4byte	0x97
 7603 1269 19       		.uleb128 0x19
 7604 126a AE010000 		.4byte	0x1ae
 7605 126e 00000000 		.4byte	.LFB48
 7606 1272 0C000000 		.4byte	.LFE48-.LFB48
 7607 1276 01       		.uleb128 0x1
 7608 1277 9C       		.byte	0x9c
 7609 1278 8B120000 		.4byte	0x128b
 7610 127c 25       		.uleb128 0x25
 7611 127d BB010000 		.4byte	0x1bb
 7612 1281 01       		.uleb128 0x1
 7613 1282 50       		.byte	0x50
 7614 1283 25       		.uleb128 0x25
 7615 1284 C5010000 		.4byte	0x1c5
 7616 1288 01       		.uleb128 0x1
 7617 1289 51       		.byte	0x51
 7618 128a 00       		.byte	0
 7619 128b 26       		.uleb128 0x26
 7620 128c CE010000 		.4byte	.LASF57
 7621 1290 01       		.byte	0x1
 7622 1291 7E03     		.2byte	0x37e
 7623 1293 AD000000 		.4byte	0xad
ARM GAS  C:\Users\PC\AppData\Local\Temp\ccF7GaWd.s 			page 157


 7624 1297 00000000 		.4byte	.LFB49
 7625 129b 0C000000 		.4byte	.LFE49-.LFB49
 7626 129f 01       		.uleb128 0x1
 7627 12a0 9C       		.byte	0x9c
 7628 12a1 26       		.uleb128 0x26
 7629 12a2 E1010000 		.4byte	.LASF58
 7630 12a6 01       		.byte	0x1
 7631 12a7 8803     		.2byte	0x388
 7632 12a9 AD000000 		.4byte	0xad
 7633 12ad 00000000 		.4byte	.LFB50
 7634 12b1 0C000000 		.4byte	.LFE50-.LFB50
 7635 12b5 01       		.uleb128 0x1
 7636 12b6 9C       		.byte	0x9c
 7637 12b7 0D       		.uleb128 0xd
 7638 12b8 71030000 		.4byte	.LASF59
 7639 12bc 01       		.byte	0x1
 7640 12bd 9203     		.2byte	0x392
 7641 12bf 00000000 		.4byte	.LFB51
 7642 12c3 14000000 		.4byte	.LFE51-.LFB51
 7643 12c7 01       		.uleb128 0x1
 7644 12c8 9C       		.byte	0x9c
 7645 12c9 DA120000 		.4byte	0x12da
 7646 12cd 27       		.uleb128 0x27
 7647 12ce 7300     		.ascii	"s\000"
 7648 12d0 01       		.byte	0x1
 7649 12d1 9203     		.2byte	0x392
 7650 12d3 97000000 		.4byte	0x97
 7651 12d7 01       		.uleb128 0x1
 7652 12d8 50       		.byte	0x50
 7653 12d9 00       		.byte	0
 7654 12da 0D       		.uleb128 0xd
 7655 12db 52020000 		.4byte	.LASF60
 7656 12df 01       		.byte	0x1
 7657 12e0 5803     		.2byte	0x358
 7658 12e2 00000000 		.4byte	.LFB47
 7659 12e6 68000000 		.4byte	.LFE47-.LFB47
 7660 12ea 01       		.uleb128 0x1
 7661 12eb 9C       		.byte	0x9c
 7662 12ec 0A140000 		.4byte	0x140a
 7663 12f0 0E       		.uleb128 0xe
 7664 12f1 7800     		.ascii	"x\000"
 7665 12f3 01       		.byte	0x1
 7666 12f4 5803     		.2byte	0x358
 7667 12f6 AD000000 		.4byte	0xad
 7668 12fa F5100000 		.4byte	.LLST100
 7669 12fe 0E       		.uleb128 0xe
 7670 12ff 7900     		.ascii	"y\000"
 7671 1301 01       		.byte	0x1
 7672 1302 5803     		.2byte	0x358
 7673 1304 AD000000 		.4byte	0xad
 7674 1308 25110000 		.4byte	.LLST101
 7675 130c 0E       		.uleb128 0xe
 7676 130d 6300     		.ascii	"c\000"
 7677 130f 01       		.byte	0x1
 7678 1310 5803     		.2byte	0x358
 7679 1312 97000000 		.4byte	0x97
 7680 1316 46110000 		.4byte	.LLST102
ARM GAS  C:\Users\PC\AppData\Local\Temp\ccF7GaWd.s 			page 158


 7681 131a 0F       		.uleb128 0xf
 7682 131b 6B030000 		.4byte	.LASF22
 7683 131f 01       		.byte	0x1
 7684 1320 5803     		.2byte	0x358
 7685 1322 AD000000 		.4byte	0xad
 7686 1326 67110000 		.4byte	.LLST103
 7687 132a 0E       		.uleb128 0xe
 7688 132b 626700   		.ascii	"bg\000"
 7689 132e 01       		.byte	0x1
 7690 132f 5803     		.2byte	0x358
 7691 1331 AD000000 		.4byte	0xad
 7692 1335 88110000 		.4byte	.LLST104
 7693 1339 0F       		.uleb128 0xf
 7694 133a AD020000 		.4byte	.LASF61
 7695 133e 01       		.byte	0x1
 7696 133f 5903     		.2byte	0x359
 7697 1341 97000000 		.4byte	0x97
 7698 1345 B4110000 		.4byte	.LLST105
 7699 1349 10       		.uleb128 0x10
 7700 134a 00000000 		.4byte	.LASF62
 7701 134e 01       		.byte	0x1
 7702 134f 5A03     		.2byte	0x35a
 7703 1351 AD000000 		.4byte	0xad
 7704 1355 F8110000 		.4byte	.LLST106
 7705 1359 15       		.uleb128 0x15
 7706 135a 93040000 		.4byte	.LASF63
 7707 135e 01       		.byte	0x1
 7708 135f 5B03     		.2byte	0x35b
 7709 1361 AD000000 		.4byte	0xad
 7710 1365 02       		.uleb128 0x2
 7711 1366 91       		.byte	0x91
 7712 1367 54       		.sleb128 -44
 7713 1368 15       		.uleb128 0x15
 7714 1369 4A010000 		.4byte	.LASF64
 7715 136d 01       		.byte	0x1
 7716 136e 5C03     		.2byte	0x35c
 7717 1370 AD000000 		.4byte	0xad
 7718 1374 02       		.uleb128 0x2
 7719 1375 91       		.byte	0x91
 7720 1376 58       		.sleb128 -40
 7721 1377 10       		.uleb128 0x10
 7722 1378 00030000 		.4byte	.LASF65
 7723 137c 01       		.byte	0x1
 7724 137d 5D03     		.2byte	0x35d
 7725 137f AD000000 		.4byte	0xad
 7726 1383 18120000 		.4byte	.LLST107
 7727 1387 10       		.uleb128 0x10
 7728 1388 AF010000 		.4byte	.LASF66
 7729 138c 01       		.byte	0x1
 7730 138d 5E03     		.2byte	0x35e
 7731 138f 97000000 		.4byte	0x97
 7732 1393 3A120000 		.4byte	.LLST108
 7733 1397 28       		.uleb128 0x28
 7734 1398 AE010000 		.4byte	0x1ae
 7735 139c 24000000 		.4byte	.LBB44
 7736 13a0 A8000000 		.4byte	.Ldebug_ranges0+0xa8
 7737 13a4 01       		.byte	0x1
ARM GAS  C:\Users\PC\AppData\Local\Temp\ccF7GaWd.s 			page 159


 7738 13a5 6003     		.2byte	0x360
 7739 13a7 BA130000 		.4byte	0x13ba
 7740 13ab 1A       		.uleb128 0x1a
 7741 13ac C5010000 		.4byte	0x1c5
 7742 13b0 5C120000 		.4byte	.LLST109
 7743 13b4 21       		.uleb128 0x21
 7744 13b5 BB010000 		.4byte	0x1bb
 7745 13b9 00       		.byte	0
 7746 13ba 28       		.uleb128 0x28
 7747 13bb 8C010000 		.4byte	0x18c
 7748 13bf 34000000 		.4byte	.LBB48
 7749 13c3 C0000000 		.4byte	.Ldebug_ranges0+0xc0
 7750 13c7 01       		.byte	0x1
 7751 13c8 6203     		.2byte	0x362
 7752 13ca E1130000 		.4byte	0x13e1
 7753 13ce 1A       		.uleb128 0x1a
 7754 13cf A3010000 		.4byte	0x1a3
 7755 13d3 6F120000 		.4byte	.LLST110
 7756 13d7 1A       		.uleb128 0x1a
 7757 13d8 99010000 		.4byte	0x199
 7758 13dc 83120000 		.4byte	.LLST111
 7759 13e0 00       		.byte	0
 7760 13e1 1D       		.uleb128 0x1d
 7761 13e2 34000000 		.4byte	.LVL307
 7762 13e6 B7120000 		.4byte	0x12b7
 7763 13ea F7130000 		.4byte	0x13f7
 7764 13ee 1C       		.uleb128 0x1c
 7765 13ef 01       		.uleb128 0x1
 7766 13f0 50       		.byte	0x50
 7767 13f1 04       		.uleb128 0x4
 7768 13f2 91       		.byte	0x91
 7769 13f3 04       		.sleb128 4
 7770 13f4 94       		.byte	0x94
 7771 13f5 01       		.byte	0x1
 7772 13f6 00       		.byte	0
 7773 13f7 1B       		.uleb128 0x1b
 7774 13f8 46000000 		.4byte	.LVL309
 7775 13fc 4E010000 		.4byte	0x14e
 7776 1400 1C       		.uleb128 0x1c
 7777 1401 01       		.uleb128 0x1
 7778 1402 50       		.byte	0x50
 7779 1403 04       		.uleb128 0x4
 7780 1404 91       		.byte	0x91
 7781 1405 5C       		.sleb128 -36
 7782 1406 94       		.byte	0x94
 7783 1407 01       		.byte	0x1
 7784 1408 00       		.byte	0
 7785 1409 00       		.byte	0
 7786 140a 19       		.uleb128 0x19
 7787 140b 8C010000 		.4byte	0x18c
 7788 140f 00000000 		.4byte	.LFB52
 7789 1413 0C000000 		.4byte	.LFE52-.LFB52
 7790 1417 01       		.uleb128 0x1
 7791 1418 9C       		.byte	0x9c
 7792 1419 2C140000 		.4byte	0x142c
 7793 141d 25       		.uleb128 0x25
 7794 141e 99010000 		.4byte	0x199
ARM GAS  C:\Users\PC\AppData\Local\Temp\ccF7GaWd.s 			page 160


 7795 1422 01       		.uleb128 0x1
 7796 1423 50       		.byte	0x50
 7797 1424 25       		.uleb128 0x25
 7798 1425 A3010000 		.4byte	0x1a3
 7799 1429 01       		.uleb128 0x1
 7800 142a 51       		.byte	0x51
 7801 142b 00       		.byte	0
 7802 142c 0D       		.uleb128 0xd
 7803 142d BB040000 		.4byte	.LASF67
 7804 1431 01       		.byte	0x1
 7805 1432 A803     		.2byte	0x3a8
 7806 1434 00000000 		.4byte	.LFB53
 7807 1438 0C000000 		.4byte	.LFE53-.LFB53
 7808 143c 01       		.uleb128 0x1
 7809 143d 9C       		.byte	0x9c
 7810 143e 4F140000 		.4byte	0x144f
 7811 1442 27       		.uleb128 0x27
 7812 1443 6300     		.ascii	"c\000"
 7813 1445 01       		.byte	0x1
 7814 1446 A803     		.2byte	0x3a8
 7815 1448 AD000000 		.4byte	0xad
 7816 144c 01       		.uleb128 0x1
 7817 144d 50       		.byte	0x50
 7818 144e 00       		.byte	0
 7819 144f 0D       		.uleb128 0xd
 7820 1450 4B050000 		.4byte	.LASF68
 7821 1454 01       		.byte	0x1
 7822 1455 B203     		.2byte	0x3b2
 7823 1457 00000000 		.4byte	.LFB54
 7824 145b 0C000000 		.4byte	.LFE54-.LFB54
 7825 145f 01       		.uleb128 0x1
 7826 1460 9C       		.byte	0x9c
 7827 1461 72140000 		.4byte	0x1472
 7828 1465 27       		.uleb128 0x27
 7829 1466 7700     		.ascii	"w\000"
 7830 1468 01       		.byte	0x1
 7831 1469 B203     		.2byte	0x3b2
 7832 146b D8020000 		.4byte	0x2d8
 7833 146f 01       		.uleb128 0x1
 7834 1470 50       		.byte	0x50
 7835 1471 00       		.byte	0
 7836 1472 26       		.uleb128 0x26
 7837 1473 5F000000 		.4byte	.LASF69
 7838 1477 01       		.byte	0x1
 7839 1478 BC03     		.2byte	0x3bc
 7840 147a 97000000 		.4byte	0x97
 7841 147e 00000000 		.4byte	.LFB55
 7842 1482 0C000000 		.4byte	.LFE55-.LFB55
 7843 1486 01       		.uleb128 0x1
 7844 1487 9C       		.byte	0x9c
 7845 1488 26       		.uleb128 0x26
 7846 1489 9C020000 		.4byte	.LASF70
 7847 148d 01       		.byte	0x1
 7848 148e C603     		.2byte	0x3c6
 7849 1490 AD000000 		.4byte	0xad
 7850 1494 00000000 		.4byte	.LFB56
 7851 1498 0C000000 		.4byte	.LFE56-.LFB56
ARM GAS  C:\Users\PC\AppData\Local\Temp\ccF7GaWd.s 			page 161


 7852 149c 01       		.uleb128 0x1
 7853 149d 9C       		.byte	0x9c
 7854 149e 26       		.uleb128 0x26
 7855 149f 46030000 		.4byte	.LASF71
 7856 14a3 01       		.byte	0x1
 7857 14a4 D003     		.2byte	0x3d0
 7858 14a6 AD000000 		.4byte	0xad
 7859 14aa 00000000 		.4byte	.LFB57
 7860 14ae 0C000000 		.4byte	.LFE57-.LFB57
 7861 14b2 01       		.uleb128 0x1
 7862 14b3 9C       		.byte	0x9c
 7863 14b4 29       		.uleb128 0x29
 7864 14b5 9F040000 		.4byte	.LASF99
 7865 14b9 01       		.byte	0x1
 7866 14ba E003     		.2byte	0x3e0
 7867 14bc AD000000 		.4byte	0xad
 7868 14c0 00000000 		.4byte	.LFB58
 7869 14c4 14000000 		.4byte	.LFE58-.LFB58
 7870 14c8 01       		.uleb128 0x1
 7871 14c9 9C       		.byte	0x9c
 7872 14ca FF140000 		.4byte	0x14ff
 7873 14ce 0E       		.uleb128 0xe
 7874 14cf 72656400 		.ascii	"red\000"
 7875 14d3 01       		.byte	0x1
 7876 14d4 E003     		.2byte	0x3e0
 7877 14d6 97000000 		.4byte	0x97
 7878 14da 97120000 		.4byte	.LLST112
 7879 14de 0F       		.uleb128 0xf
 7880 14df D4020000 		.4byte	.LASF72
 7881 14e3 01       		.byte	0x1
 7882 14e4 E003     		.2byte	0x3e0
 7883 14e6 97000000 		.4byte	0x97
 7884 14ea B8120000 		.4byte	.LLST113
 7885 14ee 0F       		.uleb128 0xf
 7886 14ef 3D000000 		.4byte	.LASF73
 7887 14f3 01       		.byte	0x1
 7888 14f4 E003     		.2byte	0x3e0
 7889 14f6 97000000 		.4byte	0x97
 7890 14fa D9120000 		.4byte	.LLST114
 7891 14fe 00       		.byte	0
 7892 14ff 0D       		.uleb128 0xd
 7893 1500 E0000000 		.4byte	.LASF74
 7894 1504 01       		.byte	0x1
 7895 1505 F003     		.2byte	0x3f0
 7896 1507 00000000 		.4byte	.LFB59
 7897 150b 74000000 		.4byte	.LFE59-.LFB59
 7898 150f 01       		.uleb128 0x1
 7899 1510 9C       		.byte	0x9c
 7900 1511 C4150000 		.4byte	0x15c4
 7901 1515 0E       		.uleb128 0xe
 7902 1516 7800     		.ascii	"x\000"
 7903 1518 01       		.byte	0x1
 7904 1519 F003     		.2byte	0x3f0
 7905 151b AD000000 		.4byte	0xad
 7906 151f FA120000 		.4byte	.LLST115
 7907 1523 0E       		.uleb128 0xe
 7908 1524 7900     		.ascii	"y\000"
ARM GAS  C:\Users\PC\AppData\Local\Temp\ccF7GaWd.s 			page 162


 7909 1526 01       		.byte	0x1
 7910 1527 F003     		.2byte	0x3f0
 7911 1529 AD000000 		.4byte	0xad
 7912 152d 1B130000 		.4byte	.LLST116
 7913 1531 0F       		.uleb128 0xf
 7914 1532 8C040000 		.4byte	.LASF75
 7915 1536 01       		.byte	0x1
 7916 1537 F003     		.2byte	0x3f0
 7917 1539 5E120000 		.4byte	0x125e
 7918 153d 3C130000 		.4byte	.LLST117
 7919 1541 0E       		.uleb128 0xe
 7920 1542 7700     		.ascii	"w\000"
 7921 1544 01       		.byte	0x1
 7922 1545 F003     		.2byte	0x3f0
 7923 1547 AD000000 		.4byte	0xad
 7924 154b 5B130000 		.4byte	.LLST118
 7925 154f 0E       		.uleb128 0xe
 7926 1550 6800     		.ascii	"h\000"
 7927 1552 01       		.byte	0x1
 7928 1553 F003     		.2byte	0x3f0
 7929 1555 AD000000 		.4byte	0xad
 7930 1559 7C130000 		.4byte	.LLST119
 7931 155d 0F       		.uleb128 0xf
 7932 155e 6B030000 		.4byte	.LASF22
 7933 1562 01       		.byte	0x1
 7934 1563 F103     		.2byte	0x3f1
 7935 1565 AD000000 		.4byte	0xad
 7936 1569 A8130000 		.4byte	.LLST120
 7937 156d 23       		.uleb128 0x23
 7938 156e D8000000 		.4byte	.Ldebug_ranges0+0xd8
 7939 1572 14       		.uleb128 0x14
 7940 1573 6900     		.ascii	"i\000"
 7941 1575 01       		.byte	0x1
 7942 1576 F203     		.2byte	0x3f2
 7943 1578 AD000000 		.4byte	0xad
 7944 157c EC130000 		.4byte	.LLST121
 7945 1580 20       		.uleb128 0x20
 7946 1581 28000000 		.4byte	.LBB53
 7947 1585 40000000 		.4byte	.LBE53-.LBB53
 7948 1589 14       		.uleb128 0x14
 7949 158a 6A00     		.ascii	"j\000"
 7950 158c 01       		.byte	0x1
 7951 158d F403     		.2byte	0x3f4
 7952 158f AD000000 		.4byte	0xad
 7953 1593 16140000 		.4byte	.LLST122
 7954 1597 1B       		.uleb128 0x1b
 7955 1598 62000000 		.4byte	.LVL327
 7956 159c 04190000 		.4byte	0x1904
 7957 15a0 1C       		.uleb128 0x1c
 7958 15a1 01       		.uleb128 0x1
 7959 15a2 50       		.byte	0x50
 7960 15a3 08       		.uleb128 0x8
 7961 15a4 74       		.byte	0x74
 7962 15a5 00       		.sleb128 0
 7963 15a6 33       		.byte	0x33
 7964 15a7 25       		.byte	0x25
 7965 15a8 91       		.byte	0x91
ARM GAS  C:\Users\PC\AppData\Local\Temp\ccF7GaWd.s 			page 163


 7966 15a9 58       		.sleb128 -40
 7967 15aa 06       		.byte	0x6
 7968 15ab 22       		.byte	0x22
 7969 15ac 1C       		.uleb128 0x1c
 7970 15ad 01       		.uleb128 0x1
 7971 15ae 51       		.byte	0x51
 7972 15af 08       		.uleb128 0x8
 7973 15b0 74       		.byte	0x74
 7974 15b1 00       		.sleb128 0
 7975 15b2 37       		.byte	0x37
 7976 15b3 1A       		.byte	0x1a
 7977 15b4 91       		.byte	0x91
 7978 15b5 54       		.sleb128 -44
 7979 15b6 06       		.byte	0x6
 7980 15b7 22       		.byte	0x22
 7981 15b8 1C       		.uleb128 0x1c
 7982 15b9 01       		.uleb128 0x1
 7983 15ba 52       		.byte	0x52
 7984 15bb 04       		.uleb128 0x4
 7985 15bc 7D       		.byte	0x7d
 7986 15bd 1C       		.sleb128 28
 7987 15be 94       		.byte	0x94
 7988 15bf 01       		.byte	0x1
 7989 15c0 00       		.byte	0
 7990 15c1 00       		.byte	0
 7991 15c2 00       		.byte	0
 7992 15c3 00       		.byte	0
 7993 15c4 0D       		.uleb128 0xd
 7994 15c5 6B020000 		.4byte	.LASF76
 7995 15c9 01       		.byte	0x1
 7996 15ca 0904     		.2byte	0x409
 7997 15cc 00000000 		.4byte	.LFB60
 7998 15d0 7C000000 		.4byte	.LFE60-.LFB60
 7999 15d4 01       		.uleb128 0x1
 8000 15d5 9C       		.byte	0x9c
 8001 15d6 83160000 		.4byte	0x1683
 8002 15da 0E       		.uleb128 0xe
 8003 15db 7800     		.ascii	"x\000"
 8004 15dd 01       		.byte	0x1
 8005 15de 0904     		.2byte	0x409
 8006 15e0 AD000000 		.4byte	0xad
 8007 15e4 34140000 		.4byte	.LLST123
 8008 15e8 0E       		.uleb128 0xe
 8009 15e9 7900     		.ascii	"y\000"
 8010 15eb 01       		.byte	0x1
 8011 15ec 0904     		.2byte	0x409
 8012 15ee AD000000 		.4byte	0xad
 8013 15f2 55140000 		.4byte	.LLST124
 8014 15f6 0F       		.uleb128 0xf
 8015 15f7 8C040000 		.4byte	.LASF75
 8016 15fb 01       		.byte	0x1
 8017 15fc 0904     		.2byte	0x409
 8018 15fe 5E120000 		.4byte	0x125e
 8019 1602 76140000 		.4byte	.LLST125
 8020 1606 0E       		.uleb128 0xe
 8021 1607 7700     		.ascii	"w\000"
 8022 1609 01       		.byte	0x1
ARM GAS  C:\Users\PC\AppData\Local\Temp\ccF7GaWd.s 			page 164


 8023 160a 0904     		.2byte	0x409
 8024 160c AD000000 		.4byte	0xad
 8025 1610 95140000 		.4byte	.LLST126
 8026 1614 0E       		.uleb128 0xe
 8027 1615 6800     		.ascii	"h\000"
 8028 1617 01       		.byte	0x1
 8029 1618 0904     		.2byte	0x409
 8030 161a AD000000 		.4byte	0xad
 8031 161e B6140000 		.4byte	.LLST127
 8032 1622 0F       		.uleb128 0xf
 8033 1623 6B030000 		.4byte	.LASF22
 8034 1627 01       		.byte	0x1
 8035 1628 0A04     		.2byte	0x40a
 8036 162a AD000000 		.4byte	0xad
 8037 162e E2140000 		.4byte	.LLST128
 8038 1632 0E       		.uleb128 0xe
 8039 1633 626700   		.ascii	"bg\000"
 8040 1636 01       		.byte	0x1
 8041 1637 0A04     		.2byte	0x40a
 8042 1639 AD000000 		.4byte	0xad
 8043 163d 26150000 		.4byte	.LLST129
 8044 1641 23       		.uleb128 0x23
 8045 1642 08010000 		.4byte	.Ldebug_ranges0+0x108
 8046 1646 14       		.uleb128 0x14
 8047 1647 6900     		.ascii	"i\000"
 8048 1649 01       		.byte	0x1
 8049 164a 0B04     		.2byte	0x40b
 8050 164c AD000000 		.4byte	0xad
 8051 1650 6A150000 		.4byte	.LLST130
 8052 1654 20       		.uleb128 0x20
 8053 1655 32000000 		.4byte	.LBB59
 8054 1659 3A000000 		.4byte	.LBE59-.LBB59
 8055 165d 14       		.uleb128 0x14
 8056 165e 6A00     		.ascii	"j\000"
 8057 1660 01       		.byte	0x1
 8058 1661 0D04     		.2byte	0x40d
 8059 1663 AD000000 		.4byte	0xad
 8060 1667 94150000 		.4byte	.LLST131
 8061 166b 1B       		.uleb128 0x1b
 8062 166c 66000000 		.4byte	.LVL344
 8063 1670 04190000 		.4byte	0x1904
 8064 1674 1C       		.uleb128 0x1c
 8065 1675 01       		.uleb128 0x1
 8066 1676 51       		.byte	0x51
 8067 1677 07       		.uleb128 0x7
 8068 1678 75       		.byte	0x75
 8069 1679 7F       		.sleb128 -1
 8070 167a 37       		.byte	0x37
 8071 167b 1A       		.byte	0x1a
 8072 167c 74       		.byte	0x74
 8073 167d 00       		.sleb128 0
 8074 167e 22       		.byte	0x22
 8075 167f 00       		.byte	0
 8076 1680 00       		.byte	0
 8077 1681 00       		.byte	0
 8078 1682 00       		.byte	0
 8079 1683 0D       		.uleb128 0xd
ARM GAS  C:\Users\PC\AppData\Local\Temp\ccF7GaWd.s 			page 165


 8080 1684 F5000000 		.4byte	.LASF77
 8081 1688 01       		.byte	0x1
 8082 1689 2304     		.2byte	0x423
 8083 168b 00000000 		.4byte	.LFB61
 8084 168f 80000000 		.4byte	.LFE61-.LFB61
 8085 1693 01       		.uleb128 0x1
 8086 1694 9C       		.byte	0x9c
 8087 1695 55170000 		.4byte	0x1755
 8088 1699 0E       		.uleb128 0xe
 8089 169a 7800     		.ascii	"x\000"
 8090 169c 01       		.byte	0x1
 8091 169d 2304     		.2byte	0x423
 8092 169f AD000000 		.4byte	0xad
 8093 16a3 B2150000 		.4byte	.LLST132
 8094 16a7 0E       		.uleb128 0xe
 8095 16a8 7900     		.ascii	"y\000"
 8096 16aa 01       		.byte	0x1
 8097 16ab 2304     		.2byte	0x423
 8098 16ad AD000000 		.4byte	0xad
 8099 16b1 D3150000 		.4byte	.LLST133
 8100 16b5 0F       		.uleb128 0xf
 8101 16b6 8C040000 		.4byte	.LASF75
 8102 16ba 01       		.byte	0x1
 8103 16bb 2304     		.2byte	0x423
 8104 16bd 5E120000 		.4byte	0x125e
 8105 16c1 FC150000 		.4byte	.LLST134
 8106 16c5 0E       		.uleb128 0xe
 8107 16c6 7700     		.ascii	"w\000"
 8108 16c8 01       		.byte	0x1
 8109 16c9 2304     		.2byte	0x423
 8110 16cb AD000000 		.4byte	0xad
 8111 16cf 1B160000 		.4byte	.LLST135
 8112 16d3 0E       		.uleb128 0xe
 8113 16d4 6800     		.ascii	"h\000"
 8114 16d6 01       		.byte	0x1
 8115 16d7 2304     		.2byte	0x423
 8116 16d9 AD000000 		.4byte	0xad
 8117 16dd 3C160000 		.4byte	.LLST136
 8118 16e1 0F       		.uleb128 0xf
 8119 16e2 6B030000 		.4byte	.LASF22
 8120 16e6 01       		.byte	0x1
 8121 16e7 2404     		.2byte	0x424
 8122 16e9 AD000000 		.4byte	0xad
 8123 16ed 68160000 		.4byte	.LLST137
 8124 16f1 15       		.uleb128 0x15
 8125 16f2 3E020000 		.4byte	.LASF78
 8126 16f6 01       		.byte	0x1
 8127 16f7 2604     		.2byte	0x426
 8128 16f9 A2000000 		.4byte	0xa2
 8129 16fd 02       		.uleb128 0x2
 8130 16fe 91       		.byte	0x91
 8131 16ff 50       		.sleb128 -48
 8132 1700 10       		.uleb128 0x10
 8133 1701 2D000000 		.4byte	.LASF79
 8134 1705 01       		.byte	0x1
 8135 1706 2704     		.2byte	0x427
 8136 1708 97000000 		.4byte	0x97
ARM GAS  C:\Users\PC\AppData\Local\Temp\ccF7GaWd.s 			page 166


 8137 170c AC160000 		.4byte	.LLST138
 8138 1710 23       		.uleb128 0x23
 8139 1711 30010000 		.4byte	.Ldebug_ranges0+0x130
 8140 1715 14       		.uleb128 0x14
 8141 1716 6A00     		.ascii	"j\000"
 8142 1718 01       		.byte	0x1
 8143 1719 2904     		.2byte	0x429
 8144 171b A2000000 		.4byte	0xa2
 8145 171f CA160000 		.4byte	.LLST139
 8146 1723 20       		.uleb128 0x20
 8147 1724 2E000000 		.4byte	.LBB64
 8148 1728 48000000 		.4byte	.LBE64-.LBB64
 8149 172c 14       		.uleb128 0x14
 8150 172d 6900     		.ascii	"i\000"
 8151 172f 01       		.byte	0x1
 8152 1730 2A04     		.2byte	0x42a
 8153 1732 A2000000 		.4byte	0xa2
 8154 1736 0A170000 		.4byte	.LLST140
 8155 173a 1B       		.uleb128 0x1b
 8156 173b 70000000 		.4byte	.LVL361
 8157 173f 04190000 		.4byte	0x1904
 8158 1743 1C       		.uleb128 0x1c
 8159 1744 01       		.uleb128 0x1
 8160 1745 51       		.byte	0x51
 8161 1746 02       		.uleb128 0x2
 8162 1747 74       		.byte	0x74
 8163 1748 00       		.sleb128 0
 8164 1749 1C       		.uleb128 0x1c
 8165 174a 01       		.uleb128 0x1
 8166 174b 52       		.byte	0x52
 8167 174c 04       		.uleb128 0x4
 8168 174d 7D       		.byte	0x7d
 8169 174e 1C       		.sleb128 28
 8170 174f 94       		.byte	0x94
 8171 1750 01       		.byte	0x1
 8172 1751 00       		.byte	0
 8173 1752 00       		.byte	0
 8174 1753 00       		.byte	0
 8175 1754 00       		.byte	0
 8176 1755 0D       		.uleb128 0xd
 8177 1756 42000000 		.4byte	.LASF80
 8178 175a 01       		.byte	0x1
 8179 175b 4004     		.2byte	0x440
 8180 175d 00000000 		.4byte	.LFB62
 8181 1761 8C000000 		.4byte	.LFE62-.LFB62
 8182 1765 01       		.uleb128 0x1
 8183 1766 9C       		.byte	0x9c
 8184 1767 2E180000 		.4byte	0x182e
 8185 176b 0E       		.uleb128 0xe
 8186 176c 7800     		.ascii	"x\000"
 8187 176e 01       		.byte	0x1
 8188 176f 4004     		.2byte	0x440
 8189 1771 AD000000 		.4byte	0xad
 8190 1775 40170000 		.4byte	.LLST141
 8191 1779 0E       		.uleb128 0xe
 8192 177a 7900     		.ascii	"y\000"
 8193 177c 01       		.byte	0x1
ARM GAS  C:\Users\PC\AppData\Local\Temp\ccF7GaWd.s 			page 167


 8194 177d 4004     		.2byte	0x440
 8195 177f AD000000 		.4byte	0xad
 8196 1783 61170000 		.4byte	.LLST142
 8197 1787 0F       		.uleb128 0xf
 8198 1788 8C040000 		.4byte	.LASF75
 8199 178c 01       		.byte	0x1
 8200 178d 4004     		.2byte	0x440
 8201 178f 5E120000 		.4byte	0x125e
 8202 1793 8A170000 		.4byte	.LLST143
 8203 1797 0E       		.uleb128 0xe
 8204 1798 7700     		.ascii	"w\000"
 8205 179a 01       		.byte	0x1
 8206 179b 4004     		.2byte	0x440
 8207 179d AD000000 		.4byte	0xad
 8208 17a1 A9170000 		.4byte	.LLST144
 8209 17a5 0E       		.uleb128 0xe
 8210 17a6 6800     		.ascii	"h\000"
 8211 17a8 01       		.byte	0x1
 8212 17a9 4004     		.2byte	0x440
 8213 17ab AD000000 		.4byte	0xad
 8214 17af CA170000 		.4byte	.LLST145
 8215 17b3 0F       		.uleb128 0xf
 8216 17b4 6B030000 		.4byte	.LASF22
 8217 17b8 01       		.byte	0x1
 8218 17b9 4104     		.2byte	0x441
 8219 17bb AD000000 		.4byte	0xad
 8220 17bf F6170000 		.4byte	.LLST146
 8221 17c3 0E       		.uleb128 0xe
 8222 17c4 626700   		.ascii	"bg\000"
 8223 17c7 01       		.byte	0x1
 8224 17c8 4104     		.2byte	0x441
 8225 17ca AD000000 		.4byte	0xad
 8226 17ce 3A180000 		.4byte	.LLST147
 8227 17d2 15       		.uleb128 0x15
 8228 17d3 3E020000 		.4byte	.LASF78
 8229 17d7 01       		.byte	0x1
 8230 17d8 4304     		.2byte	0x443
 8231 17da A2000000 		.4byte	0xa2
 8232 17de 02       		.uleb128 0x2
 8233 17df 91       		.byte	0x91
 8234 17e0 4C       		.sleb128 -52
 8235 17e1 10       		.uleb128 0x10
 8236 17e2 2D000000 		.4byte	.LASF79
 8237 17e6 01       		.byte	0x1
 8238 17e7 4404     		.2byte	0x444
 8239 17e9 97000000 		.4byte	0x97
 8240 17ed 7E180000 		.4byte	.LLST148
 8241 17f1 23       		.uleb128 0x23
 8242 17f2 48010000 		.4byte	.Ldebug_ranges0+0x148
 8243 17f6 14       		.uleb128 0x14
 8244 17f7 6A00     		.ascii	"j\000"
 8245 17f9 01       		.byte	0x1
 8246 17fa 4604     		.2byte	0x446
 8247 17fc A2000000 		.4byte	0xa2
 8248 1800 9C180000 		.4byte	.LLST149
 8249 1804 20       		.uleb128 0x20
 8250 1805 34000000 		.4byte	.LBB67
ARM GAS  C:\Users\PC\AppData\Local\Temp\ccF7GaWd.s 			page 168


 8251 1809 4E000000 		.4byte	.LBE67-.LBB67
 8252 180d 14       		.uleb128 0x14
 8253 180e 6900     		.ascii	"i\000"
 8254 1810 01       		.byte	0x1
 8255 1811 4704     		.2byte	0x447
 8256 1813 A2000000 		.4byte	0xa2
 8257 1817 DC180000 		.4byte	.LLST150
 8258 181b 1B       		.uleb128 0x1b
 8259 181c 7E000000 		.4byte	.LVL384
 8260 1820 04190000 		.4byte	0x1904
 8261 1824 1C       		.uleb128 0x1c
 8262 1825 01       		.uleb128 0x1
 8263 1826 51       		.byte	0x51
 8264 1827 02       		.uleb128 0x2
 8265 1828 74       		.byte	0x74
 8266 1829 00       		.sleb128 0
 8267 182a 00       		.byte	0
 8268 182b 00       		.byte	0
 8269 182c 00       		.byte	0
 8270 182d 00       		.byte	0
 8271 182e 2A       		.uleb128 0x2a
 8272 182f 64120000 		.4byte	0x1264
 8273 1833 44180000 		.4byte	0x1844
 8274 1837 2B       		.uleb128 0x2b
 8275 1838 DF000000 		.4byte	0xdf
 8276 183c FF       		.byte	0xff
 8277 183d 2B       		.uleb128 0x2b
 8278 183e DF000000 		.4byte	0xdf
 8279 1842 04       		.byte	0x4
 8280 1843 00       		.byte	0
 8281 1844 2C       		.uleb128 0x2c
 8282 1845 AB030000 		.4byte	.LASF81
 8283 1849 01       		.byte	0x1
 8284 184a 57       		.byte	0x57
 8285 184b 55180000 		.4byte	0x1855
 8286 184f 05       		.uleb128 0x5
 8287 1850 03       		.byte	0x3
 8288 1851 00000000 		.4byte	font
 8289 1855 24       		.uleb128 0x24
 8290 1856 2E180000 		.4byte	0x182e
 8291 185a 2D       		.uleb128 0x2d
 8292 185b 95010000 		.4byte	.LASF82
 8293 185f 04       		.byte	0x4
 8294 1860 67       		.byte	0x67
 8295 1861 97000000 		.4byte	0x97
 8296 1865 05       		.uleb128 0x5
 8297 1866 03       		.byte	0x3
 8298 1867 00000000 		.4byte	_vccstate
 8299 186b 2D       		.uleb128 0x2d
 8300 186c 0A010000 		.4byte	.LASF83
 8301 1870 04       		.byte	0x4
 8302 1871 67       		.byte	0x67
 8303 1872 97000000 		.4byte	0x97
 8304 1876 05       		.uleb128 0x5
 8305 1877 03       		.byte	0x3
 8306 1878 00000000 		.4byte	rotation
 8307 187c 2D       		.uleb128 0x2d
ARM GAS  C:\Users\PC\AppData\Local\Temp\ccF7GaWd.s 			page 169


 8308 187d 1E020000 		.4byte	.LASF84
 8309 1881 04       		.byte	0x4
 8310 1882 6B       		.byte	0x6b
 8311 1883 97000000 		.4byte	0x97
 8312 1887 05       		.uleb128 0x5
 8313 1888 03       		.byte	0x3
 8314 1889 00000000 		.4byte	_width
 8315 188d 2D       		.uleb128 0x2d
 8316 188e 63020000 		.4byte	.LASF85
 8317 1892 04       		.byte	0x4
 8318 1893 6B       		.byte	0x6b
 8319 1894 97000000 		.4byte	0x97
 8320 1898 05       		.uleb128 0x5
 8321 1899 03       		.byte	0x3
 8322 189a 00000000 		.4byte	_height
 8323 189e 2D       		.uleb128 0x2d
 8324 189f 27010000 		.4byte	.LASF86
 8325 18a3 01       		.byte	0x1
 8326 18a4 4B       		.byte	0x4b
 8327 18a5 A2000000 		.4byte	0xa2
 8328 18a9 05       		.uleb128 0x5
 8329 18aa 03       		.byte	0x3
 8330 18ab 00000000 		.4byte	cursor_x
 8331 18af 2D       		.uleb128 0x2d
 8332 18b0 30010000 		.4byte	.LASF87
 8333 18b4 01       		.byte	0x1
 8334 18b5 4C       		.byte	0x4c
 8335 18b6 A2000000 		.4byte	0xa2
 8336 18ba 05       		.uleb128 0x5
 8337 18bb 03       		.byte	0x3
 8338 18bc 00000000 		.4byte	cursor_y
 8339 18c0 2D       		.uleb128 0x2d
 8340 18c1 1A050000 		.4byte	.LASF88
 8341 18c5 01       		.byte	0x1
 8342 18c6 4E       		.byte	0x4e
 8343 18c7 AD000000 		.4byte	0xad
 8344 18cb 05       		.uleb128 0x5
 8345 18cc 03       		.byte	0x3
 8346 18cd 00000000 		.4byte	textcolor
 8347 18d1 2D       		.uleb128 0x2d
 8348 18d2 3F050000 		.4byte	.LASF89
 8349 18d6 01       		.byte	0x1
 8350 18d7 4F       		.byte	0x4f
 8351 18d8 AD000000 		.4byte	0xad
 8352 18dc 05       		.uleb128 0x5
 8353 18dd 03       		.byte	0x3
 8354 18de 00000000 		.4byte	textbgcolor
 8355 18e2 2D       		.uleb128 0x2d
 8356 18e3 39010000 		.4byte	.LASF90
 8357 18e7 01       		.byte	0x1
 8358 18e8 51       		.byte	0x51
 8359 18e9 97000000 		.4byte	0x97
 8360 18ed 05       		.uleb128 0x5
 8361 18ee 03       		.byte	0x3
 8362 18ef 00000000 		.4byte	textsize
 8363 18f3 2D       		.uleb128 0x2d
 8364 18f4 79040000 		.4byte	.LASF91
ARM GAS  C:\Users\PC\AppData\Local\Temp\ccF7GaWd.s 			page 170


 8365 18f8 01       		.byte	0x1
 8366 18f9 53       		.byte	0x53
 8367 18fa D8020000 		.4byte	0x2d8
 8368 18fe 05       		.uleb128 0x5
 8369 18ff 03       		.byte	0x3
 8370 1900 00000000 		.4byte	wrap
 8371 1904 2E       		.uleb128 0x2e
 8372 1905 9F010000 		.4byte	.LASF92
 8373 1909 9F010000 		.4byte	.LASF92
 8374 190d 04       		.byte	0x4
 8375 190e 71       		.byte	0x71
 8376 190f 2E       		.uleb128 0x2e
 8377 1910 9D000000 		.4byte	.LASF93
 8378 1914 9D000000 		.4byte	.LASF93
 8379 1918 04       		.byte	0x4
 8380 1919 73       		.byte	0x73
 8381 191a 2E       		.uleb128 0x2e
 8382 191b 0C000000 		.4byte	.LASF94
 8383 191f 0C000000 		.4byte	.LASF94
 8384 1923 04       		.byte	0x4
 8385 1924 72       		.byte	0x72
 8386 1925 2F       		.uleb128 0x2f
 8387 1926 EF020000 		.4byte	.LASF45
 8388 192a EF020000 		.4byte	.LASF45
 8389 192e 01       		.byte	0x1
 8390 192f 7202     		.2byte	0x272
 8391 1931 2E       		.uleb128 0x2e
 8392 1932 B0030000 		.4byte	.LASF95
 8393 1936 B0030000 		.4byte	.LASF95
 8394 193a 04       		.byte	0x4
 8395 193b 74       		.byte	0x74
 8396 193c 00       		.byte	0
 8397              		.section	.debug_abbrev,"",%progbits
 8398              	.Ldebug_abbrev0:
 8399 0000 01       		.uleb128 0x1
 8400 0001 11       		.uleb128 0x11
 8401 0002 01       		.byte	0x1
 8402 0003 25       		.uleb128 0x25
 8403 0004 0E       		.uleb128 0xe
 8404 0005 13       		.uleb128 0x13
 8405 0006 0B       		.uleb128 0xb
 8406 0007 03       		.uleb128 0x3
 8407 0008 0E       		.uleb128 0xe
 8408 0009 1B       		.uleb128 0x1b
 8409 000a 0E       		.uleb128 0xe
 8410 000b 55       		.uleb128 0x55
 8411 000c 17       		.uleb128 0x17
 8412 000d 11       		.uleb128 0x11
 8413 000e 01       		.uleb128 0x1
 8414 000f 10       		.uleb128 0x10
 8415 0010 17       		.uleb128 0x17
 8416 0011 00       		.byte	0
 8417 0012 00       		.byte	0
 8418 0013 02       		.uleb128 0x2
 8419 0014 24       		.uleb128 0x24
 8420 0015 00       		.byte	0
 8421 0016 0B       		.uleb128 0xb
ARM GAS  C:\Users\PC\AppData\Local\Temp\ccF7GaWd.s 			page 171


 8422 0017 0B       		.uleb128 0xb
 8423 0018 3E       		.uleb128 0x3e
 8424 0019 0B       		.uleb128 0xb
 8425 001a 03       		.uleb128 0x3
 8426 001b 0E       		.uleb128 0xe
 8427 001c 00       		.byte	0
 8428 001d 00       		.byte	0
 8429 001e 03       		.uleb128 0x3
 8430 001f 16       		.uleb128 0x16
 8431 0020 00       		.byte	0
 8432 0021 03       		.uleb128 0x3
 8433 0022 0E       		.uleb128 0xe
 8434 0023 3A       		.uleb128 0x3a
 8435 0024 0B       		.uleb128 0xb
 8436 0025 3B       		.uleb128 0x3b
 8437 0026 0B       		.uleb128 0xb
 8438 0027 49       		.uleb128 0x49
 8439 0028 13       		.uleb128 0x13
 8440 0029 00       		.byte	0
 8441 002a 00       		.byte	0
 8442 002b 04       		.uleb128 0x4
 8443 002c 24       		.uleb128 0x24
 8444 002d 00       		.byte	0
 8445 002e 0B       		.uleb128 0xb
 8446 002f 0B       		.uleb128 0xb
 8447 0030 3E       		.uleb128 0x3e
 8448 0031 0B       		.uleb128 0xb
 8449 0032 03       		.uleb128 0x3
 8450 0033 08       		.uleb128 0x8
 8451 0034 00       		.byte	0
 8452 0035 00       		.byte	0
 8453 0036 05       		.uleb128 0x5
 8454 0037 0F       		.uleb128 0xf
 8455 0038 00       		.byte	0
 8456 0039 0B       		.uleb128 0xb
 8457 003a 0B       		.uleb128 0xb
 8458 003b 49       		.uleb128 0x49
 8459 003c 13       		.uleb128 0x13
 8460 003d 00       		.byte	0
 8461 003e 00       		.byte	0
 8462 003f 06       		.uleb128 0x6
 8463 0040 2E       		.uleb128 0x2e
 8464 0041 01       		.byte	0x1
 8465 0042 3F       		.uleb128 0x3f
 8466 0043 19       		.uleb128 0x19
 8467 0044 03       		.uleb128 0x3
 8468 0045 0E       		.uleb128 0xe
 8469 0046 3A       		.uleb128 0x3a
 8470 0047 0B       		.uleb128 0xb
 8471 0048 3B       		.uleb128 0x3b
 8472 0049 05       		.uleb128 0x5
 8473 004a 27       		.uleb128 0x27
 8474 004b 19       		.uleb128 0x19
 8475 004c 20       		.uleb128 0x20
 8476 004d 0B       		.uleb128 0xb
 8477 004e 01       		.uleb128 0x1
 8478 004f 13       		.uleb128 0x13
ARM GAS  C:\Users\PC\AppData\Local\Temp\ccF7GaWd.s 			page 172


 8479 0050 00       		.byte	0
 8480 0051 00       		.byte	0
 8481 0052 07       		.uleb128 0x7
 8482 0053 05       		.uleb128 0x5
 8483 0054 00       		.byte	0
 8484 0055 03       		.uleb128 0x3
 8485 0056 08       		.uleb128 0x8
 8486 0057 3A       		.uleb128 0x3a
 8487 0058 0B       		.uleb128 0xb
 8488 0059 3B       		.uleb128 0x3b
 8489 005a 05       		.uleb128 0x5
 8490 005b 49       		.uleb128 0x49
 8491 005c 13       		.uleb128 0x13
 8492 005d 00       		.byte	0
 8493 005e 00       		.byte	0
 8494 005f 08       		.uleb128 0x8
 8495 0060 05       		.uleb128 0x5
 8496 0061 00       		.byte	0
 8497 0062 03       		.uleb128 0x3
 8498 0063 0E       		.uleb128 0xe
 8499 0064 3A       		.uleb128 0x3a
 8500 0065 0B       		.uleb128 0xb
 8501 0066 3B       		.uleb128 0x3b
 8502 0067 05       		.uleb128 0x5
 8503 0068 49       		.uleb128 0x49
 8504 0069 13       		.uleb128 0x13
 8505 006a 00       		.byte	0
 8506 006b 00       		.byte	0
 8507 006c 09       		.uleb128 0x9
 8508 006d 0B       		.uleb128 0xb
 8509 006e 01       		.byte	0x1
 8510 006f 01       		.uleb128 0x1
 8511 0070 13       		.uleb128 0x13
 8512 0071 00       		.byte	0
 8513 0072 00       		.byte	0
 8514 0073 0A       		.uleb128 0xa
 8515 0074 34       		.uleb128 0x34
 8516 0075 00       		.byte	0
 8517 0076 03       		.uleb128 0x3
 8518 0077 08       		.uleb128 0x8
 8519 0078 3A       		.uleb128 0x3a
 8520 0079 0B       		.uleb128 0xb
 8521 007a 3B       		.uleb128 0x3b
 8522 007b 05       		.uleb128 0x5
 8523 007c 49       		.uleb128 0x49
 8524 007d 13       		.uleb128 0x13
 8525 007e 00       		.byte	0
 8526 007f 00       		.byte	0
 8527 0080 0B       		.uleb128 0xb
 8528 0081 0B       		.uleb128 0xb
 8529 0082 01       		.byte	0x1
 8530 0083 00       		.byte	0
 8531 0084 00       		.byte	0
 8532 0085 0C       		.uleb128 0xc
 8533 0086 34       		.uleb128 0x34
 8534 0087 00       		.byte	0
 8535 0088 03       		.uleb128 0x3
ARM GAS  C:\Users\PC\AppData\Local\Temp\ccF7GaWd.s 			page 173


 8536 0089 0E       		.uleb128 0xe
 8537 008a 3A       		.uleb128 0x3a
 8538 008b 0B       		.uleb128 0xb
 8539 008c 3B       		.uleb128 0x3b
 8540 008d 05       		.uleb128 0x5
 8541 008e 49       		.uleb128 0x49
 8542 008f 13       		.uleb128 0x13
 8543 0090 00       		.byte	0
 8544 0091 00       		.byte	0
 8545 0092 0D       		.uleb128 0xd
 8546 0093 2E       		.uleb128 0x2e
 8547 0094 01       		.byte	0x1
 8548 0095 3F       		.uleb128 0x3f
 8549 0096 19       		.uleb128 0x19
 8550 0097 03       		.uleb128 0x3
 8551 0098 0E       		.uleb128 0xe
 8552 0099 3A       		.uleb128 0x3a
 8553 009a 0B       		.uleb128 0xb
 8554 009b 3B       		.uleb128 0x3b
 8555 009c 05       		.uleb128 0x5
 8556 009d 27       		.uleb128 0x27
 8557 009e 19       		.uleb128 0x19
 8558 009f 11       		.uleb128 0x11
 8559 00a0 01       		.uleb128 0x1
 8560 00a1 12       		.uleb128 0x12
 8561 00a2 06       		.uleb128 0x6
 8562 00a3 40       		.uleb128 0x40
 8563 00a4 18       		.uleb128 0x18
 8564 00a5 9742     		.uleb128 0x2117
 8565 00a7 19       		.uleb128 0x19
 8566 00a8 01       		.uleb128 0x1
 8567 00a9 13       		.uleb128 0x13
 8568 00aa 00       		.byte	0
 8569 00ab 00       		.byte	0
 8570 00ac 0E       		.uleb128 0xe
 8571 00ad 05       		.uleb128 0x5
 8572 00ae 00       		.byte	0
 8573 00af 03       		.uleb128 0x3
 8574 00b0 08       		.uleb128 0x8
 8575 00b1 3A       		.uleb128 0x3a
 8576 00b2 0B       		.uleb128 0xb
 8577 00b3 3B       		.uleb128 0x3b
 8578 00b4 05       		.uleb128 0x5
 8579 00b5 49       		.uleb128 0x49
 8580 00b6 13       		.uleb128 0x13
 8581 00b7 02       		.uleb128 0x2
 8582 00b8 17       		.uleb128 0x17
 8583 00b9 00       		.byte	0
 8584 00ba 00       		.byte	0
 8585 00bb 0F       		.uleb128 0xf
 8586 00bc 05       		.uleb128 0x5
 8587 00bd 00       		.byte	0
 8588 00be 03       		.uleb128 0x3
 8589 00bf 0E       		.uleb128 0xe
 8590 00c0 3A       		.uleb128 0x3a
 8591 00c1 0B       		.uleb128 0xb
 8592 00c2 3B       		.uleb128 0x3b
ARM GAS  C:\Users\PC\AppData\Local\Temp\ccF7GaWd.s 			page 174


 8593 00c3 05       		.uleb128 0x5
 8594 00c4 49       		.uleb128 0x49
 8595 00c5 13       		.uleb128 0x13
 8596 00c6 02       		.uleb128 0x2
 8597 00c7 17       		.uleb128 0x17
 8598 00c8 00       		.byte	0
 8599 00c9 00       		.byte	0
 8600 00ca 10       		.uleb128 0x10
 8601 00cb 34       		.uleb128 0x34
 8602 00cc 00       		.byte	0
 8603 00cd 03       		.uleb128 0x3
 8604 00ce 0E       		.uleb128 0xe
 8605 00cf 3A       		.uleb128 0x3a
 8606 00d0 0B       		.uleb128 0xb
 8607 00d1 3B       		.uleb128 0x3b
 8608 00d2 05       		.uleb128 0x5
 8609 00d3 49       		.uleb128 0x49
 8610 00d4 13       		.uleb128 0x13
 8611 00d5 02       		.uleb128 0x2
 8612 00d6 17       		.uleb128 0x17
 8613 00d7 00       		.byte	0
 8614 00d8 00       		.byte	0
 8615 00d9 11       		.uleb128 0x11
 8616 00da 2E       		.uleb128 0x2e
 8617 00db 01       		.byte	0x1
 8618 00dc 3F       		.uleb128 0x3f
 8619 00dd 19       		.uleb128 0x19
 8620 00de 03       		.uleb128 0x3
 8621 00df 08       		.uleb128 0x8
 8622 00e0 3A       		.uleb128 0x3a
 8623 00e1 0B       		.uleb128 0xb
 8624 00e2 3B       		.uleb128 0x3b
 8625 00e3 0B       		.uleb128 0xb
 8626 00e4 49       		.uleb128 0x49
 8627 00e5 13       		.uleb128 0x13
 8628 00e6 3C       		.uleb128 0x3c
 8629 00e7 19       		.uleb128 0x19
 8630 00e8 01       		.uleb128 0x1
 8631 00e9 13       		.uleb128 0x13
 8632 00ea 00       		.byte	0
 8633 00eb 00       		.byte	0
 8634 00ec 12       		.uleb128 0x12
 8635 00ed 18       		.uleb128 0x18
 8636 00ee 00       		.byte	0
 8637 00ef 00       		.byte	0
 8638 00f0 00       		.byte	0
 8639 00f1 13       		.uleb128 0x13
 8640 00f2 34       		.uleb128 0x34
 8641 00f3 00       		.byte	0
 8642 00f4 03       		.uleb128 0x3
 8643 00f5 08       		.uleb128 0x8
 8644 00f6 3A       		.uleb128 0x3a
 8645 00f7 0B       		.uleb128 0xb
 8646 00f8 3B       		.uleb128 0x3b
 8647 00f9 05       		.uleb128 0x5
 8648 00fa 49       		.uleb128 0x49
 8649 00fb 13       		.uleb128 0x13
ARM GAS  C:\Users\PC\AppData\Local\Temp\ccF7GaWd.s 			page 175


 8650 00fc 02       		.uleb128 0x2
 8651 00fd 18       		.uleb128 0x18
 8652 00fe 00       		.byte	0
 8653 00ff 00       		.byte	0
 8654 0100 14       		.uleb128 0x14
 8655 0101 34       		.uleb128 0x34
 8656 0102 00       		.byte	0
 8657 0103 03       		.uleb128 0x3
 8658 0104 08       		.uleb128 0x8
 8659 0105 3A       		.uleb128 0x3a
 8660 0106 0B       		.uleb128 0xb
 8661 0107 3B       		.uleb128 0x3b
 8662 0108 05       		.uleb128 0x5
 8663 0109 49       		.uleb128 0x49
 8664 010a 13       		.uleb128 0x13
 8665 010b 02       		.uleb128 0x2
 8666 010c 17       		.uleb128 0x17
 8667 010d 00       		.byte	0
 8668 010e 00       		.byte	0
 8669 010f 15       		.uleb128 0x15
 8670 0110 34       		.uleb128 0x34
 8671 0111 00       		.byte	0
 8672 0112 03       		.uleb128 0x3
 8673 0113 0E       		.uleb128 0xe
 8674 0114 3A       		.uleb128 0x3a
 8675 0115 0B       		.uleb128 0xb
 8676 0116 3B       		.uleb128 0x3b
 8677 0117 05       		.uleb128 0x5
 8678 0118 49       		.uleb128 0x49
 8679 0119 13       		.uleb128 0x13
 8680 011a 02       		.uleb128 0x2
 8681 011b 18       		.uleb128 0x18
 8682 011c 00       		.byte	0
 8683 011d 00       		.byte	0
 8684 011e 16       		.uleb128 0x16
 8685 011f 0B       		.uleb128 0xb
 8686 0120 01       		.byte	0x1
 8687 0121 55       		.uleb128 0x55
 8688 0122 17       		.uleb128 0x17
 8689 0123 01       		.uleb128 0x1
 8690 0124 13       		.uleb128 0x13
 8691 0125 00       		.byte	0
 8692 0126 00       		.byte	0
 8693 0127 17       		.uleb128 0x17
 8694 0128 0B       		.uleb128 0xb
 8695 0129 01       		.byte	0x1
 8696 012a 11       		.uleb128 0x11
 8697 012b 01       		.uleb128 0x1
 8698 012c 12       		.uleb128 0x12
 8699 012d 06       		.uleb128 0x6
 8700 012e 01       		.uleb128 0x1
 8701 012f 13       		.uleb128 0x13
 8702 0130 00       		.byte	0
 8703 0131 00       		.byte	0
 8704 0132 18       		.uleb128 0x18
 8705 0133 898201   		.uleb128 0x4109
 8706 0136 00       		.byte	0
ARM GAS  C:\Users\PC\AppData\Local\Temp\ccF7GaWd.s 			page 176


 8707 0137 11       		.uleb128 0x11
 8708 0138 01       		.uleb128 0x1
 8709 0139 31       		.uleb128 0x31
 8710 013a 13       		.uleb128 0x13
 8711 013b 00       		.byte	0
 8712 013c 00       		.byte	0
 8713 013d 19       		.uleb128 0x19
 8714 013e 2E       		.uleb128 0x2e
 8715 013f 01       		.byte	0x1
 8716 0140 31       		.uleb128 0x31
 8717 0141 13       		.uleb128 0x13
 8718 0142 11       		.uleb128 0x11
 8719 0143 01       		.uleb128 0x1
 8720 0144 12       		.uleb128 0x12
 8721 0145 06       		.uleb128 0x6
 8722 0146 40       		.uleb128 0x40
 8723 0147 18       		.uleb128 0x18
 8724 0148 9742     		.uleb128 0x2117
 8725 014a 19       		.uleb128 0x19
 8726 014b 01       		.uleb128 0x1
 8727 014c 13       		.uleb128 0x13
 8728 014d 00       		.byte	0
 8729 014e 00       		.byte	0
 8730 014f 1A       		.uleb128 0x1a
 8731 0150 05       		.uleb128 0x5
 8732 0151 00       		.byte	0
 8733 0152 31       		.uleb128 0x31
 8734 0153 13       		.uleb128 0x13
 8735 0154 02       		.uleb128 0x2
 8736 0155 17       		.uleb128 0x17
 8737 0156 00       		.byte	0
 8738 0157 00       		.byte	0
 8739 0158 1B       		.uleb128 0x1b
 8740 0159 898201   		.uleb128 0x4109
 8741 015c 01       		.byte	0x1
 8742 015d 11       		.uleb128 0x11
 8743 015e 01       		.uleb128 0x1
 8744 015f 31       		.uleb128 0x31
 8745 0160 13       		.uleb128 0x13
 8746 0161 00       		.byte	0
 8747 0162 00       		.byte	0
 8748 0163 1C       		.uleb128 0x1c
 8749 0164 8A8201   		.uleb128 0x410a
 8750 0167 00       		.byte	0
 8751 0168 02       		.uleb128 0x2
 8752 0169 18       		.uleb128 0x18
 8753 016a 9142     		.uleb128 0x2111
 8754 016c 18       		.uleb128 0x18
 8755 016d 00       		.byte	0
 8756 016e 00       		.byte	0
 8757 016f 1D       		.uleb128 0x1d
 8758 0170 898201   		.uleb128 0x4109
 8759 0173 01       		.byte	0x1
 8760 0174 11       		.uleb128 0x11
 8761 0175 01       		.uleb128 0x1
 8762 0176 31       		.uleb128 0x31
 8763 0177 13       		.uleb128 0x13
ARM GAS  C:\Users\PC\AppData\Local\Temp\ccF7GaWd.s 			page 177


 8764 0178 01       		.uleb128 0x1
 8765 0179 13       		.uleb128 0x13
 8766 017a 00       		.byte	0
 8767 017b 00       		.byte	0
 8768 017c 1E       		.uleb128 0x1e
 8769 017d 2E       		.uleb128 0x2e
 8770 017e 01       		.byte	0x1
 8771 017f 3F       		.uleb128 0x3f
 8772 0180 19       		.uleb128 0x19
 8773 0181 03       		.uleb128 0x3
 8774 0182 0E       		.uleb128 0xe
 8775 0183 3A       		.uleb128 0x3a
 8776 0184 0B       		.uleb128 0xb
 8777 0185 3B       		.uleb128 0x3b
 8778 0186 05       		.uleb128 0x5
 8779 0187 49       		.uleb128 0x49
 8780 0188 13       		.uleb128 0x13
 8781 0189 3C       		.uleb128 0x3c
 8782 018a 19       		.uleb128 0x19
 8783 018b 01       		.uleb128 0x1
 8784 018c 13       		.uleb128 0x13
 8785 018d 00       		.byte	0
 8786 018e 00       		.byte	0
 8787 018f 1F       		.uleb128 0x1f
 8788 0190 2E       		.uleb128 0x2e
 8789 0191 01       		.byte	0x1
 8790 0192 3F       		.uleb128 0x3f
 8791 0193 19       		.uleb128 0x19
 8792 0194 03       		.uleb128 0x3
 8793 0195 0E       		.uleb128 0xe
 8794 0196 3A       		.uleb128 0x3a
 8795 0197 0B       		.uleb128 0xb
 8796 0198 3B       		.uleb128 0x3b
 8797 0199 05       		.uleb128 0x5
 8798 019a 27       		.uleb128 0x27
 8799 019b 19       		.uleb128 0x19
 8800 019c 11       		.uleb128 0x11
 8801 019d 01       		.uleb128 0x1
 8802 019e 12       		.uleb128 0x12
 8803 019f 06       		.uleb128 0x6
 8804 01a0 40       		.uleb128 0x40
 8805 01a1 18       		.uleb128 0x18
 8806 01a2 9642     		.uleb128 0x2116
 8807 01a4 19       		.uleb128 0x19
 8808 01a5 01       		.uleb128 0x1
 8809 01a6 13       		.uleb128 0x13
 8810 01a7 00       		.byte	0
 8811 01a8 00       		.byte	0
 8812 01a9 20       		.uleb128 0x20
 8813 01aa 0B       		.uleb128 0xb
 8814 01ab 01       		.byte	0x1
 8815 01ac 11       		.uleb128 0x11
 8816 01ad 01       		.uleb128 0x1
 8817 01ae 12       		.uleb128 0x12
 8818 01af 06       		.uleb128 0x6
 8819 01b0 00       		.byte	0
 8820 01b1 00       		.byte	0
ARM GAS  C:\Users\PC\AppData\Local\Temp\ccF7GaWd.s 			page 178


 8821 01b2 21       		.uleb128 0x21
 8822 01b3 05       		.uleb128 0x5
 8823 01b4 00       		.byte	0
 8824 01b5 31       		.uleb128 0x31
 8825 01b6 13       		.uleb128 0x13
 8826 01b7 00       		.byte	0
 8827 01b8 00       		.byte	0
 8828 01b9 22       		.uleb128 0x22
 8829 01ba 34       		.uleb128 0x34
 8830 01bb 00       		.byte	0
 8831 01bc 31       		.uleb128 0x31
 8832 01bd 13       		.uleb128 0x13
 8833 01be 02       		.uleb128 0x2
 8834 01bf 17       		.uleb128 0x17
 8835 01c0 00       		.byte	0
 8836 01c1 00       		.byte	0
 8837 01c2 23       		.uleb128 0x23
 8838 01c3 0B       		.uleb128 0xb
 8839 01c4 01       		.byte	0x1
 8840 01c5 55       		.uleb128 0x55
 8841 01c6 17       		.uleb128 0x17
 8842 01c7 00       		.byte	0
 8843 01c8 00       		.byte	0
 8844 01c9 24       		.uleb128 0x24
 8845 01ca 26       		.uleb128 0x26
 8846 01cb 00       		.byte	0
 8847 01cc 49       		.uleb128 0x49
 8848 01cd 13       		.uleb128 0x13
 8849 01ce 00       		.byte	0
 8850 01cf 00       		.byte	0
 8851 01d0 25       		.uleb128 0x25
 8852 01d1 05       		.uleb128 0x5
 8853 01d2 00       		.byte	0
 8854 01d3 31       		.uleb128 0x31
 8855 01d4 13       		.uleb128 0x13
 8856 01d5 02       		.uleb128 0x2
 8857 01d6 18       		.uleb128 0x18
 8858 01d7 00       		.byte	0
 8859 01d8 00       		.byte	0
 8860 01d9 26       		.uleb128 0x26
 8861 01da 2E       		.uleb128 0x2e
 8862 01db 00       		.byte	0
 8863 01dc 3F       		.uleb128 0x3f
 8864 01dd 19       		.uleb128 0x19
 8865 01de 03       		.uleb128 0x3
 8866 01df 0E       		.uleb128 0xe
 8867 01e0 3A       		.uleb128 0x3a
 8868 01e1 0B       		.uleb128 0xb
 8869 01e2 3B       		.uleb128 0x3b
 8870 01e3 05       		.uleb128 0x5
 8871 01e4 27       		.uleb128 0x27
 8872 01e5 19       		.uleb128 0x19
 8873 01e6 49       		.uleb128 0x49
 8874 01e7 13       		.uleb128 0x13
 8875 01e8 11       		.uleb128 0x11
 8876 01e9 01       		.uleb128 0x1
 8877 01ea 12       		.uleb128 0x12
ARM GAS  C:\Users\PC\AppData\Local\Temp\ccF7GaWd.s 			page 179


 8878 01eb 06       		.uleb128 0x6
 8879 01ec 40       		.uleb128 0x40
 8880 01ed 18       		.uleb128 0x18
 8881 01ee 9742     		.uleb128 0x2117
 8882 01f0 19       		.uleb128 0x19
 8883 01f1 00       		.byte	0
 8884 01f2 00       		.byte	0
 8885 01f3 27       		.uleb128 0x27
 8886 01f4 05       		.uleb128 0x5
 8887 01f5 00       		.byte	0
 8888 01f6 03       		.uleb128 0x3
 8889 01f7 08       		.uleb128 0x8
 8890 01f8 3A       		.uleb128 0x3a
 8891 01f9 0B       		.uleb128 0xb
 8892 01fa 3B       		.uleb128 0x3b
 8893 01fb 05       		.uleb128 0x5
 8894 01fc 49       		.uleb128 0x49
 8895 01fd 13       		.uleb128 0x13
 8896 01fe 02       		.uleb128 0x2
 8897 01ff 18       		.uleb128 0x18
 8898 0200 00       		.byte	0
 8899 0201 00       		.byte	0
 8900 0202 28       		.uleb128 0x28
 8901 0203 1D       		.uleb128 0x1d
 8902 0204 01       		.byte	0x1
 8903 0205 31       		.uleb128 0x31
 8904 0206 13       		.uleb128 0x13
 8905 0207 52       		.uleb128 0x52
 8906 0208 01       		.uleb128 0x1
 8907 0209 55       		.uleb128 0x55
 8908 020a 17       		.uleb128 0x17
 8909 020b 58       		.uleb128 0x58
 8910 020c 0B       		.uleb128 0xb
 8911 020d 59       		.uleb128 0x59
 8912 020e 05       		.uleb128 0x5
 8913 020f 01       		.uleb128 0x1
 8914 0210 13       		.uleb128 0x13
 8915 0211 00       		.byte	0
 8916 0212 00       		.byte	0
 8917 0213 29       		.uleb128 0x29
 8918 0214 2E       		.uleb128 0x2e
 8919 0215 01       		.byte	0x1
 8920 0216 3F       		.uleb128 0x3f
 8921 0217 19       		.uleb128 0x19
 8922 0218 03       		.uleb128 0x3
 8923 0219 0E       		.uleb128 0xe
 8924 021a 3A       		.uleb128 0x3a
 8925 021b 0B       		.uleb128 0xb
 8926 021c 3B       		.uleb128 0x3b
 8927 021d 05       		.uleb128 0x5
 8928 021e 27       		.uleb128 0x27
 8929 021f 19       		.uleb128 0x19
 8930 0220 49       		.uleb128 0x49
 8931 0221 13       		.uleb128 0x13
 8932 0222 11       		.uleb128 0x11
 8933 0223 01       		.uleb128 0x1
 8934 0224 12       		.uleb128 0x12
ARM GAS  C:\Users\PC\AppData\Local\Temp\ccF7GaWd.s 			page 180


 8935 0225 06       		.uleb128 0x6
 8936 0226 40       		.uleb128 0x40
 8937 0227 18       		.uleb128 0x18
 8938 0228 9742     		.uleb128 0x2117
 8939 022a 19       		.uleb128 0x19
 8940 022b 01       		.uleb128 0x1
 8941 022c 13       		.uleb128 0x13
 8942 022d 00       		.byte	0
 8943 022e 00       		.byte	0
 8944 022f 2A       		.uleb128 0x2a
 8945 0230 01       		.uleb128 0x1
 8946 0231 01       		.byte	0x1
 8947 0232 49       		.uleb128 0x49
 8948 0233 13       		.uleb128 0x13
 8949 0234 01       		.uleb128 0x1
 8950 0235 13       		.uleb128 0x13
 8951 0236 00       		.byte	0
 8952 0237 00       		.byte	0
 8953 0238 2B       		.uleb128 0x2b
 8954 0239 21       		.uleb128 0x21
 8955 023a 00       		.byte	0
 8956 023b 49       		.uleb128 0x49
 8957 023c 13       		.uleb128 0x13
 8958 023d 2F       		.uleb128 0x2f
 8959 023e 0B       		.uleb128 0xb
 8960 023f 00       		.byte	0
 8961 0240 00       		.byte	0
 8962 0241 2C       		.uleb128 0x2c
 8963 0242 34       		.uleb128 0x34
 8964 0243 00       		.byte	0
 8965 0244 03       		.uleb128 0x3
 8966 0245 0E       		.uleb128 0xe
 8967 0246 3A       		.uleb128 0x3a
 8968 0247 0B       		.uleb128 0xb
 8969 0248 3B       		.uleb128 0x3b
 8970 0249 0B       		.uleb128 0xb
 8971 024a 49       		.uleb128 0x49
 8972 024b 13       		.uleb128 0x13
 8973 024c 02       		.uleb128 0x2
 8974 024d 18       		.uleb128 0x18
 8975 024e 00       		.byte	0
 8976 024f 00       		.byte	0
 8977 0250 2D       		.uleb128 0x2d
 8978 0251 34       		.uleb128 0x34
 8979 0252 00       		.byte	0
 8980 0253 03       		.uleb128 0x3
 8981 0254 0E       		.uleb128 0xe
 8982 0255 3A       		.uleb128 0x3a
 8983 0256 0B       		.uleb128 0xb
 8984 0257 3B       		.uleb128 0x3b
 8985 0258 0B       		.uleb128 0xb
 8986 0259 49       		.uleb128 0x49
 8987 025a 13       		.uleb128 0x13
 8988 025b 3F       		.uleb128 0x3f
 8989 025c 19       		.uleb128 0x19
 8990 025d 02       		.uleb128 0x2
 8991 025e 18       		.uleb128 0x18
ARM GAS  C:\Users\PC\AppData\Local\Temp\ccF7GaWd.s 			page 181


 8992 025f 00       		.byte	0
 8993 0260 00       		.byte	0
 8994 0261 2E       		.uleb128 0x2e
 8995 0262 2E       		.uleb128 0x2e
 8996 0263 00       		.byte	0
 8997 0264 3F       		.uleb128 0x3f
 8998 0265 19       		.uleb128 0x19
 8999 0266 3C       		.uleb128 0x3c
 9000 0267 19       		.uleb128 0x19
 9001 0268 6E       		.uleb128 0x6e
 9002 0269 0E       		.uleb128 0xe
 9003 026a 03       		.uleb128 0x3
 9004 026b 0E       		.uleb128 0xe
 9005 026c 3A       		.uleb128 0x3a
 9006 026d 0B       		.uleb128 0xb
 9007 026e 3B       		.uleb128 0x3b
 9008 026f 0B       		.uleb128 0xb
 9009 0270 00       		.byte	0
 9010 0271 00       		.byte	0
 9011 0272 2F       		.uleb128 0x2f
 9012 0273 2E       		.uleb128 0x2e
 9013 0274 00       		.byte	0
 9014 0275 3F       		.uleb128 0x3f
 9015 0276 19       		.uleb128 0x19
 9016 0277 3C       		.uleb128 0x3c
 9017 0278 19       		.uleb128 0x19
 9018 0279 6E       		.uleb128 0x6e
 9019 027a 0E       		.uleb128 0xe
 9020 027b 03       		.uleb128 0x3
 9021 027c 0E       		.uleb128 0xe
 9022 027d 3A       		.uleb128 0x3a
 9023 027e 0B       		.uleb128 0xb
 9024 027f 3B       		.uleb128 0x3b
 9025 0280 05       		.uleb128 0x5
 9026 0281 00       		.byte	0
 9027 0282 00       		.byte	0
 9028 0283 00       		.byte	0
 9029              		.section	.debug_loc,"",%progbits
 9030              	.Ldebug_loc0:
 9031              	.LLST0:
 9032 0000 00000000 		.4byte	.LVL0
 9033 0004 3A000000 		.4byte	.LVL6
 9034 0008 0100     		.2byte	0x1
 9035 000a 50       		.byte	0x50
 9036 000b 3A000000 		.4byte	.LVL6
 9037 000f 48000000 		.4byte	.LVL9
 9038 0013 0100     		.2byte	0x1
 9039 0015 54       		.byte	0x54
 9040 0016 4A000000 		.4byte	.LVL10
 9041 001a AE000000 		.4byte	.LVL23
 9042 001e 0100     		.2byte	0x1
 9043 0020 54       		.byte	0x54
 9044 0021 B0000000 		.4byte	.LVL24
 9045 0025 B4000000 		.4byte	.LVL26
 9046 0029 0100     		.2byte	0x1
 9047 002b 54       		.byte	0x54
 9048 002c 00000000 		.4byte	0
ARM GAS  C:\Users\PC\AppData\Local\Temp\ccF7GaWd.s 			page 182


 9049 0030 00000000 		.4byte	0
 9050              	.LLST1:
 9051 0034 00000000 		.4byte	.LVL0
 9052 0038 14000000 		.4byte	.LVL3
 9053 003c 0100     		.2byte	0x1
 9054 003e 51       		.byte	0x51
 9055 003f 14000000 		.4byte	.LVL3
 9056 0043 3A000000 		.4byte	.LVL6
 9057 0047 0400     		.2byte	0x4
 9058 0049 F3       		.byte	0xf3
 9059 004a 01       		.uleb128 0x1
 9060 004b 51       		.byte	0x51
 9061 004c 9F       		.byte	0x9f
 9062 004d 3A000000 		.4byte	.LVL6
 9063 0051 42000000 		.4byte	.LVL7
 9064 0055 0100     		.2byte	0x1
 9065 0057 55       		.byte	0x55
 9066 0058 4A000000 		.4byte	.LVL10
 9067 005c A4000000 		.4byte	.LVL20
 9068 0060 0100     		.2byte	0x1
 9069 0062 55       		.byte	0x55
 9070 0063 A8000000 		.4byte	.LVL21
 9071 0067 B4000000 		.4byte	.LVL27
 9072 006b 0100     		.2byte	0x1
 9073 006d 55       		.byte	0x55
 9074 006e 00000000 		.4byte	0
 9075 0072 00000000 		.4byte	0
 9076              	.LLST2:
 9077 0076 00000000 		.4byte	.LVL0
 9078 007a 08000000 		.4byte	.LVL1
 9079 007e 0100     		.2byte	0x1
 9080 0080 52       		.byte	0x52
 9081 0081 08000000 		.4byte	.LVL1
 9082 0085 3A000000 		.4byte	.LVL6
 9083 0089 0400     		.2byte	0x4
 9084 008b F3       		.byte	0xf3
 9085 008c 01       		.uleb128 0x1
 9086 008d 52       		.byte	0x52
 9087 008e 9F       		.byte	0x9f
 9088 008f 3A000000 		.4byte	.LVL6
 9089 0093 B4000000 		.4byte	.LVL29
 9090 0097 0100     		.2byte	0x1
 9091 0099 57       		.byte	0x57
 9092 009a 00000000 		.4byte	0
 9093 009e 00000000 		.4byte	0
 9094              	.LLST3:
 9095 00a2 00000000 		.4byte	.LVL0
 9096 00a6 3A000000 		.4byte	.LVL6
 9097 00aa 0100     		.2byte	0x1
 9098 00ac 53       		.byte	0x53
 9099 00ad 3A000000 		.4byte	.LVL6
 9100 00b1 44000000 		.4byte	.LVL8
 9101 00b5 0100     		.2byte	0x1
 9102 00b7 53       		.byte	0x53
 9103 00b8 4A000000 		.4byte	.LVL10
 9104 00bc 6E000000 		.4byte	.LVL14
 9105 00c0 0100     		.2byte	0x1
ARM GAS  C:\Users\PC\AppData\Local\Temp\ccF7GaWd.s 			page 183


 9106 00c2 53       		.byte	0x53
 9107 00c3 00000000 		.4byte	0
 9108 00c7 00000000 		.4byte	0
 9109              	.LLST4:
 9110 00cb 00000000 		.4byte	.LVL0
 9111 00cf 08000000 		.4byte	.LVL1
 9112 00d3 0200     		.2byte	0x2
 9113 00d5 91       		.byte	0x91
 9114 00d6 00       		.sleb128 0
 9115 00d7 08000000 		.4byte	.LVL1
 9116 00db 0A000000 		.4byte	.LVL2
 9117 00df 0200     		.2byte	0x2
 9118 00e1 72       		.byte	0x72
 9119 00e2 00       		.sleb128 0
 9120 00e3 0A000000 		.4byte	.LVL2
 9121 00e7 B6000000 		.4byte	.LFE33
 9122 00eb 0200     		.2byte	0x2
 9123 00ed 91       		.byte	0x91
 9124 00ee 00       		.sleb128 0
 9125 00ef 00000000 		.4byte	0
 9126 00f3 00000000 		.4byte	0
 9127              	.LLST5:
 9128 00f7 26000000 		.4byte	.LVL4
 9129 00fb 2A000000 		.4byte	.LVL5
 9130 00ff 0700     		.2byte	0x7
 9131 0101 7D       		.byte	0x7d
 9132 0102 00       		.sleb128 0
 9133 0103 06       		.byte	0x6
 9134 0104 72       		.byte	0x72
 9135 0105 00       		.sleb128 0
 9136 0106 2B       		.byte	0x2b
 9137 0107 9F       		.byte	0x9f
 9138 0108 2A000000 		.4byte	.LVL5
 9139 010c 56000000 		.4byte	.LVL12
 9140 0110 0700     		.2byte	0x7
 9141 0112 7D       		.byte	0x7d
 9142 0113 00       		.sleb128 0
 9143 0114 06       		.byte	0x6
 9144 0115 71       		.byte	0x71
 9145 0116 00       		.sleb128 0
 9146 0117 2B       		.byte	0x2b
 9147 0118 9F       		.byte	0x9f
 9148 0119 56000000 		.4byte	.LVL12
 9149 011d B4000000 		.4byte	.LVL25
 9150 0121 0800     		.2byte	0x8
 9151 0123 7D       		.byte	0x7d
 9152 0124 00       		.sleb128 0
 9153 0125 06       		.byte	0x6
 9154 0126 91       		.byte	0x91
 9155 0127 54       		.sleb128 -44
 9156 0128 06       		.byte	0x6
 9157 0129 2B       		.byte	0x2b
 9158 012a 9F       		.byte	0x9f
 9159 012b B4000000 		.4byte	.LVL25
 9160 012f B6000000 		.4byte	.LFE33
 9161 0133 0800     		.2byte	0x8
 9162 0135 91       		.byte	0x91
ARM GAS  C:\Users\PC\AppData\Local\Temp\ccF7GaWd.s 			page 184


 9163 0136 50       		.sleb128 -48
 9164 0137 06       		.byte	0x6
 9165 0138 91       		.byte	0x91
 9166 0139 54       		.sleb128 -44
 9167 013a 06       		.byte	0x6
 9168 013b 2B       		.byte	0x2b
 9169 013c 9F       		.byte	0x9f
 9170 013d 00000000 		.4byte	0
 9171 0141 00000000 		.4byte	0
 9172              	.LLST6:
 9173 0145 74000000 		.4byte	.LVL15
 9174 0149 98000000 		.4byte	.LVL18
 9175 014d 0100     		.2byte	0x1
 9176 014f 56       		.byte	0x56
 9177 0150 9C000000 		.4byte	.LVL19
 9178 0154 B4000000 		.4byte	.LVL28
 9179 0158 0100     		.2byte	0x1
 9180 015a 56       		.byte	0x56
 9181 015b 00000000 		.4byte	0
 9182 015f 00000000 		.4byte	0
 9183              	.LLST7:
 9184 0163 00000000 		.4byte	.LVL30
 9185 0167 20000000 		.4byte	.LVL39
 9186 016b 0100     		.2byte	0x1
 9187 016d 50       		.byte	0x50
 9188 016e 20000000 		.4byte	.LVL39
 9189 0172 28000000 		.4byte	.LVL42
 9190 0176 0400     		.2byte	0x4
 9191 0178 F3       		.byte	0xf3
 9192 0179 01       		.uleb128 0x1
 9193 017a 50       		.byte	0x50
 9194 017b 9F       		.byte	0x9f
 9195 017c 28000000 		.4byte	.LVL42
 9196 0180 34000000 		.4byte	.LVL44
 9197 0184 0100     		.2byte	0x1
 9198 0186 50       		.byte	0x50
 9199 0187 34000000 		.4byte	.LVL44
 9200 018b 36000000 		.4byte	.LVL45
 9201 018f 0400     		.2byte	0x4
 9202 0191 F3       		.byte	0xf3
 9203 0192 01       		.uleb128 0x1
 9204 0193 50       		.byte	0x50
 9205 0194 9F       		.byte	0x9f
 9206 0195 36000000 		.4byte	.LVL45
 9207 0199 38000000 		.4byte	.LVL46
 9208 019d 0100     		.2byte	0x1
 9209 019f 50       		.byte	0x50
 9210 01a0 48000000 		.4byte	.LVL50
 9211 01a4 4D000000 		.4byte	.LVL51-1
 9212 01a8 0100     		.2byte	0x1
 9213 01aa 50       		.byte	0x50
 9214 01ab 4D000000 		.4byte	.LVL51-1
 9215 01af 4E000000 		.4byte	.LVL51
 9216 01b3 0400     		.2byte	0x4
 9217 01b5 F3       		.byte	0xf3
 9218 01b6 01       		.uleb128 0x1
 9219 01b7 50       		.byte	0x50
ARM GAS  C:\Users\PC\AppData\Local\Temp\ccF7GaWd.s 			page 185


 9220 01b8 9F       		.byte	0x9f
 9221 01b9 00000000 		.4byte	0
 9222 01bd 00000000 		.4byte	0
 9223              	.LLST8:
 9224 01c1 00000000 		.4byte	.LVL30
 9225 01c5 12000000 		.4byte	.LVL35
 9226 01c9 0100     		.2byte	0x1
 9227 01cb 51       		.byte	0x51
 9228 01cc 12000000 		.4byte	.LVL35
 9229 01d0 28000000 		.4byte	.LVL42
 9230 01d4 0400     		.2byte	0x4
 9231 01d6 F3       		.byte	0xf3
 9232 01d7 01       		.uleb128 0x1
 9233 01d8 51       		.byte	0x51
 9234 01d9 9F       		.byte	0x9f
 9235 01da 28000000 		.4byte	.LVL42
 9236 01de 42000000 		.4byte	.LVL48
 9237 01e2 0100     		.2byte	0x1
 9238 01e4 51       		.byte	0x51
 9239 01e5 42000000 		.4byte	.LVL48
 9240 01e9 48000000 		.4byte	.LVL50
 9241 01ed 0400     		.2byte	0x4
 9242 01ef F3       		.byte	0xf3
 9243 01f0 01       		.uleb128 0x1
 9244 01f1 51       		.byte	0x51
 9245 01f2 9F       		.byte	0x9f
 9246 01f3 48000000 		.4byte	.LVL50
 9247 01f7 4D000000 		.4byte	.LVL51-1
 9248 01fb 0100     		.2byte	0x1
 9249 01fd 51       		.byte	0x51
 9250 01fe 4D000000 		.4byte	.LVL51-1
 9251 0202 50000000 		.4byte	.LFE34
 9252 0206 0400     		.2byte	0x4
 9253 0208 F3       		.byte	0xf3
 9254 0209 01       		.uleb128 0x1
 9255 020a 51       		.byte	0x51
 9256 020b 9F       		.byte	0x9f
 9257 020c 00000000 		.4byte	0
 9258 0210 00000000 		.4byte	0
 9259              	.LLST9:
 9260 0214 00000000 		.4byte	.LVL30
 9261 0218 10000000 		.4byte	.LVL34
 9262 021c 0100     		.2byte	0x1
 9263 021e 52       		.byte	0x52
 9264 021f 10000000 		.4byte	.LVL34
 9265 0223 28000000 		.4byte	.LVL42
 9266 0227 0400     		.2byte	0x4
 9267 0229 F3       		.byte	0xf3
 9268 022a 01       		.uleb128 0x1
 9269 022b 52       		.byte	0x52
 9270 022c 9F       		.byte	0x9f
 9271 022d 28000000 		.4byte	.LVL42
 9272 0231 3A000000 		.4byte	.LVL47
 9273 0235 0100     		.2byte	0x1
 9274 0237 52       		.byte	0x52
 9275 0238 48000000 		.4byte	.LVL50
 9276 023c 4D000000 		.4byte	.LVL51-1
ARM GAS  C:\Users\PC\AppData\Local\Temp\ccF7GaWd.s 			page 186


 9277 0240 0100     		.2byte	0x1
 9278 0242 52       		.byte	0x52
 9279 0243 4D000000 		.4byte	.LVL51-1
 9280 0247 4E000000 		.4byte	.LVL51
 9281 024b 0400     		.2byte	0x4
 9282 024d F3       		.byte	0xf3
 9283 024e 01       		.uleb128 0x1
 9284 024f 52       		.byte	0x52
 9285 0250 9F       		.byte	0x9f
 9286 0251 00000000 		.4byte	0
 9287 0255 00000000 		.4byte	0
 9288              	.LLST10:
 9289 0259 00000000 		.4byte	.LVL30
 9290 025d 14000000 		.4byte	.LVL36
 9291 0261 0100     		.2byte	0x1
 9292 0263 53       		.byte	0x53
 9293 0264 14000000 		.4byte	.LVL36
 9294 0268 28000000 		.4byte	.LVL42
 9295 026c 0400     		.2byte	0x4
 9296 026e F3       		.byte	0xf3
 9297 026f 01       		.uleb128 0x1
 9298 0270 53       		.byte	0x53
 9299 0271 9F       		.byte	0x9f
 9300 0272 28000000 		.4byte	.LVL42
 9301 0276 32000000 		.4byte	.LVL43
 9302 027a 0100     		.2byte	0x1
 9303 027c 53       		.byte	0x53
 9304 027d 32000000 		.4byte	.LVL43
 9305 0281 48000000 		.4byte	.LVL50
 9306 0285 0400     		.2byte	0x4
 9307 0287 F3       		.byte	0xf3
 9308 0288 01       		.uleb128 0x1
 9309 0289 53       		.byte	0x53
 9310 028a 9F       		.byte	0x9f
 9311 028b 48000000 		.4byte	.LVL50
 9312 028f 4D000000 		.4byte	.LVL51-1
 9313 0293 0100     		.2byte	0x1
 9314 0295 53       		.byte	0x53
 9315 0296 4D000000 		.4byte	.LVL51-1
 9316 029a 50000000 		.4byte	.LFE34
 9317 029e 0400     		.2byte	0x4
 9318 02a0 F3       		.byte	0xf3
 9319 02a1 01       		.uleb128 0x1
 9320 02a2 53       		.byte	0x53
 9321 02a3 9F       		.byte	0x9f
 9322 02a4 00000000 		.4byte	0
 9323 02a8 00000000 		.4byte	0
 9324              	.LLST11:
 9325 02ac 00000000 		.4byte	.LVL30
 9326 02b0 04000000 		.4byte	.LVL31
 9327 02b4 0200     		.2byte	0x2
 9328 02b6 91       		.byte	0x91
 9329 02b7 00       		.sleb128 0
 9330 02b8 04000000 		.4byte	.LVL31
 9331 02bc 06000000 		.4byte	.LVL32
 9332 02c0 0200     		.2byte	0x2
 9333 02c2 74       		.byte	0x74
ARM GAS  C:\Users\PC\AppData\Local\Temp\ccF7GaWd.s 			page 187


 9334 02c3 00       		.sleb128 0
 9335 02c4 06000000 		.4byte	.LVL32
 9336 02c8 50000000 		.4byte	.LFE34
 9337 02cc 0200     		.2byte	0x2
 9338 02ce 91       		.byte	0x91
 9339 02cf 00       		.sleb128 0
 9340 02d0 00000000 		.4byte	0
 9341 02d4 00000000 		.4byte	0
 9342              	.LLST12:
 9343 02d8 0A000000 		.4byte	.LVL33
 9344 02dc 20000000 		.4byte	.LVL39
 9345 02e0 0100     		.2byte	0x1
 9346 02e2 50       		.byte	0x50
 9347 02e3 20000000 		.4byte	.LVL39
 9348 02e7 28000000 		.4byte	.LVL42
 9349 02eb 0400     		.2byte	0x4
 9350 02ed F3       		.byte	0xf3
 9351 02ee 01       		.uleb128 0x1
 9352 02ef 50       		.byte	0x50
 9353 02f0 9F       		.byte	0x9f
 9354 02f1 00000000 		.4byte	0
 9355 02f5 00000000 		.4byte	0
 9356              	.LLST13:
 9357 02f9 0A000000 		.4byte	.LVL33
 9358 02fd 1A000000 		.4byte	.LVL38
 9359 0301 0100     		.2byte	0x1
 9360 0303 54       		.byte	0x54
 9361 0304 1A000000 		.4byte	.LVL38
 9362 0308 28000000 		.4byte	.LVL42
 9363 030c 0200     		.2byte	0x2
 9364 030e 91       		.byte	0x91
 9365 030f 00       		.sleb128 0
 9366 0310 00000000 		.4byte	0
 9367 0314 00000000 		.4byte	0
 9368              	.LLST14:
 9369 0318 0A000000 		.4byte	.LVL33
 9370 031c 22000000 		.4byte	.LVL40
 9371 0320 0100     		.2byte	0x1
 9372 0322 53       		.byte	0x53
 9373 0323 00000000 		.4byte	0
 9374 0327 00000000 		.4byte	0
 9375              	.LLST15:
 9376 032b 0A000000 		.4byte	.LVL33
 9377 032f 12000000 		.4byte	.LVL35
 9378 0333 0100     		.2byte	0x1
 9379 0335 51       		.byte	0x51
 9380 0336 12000000 		.4byte	.LVL35
 9381 033a 14000000 		.4byte	.LVL36
 9382 033e 0400     		.2byte	0x4
 9383 0340 F3       		.byte	0xf3
 9384 0341 01       		.uleb128 0x1
 9385 0342 51       		.byte	0x51
 9386 0343 9F       		.byte	0x9f
 9387 0344 14000000 		.4byte	.LVL36
 9388 0348 16000000 		.4byte	.LVL37
 9389 034c 0100     		.2byte	0x1
 9390 034e 51       		.byte	0x51
ARM GAS  C:\Users\PC\AppData\Local\Temp\ccF7GaWd.s 			page 188


 9391 034f 00000000 		.4byte	0
 9392 0353 00000000 		.4byte	0
 9393              	.LLST16:
 9394 0357 0A000000 		.4byte	.LVL33
 9395 035b 20000000 		.4byte	.LVL39
 9396 035f 0100     		.2byte	0x1
 9397 0361 50       		.byte	0x50
 9398 0362 20000000 		.4byte	.LVL39
 9399 0366 28000000 		.4byte	.LVL42
 9400 036a 0400     		.2byte	0x4
 9401 036c F3       		.byte	0xf3
 9402 036d 01       		.uleb128 0x1
 9403 036e 50       		.byte	0x50
 9404 036f 9F       		.byte	0x9f
 9405 0370 00000000 		.4byte	0
 9406 0374 00000000 		.4byte	0
 9407              	.LLST17:
 9408 0378 00000000 		.4byte	.LVL52
 9409 037c 24000000 		.4byte	.LVL57
 9410 0380 0100     		.2byte	0x1
 9411 0382 50       		.byte	0x50
 9412 0383 24000000 		.4byte	.LVL57
 9413 0387 3A010000 		.4byte	.LFE35
 9414 038b 0400     		.2byte	0x4
 9415 038d F3       		.byte	0xf3
 9416 038e 01       		.uleb128 0x1
 9417 038f 50       		.byte	0x50
 9418 0390 9F       		.byte	0x9f
 9419 0391 00000000 		.4byte	0
 9420 0395 00000000 		.4byte	0
 9421              	.LLST18:
 9422 0399 00000000 		.4byte	.LVL52
 9423 039d 1A000000 		.4byte	.LVL55
 9424 03a1 0100     		.2byte	0x1
 9425 03a3 51       		.byte	0x51
 9426 03a4 1A000000 		.4byte	.LVL55
 9427 03a8 3A010000 		.4byte	.LFE35
 9428 03ac 0400     		.2byte	0x4
 9429 03ae F3       		.byte	0xf3
 9430 03af 01       		.uleb128 0x1
 9431 03b0 51       		.byte	0x51
 9432 03b1 9F       		.byte	0x9f
 9433 03b2 00000000 		.4byte	0
 9434 03b6 00000000 		.4byte	0
 9435              	.LLST19:
 9436 03ba 00000000 		.4byte	.LVL52
 9437 03be 28000000 		.4byte	.LVL58
 9438 03c2 0100     		.2byte	0x1
 9439 03c4 52       		.byte	0x52
 9440 03c5 28000000 		.4byte	.LVL58
 9441 03c9 5C000000 		.4byte	.LVL63
 9442 03cd 0200     		.2byte	0x2
 9443 03cf 91       		.byte	0x91
 9444 03d0 54       		.sleb128 -44
 9445 03d1 5C000000 		.4byte	.LVL63
 9446 03d5 3A010000 		.4byte	.LFE35
 9447 03d9 0400     		.2byte	0x4
ARM GAS  C:\Users\PC\AppData\Local\Temp\ccF7GaWd.s 			page 189


 9448 03db F3       		.byte	0xf3
 9449 03dc 01       		.uleb128 0x1
 9450 03dd 52       		.byte	0x52
 9451 03de 9F       		.byte	0x9f
 9452 03df 00000000 		.4byte	0
 9453 03e3 00000000 		.4byte	0
 9454              	.LLST20:
 9455 03e7 00000000 		.4byte	.LVL52
 9456 03eb 2D000000 		.4byte	.LVL59-1
 9457 03ef 0100     		.2byte	0x1
 9458 03f1 53       		.byte	0x53
 9459 03f2 2D000000 		.4byte	.LVL59-1
 9460 03f6 3A010000 		.4byte	.LFE35
 9461 03fa 0400     		.2byte	0x4
 9462 03fc F3       		.byte	0xf3
 9463 03fd 01       		.uleb128 0x1
 9464 03fe 53       		.byte	0x53
 9465 03ff 9F       		.byte	0x9f
 9466 0400 00000000 		.4byte	0
 9467 0404 00000000 		.4byte	0
 9468              	.LLST21:
 9469 0408 10000000 		.4byte	.LVL53
 9470 040c 5C000000 		.4byte	.LVL63
 9471 0410 0200     		.2byte	0x2
 9472 0412 31       		.byte	0x31
 9473 0413 9F       		.byte	0x9f
 9474 0414 5C000000 		.4byte	.LVL63
 9475 0418 3A010000 		.4byte	.LFE35
 9476 041c 0900     		.2byte	0x9
 9477 041e 91       		.byte	0x91
 9478 041f 60       		.sleb128 -32
 9479 0420 94       		.byte	0x94
 9480 0421 02       		.byte	0x2
 9481 0422 31       		.byte	0x31
 9482 0423 24       		.byte	0x24
 9483 0424 23       		.byte	0x23
 9484 0425 01       		.uleb128 0x1
 9485 0426 9F       		.byte	0x9f
 9486 0427 00000000 		.4byte	0
 9487 042b 00000000 		.4byte	0
 9488              	.LLST22:
 9489 042f 14000000 		.4byte	.LVL54
 9490 0433 5C000000 		.4byte	.LVL63
 9491 0437 0200     		.2byte	0x2
 9492 0439 30       		.byte	0x30
 9493 043a 9F       		.byte	0x9f
 9494 043b 5C000000 		.4byte	.LVL63
 9495 043f 3A010000 		.4byte	.LFE35
 9496 0443 0200     		.2byte	0x2
 9497 0445 91       		.byte	0x91
 9498 0446 60       		.sleb128 -32
 9499 0447 00000000 		.4byte	0
 9500 044b 00000000 		.4byte	0
 9501              	.LLST23:
 9502 044f 00000000 		.4byte	.LVL77
 9503 0453 34000000 		.4byte	.LVL83
 9504 0457 0100     		.2byte	0x1
ARM GAS  C:\Users\PC\AppData\Local\Temp\ccF7GaWd.s 			page 190


 9505 0459 50       		.byte	0x50
 9506 045a 34000000 		.4byte	.LVL83
 9507 045e 3C010000 		.4byte	.LFE36
 9508 0462 0400     		.2byte	0x4
 9509 0464 F3       		.byte	0xf3
 9510 0465 01       		.uleb128 0x1
 9511 0466 50       		.byte	0x50
 9512 0467 9F       		.byte	0x9f
 9513 0468 00000000 		.4byte	0
 9514 046c 00000000 		.4byte	0
 9515              	.LLST24:
 9516 0470 00000000 		.4byte	.LVL77
 9517 0474 34000000 		.4byte	.LVL83
 9518 0478 0100     		.2byte	0x1
 9519 047a 51       		.byte	0x51
 9520 047b 34000000 		.4byte	.LVL83
 9521 047f 3C010000 		.4byte	.LFE36
 9522 0483 0400     		.2byte	0x4
 9523 0485 F3       		.byte	0xf3
 9524 0486 01       		.uleb128 0x1
 9525 0487 51       		.byte	0x51
 9526 0488 9F       		.byte	0x9f
 9527 0489 00000000 		.4byte	0
 9528 048d 00000000 		.4byte	0
 9529              	.LLST25:
 9530 0491 00000000 		.4byte	.LVL77
 9531 0495 34000000 		.4byte	.LVL83
 9532 0499 0100     		.2byte	0x1
 9533 049b 52       		.byte	0x52
 9534 049c 34000000 		.4byte	.LVL83
 9535 04a0 3C010000 		.4byte	.LFE36
 9536 04a4 0400     		.2byte	0x4
 9537 04a6 F3       		.byte	0xf3
 9538 04a7 01       		.uleb128 0x1
 9539 04a8 52       		.byte	0x52
 9540 04a9 9F       		.byte	0x9f
 9541 04aa 00000000 		.4byte	0
 9542 04ae 00000000 		.4byte	0
 9543              	.LLST26:
 9544 04b2 00000000 		.4byte	.LVL77
 9545 04b6 08000000 		.4byte	.LVL78
 9546 04ba 0100     		.2byte	0x1
 9547 04bc 53       		.byte	0x53
 9548 04bd 08000000 		.4byte	.LVL78
 9549 04c1 3C010000 		.4byte	.LFE36
 9550 04c5 0400     		.2byte	0x4
 9551 04c7 F3       		.byte	0xf3
 9552 04c8 01       		.uleb128 0x1
 9553 04c9 53       		.byte	0x53
 9554 04ca 9F       		.byte	0x9f
 9555 04cb 00000000 		.4byte	0
 9556 04cf 00000000 		.4byte	0
 9557              	.LLST27:
 9558 04d3 00000000 		.4byte	.LVL77
 9559 04d7 08000000 		.4byte	.LVL78
 9560 04db 0200     		.2byte	0x2
 9561 04dd 91       		.byte	0x91
ARM GAS  C:\Users\PC\AppData\Local\Temp\ccF7GaWd.s 			page 191


 9562 04de 00       		.sleb128 0
 9563 04df 08000000 		.4byte	.LVL78
 9564 04e3 0A000000 		.4byte	.LVL79
 9565 04e7 0200     		.2byte	0x2
 9566 04e9 73       		.byte	0x73
 9567 04ea 00       		.sleb128 0
 9568 04eb 0A000000 		.4byte	.LVL79
 9569 04ef 3C010000 		.4byte	.LFE36
 9570 04f3 0200     		.2byte	0x2
 9571 04f5 91       		.byte	0x91
 9572 04f6 00       		.sleb128 0
 9573 04f7 00000000 		.4byte	0
 9574 04fb 00000000 		.4byte	0
 9575              	.LLST28:
 9576 04ff 16000000 		.4byte	.LVL80
 9577 0503 34000000 		.4byte	.LVL83
 9578 0507 0200     		.2byte	0x2
 9579 0509 31       		.byte	0x31
 9580 050a 9F       		.byte	0x9f
 9581 050b 34000000 		.4byte	.LVL83
 9582 050f 3C010000 		.4byte	.LFE36
 9583 0513 0900     		.2byte	0x9
 9584 0515 91       		.byte	0x91
 9585 0516 60       		.sleb128 -32
 9586 0517 94       		.byte	0x94
 9587 0518 02       		.byte	0x2
 9588 0519 31       		.byte	0x31
 9589 051a 24       		.byte	0x24
 9590 051b 23       		.byte	0x23
 9591 051c 01       		.uleb128 0x1
 9592 051d 9F       		.byte	0x9f
 9593 051e 00000000 		.4byte	0
 9594 0522 00000000 		.4byte	0
 9595              	.LLST29:
 9596 0526 1E000000 		.4byte	.LVL81
 9597 052a 34000000 		.4byte	.LVL83
 9598 052e 0200     		.2byte	0x2
 9599 0530 30       		.byte	0x30
 9600 0531 9F       		.byte	0x9f
 9601 0532 34000000 		.4byte	.LVL83
 9602 0536 3C010000 		.4byte	.LFE36
 9603 053a 0200     		.2byte	0x2
 9604 053c 91       		.byte	0x91
 9605 053d 60       		.sleb128 -32
 9606 053e 00000000 		.4byte	0
 9607 0542 00000000 		.4byte	0
 9608              	.LLST30:
 9609 0546 00000000 		.4byte	.LVL97
 9610 054a 08000000 		.4byte	.LVL98
 9611 054e 0100     		.2byte	0x1
 9612 0550 50       		.byte	0x50
 9613 0551 08000000 		.4byte	.LVL98
 9614 0555 0E010000 		.4byte	.LFE38
 9615 0559 0400     		.2byte	0x4
 9616 055b F3       		.byte	0xf3
 9617 055c 01       		.uleb128 0x1
 9618 055d 50       		.byte	0x50
ARM GAS  C:\Users\PC\AppData\Local\Temp\ccF7GaWd.s 			page 192


 9619 055e 9F       		.byte	0x9f
 9620 055f 00000000 		.4byte	0
 9621 0563 00000000 		.4byte	0
 9622              	.LLST31:
 9623 0567 00000000 		.4byte	.LVL97
 9624 056b 1E000000 		.4byte	.LVL101
 9625 056f 0100     		.2byte	0x1
 9626 0571 51       		.byte	0x51
 9627 0572 1E000000 		.4byte	.LVL101
 9628 0576 0E010000 		.4byte	.LFE38
 9629 057a 0400     		.2byte	0x4
 9630 057c F3       		.byte	0xf3
 9631 057d 01       		.uleb128 0x1
 9632 057e 51       		.byte	0x51
 9633 057f 9F       		.byte	0x9f
 9634 0580 00000000 		.4byte	0
 9635 0584 00000000 		.4byte	0
 9636              	.LLST32:
 9637 0588 00000000 		.4byte	.LVL97
 9638 058c 32000000 		.4byte	.LVL105
 9639 0590 0100     		.2byte	0x1
 9640 0592 52       		.byte	0x52
 9641 0593 32000000 		.4byte	.LVL105
 9642 0597 0E010000 		.4byte	.LFE38
 9643 059b 0400     		.2byte	0x4
 9644 059d F3       		.byte	0xf3
 9645 059e 01       		.uleb128 0x1
 9646 059f 52       		.byte	0x52
 9647 05a0 9F       		.byte	0x9f
 9648 05a1 00000000 		.4byte	0
 9649 05a5 00000000 		.4byte	0
 9650              	.LLST33:
 9651 05a9 00000000 		.4byte	.LVL97
 9652 05ad 0C000000 		.4byte	.LVL99
 9653 05b1 0100     		.2byte	0x1
 9654 05b3 53       		.byte	0x53
 9655 05b4 0C000000 		.4byte	.LVL99
 9656 05b8 0E010000 		.4byte	.LFE38
 9657 05bc 0400     		.2byte	0x4
 9658 05be F3       		.byte	0xf3
 9659 05bf 01       		.uleb128 0x1
 9660 05c0 53       		.byte	0x53
 9661 05c1 9F       		.byte	0x9f
 9662 05c2 00000000 		.4byte	0
 9663 05c6 00000000 		.4byte	0
 9664              	.LLST34:
 9665 05ca 00000000 		.4byte	.LVL97
 9666 05ce 0C000000 		.4byte	.LVL99
 9667 05d2 0200     		.2byte	0x2
 9668 05d4 91       		.byte	0x91
 9669 05d5 00       		.sleb128 0
 9670 05d6 0C000000 		.4byte	.LVL99
 9671 05da 0E000000 		.4byte	.LVL100
 9672 05de 0200     		.2byte	0x2
 9673 05e0 73       		.byte	0x73
 9674 05e1 00       		.sleb128 0
 9675 05e2 0E000000 		.4byte	.LVL100
ARM GAS  C:\Users\PC\AppData\Local\Temp\ccF7GaWd.s 			page 193


 9676 05e6 2E000000 		.4byte	.LVL104
 9677 05ea 0200     		.2byte	0x2
 9678 05ec 91       		.byte	0x91
 9679 05ed 00       		.sleb128 0
 9680 05ee 2E000000 		.4byte	.LVL104
 9681 05f2 0E010000 		.4byte	.LFE38
 9682 05f6 0200     		.2byte	0x2
 9683 05f8 91       		.byte	0x91
 9684 05f9 4C       		.sleb128 -52
 9685 05fa 00000000 		.4byte	0
 9686 05fe 00000000 		.4byte	0
 9687              	.LLST35:
 9688 0602 00000000 		.4byte	.LVL97
 9689 0606 0C000000 		.4byte	.LVL99
 9690 060a 0200     		.2byte	0x2
 9691 060c 91       		.byte	0x91
 9692 060d 04       		.sleb128 4
 9693 060e 0C000000 		.4byte	.LVL99
 9694 0612 0E000000 		.4byte	.LVL100
 9695 0616 0200     		.2byte	0x2
 9696 0618 73       		.byte	0x73
 9697 0619 04       		.sleb128 4
 9698 061a 0E000000 		.4byte	.LVL100
 9699 061e 1E000000 		.4byte	.LVL101
 9700 0622 0200     		.2byte	0x2
 9701 0624 91       		.byte	0x91
 9702 0625 04       		.sleb128 4
 9703 0626 1E000000 		.4byte	.LVL101
 9704 062a 20000000 		.4byte	.LVL102
 9705 062e 0200     		.2byte	0x2
 9706 0630 71       		.byte	0x71
 9707 0631 00       		.sleb128 0
 9708 0632 20000000 		.4byte	.LVL102
 9709 0636 0E010000 		.4byte	.LFE38
 9710 063a 0200     		.2byte	0x2
 9711 063c 91       		.byte	0x91
 9712 063d 04       		.sleb128 4
 9713 063e 00000000 		.4byte	0
 9714 0642 00000000 		.4byte	0
 9715              	.LLST36:
 9716 0646 2C000000 		.4byte	.LVL103
 9717 064a 48000000 		.4byte	.LVL107
 9718 064e 0100     		.2byte	0x1
 9719 0650 57       		.byte	0x57
 9720 0651 4E000000 		.4byte	.LVL110
 9721 0655 5E000000 		.4byte	.LVL112
 9722 0659 0100     		.2byte	0x1
 9723 065b 57       		.byte	0x57
 9724 065c 62000000 		.4byte	.LVL113
 9725 0660 0C010000 		.4byte	.LVL123
 9726 0664 0100     		.2byte	0x1
 9727 0666 57       		.byte	0x57
 9728 0667 00000000 		.4byte	0
 9729 066b 00000000 		.4byte	0
 9730              	.LLST37:
 9731 066f 2C000000 		.4byte	.LVL103
 9732 0673 32000000 		.4byte	.LVL105
ARM GAS  C:\Users\PC\AppData\Local\Temp\ccF7GaWd.s 			page 194


 9733 0677 0200     		.2byte	0x2
 9734 0679 31       		.byte	0x31
 9735 067a 9F       		.byte	0x9f
 9736 067b 32000000 		.4byte	.LVL105
 9737 067f 0C010000 		.4byte	.LVL120
 9738 0683 0900     		.2byte	0x9
 9739 0685 7D       		.byte	0x7d
 9740 0686 00       		.sleb128 0
 9741 0687 94       		.byte	0x94
 9742 0688 02       		.byte	0x2
 9743 0689 31       		.byte	0x31
 9744 068a 24       		.byte	0x24
 9745 068b 23       		.byte	0x23
 9746 068c 01       		.uleb128 0x1
 9747 068d 9F       		.byte	0x9f
 9748 068e 0C010000 		.4byte	.LVL120
 9749 0692 0E010000 		.4byte	.LFE38
 9750 0696 0900     		.2byte	0x9
 9751 0698 91       		.byte	0x91
 9752 0699 48       		.sleb128 -56
 9753 069a 94       		.byte	0x94
 9754 069b 02       		.byte	0x2
 9755 069c 31       		.byte	0x31
 9756 069d 24       		.byte	0x24
 9757 069e 23       		.byte	0x23
 9758 069f 01       		.uleb128 0x1
 9759 06a0 9F       		.byte	0x9f
 9760 06a1 00000000 		.4byte	0
 9761 06a5 00000000 		.4byte	0
 9762              	.LLST38:
 9763 06a9 2E000000 		.4byte	.LVL104
 9764 06ad 32000000 		.4byte	.LVL105
 9765 06b1 0200     		.2byte	0x2
 9766 06b3 30       		.byte	0x30
 9767 06b4 9F       		.byte	0x9f
 9768 06b5 32000000 		.4byte	.LVL105
 9769 06b9 0C010000 		.4byte	.LVL120
 9770 06bd 0200     		.2byte	0x2
 9771 06bf 7D       		.byte	0x7d
 9772 06c0 00       		.sleb128 0
 9773 06c1 0C010000 		.4byte	.LVL120
 9774 06c5 0E010000 		.4byte	.LFE38
 9775 06c9 0200     		.2byte	0x2
 9776 06cb 91       		.byte	0x91
 9777 06cc 48       		.sleb128 -56
 9778 06cd 00000000 		.4byte	0
 9779 06d1 00000000 		.4byte	0
 9780              	.LLST39:
 9781 06d5 2E000000 		.4byte	.LVL104
 9782 06d9 40000000 		.4byte	.LVL106
 9783 06dd 0100     		.2byte	0x1
 9784 06df 55       		.byte	0x55
 9785 06e0 4A000000 		.4byte	.LVL108
 9786 06e4 0C010000 		.4byte	.LVL121
 9787 06e8 0100     		.2byte	0x1
 9788 06ea 55       		.byte	0x55
 9789 06eb 00000000 		.4byte	0
ARM GAS  C:\Users\PC\AppData\Local\Temp\ccF7GaWd.s 			page 195


 9790 06ef 00000000 		.4byte	0
 9791              	.LLST40:
 9792 06f3 2E000000 		.4byte	.LVL104
 9793 06f7 32000000 		.4byte	.LVL105
 9794 06fb 0200     		.2byte	0x2
 9795 06fd 30       		.byte	0x30
 9796 06fe 9F       		.byte	0x9f
 9797 06ff 32000000 		.4byte	.LVL105
 9798 0703 58000000 		.4byte	.LVL111
 9799 0707 0200     		.2byte	0x2
 9800 0709 7D       		.byte	0x7d
 9801 070a 00       		.sleb128 0
 9802 070b 0A010000 		.4byte	.LVL119
 9803 070f 0C010000 		.4byte	.LVL120
 9804 0713 0200     		.2byte	0x2
 9805 0715 7D       		.byte	0x7d
 9806 0716 00       		.sleb128 0
 9807 0717 0C010000 		.4byte	.LVL120
 9808 071b 0E010000 		.4byte	.LFE38
 9809 071f 0200     		.2byte	0x2
 9810 0721 91       		.byte	0x91
 9811 0722 48       		.sleb128 -56
 9812 0723 00000000 		.4byte	0
 9813 0727 00000000 		.4byte	0
 9814              	.LLST41:
 9815 072b 2E000000 		.4byte	.LVL104
 9816 072f 32000000 		.4byte	.LVL105
 9817 0733 0100     		.2byte	0x1
 9818 0735 55       		.byte	0x55
 9819 0736 32000000 		.4byte	.LVL105
 9820 073a 08010000 		.4byte	.LVL118
 9821 073e 0100     		.2byte	0x1
 9822 0740 56       		.byte	0x56
 9823 0741 0A010000 		.4byte	.LVL119
 9824 0745 0C010000 		.4byte	.LVL122
 9825 0749 0100     		.2byte	0x1
 9826 074b 56       		.byte	0x56
 9827 074c 00000000 		.4byte	0
 9828 0750 00000000 		.4byte	0
 9829              	.LLST42:
 9830 0754 00000000 		.4byte	.LVL124
 9831 0758 1A000000 		.4byte	.LVL128
 9832 075c 0100     		.2byte	0x1
 9833 075e 50       		.byte	0x50
 9834 075f 1A000000 		.4byte	.LVL128
 9835 0763 32000000 		.4byte	.LFE37
 9836 0767 0400     		.2byte	0x4
 9837 0769 F3       		.byte	0xf3
 9838 076a 01       		.uleb128 0x1
 9839 076b 50       		.byte	0x50
 9840 076c 9F       		.byte	0x9f
 9841 076d 00000000 		.4byte	0
 9842 0771 00000000 		.4byte	0
 9843              	.LLST43:
 9844 0775 00000000 		.4byte	.LVL124
 9845 0779 06000000 		.4byte	.LVL125
 9846 077d 0100     		.2byte	0x1
ARM GAS  C:\Users\PC\AppData\Local\Temp\ccF7GaWd.s 			page 196


 9847 077f 51       		.byte	0x51
 9848 0780 06000000 		.4byte	.LVL125
 9849 0784 32000000 		.4byte	.LFE37
 9850 0788 0400     		.2byte	0x4
 9851 078a F3       		.byte	0xf3
 9852 078b 01       		.uleb128 0x1
 9853 078c 51       		.byte	0x51
 9854 078d 9F       		.byte	0x9f
 9855 078e 00000000 		.4byte	0
 9856 0792 00000000 		.4byte	0
 9857              	.LLST44:
 9858 0796 00000000 		.4byte	.LVL124
 9859 079a 0A000000 		.4byte	.LVL126
 9860 079e 0100     		.2byte	0x1
 9861 07a0 52       		.byte	0x52
 9862 07a1 0A000000 		.4byte	.LVL126
 9863 07a5 32000000 		.4byte	.LFE37
 9864 07a9 0400     		.2byte	0x4
 9865 07ab F3       		.byte	0xf3
 9866 07ac 01       		.uleb128 0x1
 9867 07ad 52       		.byte	0x52
 9868 07ae 9F       		.byte	0x9f
 9869 07af 00000000 		.4byte	0
 9870 07b3 00000000 		.4byte	0
 9871              	.LLST45:
 9872 07b7 00000000 		.4byte	.LVL124
 9873 07bb 14000000 		.4byte	.LVL127
 9874 07bf 0100     		.2byte	0x1
 9875 07c1 53       		.byte	0x53
 9876 07c2 14000000 		.4byte	.LVL127
 9877 07c6 32000000 		.4byte	.LFE37
 9878 07ca 0400     		.2byte	0x4
 9879 07cc F3       		.byte	0xf3
 9880 07cd 01       		.uleb128 0x1
 9881 07ce 53       		.byte	0x53
 9882 07cf 9F       		.byte	0x9f
 9883 07d0 00000000 		.4byte	0
 9884 07d4 00000000 		.4byte	0
 9885              	.LLST46:
 9886 07d8 00000000 		.4byte	.LVL131
 9887 07dc 1A000000 		.4byte	.LVL137
 9888 07e0 0100     		.2byte	0x1
 9889 07e2 50       		.byte	0x50
 9890 07e3 1A000000 		.4byte	.LVL137
 9891 07e7 4E000000 		.4byte	.LFE39
 9892 07eb 0400     		.2byte	0x4
 9893 07ed F3       		.byte	0xf3
 9894 07ee 01       		.uleb128 0x1
 9895 07ef 50       		.byte	0x50
 9896 07f0 9F       		.byte	0x9f
 9897 07f1 00000000 		.4byte	0
 9898 07f5 00000000 		.4byte	0
 9899              	.LLST47:
 9900 07f9 00000000 		.4byte	.LVL131
 9901 07fd 18000000 		.4byte	.LVL136
 9902 0801 0100     		.2byte	0x1
 9903 0803 51       		.byte	0x51
ARM GAS  C:\Users\PC\AppData\Local\Temp\ccF7GaWd.s 			page 197


 9904 0804 18000000 		.4byte	.LVL136
 9905 0808 4E000000 		.4byte	.LFE39
 9906 080c 0400     		.2byte	0x4
 9907 080e F3       		.byte	0xf3
 9908 080f 01       		.uleb128 0x1
 9909 0810 51       		.byte	0x51
 9910 0811 9F       		.byte	0x9f
 9911 0812 00000000 		.4byte	0
 9912 0816 00000000 		.4byte	0
 9913              	.LLST48:
 9914 081a 00000000 		.4byte	.LVL131
 9915 081e 16000000 		.4byte	.LVL135
 9916 0822 0100     		.2byte	0x1
 9917 0824 52       		.byte	0x52
 9918 0825 16000000 		.4byte	.LVL135
 9919 0829 4E000000 		.4byte	.LFE39
 9920 082d 0400     		.2byte	0x4
 9921 082f F3       		.byte	0xf3
 9922 0830 01       		.uleb128 0x1
 9923 0831 52       		.byte	0x52
 9924 0832 9F       		.byte	0x9f
 9925 0833 00000000 		.4byte	0
 9926 0837 00000000 		.4byte	0
 9927              	.LLST49:
 9928 083b 00000000 		.4byte	.LVL131
 9929 083f 06000000 		.4byte	.LVL132
 9930 0843 0100     		.2byte	0x1
 9931 0845 53       		.byte	0x53
 9932 0846 06000000 		.4byte	.LVL132
 9933 084a 4E000000 		.4byte	.LFE39
 9934 084e 0400     		.2byte	0x4
 9935 0850 F3       		.byte	0xf3
 9936 0851 01       		.uleb128 0x1
 9937 0852 53       		.byte	0x53
 9938 0853 9F       		.byte	0x9f
 9939 0854 00000000 		.4byte	0
 9940 0858 00000000 		.4byte	0
 9941              	.LLST50:
 9942 085c 00000000 		.4byte	.LVL131
 9943 0860 0A000000 		.4byte	.LVL133
 9944 0864 0200     		.2byte	0x2
 9945 0866 91       		.byte	0x91
 9946 0867 00       		.sleb128 0
 9947 0868 0A000000 		.4byte	.LVL133
 9948 086c 14000000 		.4byte	.LVL134
 9949 0870 0200     		.2byte	0x2
 9950 0872 73       		.byte	0x73
 9951 0873 00       		.sleb128 0
 9952 0874 14000000 		.4byte	.LVL134
 9953 0878 4E000000 		.4byte	.LFE39
 9954 087c 0200     		.2byte	0x2
 9955 087e 91       		.byte	0x91
 9956 087f 00       		.sleb128 0
 9957 0880 00000000 		.4byte	0
 9958 0884 00000000 		.4byte	0
 9959              	.LLST51:
 9960 0888 00000000 		.4byte	.LVL142
ARM GAS  C:\Users\PC\AppData\Local\Temp\ccF7GaWd.s 			page 198


 9961 088c 48000000 		.4byte	.LVL151
 9962 0890 0100     		.2byte	0x1
 9963 0892 50       		.byte	0x50
 9964 0893 48000000 		.4byte	.LVL151
 9965 0897 1C010000 		.4byte	.LFE40
 9966 089b 0400     		.2byte	0x4
 9967 089d F3       		.byte	0xf3
 9968 089e 01       		.uleb128 0x1
 9969 089f 50       		.byte	0x50
 9970 08a0 9F       		.byte	0x9f
 9971 08a1 00000000 		.4byte	0
 9972 08a5 00000000 		.4byte	0
 9973              	.LLST52:
 9974 08a9 00000000 		.4byte	.LVL142
 9975 08ad 1A000000 		.4byte	.LVL147
 9976 08b1 0100     		.2byte	0x1
 9977 08b3 51       		.byte	0x51
 9978 08b4 1A000000 		.4byte	.LVL147
 9979 08b8 1C010000 		.4byte	.LFE40
 9980 08bc 0400     		.2byte	0x4
 9981 08be F3       		.byte	0xf3
 9982 08bf 01       		.uleb128 0x1
 9983 08c0 51       		.byte	0x51
 9984 08c1 9F       		.byte	0x9f
 9985 08c2 00000000 		.4byte	0
 9986 08c6 00000000 		.4byte	0
 9987              	.LLST53:
 9988 08ca 00000000 		.4byte	.LVL142
 9989 08ce 18000000 		.4byte	.LVL146
 9990 08d2 0100     		.2byte	0x1
 9991 08d4 52       		.byte	0x52
 9992 08d5 18000000 		.4byte	.LVL146
 9993 08d9 1C010000 		.4byte	.LFE40
 9994 08dd 0400     		.2byte	0x4
 9995 08df F3       		.byte	0xf3
 9996 08e0 01       		.uleb128 0x1
 9997 08e1 52       		.byte	0x52
 9998 08e2 9F       		.byte	0x9f
 9999 08e3 00000000 		.4byte	0
 10000 08e7 00000000 		.4byte	0
 10001              	.LLST54:
 10002 08eb 00000000 		.4byte	.LVL142
 10003 08ef 08000000 		.4byte	.LVL143
 10004 08f3 0100     		.2byte	0x1
 10005 08f5 53       		.byte	0x53
 10006 08f6 08000000 		.4byte	.LVL143
 10007 08fa 1C010000 		.4byte	.LFE40
 10008 08fe 0400     		.2byte	0x4
 10009 0900 F3       		.byte	0xf3
 10010 0901 01       		.uleb128 0x1
 10011 0902 53       		.byte	0x53
 10012 0903 9F       		.byte	0x9f
 10013 0904 00000000 		.4byte	0
 10014 0908 00000000 		.4byte	0
 10015              	.LLST55:
 10016 090c 00000000 		.4byte	.LVL142
 10017 0910 08000000 		.4byte	.LVL143
ARM GAS  C:\Users\PC\AppData\Local\Temp\ccF7GaWd.s 			page 199


 10018 0914 0200     		.2byte	0x2
 10019 0916 91       		.byte	0x91
 10020 0917 00       		.sleb128 0
 10021 0918 08000000 		.4byte	.LVL143
 10022 091c 0C000000 		.4byte	.LVL144
 10023 0920 0200     		.2byte	0x2
 10024 0922 73       		.byte	0x73
 10025 0923 00       		.sleb128 0
 10026 0924 0C000000 		.4byte	.LVL144
 10027 0928 30000000 		.4byte	.LVL149
 10028 092c 0200     		.2byte	0x2
 10029 092e 91       		.byte	0x91
 10030 092f 00       		.sleb128 0
 10031 0930 30000000 		.4byte	.LVL149
 10032 0934 1A010000 		.4byte	.LVL160
 10033 0938 0100     		.2byte	0x1
 10034 093a 54       		.byte	0x54
 10035 093b 00000000 		.4byte	0
 10036 093f 00000000 		.4byte	0
 10037              	.LLST56:
 10038 0943 00000000 		.4byte	.LVL142
 10039 0947 08000000 		.4byte	.LVL143
 10040 094b 0200     		.2byte	0x2
 10041 094d 91       		.byte	0x91
 10042 094e 04       		.sleb128 4
 10043 094f 08000000 		.4byte	.LVL143
 10044 0953 0C000000 		.4byte	.LVL144
 10045 0957 0200     		.2byte	0x2
 10046 0959 73       		.byte	0x73
 10047 095a 04       		.sleb128 4
 10048 095b 0C000000 		.4byte	.LVL144
 10049 095f 0E000000 		.4byte	.LVL145
 10050 0963 0200     		.2byte	0x2
 10051 0965 73       		.byte	0x73
 10052 0966 00       		.sleb128 0
 10053 0967 0E000000 		.4byte	.LVL145
 10054 096b 1C010000 		.4byte	.LFE40
 10055 096f 0200     		.2byte	0x2
 10056 0971 91       		.byte	0x91
 10057 0972 04       		.sleb128 4
 10058 0973 00000000 		.4byte	0
 10059 0977 00000000 		.4byte	0
 10060              	.LLST57:
 10061 097b 2A000000 		.4byte	.LVL148
 10062 097f 32000000 		.4byte	.LVL150
 10063 0983 0100     		.2byte	0x1
 10064 0985 53       		.byte	0x53
 10065 0986 00000000 		.4byte	0
 10066 098a 00000000 		.4byte	0
 10067              	.LLST58:
 10068 098e 00000000 		.4byte	.LVL161
 10069 0992 38000000 		.4byte	.LVL170
 10070 0996 0100     		.2byte	0x1
 10071 0998 50       		.byte	0x50
 10072 0999 38000000 		.4byte	.LVL170
 10073 099d 7E000000 		.4byte	.LFE41
 10074 09a1 0400     		.2byte	0x4
ARM GAS  C:\Users\PC\AppData\Local\Temp\ccF7GaWd.s 			page 200


 10075 09a3 F3       		.byte	0xf3
 10076 09a4 01       		.uleb128 0x1
 10077 09a5 50       		.byte	0x50
 10078 09a6 9F       		.byte	0x9f
 10079 09a7 00000000 		.4byte	0
 10080 09ab 00000000 		.4byte	0
 10081              	.LLST59:
 10082 09af 00000000 		.4byte	.LVL161
 10083 09b3 30000000 		.4byte	.LVL169
 10084 09b7 0100     		.2byte	0x1
 10085 09b9 51       		.byte	0x51
 10086 09ba 30000000 		.4byte	.LVL169
 10087 09be 7E000000 		.4byte	.LFE41
 10088 09c2 0400     		.2byte	0x4
 10089 09c4 F3       		.byte	0xf3
 10090 09c5 01       		.uleb128 0x1
 10091 09c6 51       		.byte	0x51
 10092 09c7 9F       		.byte	0x9f
 10093 09c8 00000000 		.4byte	0
 10094 09cc 00000000 		.4byte	0
 10095              	.LLST60:
 10096 09d0 00000000 		.4byte	.LVL161
 10097 09d4 2C000000 		.4byte	.LVL168
 10098 09d8 0100     		.2byte	0x1
 10099 09da 52       		.byte	0x52
 10100 09db 2C000000 		.4byte	.LVL168
 10101 09df 7E000000 		.4byte	.LFE41
 10102 09e3 0400     		.2byte	0x4
 10103 09e5 F3       		.byte	0xf3
 10104 09e6 01       		.uleb128 0x1
 10105 09e7 52       		.byte	0x52
 10106 09e8 9F       		.byte	0x9f
 10107 09e9 00000000 		.4byte	0
 10108 09ed 00000000 		.4byte	0
 10109              	.LLST61:
 10110 09f1 00000000 		.4byte	.LVL161
 10111 09f5 08000000 		.4byte	.LVL162
 10112 09f9 0100     		.2byte	0x1
 10113 09fb 53       		.byte	0x53
 10114 09fc 08000000 		.4byte	.LVL162
 10115 0a00 7E000000 		.4byte	.LFE41
 10116 0a04 0400     		.2byte	0x4
 10117 0a06 F3       		.byte	0xf3
 10118 0a07 01       		.uleb128 0x1
 10119 0a08 53       		.byte	0x53
 10120 0a09 9F       		.byte	0x9f
 10121 0a0a 00000000 		.4byte	0
 10122 0a0e 00000000 		.4byte	0
 10123              	.LLST62:
 10124 0a12 00000000 		.4byte	.LVL161
 10125 0a16 08000000 		.4byte	.LVL162
 10126 0a1a 0200     		.2byte	0x2
 10127 0a1c 91       		.byte	0x91
 10128 0a1d 00       		.sleb128 0
 10129 0a1e 08000000 		.4byte	.LVL162
 10130 0a22 0C000000 		.4byte	.LVL163
 10131 0a26 0200     		.2byte	0x2
ARM GAS  C:\Users\PC\AppData\Local\Temp\ccF7GaWd.s 			page 201


 10132 0a28 73       		.byte	0x73
 10133 0a29 00       		.sleb128 0
 10134 0a2a 0C000000 		.4byte	.LVL163
 10135 0a2e 28000000 		.4byte	.LVL166
 10136 0a32 0200     		.2byte	0x2
 10137 0a34 91       		.byte	0x91
 10138 0a35 00       		.sleb128 0
 10139 0a36 28000000 		.4byte	.LVL166
 10140 0a3a 7C000000 		.4byte	.LVL174
 10141 0a3e 0100     		.2byte	0x1
 10142 0a40 55       		.byte	0x55
 10143 0a41 00000000 		.4byte	0
 10144 0a45 00000000 		.4byte	0
 10145              	.LLST63:
 10146 0a49 00000000 		.4byte	.LVL161
 10147 0a4d 08000000 		.4byte	.LVL162
 10148 0a51 0200     		.2byte	0x2
 10149 0a53 91       		.byte	0x91
 10150 0a54 04       		.sleb128 4
 10151 0a55 08000000 		.4byte	.LVL162
 10152 0a59 0C000000 		.4byte	.LVL163
 10153 0a5d 0200     		.2byte	0x2
 10154 0a5f 73       		.byte	0x73
 10155 0a60 04       		.sleb128 4
 10156 0a61 0C000000 		.4byte	.LVL163
 10157 0a65 0E000000 		.4byte	.LVL164
 10158 0a69 0200     		.2byte	0x2
 10159 0a6b 73       		.byte	0x73
 10160 0a6c 00       		.sleb128 0
 10161 0a6d 0E000000 		.4byte	.LVL164
 10162 0a71 7E000000 		.4byte	.LFE41
 10163 0a75 0200     		.2byte	0x2
 10164 0a77 91       		.byte	0x91
 10165 0a78 04       		.sleb128 4
 10166 0a79 00000000 		.4byte	0
 10167 0a7d 00000000 		.4byte	0
 10168              	.LLST64:
 10169 0a81 22000000 		.4byte	.LVL165
 10170 0a85 2A000000 		.4byte	.LVL167
 10171 0a89 0100     		.2byte	0x1
 10172 0a8b 53       		.byte	0x53
 10173 0a8c 00000000 		.4byte	0
 10174 0a90 00000000 		.4byte	0
 10175              	.LLST65:
 10176 0a94 00000000 		.4byte	.LVL175
 10177 0a98 23000000 		.4byte	.LVL182-1
 10178 0a9c 0100     		.2byte	0x1
 10179 0a9e 50       		.byte	0x50
 10180 0a9f 23000000 		.4byte	.LVL182-1
 10181 0aa3 44000000 		.4byte	.LFE42
 10182 0aa7 0400     		.2byte	0x4
 10183 0aa9 F3       		.byte	0xf3
 10184 0aaa 01       		.uleb128 0x1
 10185 0aab 50       		.byte	0x50
 10186 0aac 9F       		.byte	0x9f
 10187 0aad 00000000 		.4byte	0
 10188 0ab1 00000000 		.4byte	0
ARM GAS  C:\Users\PC\AppData\Local\Temp\ccF7GaWd.s 			page 202


 10189              	.LLST66:
 10190 0ab5 00000000 		.4byte	.LVL175
 10191 0ab9 23000000 		.4byte	.LVL182-1
 10192 0abd 0100     		.2byte	0x1
 10193 0abf 51       		.byte	0x51
 10194 0ac0 23000000 		.4byte	.LVL182-1
 10195 0ac4 44000000 		.4byte	.LFE42
 10196 0ac8 0400     		.2byte	0x4
 10197 0aca F3       		.byte	0xf3
 10198 0acb 01       		.uleb128 0x1
 10199 0acc 51       		.byte	0x51
 10200 0acd 9F       		.byte	0x9f
 10201 0ace 00000000 		.4byte	0
 10202 0ad2 00000000 		.4byte	0
 10203              	.LLST67:
 10204 0ad6 00000000 		.4byte	.LVL175
 10205 0ada 23000000 		.4byte	.LVL182-1
 10206 0ade 0100     		.2byte	0x1
 10207 0ae0 52       		.byte	0x52
 10208 0ae1 23000000 		.4byte	.LVL182-1
 10209 0ae5 44000000 		.4byte	.LFE42
 10210 0ae9 0400     		.2byte	0x4
 10211 0aeb F3       		.byte	0xf3
 10212 0aec 01       		.uleb128 0x1
 10213 0aed 52       		.byte	0x52
 10214 0aee 9F       		.byte	0x9f
 10215 0aef 00000000 		.4byte	0
 10216 0af3 00000000 		.4byte	0
 10217              	.LLST68:
 10218 0af7 00000000 		.4byte	.LVL175
 10219 0afb 0C000000 		.4byte	.LVL176
 10220 0aff 0100     		.2byte	0x1
 10221 0b01 53       		.byte	0x53
 10222 0b02 0C000000 		.4byte	.LVL176
 10223 0b06 44000000 		.4byte	.LFE42
 10224 0b0a 0400     		.2byte	0x4
 10225 0b0c F3       		.byte	0xf3
 10226 0b0d 01       		.uleb128 0x1
 10227 0b0e 53       		.byte	0x53
 10228 0b0f 9F       		.byte	0x9f
 10229 0b10 00000000 		.4byte	0
 10230 0b14 00000000 		.4byte	0
 10231              	.LLST69:
 10232 0b18 00000000 		.4byte	.LVL175
 10233 0b1c 0C000000 		.4byte	.LVL176
 10234 0b20 0200     		.2byte	0x2
 10235 0b22 91       		.byte	0x91
 10236 0b23 00       		.sleb128 0
 10237 0b24 0C000000 		.4byte	.LVL176
 10238 0b28 0E000000 		.4byte	.LVL177
 10239 0b2c 0200     		.2byte	0x2
 10240 0b2e 73       		.byte	0x73
 10241 0b2f 00       		.sleb128 0
 10242 0b30 0E000000 		.4byte	.LVL177
 10243 0b34 44000000 		.4byte	.LFE42
 10244 0b38 0200     		.2byte	0x2
 10245 0b3a 91       		.byte	0x91
ARM GAS  C:\Users\PC\AppData\Local\Temp\ccF7GaWd.s 			page 203


 10246 0b3b 00       		.sleb128 0
 10247 0b3c 00000000 		.4byte	0
 10248 0b40 00000000 		.4byte	0
 10249              	.LLST70:
 10250 0b44 00000000 		.4byte	.LVL175
 10251 0b48 0C000000 		.4byte	.LVL176
 10252 0b4c 0200     		.2byte	0x2
 10253 0b4e 91       		.byte	0x91
 10254 0b4f 04       		.sleb128 4
 10255 0b50 0C000000 		.4byte	.LVL176
 10256 0b54 0E000000 		.4byte	.LVL177
 10257 0b58 0200     		.2byte	0x2
 10258 0b5a 73       		.byte	0x73
 10259 0b5b 04       		.sleb128 4
 10260 0b5c 0E000000 		.4byte	.LVL177
 10261 0b60 14000000 		.4byte	.LVL178
 10262 0b64 0200     		.2byte	0x2
 10263 0b66 91       		.byte	0x91
 10264 0b67 04       		.sleb128 4
 10265 0b68 14000000 		.4byte	.LVL178
 10266 0b6c 16000000 		.4byte	.LVL179
 10267 0b70 0200     		.2byte	0x2
 10268 0b72 73       		.byte	0x73
 10269 0b73 00       		.sleb128 0
 10270 0b74 16000000 		.4byte	.LVL179
 10271 0b78 44000000 		.4byte	.LFE42
 10272 0b7c 0200     		.2byte	0x2
 10273 0b7e 91       		.byte	0x91
 10274 0b7f 04       		.sleb128 4
 10275 0b80 00000000 		.4byte	0
 10276 0b84 00000000 		.4byte	0
 10277              	.LLST71:
 10278 0b88 00000000 		.4byte	.LVL175
 10279 0b8c 0C000000 		.4byte	.LVL176
 10280 0b90 0200     		.2byte	0x2
 10281 0b92 91       		.byte	0x91
 10282 0b93 08       		.sleb128 8
 10283 0b94 0C000000 		.4byte	.LVL176
 10284 0b98 0E000000 		.4byte	.LVL177
 10285 0b9c 0200     		.2byte	0x2
 10286 0b9e 73       		.byte	0x73
 10287 0b9f 08       		.sleb128 8
 10288 0ba0 0E000000 		.4byte	.LVL177
 10289 0ba4 1A000000 		.4byte	.LVL180
 10290 0ba8 0200     		.2byte	0x2
 10291 0baa 91       		.byte	0x91
 10292 0bab 08       		.sleb128 8
 10293 0bac 1A000000 		.4byte	.LVL180
 10294 0bb0 1E000000 		.4byte	.LVL181
 10295 0bb4 0200     		.2byte	0x2
 10296 0bb6 73       		.byte	0x73
 10297 0bb7 00       		.sleb128 0
 10298 0bb8 1E000000 		.4byte	.LVL181
 10299 0bbc 44000000 		.4byte	.LFE42
 10300 0bc0 0200     		.2byte	0x2
 10301 0bc2 91       		.byte	0x91
 10302 0bc3 08       		.sleb128 8
ARM GAS  C:\Users\PC\AppData\Local\Temp\ccF7GaWd.s 			page 204


 10303 0bc4 00000000 		.4byte	0
 10304 0bc8 00000000 		.4byte	0
 10305              	.LLST72:
 10306 0bcc 00000000 		.4byte	.LVL185
 10307 0bd0 22000000 		.4byte	.LVL192
 10308 0bd4 0100     		.2byte	0x1
 10309 0bd6 50       		.byte	0x50
 10310 0bd7 22000000 		.4byte	.LVL192
 10311 0bdb 32000000 		.4byte	.LVL194
 10312 0bdf 0100     		.2byte	0x1
 10313 0be1 56       		.byte	0x56
 10314 0be2 36000000 		.4byte	.LVL195
 10315 0be6 40000000 		.4byte	.LVL197
 10316 0bea 0100     		.2byte	0x1
 10317 0bec 56       		.byte	0x56
 10318 0bed 44000000 		.4byte	.LVL198
 10319 0bf1 54000000 		.4byte	.LVL201
 10320 0bf5 0100     		.2byte	0x1
 10321 0bf7 57       		.byte	0x57
 10322 0bf8 64000000 		.4byte	.LVL203
 10323 0bfc A6010000 		.4byte	.LVL249
 10324 0c00 0100     		.2byte	0x1
 10325 0c02 57       		.byte	0x57
 10326 0c03 00000000 		.4byte	0
 10327 0c07 00000000 		.4byte	0
 10328              	.LLST73:
 10329 0c0b 00000000 		.4byte	.LVL185
 10330 0c0f 22000000 		.4byte	.LVL192
 10331 0c13 0100     		.2byte	0x1
 10332 0c15 51       		.byte	0x51
 10333 0c16 22000000 		.4byte	.LVL192
 10334 0c1a 2A000000 		.4byte	.LVL193
 10335 0c1e 0100     		.2byte	0x1
 10336 0c20 55       		.byte	0x55
 10337 0c21 36000000 		.4byte	.LVL195
 10338 0c25 3A000000 		.4byte	.LVL196
 10339 0c29 0100     		.2byte	0x1
 10340 0c2b 55       		.byte	0x55
 10341 0c2c 44000000 		.4byte	.LVL198
 10342 0c30 54000000 		.4byte	.LVL201
 10343 0c34 0100     		.2byte	0x1
 10344 0c36 54       		.byte	0x54
 10345 0c37 64000000 		.4byte	.LVL203
 10346 0c3b 4E010000 		.4byte	.LVL235
 10347 0c3f 0100     		.2byte	0x1
 10348 0c41 54       		.byte	0x54
 10349 0c42 00000000 		.4byte	0
 10350 0c46 00000000 		.4byte	0
 10351              	.LLST74:
 10352 0c4a 00000000 		.4byte	.LVL185
 10353 0c4e 08000000 		.4byte	.LVL186
 10354 0c52 0100     		.2byte	0x1
 10355 0c54 52       		.byte	0x52
 10356 0c55 08000000 		.4byte	.LVL186
 10357 0c59 22000000 		.4byte	.LVL192
 10358 0c5d 0400     		.2byte	0x4
 10359 0c5f F3       		.byte	0xf3
ARM GAS  C:\Users\PC\AppData\Local\Temp\ccF7GaWd.s 			page 205


 10360 0c60 01       		.uleb128 0x1
 10361 0c61 52       		.byte	0x52
 10362 0c62 9F       		.byte	0x9f
 10363 0c63 22000000 		.4byte	.LVL192
 10364 0c67 44000000 		.4byte	.LVL198
 10365 0c6b 0100     		.2byte	0x1
 10366 0c6d 50       		.byte	0x50
 10367 0c6e 44000000 		.4byte	.LVL198
 10368 0c72 52000000 		.4byte	.LVL200
 10369 0c76 0100     		.2byte	0x1
 10370 0c78 56       		.byte	0x56
 10371 0c79 54000000 		.4byte	.LVL201
 10372 0c7d A6010000 		.4byte	.LVL248
 10373 0c81 0100     		.2byte	0x1
 10374 0c83 56       		.byte	0x56
 10375 0c84 00000000 		.4byte	0
 10376 0c88 00000000 		.4byte	0
 10377              	.LLST75:
 10378 0c8c 00000000 		.4byte	.LVL185
 10379 0c90 14000000 		.4byte	.LVL190
 10380 0c94 0100     		.2byte	0x1
 10381 0c96 53       		.byte	0x53
 10382 0c97 14000000 		.4byte	.LVL190
 10383 0c9b 22000000 		.4byte	.LVL192
 10384 0c9f 0400     		.2byte	0x4
 10385 0ca1 F3       		.byte	0xf3
 10386 0ca2 01       		.uleb128 0x1
 10387 0ca3 53       		.byte	0x53
 10388 0ca4 9F       		.byte	0x9f
 10389 0ca5 22000000 		.4byte	.LVL192
 10390 0ca9 44000000 		.4byte	.LVL198
 10391 0cad 0100     		.2byte	0x1
 10392 0caf 51       		.byte	0x51
 10393 0cb0 44000000 		.4byte	.LVL198
 10394 0cb4 4C000000 		.4byte	.LVL199
 10395 0cb8 0100     		.2byte	0x1
 10396 0cba 55       		.byte	0x55
 10397 0cbb 54000000 		.4byte	.LVL201
 10398 0cbf 5E000000 		.4byte	.LVL202
 10399 0cc3 0100     		.2byte	0x1
 10400 0cc5 55       		.byte	0x55
 10401 0cc6 64000000 		.4byte	.LVL203
 10402 0cca 4A010000 		.4byte	.LVL234
 10403 0cce 0100     		.2byte	0x1
 10404 0cd0 55       		.byte	0x55
 10405 0cd1 00000000 		.4byte	0
 10406 0cd5 00000000 		.4byte	0
 10407              	.LLST76:
 10408 0cd9 00000000 		.4byte	.LVL185
 10409 0cdd 14000000 		.4byte	.LVL190
 10410 0ce1 0200     		.2byte	0x2
 10411 0ce3 91       		.byte	0x91
 10412 0ce4 00       		.sleb128 0
 10413 0ce5 14000000 		.4byte	.LVL190
 10414 0ce9 1C000000 		.4byte	.LVL191
 10415 0ced 0200     		.2byte	0x2
 10416 0cef 73       		.byte	0x73
ARM GAS  C:\Users\PC\AppData\Local\Temp\ccF7GaWd.s 			page 206


 10417 0cf0 00       		.sleb128 0
 10418 0cf1 1C000000 		.4byte	.LVL191
 10419 0cf5 54000000 		.4byte	.LVL201
 10420 0cf9 0200     		.2byte	0x2
 10421 0cfb 91       		.byte	0x91
 10422 0cfc 00       		.sleb128 0
 10423 0cfd 54000000 		.4byte	.LVL201
 10424 0d01 64000000 		.4byte	.LVL203
 10425 0d05 0100     		.2byte	0x1
 10426 0d07 53       		.byte	0x53
 10427 0d08 00000000 		.4byte	0
 10428 0d0c 00000000 		.4byte	0
 10429              	.LLST77:
 10430 0d10 00000000 		.4byte	.LVL185
 10431 0d14 08000000 		.4byte	.LVL186
 10432 0d18 0200     		.2byte	0x2
 10433 0d1a 91       		.byte	0x91
 10434 0d1b 04       		.sleb128 4
 10435 0d1c 08000000 		.4byte	.LVL186
 10436 0d20 0A000000 		.4byte	.LVL187
 10437 0d24 0200     		.2byte	0x2
 10438 0d26 72       		.byte	0x72
 10439 0d27 00       		.sleb128 0
 10440 0d28 0A000000 		.4byte	.LVL187
 10441 0d2c 14000000 		.4byte	.LVL190
 10442 0d30 0200     		.2byte	0x2
 10443 0d32 91       		.byte	0x91
 10444 0d33 04       		.sleb128 4
 10445 0d34 14000000 		.4byte	.LVL190
 10446 0d38 1C000000 		.4byte	.LVL191
 10447 0d3c 0200     		.2byte	0x2
 10448 0d3e 73       		.byte	0x73
 10449 0d3f 04       		.sleb128 4
 10450 0d40 1C000000 		.4byte	.LVL191
 10451 0d44 54000000 		.4byte	.LVL201
 10452 0d48 0200     		.2byte	0x2
 10453 0d4a 91       		.byte	0x91
 10454 0d4b 04       		.sleb128 4
 10455 0d4c 54000000 		.4byte	.LVL201
 10456 0d50 64000000 		.4byte	.LVL203
 10457 0d54 0300     		.2byte	0x3
 10458 0d56 91       		.byte	0x91
 10459 0d57 B47F     		.sleb128 -76
 10460 0d59 00000000 		.4byte	0
 10461 0d5d 00000000 		.4byte	0
 10462              	.LLST78:
 10463 0d61 00000000 		.4byte	.LVL185
 10464 0d65 10000000 		.4byte	.LVL188
 10465 0d69 0200     		.2byte	0x2
 10466 0d6b 91       		.byte	0x91
 10467 0d6c 08       		.sleb128 8
 10468 0d6d 10000000 		.4byte	.LVL188
 10469 0d71 12000000 		.4byte	.LVL189
 10470 0d75 0200     		.2byte	0x2
 10471 0d77 72       		.byte	0x72
 10472 0d78 00       		.sleb128 0
 10473 0d79 12000000 		.4byte	.LVL189
ARM GAS  C:\Users\PC\AppData\Local\Temp\ccF7GaWd.s 			page 207


 10474 0d7d 14000000 		.4byte	.LVL190
 10475 0d81 0200     		.2byte	0x2
 10476 0d83 91       		.byte	0x91
 10477 0d84 08       		.sleb128 8
 10478 0d85 14000000 		.4byte	.LVL190
 10479 0d89 1C000000 		.4byte	.LVL191
 10480 0d8d 0200     		.2byte	0x2
 10481 0d8f 73       		.byte	0x73
 10482 0d90 08       		.sleb128 8
 10483 0d91 1C000000 		.4byte	.LVL191
 10484 0d95 A8010000 		.4byte	.LFE43
 10485 0d99 0200     		.2byte	0x2
 10486 0d9b 91       		.byte	0x91
 10487 0d9c 08       		.sleb128 8
 10488 0d9d 00000000 		.4byte	0
 10489 0da1 00000000 		.4byte	0
 10490              	.LLST79:
 10491 0da5 6C000000 		.4byte	.LVL204
 10492 0da9 72000000 		.4byte	.LVL205
 10493 0dad 0100     		.2byte	0x1
 10494 0daf 50       		.byte	0x50
 10495 0db0 72000000 		.4byte	.LVL205
 10496 0db4 76000000 		.4byte	.LVL207
 10497 0db8 0100     		.2byte	0x1
 10498 0dba 56       		.byte	0x56
 10499 0dbb 76000000 		.4byte	.LVL207
 10500 0dbf 8E000000 		.4byte	.LVL211
 10501 0dc3 0100     		.2byte	0x1
 10502 0dc5 50       		.byte	0x50
 10503 0dc6 FA000000 		.4byte	.LVL222
 10504 0dca 1E010000 		.4byte	.LVL227
 10505 0dce 0300     		.2byte	0x3
 10506 0dd0 91       		.byte	0x91
 10507 0dd1 BC7F     		.sleb128 -68
 10508 0dd3 20010000 		.4byte	.LVL228
 10509 0dd7 3E010000 		.4byte	.LVL232
 10510 0ddb 0300     		.2byte	0x3
 10511 0ddd 91       		.byte	0x91
 10512 0dde BC7F     		.sleb128 -68
 10513 0de0 64010000 		.4byte	.LVL237
 10514 0de4 84010000 		.4byte	.LVL242
 10515 0de8 0100     		.2byte	0x1
 10516 0dea 54       		.byte	0x54
 10517 0deb 84010000 		.4byte	.LVL242
 10518 0def 86010000 		.4byte	.LVL243
 10519 0df3 0100     		.2byte	0x1
 10520 0df5 53       		.byte	0x53
 10521 0df6 86010000 		.4byte	.LVL243
 10522 0dfa A4010000 		.4byte	.LVL247
 10523 0dfe 0100     		.2byte	0x1
 10524 0e00 54       		.byte	0x54
 10525 0e01 00000000 		.4byte	0
 10526 0e05 00000000 		.4byte	0
 10527              	.LLST80:
 10528 0e09 6C000000 		.4byte	.LVL204
 10529 0e0d 74000000 		.4byte	.LVL206
 10530 0e11 0100     		.2byte	0x1
ARM GAS  C:\Users\PC\AppData\Local\Temp\ccF7GaWd.s 			page 208


 10531 0e13 50       		.byte	0x50
 10532 0e14 74000000 		.4byte	.LVL206
 10533 0e18 76000000 		.4byte	.LVL207
 10534 0e1c 0100     		.2byte	0x1
 10535 0e1e 52       		.byte	0x52
 10536 0e1f 76000000 		.4byte	.LVL207
 10537 0e23 7C000000 		.4byte	.LVL208
 10538 0e27 0100     		.2byte	0x1
 10539 0e29 50       		.byte	0x50
 10540 0e2a 7C000000 		.4byte	.LVL208
 10541 0e2e 90000000 		.4byte	.LVL212
 10542 0e32 0100     		.2byte	0x1
 10543 0e34 52       		.byte	0x52
 10544 0e35 18010000 		.4byte	.LVL226
 10545 0e39 28010000 		.4byte	.LVL229
 10546 0e3d 0100     		.2byte	0x1
 10547 0e3f 52       		.byte	0x52
 10548 0e40 7A010000 		.4byte	.LVL240
 10549 0e44 8E010000 		.4byte	.LVL244
 10550 0e48 0100     		.2byte	0x1
 10551 0e4a 52       		.byte	0x52
 10552 0e4b 00000000 		.4byte	0
 10553 0e4f 00000000 		.4byte	0
 10554              	.LLST81:
 10555 0e53 DA000000 		.4byte	.LVL219
 10556 0e57 A4010000 		.4byte	.LVL247
 10557 0e5b 0300     		.2byte	0x3
 10558 0e5d 91       		.byte	0x91
 10559 0e5e B87F     		.sleb128 -72
 10560 0e60 00000000 		.4byte	0
 10561 0e64 00000000 		.4byte	0
 10562              	.LLST82:
 10563 0e68 D6000000 		.4byte	.LVL218
 10564 0e6c A4010000 		.4byte	.LVL247
 10565 0e70 0200     		.2byte	0x2
 10566 0e72 91       		.byte	0x91
 10567 0e73 50       		.sleb128 -48
 10568 0e74 00000000 		.4byte	0
 10569 0e78 00000000 		.4byte	0
 10570              	.LLST83:
 10571 0e7c A4000000 		.4byte	.LVL214
 10572 0e80 A4010000 		.4byte	.LVL247
 10573 0e84 0200     		.2byte	0x2
 10574 0e86 91       		.byte	0x91
 10575 0e87 5C       		.sleb128 -36
 10576 0e88 00000000 		.4byte	0
 10577 0e8c 00000000 		.4byte	0
 10578              	.LLST84:
 10579 0e90 AA000000 		.4byte	.LVL215
 10580 0e94 A4010000 		.4byte	.LVL247
 10581 0e98 0200     		.2byte	0x2
 10582 0e9a 91       		.byte	0x91
 10583 0e9b 60       		.sleb128 -32
 10584 0e9c 00000000 		.4byte	0
 10585 0ea0 00000000 		.4byte	0
 10586              	.LLST85:
 10587 0ea4 B8000000 		.4byte	.LVL216
ARM GAS  C:\Users\PC\AppData\Local\Temp\ccF7GaWd.s 			page 209


 10588 0ea8 A4010000 		.4byte	.LVL247
 10589 0eac 0200     		.2byte	0x2
 10590 0eae 91       		.byte	0x91
 10591 0eaf 48       		.sleb128 -56
 10592 0eb0 00000000 		.4byte	0
 10593 0eb4 00000000 		.4byte	0
 10594              	.LLST86:
 10595 0eb8 C8000000 		.4byte	.LVL217
 10596 0ebc A4010000 		.4byte	.LVL247
 10597 0ec0 0200     		.2byte	0x2
 10598 0ec2 91       		.byte	0x91
 10599 0ec3 54       		.sleb128 -44
 10600 0ec4 00000000 		.4byte	0
 10601 0ec8 00000000 		.4byte	0
 10602              	.LLST87:
 10603 0ecc C8000000 		.4byte	.LVL217
 10604 0ed0 A4010000 		.4byte	.LVL247
 10605 0ed4 0200     		.2byte	0x2
 10606 0ed6 91       		.byte	0x91
 10607 0ed7 58       		.sleb128 -40
 10608 0ed8 00000000 		.4byte	0
 10609 0edc 00000000 		.4byte	0
 10610              	.LLST88:
 10611 0ee0 C8000000 		.4byte	.LVL217
 10612 0ee4 A4010000 		.4byte	.LVL247
 10613 0ee8 0200     		.2byte	0x2
 10614 0eea 91       		.byte	0x91
 10615 0eeb 64       		.sleb128 -28
 10616 0eec 00000000 		.4byte	0
 10617 0ef0 00000000 		.4byte	0
 10618              	.LLST89:
 10619 0ef4 C8000000 		.4byte	.LVL217
 10620 0ef8 E0000000 		.4byte	.LVL220
 10621 0efc 0200     		.2byte	0x2
 10622 0efe 30       		.byte	0x30
 10623 0eff 9F       		.byte	0x9f
 10624 0f00 E0000000 		.4byte	.LVL220
 10625 0f04 0C010000 		.4byte	.LVL224
 10626 0f08 0200     		.2byte	0x2
 10627 0f0a 91       		.byte	0x91
 10628 0f0b 40       		.sleb128 -64
 10629 0f0c 18010000 		.4byte	.LVL226
 10630 0f10 48010000 		.4byte	.LVL233
 10631 0f14 0200     		.2byte	0x2
 10632 0f16 91       		.byte	0x91
 10633 0f17 40       		.sleb128 -64
 10634 0f18 48010000 		.4byte	.LVL233
 10635 0f1c 4E010000 		.4byte	.LVL235
 10636 0f20 0100     		.2byte	0x1
 10637 0f22 52       		.byte	0x52
 10638 0f23 4E010000 		.4byte	.LVL235
 10639 0f27 76010000 		.4byte	.LVL239
 10640 0f2b 0300     		.2byte	0x3
 10641 0f2d 91       		.byte	0x91
 10642 0f2e BC7F     		.sleb128 -68
 10643 0f30 7A010000 		.4byte	.LVL240
 10644 0f34 A4010000 		.4byte	.LVL247
ARM GAS  C:\Users\PC\AppData\Local\Temp\ccF7GaWd.s 			page 210


 10645 0f38 0300     		.2byte	0x3
 10646 0f3a 91       		.byte	0x91
 10647 0f3b BC7F     		.sleb128 -68
 10648 0f3d 00000000 		.4byte	0
 10649 0f41 00000000 		.4byte	0
 10650              	.LLST90:
 10651 0f45 C8000000 		.4byte	.LVL217
 10652 0f49 E0000000 		.4byte	.LVL220
 10653 0f4d 0200     		.2byte	0x2
 10654 0f4f 30       		.byte	0x30
 10655 0f50 9F       		.byte	0x9f
 10656 0f51 E0000000 		.4byte	.LVL220
 10657 0f55 14010000 		.4byte	.LVL225
 10658 0f59 0200     		.2byte	0x2
 10659 0f5b 91       		.byte	0x91
 10660 0f5c 44       		.sleb128 -60
 10661 0f5d 18010000 		.4byte	.LVL226
 10662 0f61 4E010000 		.4byte	.LVL235
 10663 0f65 0200     		.2byte	0x2
 10664 0f67 91       		.byte	0x91
 10665 0f68 44       		.sleb128 -60
 10666 0f69 4E010000 		.4byte	.LVL235
 10667 0f6d A4010000 		.4byte	.LVL247
 10668 0f71 0100     		.2byte	0x1
 10669 0f73 55       		.byte	0x55
 10670 0f74 00000000 		.4byte	0
 10671 0f78 00000000 		.4byte	0
 10672              	.LLST91:
 10673 0f7c 00000000 		.4byte	.LVL250
 10674 0f80 20000000 		.4byte	.LVL251
 10675 0f84 0100     		.2byte	0x1
 10676 0f86 50       		.byte	0x50
 10677 0f87 20000000 		.4byte	.LVL251
 10678 0f8b 2A000000 		.4byte	.LVL252
 10679 0f8f 0400     		.2byte	0x4
 10680 0f91 F3       		.byte	0xf3
 10681 0f92 01       		.uleb128 0x1
 10682 0f93 50       		.byte	0x50
 10683 0f94 9F       		.byte	0x9f
 10684 0f95 2A000000 		.4byte	.LVL252
 10685 0f99 4A000000 		.4byte	.LVL253
 10686 0f9d 0100     		.2byte	0x1
 10687 0f9f 50       		.byte	0x50
 10688 0fa0 4A000000 		.4byte	.LVL253
 10689 0fa4 94010000 		.4byte	.LFE44
 10690 0fa8 0400     		.2byte	0x4
 10691 0faa F3       		.byte	0xf3
 10692 0fab 01       		.uleb128 0x1
 10693 0fac 50       		.byte	0x50
 10694 0fad 9F       		.byte	0x9f
 10695 0fae 00000000 		.4byte	0
 10696 0fb2 00000000 		.4byte	0
 10697              	.LLST92:
 10698 0fb6 4A000000 		.4byte	.LVL253
 10699 0fba 64000000 		.4byte	.LVL257
 10700 0fbe 0100     		.2byte	0x1
 10701 0fc0 54       		.byte	0x54
ARM GAS  C:\Users\PC\AppData\Local\Temp\ccF7GaWd.s 			page 211


 10702 0fc1 64000000 		.4byte	.LVL257
 10703 0fc5 66000000 		.4byte	.LVL258
 10704 0fc9 0300     		.2byte	0x3
 10705 0fcb 75       		.byte	0x75
 10706 0fcc 01       		.sleb128 1
 10707 0fcd 9F       		.byte	0x9f
 10708 0fce 66000000 		.4byte	.LVL258
 10709 0fd2 6A000000 		.4byte	.LVL259
 10710 0fd6 0300     		.2byte	0x3
 10711 0fd8 74       		.byte	0x74
 10712 0fd9 01       		.sleb128 1
 10713 0fda 9F       		.byte	0x9f
 10714 0fdb 6E000000 		.4byte	.LVL260
 10715 0fdf EE000000 		.4byte	.LVL265
 10716 0fe3 0100     		.2byte	0x1
 10717 0fe5 54       		.byte	0x54
 10718 0fe6 EE000000 		.4byte	.LVL265
 10719 0fea F2000000 		.4byte	.LVL267
 10720 0fee 0300     		.2byte	0x3
 10721 0ff0 74       		.byte	0x74
 10722 0ff1 01       		.sleb128 1
 10723 0ff2 9F       		.byte	0x9f
 10724 0ff3 00000000 		.4byte	0
 10725 0ff7 00000000 		.4byte	0
 10726              	.LLST93:
 10727 0ffb 4A000000 		.4byte	.LVL253
 10728 0fff 6A000000 		.4byte	.LVL259
 10729 1003 0100     		.2byte	0x1
 10730 1005 57       		.byte	0x57
 10731 1006 70000000 		.4byte	.LVL261
 10732 100a F0000000 		.4byte	.LVL266
 10733 100e 0100     		.2byte	0x1
 10734 1010 57       		.byte	0x57
 10735 1011 00000000 		.4byte	0
 10736 1015 00000000 		.4byte	0
 10737              	.LLST94:
 10738 1019 4A000000 		.4byte	.LVL253
 10739 101d 5C000000 		.4byte	.LVL254
 10740 1021 0100     		.2byte	0x1
 10741 1023 56       		.byte	0x56
 10742 1024 5E000000 		.4byte	.LVL255
 10743 1028 6A000000 		.4byte	.LVL259
 10744 102c 0100     		.2byte	0x1
 10745 102e 56       		.byte	0x56
 10746 102f 70000000 		.4byte	.LVL261
 10747 1033 74000000 		.4byte	.LVL262
 10748 1037 0200     		.2byte	0x2
 10749 1039 30       		.byte	0x30
 10750 103a 9F       		.byte	0x9f
 10751 103b 74000000 		.4byte	.LVL262
 10752 103f 18010000 		.4byte	.LVL269
 10753 1043 0100     		.2byte	0x1
 10754 1045 56       		.byte	0x56
 10755 1046 00000000 		.4byte	0
 10756 104a 00000000 		.4byte	0
 10757              	.LLST95:
 10758 104e 00000000 		.4byte	.LVL271
ARM GAS  C:\Users\PC\AppData\Local\Temp\ccF7GaWd.s 			page 212


 10759 1052 04000000 		.4byte	.LVL272
 10760 1056 0100     		.2byte	0x1
 10761 1058 50       		.byte	0x50
 10762 1059 04000000 		.4byte	.LVL272
 10763 105d 12000000 		.4byte	.LVL275
 10764 1061 0100     		.2byte	0x1
 10765 1063 54       		.byte	0x54
 10766 1064 00000000 		.4byte	0
 10767 1068 00000000 		.4byte	0
 10768              	.LLST96:
 10769 106c 00000000 		.4byte	.LVL276
 10770 1070 08000000 		.4byte	.LVL277
 10771 1074 0100     		.2byte	0x1
 10772 1076 50       		.byte	0x50
 10773 1077 08000000 		.4byte	.LVL277
 10774 107b 48010000 		.4byte	.LFE46
 10775 107f 0200     		.2byte	0x2
 10776 1081 91       		.byte	0x91
 10777 1082 64       		.sleb128 -28
 10778 1083 00000000 		.4byte	0
 10779 1087 00000000 		.4byte	0
 10780              	.LLST97:
 10781 108b 00000000 		.4byte	.LVL276
 10782 108f 08000000 		.4byte	.LVL277
 10783 1093 0200     		.2byte	0x2
 10784 1095 30       		.byte	0x30
 10785 1096 9F       		.byte	0x9f
 10786 1097 0E000000 		.4byte	.LVL278
 10787 109b A2000000 		.4byte	.LVL285
 10788 109f 0100     		.2byte	0x1
 10789 10a1 54       		.byte	0x54
 10790 10a2 A2000000 		.4byte	.LVL285
 10791 10a6 A4000000 		.4byte	.LVL286
 10792 10aa 0300     		.2byte	0x3
 10793 10ac 75       		.byte	0x75
 10794 10ad 01       		.sleb128 1
 10795 10ae 9F       		.byte	0x9f
 10796 10af A4000000 		.4byte	.LVL286
 10797 10b3 AC000000 		.4byte	.LVL288
 10798 10b7 0300     		.2byte	0x3
 10799 10b9 74       		.byte	0x74
 10800 10ba 01       		.sleb128 1
 10801 10bb 9F       		.byte	0x9f
 10802 10bc 00000000 		.4byte	0
 10803 10c0 00000000 		.4byte	0
 10804              	.LLST98:
 10805 10c4 10000000 		.4byte	.LVL279
 10806 10c8 AA000000 		.4byte	.LVL287
 10807 10cc 0100     		.2byte	0x1
 10808 10ce 57       		.byte	0x57
 10809 10cf 00000000 		.4byte	0
 10810 10d3 00000000 		.4byte	0
 10811              	.LLST99:
 10812 10d7 10000000 		.4byte	.LVL279
 10813 10db 9A000000 		.4byte	.LVL282
 10814 10df 0100     		.2byte	0x1
 10815 10e1 56       		.byte	0x56
ARM GAS  C:\Users\PC\AppData\Local\Temp\ccF7GaWd.s 			page 213


 10816 10e2 9C000000 		.4byte	.LVL283
 10817 10e6 D2000000 		.4byte	.LVL290
 10818 10ea 0100     		.2byte	0x1
 10819 10ec 56       		.byte	0x56
 10820 10ed 00000000 		.4byte	0
 10821 10f1 00000000 		.4byte	0
 10822              	.LLST100:
 10823 10f5 00000000 		.4byte	.LVL294
 10824 10f9 28000000 		.4byte	.LVL302
 10825 10fd 0100     		.2byte	0x1
 10826 10ff 50       		.byte	0x50
 10827 1100 28000000 		.4byte	.LVL302
 10828 1104 33000000 		.4byte	.LVL307-1
 10829 1108 0500     		.2byte	0x5
 10830 110a 03       		.byte	0x3
 10831 110b 00000000 		.4byte	cursor_x
 10832 110f 33000000 		.4byte	.LVL307-1
 10833 1113 68000000 		.4byte	.LFE47
 10834 1117 0400     		.2byte	0x4
 10835 1119 F3       		.byte	0xf3
 10836 111a 01       		.uleb128 0x1
 10837 111b 50       		.byte	0x50
 10838 111c 9F       		.byte	0x9f
 10839 111d 00000000 		.4byte	0
 10840 1121 00000000 		.4byte	0
 10841              	.LLST101:
 10842 1125 00000000 		.4byte	.LVL294
 10843 1129 33000000 		.4byte	.LVL307-1
 10844 112d 0100     		.2byte	0x1
 10845 112f 51       		.byte	0x51
 10846 1130 33000000 		.4byte	.LVL307-1
 10847 1134 68000000 		.4byte	.LFE47
 10848 1138 0400     		.2byte	0x4
 10849 113a F3       		.byte	0xf3
 10850 113b 01       		.uleb128 0x1
 10851 113c 51       		.byte	0x51
 10852 113d 9F       		.byte	0x9f
 10853 113e 00000000 		.4byte	0
 10854 1142 00000000 		.4byte	0
 10855              	.LLST102:
 10856 1146 00000000 		.4byte	.LVL294
 10857 114a 12000000 		.4byte	.LVL297
 10858 114e 0100     		.2byte	0x1
 10859 1150 52       		.byte	0x52
 10860 1151 12000000 		.4byte	.LVL297
 10861 1155 68000000 		.4byte	.LFE47
 10862 1159 0400     		.2byte	0x4
 10863 115b F3       		.byte	0xf3
 10864 115c 01       		.uleb128 0x1
 10865 115d 52       		.byte	0x52
 10866 115e 9F       		.byte	0x9f
 10867 115f 00000000 		.4byte	0
 10868 1163 00000000 		.4byte	0
 10869              	.LLST103:
 10870 1167 00000000 		.4byte	.LVL294
 10871 116b 0A000000 		.4byte	.LVL295
 10872 116f 0100     		.2byte	0x1
ARM GAS  C:\Users\PC\AppData\Local\Temp\ccF7GaWd.s 			page 214


 10873 1171 53       		.byte	0x53
 10874 1172 0A000000 		.4byte	.LVL295
 10875 1176 68000000 		.4byte	.LFE47
 10876 117a 0400     		.2byte	0x4
 10877 117c F3       		.byte	0xf3
 10878 117d 01       		.uleb128 0x1
 10879 117e 53       		.byte	0x53
 10880 117f 9F       		.byte	0x9f
 10881 1180 00000000 		.4byte	0
 10882 1184 00000000 		.4byte	0
 10883              	.LLST104:
 10884 1188 00000000 		.4byte	.LVL294
 10885 118c 0A000000 		.4byte	.LVL295
 10886 1190 0200     		.2byte	0x2
 10887 1192 91       		.byte	0x91
 10888 1193 00       		.sleb128 0
 10889 1194 0A000000 		.4byte	.LVL295
 10890 1198 0E000000 		.4byte	.LVL296
 10891 119c 0200     		.2byte	0x2
 10892 119e 73       		.byte	0x73
 10893 119f 00       		.sleb128 0
 10894 11a0 0E000000 		.4byte	.LVL296
 10895 11a4 68000000 		.4byte	.LFE47
 10896 11a8 0200     		.2byte	0x2
 10897 11aa 91       		.byte	0x91
 10898 11ab 00       		.sleb128 0
 10899 11ac 00000000 		.4byte	0
 10900 11b0 00000000 		.4byte	0
 10901              	.LLST105:
 10902 11b4 00000000 		.4byte	.LVL294
 10903 11b8 0A000000 		.4byte	.LVL295
 10904 11bc 0200     		.2byte	0x2
 10905 11be 91       		.byte	0x91
 10906 11bf 04       		.sleb128 4
 10907 11c0 0A000000 		.4byte	.LVL295
 10908 11c4 0E000000 		.4byte	.LVL296
 10909 11c8 0200     		.2byte	0x2
 10910 11ca 73       		.byte	0x73
 10911 11cb 04       		.sleb128 4
 10912 11cc 0E000000 		.4byte	.LVL296
 10913 11d0 18000000 		.4byte	.LVL299
 10914 11d4 0200     		.2byte	0x2
 10915 11d6 91       		.byte	0x91
 10916 11d7 04       		.sleb128 4
 10917 11d8 18000000 		.4byte	.LVL299
 10918 11dc 20000000 		.4byte	.LVL300
 10919 11e0 0200     		.2byte	0x2
 10920 11e2 73       		.byte	0x73
 10921 11e3 00       		.sleb128 0
 10922 11e4 20000000 		.4byte	.LVL300
 10923 11e8 68000000 		.4byte	.LFE47
 10924 11ec 0200     		.2byte	0x2
 10925 11ee 91       		.byte	0x91
 10926 11ef 04       		.sleb128 4
 10927 11f0 00000000 		.4byte	0
 10928 11f4 00000000 		.4byte	0
 10929              	.LLST106:
ARM GAS  C:\Users\PC\AppData\Local\Temp\ccF7GaWd.s 			page 215


 10930 11f8 16000000 		.4byte	.LVL298
 10931 11fc 5E000000 		.4byte	.LVL310
 10932 1200 0200     		.2byte	0x2
 10933 1202 7D       		.byte	0x7d
 10934 1203 00       		.sleb128 0
 10935 1204 5E000000 		.4byte	.LVL310
 10936 1208 68000000 		.4byte	.LFE47
 10937 120c 0200     		.2byte	0x2
 10938 120e 91       		.byte	0x91
 10939 120f 50       		.sleb128 -48
 10940 1210 00000000 		.4byte	0
 10941 1214 00000000 		.4byte	0
 10942              	.LLST107:
 10943 1218 2C000000 		.4byte	.LVL304
 10944 121c 5E000000 		.4byte	.LVL312
 10945 1220 0100     		.2byte	0x1
 10946 1222 57       		.byte	0x57
 10947 1223 5E000000 		.4byte	.LVL312
 10948 1227 68000000 		.4byte	.LFE47
 10949 122b 0500     		.2byte	0x5
 10950 122d 03       		.byte	0x3
 10951 122e 00000000 		.4byte	textbgcolor
 10952 1232 00000000 		.4byte	0
 10953 1236 00000000 		.4byte	0
 10954              	.LLST108:
 10955 123a 2E000000 		.4byte	.LVL305
 10956 123e 5E000000 		.4byte	.LVL311
 10957 1242 0100     		.2byte	0x1
 10958 1244 56       		.byte	0x56
 10959 1245 5E000000 		.4byte	.LVL311
 10960 1249 68000000 		.4byte	.LFE47
 10961 124d 0500     		.2byte	0x5
 10962 124f 03       		.byte	0x3
 10963 1250 00000000 		.4byte	textsize
 10964 1254 00000000 		.4byte	0
 10965 1258 00000000 		.4byte	0
 10966              	.LLST109:
 10967 125c 2E000000 		.4byte	.LVL305
 10968 1260 30000000 		.4byte	.LVL306
 10969 1264 0100     		.2byte	0x1
 10970 1266 51       		.byte	0x51
 10971 1267 00000000 		.4byte	0
 10972 126b 00000000 		.4byte	0
 10973              	.LLST110:
 10974 126f 34000000 		.4byte	.LVL307
 10975 1273 42000000 		.4byte	.LVL308
 10976 1277 0200     		.2byte	0x2
 10977 1279 91       		.byte	0x91
 10978 127a 64       		.sleb128 -28
 10979 127b 00000000 		.4byte	0
 10980 127f 00000000 		.4byte	0
 10981              	.LLST111:
 10982 1283 34000000 		.4byte	.LVL307
 10983 1287 42000000 		.4byte	.LVL308
 10984 128b 0200     		.2byte	0x2
 10985 128d 91       		.byte	0x91
 10986 128e 60       		.sleb128 -32
ARM GAS  C:\Users\PC\AppData\Local\Temp\ccF7GaWd.s 			page 216


 10987 128f 00000000 		.4byte	0
 10988 1293 00000000 		.4byte	0
 10989              	.LLST112:
 10990 1297 00000000 		.4byte	.LVL316
 10991 129b 0C000000 		.4byte	.LVL319
 10992 129f 0100     		.2byte	0x1
 10993 12a1 50       		.byte	0x50
 10994 12a2 0C000000 		.4byte	.LVL319
 10995 12a6 14000000 		.4byte	.LFE58
 10996 12aa 0400     		.2byte	0x4
 10997 12ac F3       		.byte	0xf3
 10998 12ad 01       		.uleb128 0x1
 10999 12ae 50       		.byte	0x50
 11000 12af 9F       		.byte	0x9f
 11001 12b0 00000000 		.4byte	0
 11002 12b4 00000000 		.4byte	0
 11003              	.LLST113:
 11004 12b8 00000000 		.4byte	.LVL316
 11005 12bc 04000000 		.4byte	.LVL317
 11006 12c0 0100     		.2byte	0x1
 11007 12c2 51       		.byte	0x51
 11008 12c3 04000000 		.4byte	.LVL317
 11009 12c7 14000000 		.4byte	.LFE58
 11010 12cb 0400     		.2byte	0x4
 11011 12cd F3       		.byte	0xf3
 11012 12ce 01       		.uleb128 0x1
 11013 12cf 51       		.byte	0x51
 11014 12d0 9F       		.byte	0x9f
 11015 12d1 00000000 		.4byte	0
 11016 12d5 00000000 		.4byte	0
 11017              	.LLST114:
 11018 12d9 00000000 		.4byte	.LVL316
 11019 12dd 0A000000 		.4byte	.LVL318
 11020 12e1 0100     		.2byte	0x1
 11021 12e3 52       		.byte	0x52
 11022 12e4 0A000000 		.4byte	.LVL318
 11023 12e8 14000000 		.4byte	.LFE58
 11024 12ec 0400     		.2byte	0x4
 11025 12ee F3       		.byte	0xf3
 11026 12ef 01       		.uleb128 0x1
 11027 12f0 52       		.byte	0x52
 11028 12f1 9F       		.byte	0x9f
 11029 12f2 00000000 		.4byte	0
 11030 12f6 00000000 		.4byte	0
 11031              	.LLST115:
 11032 12fa 00000000 		.4byte	.LVL320
 11033 12fe 22000000 		.4byte	.LVL325
 11034 1302 0100     		.2byte	0x1
 11035 1304 50       		.byte	0x50
 11036 1305 22000000 		.4byte	.LVL325
 11037 1309 74000000 		.4byte	.LFE59
 11038 130d 0400     		.2byte	0x4
 11039 130f F3       		.byte	0xf3
 11040 1310 01       		.uleb128 0x1
 11041 1311 50       		.byte	0x50
 11042 1312 9F       		.byte	0x9f
 11043 1313 00000000 		.4byte	0
ARM GAS  C:\Users\PC\AppData\Local\Temp\ccF7GaWd.s 			page 217


 11044 1317 00000000 		.4byte	0
 11045              	.LLST116:
 11046 131b 00000000 		.4byte	.LVL320
 11047 131f 22000000 		.4byte	.LVL325
 11048 1323 0100     		.2byte	0x1
 11049 1325 51       		.byte	0x51
 11050 1326 22000000 		.4byte	.LVL325
 11051 132a 74000000 		.4byte	.LFE59
 11052 132e 0400     		.2byte	0x4
 11053 1330 F3       		.byte	0xf3
 11054 1331 01       		.uleb128 0x1
 11055 1332 51       		.byte	0x51
 11056 1333 9F       		.byte	0x9f
 11057 1334 00000000 		.4byte	0
 11058 1338 00000000 		.4byte	0
 11059              	.LLST117:
 11060 133c 00000000 		.4byte	.LVL320
 11061 1340 12000000 		.4byte	.LVL323
 11062 1344 0100     		.2byte	0x1
 11063 1346 52       		.byte	0x52
 11064 1347 12000000 		.4byte	.LVL323
 11065 134b 74000000 		.4byte	.LFE59
 11066 134f 0200     		.2byte	0x2
 11067 1351 91       		.byte	0x91
 11068 1352 60       		.sleb128 -32
 11069 1353 00000000 		.4byte	0
 11070 1357 00000000 		.4byte	0
 11071              	.LLST118:
 11072 135b 00000000 		.4byte	.LVL320
 11073 135f 0C000000 		.4byte	.LVL321
 11074 1363 0100     		.2byte	0x1
 11075 1365 53       		.byte	0x53
 11076 1366 0C000000 		.4byte	.LVL321
 11077 136a 74000000 		.4byte	.LFE59
 11078 136e 0400     		.2byte	0x4
 11079 1370 F3       		.byte	0xf3
 11080 1371 01       		.uleb128 0x1
 11081 1372 53       		.byte	0x53
 11082 1373 9F       		.byte	0x9f
 11083 1374 00000000 		.4byte	0
 11084 1378 00000000 		.4byte	0
 11085              	.LLST119:
 11086 137c 00000000 		.4byte	.LVL320
 11087 1380 0C000000 		.4byte	.LVL321
 11088 1384 0200     		.2byte	0x2
 11089 1386 91       		.byte	0x91
 11090 1387 00       		.sleb128 0
 11091 1388 0C000000 		.4byte	.LVL321
 11092 138c 0E000000 		.4byte	.LVL322
 11093 1390 0200     		.2byte	0x2
 11094 1392 73       		.byte	0x73
 11095 1393 00       		.sleb128 0
 11096 1394 0E000000 		.4byte	.LVL322
 11097 1398 74000000 		.4byte	.LFE59
 11098 139c 0200     		.2byte	0x2
 11099 139e 91       		.byte	0x91
 11100 139f 00       		.sleb128 0
ARM GAS  C:\Users\PC\AppData\Local\Temp\ccF7GaWd.s 			page 218


 11101 13a0 00000000 		.4byte	0
 11102 13a4 00000000 		.4byte	0
 11103              	.LLST120:
 11104 13a8 00000000 		.4byte	.LVL320
 11105 13ac 0C000000 		.4byte	.LVL321
 11106 13b0 0200     		.2byte	0x2
 11107 13b2 91       		.byte	0x91
 11108 13b3 04       		.sleb128 4
 11109 13b4 0C000000 		.4byte	.LVL321
 11110 13b8 0E000000 		.4byte	.LVL322
 11111 13bc 0200     		.2byte	0x2
 11112 13be 73       		.byte	0x73
 11113 13bf 04       		.sleb128 4
 11114 13c0 0E000000 		.4byte	.LVL322
 11115 13c4 12000000 		.4byte	.LVL323
 11116 13c8 0200     		.2byte	0x2
 11117 13ca 91       		.byte	0x91
 11118 13cb 04       		.sleb128 4
 11119 13cc 12000000 		.4byte	.LVL323
 11120 13d0 16000000 		.4byte	.LVL324
 11121 13d4 0200     		.2byte	0x2
 11122 13d6 72       		.byte	0x72
 11123 13d7 00       		.sleb128 0
 11124 13d8 16000000 		.4byte	.LVL324
 11125 13dc 74000000 		.4byte	.LFE59
 11126 13e0 0200     		.2byte	0x2
 11127 13e2 91       		.byte	0x91
 11128 13e3 04       		.sleb128 4
 11129 13e4 00000000 		.4byte	0
 11130 13e8 00000000 		.4byte	0
 11131              	.LLST121:
 11132 13ec 00000000 		.4byte	.LVL320
 11133 13f0 22000000 		.4byte	.LVL325
 11134 13f4 0200     		.2byte	0x2
 11135 13f6 30       		.byte	0x30
 11136 13f7 9F       		.byte	0x9f
 11137 13f8 22000000 		.4byte	.LVL325
 11138 13fc 6A000000 		.4byte	.LVL330
 11139 1400 0100     		.2byte	0x1
 11140 1402 55       		.byte	0x55
 11141 1403 6C000000 		.4byte	.LVL331
 11142 1407 72000000 		.4byte	.LVL333
 11143 140b 0100     		.2byte	0x1
 11144 140d 55       		.byte	0x55
 11145 140e 00000000 		.4byte	0
 11146 1412 00000000 		.4byte	0
 11147              	.LLST122:
 11148 1416 34000000 		.4byte	.LVL326
 11149 141a 64000000 		.4byte	.LVL328
 11150 141e 0100     		.2byte	0x1
 11151 1420 54       		.byte	0x54
 11152 1421 66000000 		.4byte	.LVL329
 11153 1425 70000000 		.4byte	.LVL332
 11154 1429 0100     		.2byte	0x1
 11155 142b 54       		.byte	0x54
 11156 142c 00000000 		.4byte	0
 11157 1430 00000000 		.4byte	0
ARM GAS  C:\Users\PC\AppData\Local\Temp\ccF7GaWd.s 			page 219


 11158              	.LLST123:
 11159 1434 00000000 		.4byte	.LVL334
 11160 1438 2A000000 		.4byte	.LVL341
 11161 143c 0100     		.2byte	0x1
 11162 143e 50       		.byte	0x50
 11163 143f 2A000000 		.4byte	.LVL341
 11164 1443 7C000000 		.4byte	.LFE60
 11165 1447 0400     		.2byte	0x4
 11166 1449 F3       		.byte	0xf3
 11167 144a 01       		.uleb128 0x1
 11168 144b 50       		.byte	0x50
 11169 144c 9F       		.byte	0x9f
 11170 144d 00000000 		.4byte	0
 11171 1451 00000000 		.4byte	0
 11172              	.LLST124:
 11173 1455 00000000 		.4byte	.LVL334
 11174 1459 2A000000 		.4byte	.LVL341
 11175 145d 0100     		.2byte	0x1
 11176 145f 51       		.byte	0x51
 11177 1460 2A000000 		.4byte	.LVL341
 11178 1464 7C000000 		.4byte	.LFE60
 11179 1468 0400     		.2byte	0x4
 11180 146a F3       		.byte	0xf3
 11181 146b 01       		.uleb128 0x1
 11182 146c 51       		.byte	0x51
 11183 146d 9F       		.byte	0x9f
 11184 146e 00000000 		.4byte	0
 11185 1472 00000000 		.4byte	0
 11186              	.LLST125:
 11187 1476 00000000 		.4byte	.LVL334
 11188 147a 12000000 		.4byte	.LVL337
 11189 147e 0100     		.2byte	0x1
 11190 1480 52       		.byte	0x52
 11191 1481 12000000 		.4byte	.LVL337
 11192 1485 7C000000 		.4byte	.LFE60
 11193 1489 0200     		.2byte	0x2
 11194 148b 91       		.byte	0x91
 11195 148c 5C       		.sleb128 -36
 11196 148d 00000000 		.4byte	0
 11197 1491 00000000 		.4byte	0
 11198              	.LLST126:
 11199 1495 00000000 		.4byte	.LVL334
 11200 1499 0C000000 		.4byte	.LVL335
 11201 149d 0100     		.2byte	0x1
 11202 149f 53       		.byte	0x53
 11203 14a0 0C000000 		.4byte	.LVL335
 11204 14a4 7C000000 		.4byte	.LFE60
 11205 14a8 0400     		.2byte	0x4
 11206 14aa F3       		.byte	0xf3
 11207 14ab 01       		.uleb128 0x1
 11208 14ac 53       		.byte	0x53
 11209 14ad 9F       		.byte	0x9f
 11210 14ae 00000000 		.4byte	0
 11211 14b2 00000000 		.4byte	0
 11212              	.LLST127:
 11213 14b6 00000000 		.4byte	.LVL334
 11214 14ba 0C000000 		.4byte	.LVL335
ARM GAS  C:\Users\PC\AppData\Local\Temp\ccF7GaWd.s 			page 220


 11215 14be 0200     		.2byte	0x2
 11216 14c0 91       		.byte	0x91
 11217 14c1 00       		.sleb128 0
 11218 14c2 0C000000 		.4byte	.LVL335
 11219 14c6 10000000 		.4byte	.LVL336
 11220 14ca 0200     		.2byte	0x2
 11221 14cc 73       		.byte	0x73
 11222 14cd 00       		.sleb128 0
 11223 14ce 10000000 		.4byte	.LVL336
 11224 14d2 7C000000 		.4byte	.LFE60
 11225 14d6 0200     		.2byte	0x2
 11226 14d8 91       		.byte	0x91
 11227 14d9 00       		.sleb128 0
 11228 14da 00000000 		.4byte	0
 11229 14de 00000000 		.4byte	0
 11230              	.LLST128:
 11231 14e2 00000000 		.4byte	.LVL334
 11232 14e6 0C000000 		.4byte	.LVL335
 11233 14ea 0200     		.2byte	0x2
 11234 14ec 91       		.byte	0x91
 11235 14ed 04       		.sleb128 4
 11236 14ee 0C000000 		.4byte	.LVL335
 11237 14f2 10000000 		.4byte	.LVL336
 11238 14f6 0200     		.2byte	0x2
 11239 14f8 73       		.byte	0x73
 11240 14f9 04       		.sleb128 4
 11241 14fa 10000000 		.4byte	.LVL336
 11242 14fe 12000000 		.4byte	.LVL337
 11243 1502 0200     		.2byte	0x2
 11244 1504 91       		.byte	0x91
 11245 1505 04       		.sleb128 4
 11246 1506 12000000 		.4byte	.LVL337
 11247 150a 14000000 		.4byte	.LVL338
 11248 150e 0200     		.2byte	0x2
 11249 1510 72       		.byte	0x72
 11250 1511 00       		.sleb128 0
 11251 1512 14000000 		.4byte	.LVL338
 11252 1516 7C000000 		.4byte	.LFE60
 11253 151a 0200     		.2byte	0x2
 11254 151c 91       		.byte	0x91
 11255 151d 04       		.sleb128 4
 11256 151e 00000000 		.4byte	0
 11257 1522 00000000 		.4byte	0
 11258              	.LLST129:
 11259 1526 00000000 		.4byte	.LVL334
 11260 152a 0C000000 		.4byte	.LVL335
 11261 152e 0200     		.2byte	0x2
 11262 1530 91       		.byte	0x91
 11263 1531 08       		.sleb128 8
 11264 1532 0C000000 		.4byte	.LVL335
 11265 1536 10000000 		.4byte	.LVL336
 11266 153a 0200     		.2byte	0x2
 11267 153c 73       		.byte	0x73
 11268 153d 08       		.sleb128 8
 11269 153e 10000000 		.4byte	.LVL336
 11270 1542 1C000000 		.4byte	.LVL339
 11271 1546 0200     		.2byte	0x2
ARM GAS  C:\Users\PC\AppData\Local\Temp\ccF7GaWd.s 			page 221


 11272 1548 91       		.byte	0x91
 11273 1549 08       		.sleb128 8
 11274 154a 1C000000 		.4byte	.LVL339
 11275 154e 20000000 		.4byte	.LVL340
 11276 1552 0200     		.2byte	0x2
 11277 1554 72       		.byte	0x72
 11278 1555 00       		.sleb128 0
 11279 1556 20000000 		.4byte	.LVL340
 11280 155a 7C000000 		.4byte	.LFE60
 11281 155e 0200     		.2byte	0x2
 11282 1560 91       		.byte	0x91
 11283 1561 08       		.sleb128 8
 11284 1562 00000000 		.4byte	0
 11285 1566 00000000 		.4byte	0
 11286              	.LLST130:
 11287 156a 00000000 		.4byte	.LVL334
 11288 156e 2A000000 		.4byte	.LVL341
 11289 1572 0200     		.2byte	0x2
 11290 1574 30       		.byte	0x30
 11291 1575 9F       		.byte	0x9f
 11292 1576 2A000000 		.4byte	.LVL341
 11293 157a 6E000000 		.4byte	.LVL346
 11294 157e 0100     		.2byte	0x1
 11295 1580 56       		.byte	0x56
 11296 1581 72000000 		.4byte	.LVL347
 11297 1585 7A000000 		.4byte	.LVL349
 11298 1589 0100     		.2byte	0x1
 11299 158b 56       		.byte	0x56
 11300 158c 00000000 		.4byte	0
 11301 1590 00000000 		.4byte	0
 11302              	.LLST131:
 11303 1594 32000000 		.4byte	.LVL342
 11304 1598 62000000 		.4byte	.LVL343
 11305 159c 0100     		.2byte	0x1
 11306 159e 55       		.byte	0x55
 11307 159f 68000000 		.4byte	.LVL345
 11308 15a3 78000000 		.4byte	.LVL348
 11309 15a7 0100     		.2byte	0x1
 11310 15a9 55       		.byte	0x55
 11311 15aa 00000000 		.4byte	0
 11312 15ae 00000000 		.4byte	0
 11313              	.LLST132:
 11314 15b2 00000000 		.4byte	.LVL350
 11315 15b6 24000000 		.4byte	.LVL355
 11316 15ba 0100     		.2byte	0x1
 11317 15bc 50       		.byte	0x50
 11318 15bd 24000000 		.4byte	.LVL355
 11319 15c1 80000000 		.4byte	.LFE61
 11320 15c5 0400     		.2byte	0x4
 11321 15c7 F3       		.byte	0xf3
 11322 15c8 01       		.uleb128 0x1
 11323 15c9 50       		.byte	0x50
 11324 15ca 9F       		.byte	0x9f
 11325 15cb 00000000 		.4byte	0
 11326 15cf 00000000 		.4byte	0
 11327              	.LLST133:
 11328 15d3 00000000 		.4byte	.LVL350
ARM GAS  C:\Users\PC\AppData\Local\Temp\ccF7GaWd.s 			page 222


 11329 15d7 24000000 		.4byte	.LVL355
 11330 15db 0100     		.2byte	0x1
 11331 15dd 51       		.byte	0x51
 11332 15de 2A000000 		.4byte	.LVL356
 11333 15e2 78000000 		.4byte	.LVL365
 11334 15e6 0100     		.2byte	0x1
 11335 15e8 54       		.byte	0x54
 11336 15e9 7A000000 		.4byte	.LVL366
 11337 15ed 7E000000 		.4byte	.LVL368
 11338 15f1 0100     		.2byte	0x1
 11339 15f3 54       		.byte	0x54
 11340 15f4 00000000 		.4byte	0
 11341 15f8 00000000 		.4byte	0
 11342              	.LLST134:
 11343 15fc 00000000 		.4byte	.LVL350
 11344 1600 24000000 		.4byte	.LVL355
 11345 1604 0100     		.2byte	0x1
 11346 1606 52       		.byte	0x52
 11347 1607 24000000 		.4byte	.LVL355
 11348 160b 80000000 		.4byte	.LFE61
 11349 160f 0200     		.2byte	0x2
 11350 1611 91       		.byte	0x91
 11351 1612 5C       		.sleb128 -36
 11352 1613 00000000 		.4byte	0
 11353 1617 00000000 		.4byte	0
 11354              	.LLST135:
 11355 161b 00000000 		.4byte	.LVL350
 11356 161f 0E000000 		.4byte	.LVL351
 11357 1623 0100     		.2byte	0x1
 11358 1625 53       		.byte	0x53
 11359 1626 0E000000 		.4byte	.LVL351
 11360 162a 80000000 		.4byte	.LFE61
 11361 162e 0400     		.2byte	0x4
 11362 1630 F3       		.byte	0xf3
 11363 1631 01       		.uleb128 0x1
 11364 1632 53       		.byte	0x53
 11365 1633 9F       		.byte	0x9f
 11366 1634 00000000 		.4byte	0
 11367 1638 00000000 		.4byte	0
 11368              	.LLST136:
 11369 163c 00000000 		.4byte	.LVL350
 11370 1640 0E000000 		.4byte	.LVL351
 11371 1644 0200     		.2byte	0x2
 11372 1646 91       		.byte	0x91
 11373 1647 00       		.sleb128 0
 11374 1648 0E000000 		.4byte	.LVL351
 11375 164c 10000000 		.4byte	.LVL352
 11376 1650 0200     		.2byte	0x2
 11377 1652 73       		.byte	0x73
 11378 1653 00       		.sleb128 0
 11379 1654 10000000 		.4byte	.LVL352
 11380 1658 80000000 		.4byte	.LFE61
 11381 165c 0200     		.2byte	0x2
 11382 165e 91       		.byte	0x91
 11383 165f 00       		.sleb128 0
 11384 1660 00000000 		.4byte	0
 11385 1664 00000000 		.4byte	0
ARM GAS  C:\Users\PC\AppData\Local\Temp\ccF7GaWd.s 			page 223


 11386              	.LLST137:
 11387 1668 00000000 		.4byte	.LVL350
 11388 166c 0E000000 		.4byte	.LVL351
 11389 1670 0200     		.2byte	0x2
 11390 1672 91       		.byte	0x91
 11391 1673 04       		.sleb128 4
 11392 1674 0E000000 		.4byte	.LVL351
 11393 1678 10000000 		.4byte	.LVL352
 11394 167c 0200     		.2byte	0x2
 11395 167e 73       		.byte	0x73
 11396 167f 04       		.sleb128 4
 11397 1680 10000000 		.4byte	.LVL352
 11398 1684 16000000 		.4byte	.LVL353
 11399 1688 0200     		.2byte	0x2
 11400 168a 91       		.byte	0x91
 11401 168b 04       		.sleb128 4
 11402 168c 16000000 		.4byte	.LVL353
 11403 1690 18000000 		.4byte	.LVL354
 11404 1694 0200     		.2byte	0x2
 11405 1696 73       		.byte	0x73
 11406 1697 00       		.sleb128 0
 11407 1698 18000000 		.4byte	.LVL354
 11408 169c 80000000 		.4byte	.LFE61
 11409 16a0 0200     		.2byte	0x2
 11410 16a2 91       		.byte	0x91
 11411 16a3 04       		.sleb128 4
 11412 16a4 00000000 		.4byte	0
 11413 16a8 00000000 		.4byte	0
 11414              	.LLST138:
 11415 16ac 2A000000 		.4byte	.LVL356
 11416 16b0 40000000 		.4byte	.LVL358
 11417 16b4 0100     		.2byte	0x1
 11418 16b6 55       		.byte	0x55
 11419 16b7 5A000000 		.4byte	.LVL359
 11420 16bb 7E000000 		.4byte	.LVL369
 11421 16bf 0100     		.2byte	0x1
 11422 16c1 55       		.byte	0x55
 11423 16c2 00000000 		.4byte	0
 11424 16c6 00000000 		.4byte	0
 11425              	.LLST139:
 11426 16ca 2A000000 		.4byte	.LVL356
 11427 16ce 36000000 		.4byte	.LVL357
 11428 16d2 0100     		.2byte	0x1
 11429 16d4 53       		.byte	0x53
 11430 16d5 36000000 		.4byte	.LVL357
 11431 16d9 76000000 		.4byte	.LVL364
 11432 16dd 0600     		.2byte	0x6
 11433 16df 74       		.byte	0x74
 11434 16e0 00       		.sleb128 0
 11435 16e1 77       		.byte	0x77
 11436 16e2 00       		.sleb128 0
 11437 16e3 1C       		.byte	0x1c
 11438 16e4 9F       		.byte	0x9f
 11439 16e5 76000000 		.4byte	.LVL364
 11440 16e9 78000000 		.4byte	.LVL365
 11441 16ed 0800     		.2byte	0x8
 11442 16ef 74       		.byte	0x74
ARM GAS  C:\Users\PC\AppData\Local\Temp\ccF7GaWd.s 			page 224


 11443 16f0 00       		.sleb128 0
 11444 16f1 77       		.byte	0x77
 11445 16f2 00       		.sleb128 0
 11446 16f3 1C       		.byte	0x1c
 11447 16f4 23       		.byte	0x23
 11448 16f5 01       		.uleb128 0x1
 11449 16f6 9F       		.byte	0x9f
 11450 16f7 7C000000 		.4byte	.LVL367
 11451 16fb 80000000 		.4byte	.LFE61
 11452 16ff 0100     		.2byte	0x1
 11453 1701 53       		.byte	0x53
 11454 1702 00000000 		.4byte	0
 11455 1706 00000000 		.4byte	0
 11456              	.LLST140:
 11457 170a 36000000 		.4byte	.LVL357
 11458 170e 6A000000 		.4byte	.LVL360
 11459 1712 0100     		.2byte	0x1
 11460 1714 50       		.byte	0x50
 11461 1715 6A000000 		.4byte	.LVL360
 11462 1719 72000000 		.4byte	.LVL362
 11463 171d 0100     		.2byte	0x1
 11464 171f 56       		.byte	0x56
 11465 1720 72000000 		.4byte	.LVL362
 11466 1724 74000000 		.4byte	.LVL363
 11467 1728 0300     		.2byte	0x3
 11468 172a 76       		.byte	0x76
 11469 172b 7F       		.sleb128 -1
 11470 172c 9F       		.byte	0x9f
 11471 172d 74000000 		.4byte	.LVL363
 11472 1731 7C000000 		.4byte	.LVL367
 11473 1735 0100     		.2byte	0x1
 11474 1737 50       		.byte	0x50
 11475 1738 00000000 		.4byte	0
 11476 173c 00000000 		.4byte	0
 11477              	.LLST141:
 11478 1740 00000000 		.4byte	.LVL370
 11479 1744 2A000000 		.4byte	.LVL377
 11480 1748 0100     		.2byte	0x1
 11481 174a 50       		.byte	0x50
 11482 174b 2A000000 		.4byte	.LVL377
 11483 174f 8C000000 		.4byte	.LFE62
 11484 1753 0400     		.2byte	0x4
 11485 1755 F3       		.byte	0xf3
 11486 1756 01       		.uleb128 0x1
 11487 1757 50       		.byte	0x50
 11488 1758 9F       		.byte	0x9f
 11489 1759 00000000 		.4byte	0
 11490 175d 00000000 		.4byte	0
 11491              	.LLST142:
 11492 1761 00000000 		.4byte	.LVL370
 11493 1765 2A000000 		.4byte	.LVL377
 11494 1769 0100     		.2byte	0x1
 11495 176b 51       		.byte	0x51
 11496 176c 30000000 		.4byte	.LVL378
 11497 1770 84000000 		.4byte	.LVL387
 11498 1774 0100     		.2byte	0x1
 11499 1776 54       		.byte	0x54
ARM GAS  C:\Users\PC\AppData\Local\Temp\ccF7GaWd.s 			page 225


 11500 1777 86000000 		.4byte	.LVL388
 11501 177b 8A000000 		.4byte	.LVL390
 11502 177f 0100     		.2byte	0x1
 11503 1781 54       		.byte	0x54
 11504 1782 00000000 		.4byte	0
 11505 1786 00000000 		.4byte	0
 11506              	.LLST143:
 11507 178a 00000000 		.4byte	.LVL370
 11508 178e 2A000000 		.4byte	.LVL377
 11509 1792 0100     		.2byte	0x1
 11510 1794 52       		.byte	0x52
 11511 1795 2A000000 		.4byte	.LVL377
 11512 1799 8C000000 		.4byte	.LFE62
 11513 179d 0200     		.2byte	0x2
 11514 179f 91       		.byte	0x91
 11515 17a0 58       		.sleb128 -40
 11516 17a1 00000000 		.4byte	0
 11517 17a5 00000000 		.4byte	0
 11518              	.LLST144:
 11519 17a9 00000000 		.4byte	.LVL370
 11520 17ad 0E000000 		.4byte	.LVL371
 11521 17b1 0100     		.2byte	0x1
 11522 17b3 53       		.byte	0x53
 11523 17b4 0E000000 		.4byte	.LVL371
 11524 17b8 8C000000 		.4byte	.LFE62
 11525 17bc 0400     		.2byte	0x4
 11526 17be F3       		.byte	0xf3
 11527 17bf 01       		.uleb128 0x1
 11528 17c0 53       		.byte	0x53
 11529 17c1 9F       		.byte	0x9f
 11530 17c2 00000000 		.4byte	0
 11531 17c6 00000000 		.4byte	0
 11532              	.LLST145:
 11533 17ca 00000000 		.4byte	.LVL370
 11534 17ce 0E000000 		.4byte	.LVL371
 11535 17d2 0200     		.2byte	0x2
 11536 17d4 91       		.byte	0x91
 11537 17d5 00       		.sleb128 0
 11538 17d6 0E000000 		.4byte	.LVL371
 11539 17da 10000000 		.4byte	.LVL372
 11540 17de 0200     		.2byte	0x2
 11541 17e0 73       		.byte	0x73
 11542 17e1 00       		.sleb128 0
 11543 17e2 10000000 		.4byte	.LVL372
 11544 17e6 8C000000 		.4byte	.LFE62
 11545 17ea 0200     		.2byte	0x2
 11546 17ec 91       		.byte	0x91
 11547 17ed 00       		.sleb128 0
 11548 17ee 00000000 		.4byte	0
 11549 17f2 00000000 		.4byte	0
 11550              	.LLST146:
 11551 17f6 00000000 		.4byte	.LVL370
 11552 17fa 0E000000 		.4byte	.LVL371
 11553 17fe 0200     		.2byte	0x2
 11554 1800 91       		.byte	0x91
 11555 1801 04       		.sleb128 4
 11556 1802 0E000000 		.4byte	.LVL371
ARM GAS  C:\Users\PC\AppData\Local\Temp\ccF7GaWd.s 			page 226


 11557 1806 10000000 		.4byte	.LVL372
 11558 180a 0200     		.2byte	0x2
 11559 180c 73       		.byte	0x73
 11560 180d 04       		.sleb128 4
 11561 180e 10000000 		.4byte	.LVL372
 11562 1812 16000000 		.4byte	.LVL373
 11563 1816 0200     		.2byte	0x2
 11564 1818 91       		.byte	0x91
 11565 1819 04       		.sleb128 4
 11566 181a 16000000 		.4byte	.LVL373
 11567 181e 18000000 		.4byte	.LVL374
 11568 1822 0200     		.2byte	0x2
 11569 1824 73       		.byte	0x73
 11570 1825 00       		.sleb128 0
 11571 1826 18000000 		.4byte	.LVL374
 11572 182a 8C000000 		.4byte	.LFE62
 11573 182e 0200     		.2byte	0x2
 11574 1830 91       		.byte	0x91
 11575 1831 04       		.sleb128 4
 11576 1832 00000000 		.4byte	0
 11577 1836 00000000 		.4byte	0
 11578              	.LLST147:
 11579 183a 00000000 		.4byte	.LVL370
 11580 183e 0E000000 		.4byte	.LVL371
 11581 1842 0200     		.2byte	0x2
 11582 1844 91       		.byte	0x91
 11583 1845 08       		.sleb128 8
 11584 1846 0E000000 		.4byte	.LVL371
 11585 184a 10000000 		.4byte	.LVL372
 11586 184e 0200     		.2byte	0x2
 11587 1850 73       		.byte	0x73
 11588 1851 08       		.sleb128 8
 11589 1852 10000000 		.4byte	.LVL372
 11590 1856 1E000000 		.4byte	.LVL375
 11591 185a 0200     		.2byte	0x2
 11592 185c 91       		.byte	0x91
 11593 185d 08       		.sleb128 8
 11594 185e 1E000000 		.4byte	.LVL375
 11595 1862 20000000 		.4byte	.LVL376
 11596 1866 0200     		.2byte	0x2
 11597 1868 73       		.byte	0x73
 11598 1869 00       		.sleb128 0
 11599 186a 20000000 		.4byte	.LVL376
 11600 186e 8C000000 		.4byte	.LFE62
 11601 1872 0200     		.2byte	0x2
 11602 1874 91       		.byte	0x91
 11603 1875 08       		.sleb128 8
 11604 1876 00000000 		.4byte	0
 11605 187a 00000000 		.4byte	0
 11606              	.LLST148:
 11607 187e 30000000 		.4byte	.LVL378
 11608 1882 46000000 		.4byte	.LVL380
 11609 1886 0100     		.2byte	0x1
 11610 1888 55       		.byte	0x55
 11611 1889 60000000 		.4byte	.LVL381
 11612 188d 8A000000 		.4byte	.LVL391
 11613 1891 0100     		.2byte	0x1
ARM GAS  C:\Users\PC\AppData\Local\Temp\ccF7GaWd.s 			page 227


 11614 1893 55       		.byte	0x55
 11615 1894 00000000 		.4byte	0
 11616 1898 00000000 		.4byte	0
 11617              	.LLST149:
 11618 189c 30000000 		.4byte	.LVL378
 11619 18a0 3C000000 		.4byte	.LVL379
 11620 18a4 0100     		.2byte	0x1
 11621 18a6 53       		.byte	0x53
 11622 18a7 3C000000 		.4byte	.LVL379
 11623 18ab 82000000 		.4byte	.LVL386
 11624 18af 0600     		.2byte	0x6
 11625 18b1 74       		.byte	0x74
 11626 18b2 00       		.sleb128 0
 11627 18b3 77       		.byte	0x77
 11628 18b4 00       		.sleb128 0
 11629 18b5 1C       		.byte	0x1c
 11630 18b6 9F       		.byte	0x9f
 11631 18b7 82000000 		.4byte	.LVL386
 11632 18bb 84000000 		.4byte	.LVL387
 11633 18bf 0800     		.2byte	0x8
 11634 18c1 74       		.byte	0x74
 11635 18c2 00       		.sleb128 0
 11636 18c3 77       		.byte	0x77
 11637 18c4 00       		.sleb128 0
 11638 18c5 1C       		.byte	0x1c
 11639 18c6 23       		.byte	0x23
 11640 18c7 01       		.uleb128 0x1
 11641 18c8 9F       		.byte	0x9f
 11642 18c9 88000000 		.4byte	.LVL389
 11643 18cd 8C000000 		.4byte	.LFE62
 11644 18d1 0100     		.2byte	0x1
 11645 18d3 53       		.byte	0x53
 11646 18d4 00000000 		.4byte	0
 11647 18d8 00000000 		.4byte	0
 11648              	.LLST150:
 11649 18dc 3C000000 		.4byte	.LVL379
 11650 18e0 66000000 		.4byte	.LVL382
 11651 18e4 0100     		.2byte	0x1
 11652 18e6 50       		.byte	0x50
 11653 18e7 66000000 		.4byte	.LVL382
 11654 18eb 7A000000 		.4byte	.LVL383
 11655 18ef 0100     		.2byte	0x1
 11656 18f1 56       		.byte	0x56
 11657 18f2 7A000000 		.4byte	.LVL383
 11658 18f6 80000000 		.4byte	.LVL385
 11659 18fa 0300     		.2byte	0x3
 11660 18fc 76       		.byte	0x76
 11661 18fd 7F       		.sleb128 -1
 11662 18fe 9F       		.byte	0x9f
 11663 18ff 80000000 		.4byte	.LVL385
 11664 1903 88000000 		.4byte	.LVL389
 11665 1907 0100     		.2byte	0x1
 11666 1909 50       		.byte	0x50
 11667 190a 00000000 		.4byte	0
 11668 190e 00000000 		.4byte	0
 11669              		.section	.debug_aranges,"",%progbits
 11670 0000 04010000 		.4byte	0x104
ARM GAS  C:\Users\PC\AppData\Local\Temp\ccF7GaWd.s 			page 228


 11671 0004 0200     		.2byte	0x2
 11672 0006 00000000 		.4byte	.Ldebug_info0
 11673 000a 04       		.byte	0x4
 11674 000b 00       		.byte	0
 11675 000c 0000     		.2byte	0
 11676 000e 0000     		.2byte	0
 11677 0010 00000000 		.4byte	.LFB33
 11678 0014 B6000000 		.4byte	.LFE33-.LFB33
 11679 0018 00000000 		.4byte	.LFB34
 11680 001c 50000000 		.4byte	.LFE34-.LFB34
 11681 0020 00000000 		.4byte	.LFB35
 11682 0024 3A010000 		.4byte	.LFE35-.LFB35
 11683 0028 00000000 		.4byte	.LFB36
 11684 002c 3C010000 		.4byte	.LFE36-.LFB36
 11685 0030 00000000 		.4byte	.LFB38
 11686 0034 0E010000 		.4byte	.LFE38-.LFB38
 11687 0038 00000000 		.4byte	.LFB37
 11688 003c 32000000 		.4byte	.LFE37-.LFB37
 11689 0040 00000000 		.4byte	.LFB39
 11690 0044 4E000000 		.4byte	.LFE39-.LFB39
 11691 0048 00000000 		.4byte	.LFB40
 11692 004c 1C010000 		.4byte	.LFE40-.LFB40
 11693 0050 00000000 		.4byte	.LFB41
 11694 0054 7E000000 		.4byte	.LFE41-.LFB41
 11695 0058 00000000 		.4byte	.LFB42
 11696 005c 44000000 		.4byte	.LFE42-.LFB42
 11697 0060 00000000 		.4byte	.LFB43
 11698 0064 A8010000 		.4byte	.LFE43-.LFB43
 11699 0068 00000000 		.4byte	.LFB44
 11700 006c 94010000 		.4byte	.LFE44-.LFB44
 11701 0070 00000000 		.4byte	.LFB45
 11702 0074 14000000 		.4byte	.LFE45-.LFB45
 11703 0078 00000000 		.4byte	.LFB46
 11704 007c 48010000 		.4byte	.LFE46-.LFB46
 11705 0080 00000000 		.4byte	.LFB48
 11706 0084 0C000000 		.4byte	.LFE48-.LFB48
 11707 0088 00000000 		.4byte	.LFB49
 11708 008c 0C000000 		.4byte	.LFE49-.LFB49
 11709 0090 00000000 		.4byte	.LFB50
 11710 0094 0C000000 		.4byte	.LFE50-.LFB50
 11711 0098 00000000 		.4byte	.LFB51
 11712 009c 14000000 		.4byte	.LFE51-.LFB51
 11713 00a0 00000000 		.4byte	.LFB47
 11714 00a4 68000000 		.4byte	.LFE47-.LFB47
 11715 00a8 00000000 		.4byte	.LFB52
 11716 00ac 0C000000 		.4byte	.LFE52-.LFB52
 11717 00b0 00000000 		.4byte	.LFB53
 11718 00b4 0C000000 		.4byte	.LFE53-.LFB53
 11719 00b8 00000000 		.4byte	.LFB54
 11720 00bc 0C000000 		.4byte	.LFE54-.LFB54
 11721 00c0 00000000 		.4byte	.LFB55
 11722 00c4 0C000000 		.4byte	.LFE55-.LFB55
 11723 00c8 00000000 		.4byte	.LFB56
 11724 00cc 0C000000 		.4byte	.LFE56-.LFB56
 11725 00d0 00000000 		.4byte	.LFB57
 11726 00d4 0C000000 		.4byte	.LFE57-.LFB57
 11727 00d8 00000000 		.4byte	.LFB58
ARM GAS  C:\Users\PC\AppData\Local\Temp\ccF7GaWd.s 			page 229


 11728 00dc 14000000 		.4byte	.LFE58-.LFB58
 11729 00e0 00000000 		.4byte	.LFB59
 11730 00e4 74000000 		.4byte	.LFE59-.LFB59
 11731 00e8 00000000 		.4byte	.LFB60
 11732 00ec 7C000000 		.4byte	.LFE60-.LFB60
 11733 00f0 00000000 		.4byte	.LFB61
 11734 00f4 80000000 		.4byte	.LFE61-.LFB61
 11735 00f8 00000000 		.4byte	.LFB62
 11736 00fc 8C000000 		.4byte	.LFE62-.LFB62
 11737 0100 00000000 		.4byte	0
 11738 0104 00000000 		.4byte	0
 11739              		.section	.debug_ranges,"",%progbits
 11740              	.Ldebug_ranges0:
 11741 0000 32000000 		.4byte	.LBB11
 11742 0004 34000000 		.4byte	.LBE11
 11743 0008 36000000 		.4byte	.LBB13
 11744 000c 38000000 		.4byte	.LBE13
 11745 0010 00000000 		.4byte	0
 11746 0014 00000000 		.4byte	0
 11747 0018 34000000 		.4byte	.LBB12
 11748 001c 36000000 		.4byte	.LBE12
 11749 0020 38000000 		.4byte	.LBB14
 11750 0024 3A000000 		.4byte	.LBE14
 11751 0028 00000000 		.4byte	0
 11752 002c 00000000 		.4byte	0
 11753 0030 30000000 		.4byte	.LBB23
 11754 0034 32000000 		.4byte	.LBE23
 11755 0038 50000000 		.4byte	.LBB26
 11756 003c 52000000 		.4byte	.LBE26
 11757 0040 00000000 		.4byte	0
 11758 0044 00000000 		.4byte	0
 11759 0048 32000000 		.4byte	.LBB24
 11760 004c 36000000 		.4byte	.LBE24
 11761 0050 3E000000 		.4byte	.LBB25
 11762 0054 44000000 		.4byte	.LBE25
 11763 0058 00000000 		.4byte	0
 11764 005c 00000000 		.4byte	0
 11765 0060 4A000000 		.4byte	.LBB36
 11766 0064 66000000 		.4byte	.LBE36
 11767 0068 6A000000 		.4byte	.LBB39
 11768 006c EE000000 		.4byte	.LBE39
 11769 0070 00000000 		.4byte	0
 11770 0074 00000000 		.4byte	0
 11771 0078 4A000000 		.4byte	.LBB37
 11772 007c 66000000 		.4byte	.LBE37
 11773 0080 70000000 		.4byte	.LBB38
 11774 0084 EE000000 		.4byte	.LBE38
 11775 0088 00000000 		.4byte	0
 11776 008c 00000000 		.4byte	0
 11777 0090 08000000 		.4byte	.LBB42
 11778 0094 0A000000 		.4byte	.LBE42
 11779 0098 10000000 		.4byte	.LBB43
 11780 009c A4000000 		.4byte	.LBE43
 11781 00a0 00000000 		.4byte	0
 11782 00a4 00000000 		.4byte	0
 11783 00a8 24000000 		.4byte	.LBB44
 11784 00ac 26000000 		.4byte	.LBE44
ARM GAS  C:\Users\PC\AppData\Local\Temp\ccF7GaWd.s 			page 230


 11785 00b0 2E000000 		.4byte	.LBB47
 11786 00b4 30000000 		.4byte	.LBE47
 11787 00b8 00000000 		.4byte	0
 11788 00bc 00000000 		.4byte	0
 11789 00c0 34000000 		.4byte	.LBB48
 11790 00c4 38000000 		.4byte	.LBE48
 11791 00c8 3A000000 		.4byte	.LBB51
 11792 00cc 42000000 		.4byte	.LBE51
 11793 00d0 00000000 		.4byte	0
 11794 00d4 00000000 		.4byte	0
 11795 00d8 02000000 		.4byte	.LBB52
 11796 00dc 04000000 		.4byte	.LBE52
 11797 00e0 06000000 		.4byte	.LBB54
 11798 00e4 08000000 		.4byte	.LBE54
 11799 00e8 12000000 		.4byte	.LBB55
 11800 00ec 14000000 		.4byte	.LBE55
 11801 00f0 16000000 		.4byte	.LBB56
 11802 00f4 1A000000 		.4byte	.LBE56
 11803 00f8 22000000 		.4byte	.LBB57
 11804 00fc 70000000 		.4byte	.LBE57
 11805 0100 00000000 		.4byte	0
 11806 0104 00000000 		.4byte	0
 11807 0108 02000000 		.4byte	.LBB58
 11808 010c 06000000 		.4byte	.LBE58
 11809 0110 14000000 		.4byte	.LBB60
 11810 0114 16000000 		.4byte	.LBE60
 11811 0118 18000000 		.4byte	.LBB61
 11812 011c 1A000000 		.4byte	.LBE61
 11813 0120 2A000000 		.4byte	.LBB62
 11814 0124 78000000 		.4byte	.LBE62
 11815 0128 00000000 		.4byte	0
 11816 012c 00000000 		.4byte	0
 11817 0130 04000000 		.4byte	.LBB63
 11818 0134 06000000 		.4byte	.LBE63
 11819 0138 26000000 		.4byte	.LBB65
 11820 013c 7C000000 		.4byte	.LBE65
 11821 0140 00000000 		.4byte	0
 11822 0144 00000000 		.4byte	0
 11823 0148 04000000 		.4byte	.LBB66
 11824 014c 06000000 		.4byte	.LBE66
 11825 0150 2C000000 		.4byte	.LBB68
 11826 0154 88000000 		.4byte	.LBE68
 11827 0158 00000000 		.4byte	0
 11828 015c 00000000 		.4byte	0
 11829 0160 00000000 		.4byte	.LFB33
 11830 0164 B6000000 		.4byte	.LFE33
 11831 0168 00000000 		.4byte	.LFB34
 11832 016c 50000000 		.4byte	.LFE34
 11833 0170 00000000 		.4byte	.LFB35
 11834 0174 3A010000 		.4byte	.LFE35
 11835 0178 00000000 		.4byte	.LFB36
 11836 017c 3C010000 		.4byte	.LFE36
 11837 0180 00000000 		.4byte	.LFB38
 11838 0184 0E010000 		.4byte	.LFE38
 11839 0188 00000000 		.4byte	.LFB37
 11840 018c 32000000 		.4byte	.LFE37
 11841 0190 00000000 		.4byte	.LFB39
ARM GAS  C:\Users\PC\AppData\Local\Temp\ccF7GaWd.s 			page 231


 11842 0194 4E000000 		.4byte	.LFE39
 11843 0198 00000000 		.4byte	.LFB40
 11844 019c 1C010000 		.4byte	.LFE40
 11845 01a0 00000000 		.4byte	.LFB41
 11846 01a4 7E000000 		.4byte	.LFE41
 11847 01a8 00000000 		.4byte	.LFB42
 11848 01ac 44000000 		.4byte	.LFE42
 11849 01b0 00000000 		.4byte	.LFB43
 11850 01b4 A8010000 		.4byte	.LFE43
 11851 01b8 00000000 		.4byte	.LFB44
 11852 01bc 94010000 		.4byte	.LFE44
 11853 01c0 00000000 		.4byte	.LFB45
 11854 01c4 14000000 		.4byte	.LFE45
 11855 01c8 00000000 		.4byte	.LFB46
 11856 01cc 48010000 		.4byte	.LFE46
 11857 01d0 00000000 		.4byte	.LFB48
 11858 01d4 0C000000 		.4byte	.LFE48
 11859 01d8 00000000 		.4byte	.LFB49
 11860 01dc 0C000000 		.4byte	.LFE49
 11861 01e0 00000000 		.4byte	.LFB50
 11862 01e4 0C000000 		.4byte	.LFE50
 11863 01e8 00000000 		.4byte	.LFB51
 11864 01ec 14000000 		.4byte	.LFE51
 11865 01f0 00000000 		.4byte	.LFB47
 11866 01f4 68000000 		.4byte	.LFE47
 11867 01f8 00000000 		.4byte	.LFB52
 11868 01fc 0C000000 		.4byte	.LFE52
 11869 0200 00000000 		.4byte	.LFB53
 11870 0204 0C000000 		.4byte	.LFE53
 11871 0208 00000000 		.4byte	.LFB54
 11872 020c 0C000000 		.4byte	.LFE54
 11873 0210 00000000 		.4byte	.LFB55
 11874 0214 0C000000 		.4byte	.LFE55
 11875 0218 00000000 		.4byte	.LFB56
 11876 021c 0C000000 		.4byte	.LFE56
 11877 0220 00000000 		.4byte	.LFB57
 11878 0224 0C000000 		.4byte	.LFE57
 11879 0228 00000000 		.4byte	.LFB58
 11880 022c 14000000 		.4byte	.LFE58
 11881 0230 00000000 		.4byte	.LFB59
 11882 0234 74000000 		.4byte	.LFE59
 11883 0238 00000000 		.4byte	.LFB60
 11884 023c 7C000000 		.4byte	.LFE60
 11885 0240 00000000 		.4byte	.LFB61
 11886 0244 80000000 		.4byte	.LFE61
 11887 0248 00000000 		.4byte	.LFB62
 11888 024c 8C000000 		.4byte	.LFE62
 11889 0250 00000000 		.4byte	0
 11890 0254 00000000 		.4byte	0
 11891              		.section	.debug_line,"",%progbits
 11892              	.Ldebug_line0:
 11893 0000 F5050000 		.section	.debug_str,"MS",%progbits,1
 11893      02003C01 
 11893      00000201 
 11893      FB0E0D00 
 11893      01010101 
 11894              	.LASF62:
ARM GAS  C:\Users\PC\AppData\Local\Temp\ccF7GaWd.s 			page 232


 11895 0000 70726576 		.ascii	"prev_x\000"
 11895      5F7800
 11896              	.LASF48:
 11897 0007 6C617374 		.ascii	"last\000"
 11897      00
 11898              	.LASF94:
 11899 000c 64726177 		.ascii	"drawHLine\000"
 11899      484C696E 
 11899      6500
 11900              	.LASF49:
 11901 0016 64783031 		.ascii	"dx01\000"
 11901      00
 11902              	.LASF51:
 11903 001b 64783032 		.ascii	"dx02\000"
 11903      00
 11904              	.LASF12:
 11905 0020 756E7369 		.ascii	"unsigned int\000"
 11905      676E6564 
 11905      20696E74 
 11905      00
 11906              	.LASF79:
 11907 002d 5F627974 		.ascii	"_byte\000"
 11907      6500
 11908              	.LASF7:
 11909 0033 5F5F696E 		.ascii	"__int32_t\000"
 11909      7433325F 
 11909      7400
 11910              	.LASF73:
 11911 003d 626C7565 		.ascii	"blue\000"
 11911      00
 11912              	.LASF80:
 11913 0042 64697370 		.ascii	"display_drawBitmapV2_bg\000"
 11913      6C61795F 
 11913      64726177 
 11913      4269746D 
 11913      61705632 
 11914              	.LASF53:
 11915 005a 64783132 		.ascii	"dx12\000"
 11915      00
 11916              	.LASF69:
 11917 005f 64697370 		.ascii	"display_getRotation\000"
 11917      6C61795F 
 11917      67657452 
 11917      6F746174 
 11917      696F6E00 
 11918              	.LASF41:
 11919 0073 64697370 		.ascii	"display_drawRect\000"
 11919      6C61795F 
 11919      64726177 
 11919      52656374 
 11919      00
 11920              	.LASF35:
 11921 0084 64697370 		.ascii	"display_drawCircleHelper\000"
 11921      6C61795F 
 11921      64726177 
 11921      43697263 
 11921      6C654865 
ARM GAS  C:\Users\PC\AppData\Local\Temp\ccF7GaWd.s 			page 233


 11922              	.LASF93:
 11923 009d 64726177 		.ascii	"drawVLine\000"
 11923      564C696E 
 11923      6500
 11924              	.LASF98:
 11925 00a7 433A5C55 		.ascii	"C:\\Users\\PC\\Documents\\PSoC Creator\\yellowChip\\"
 11925      73657273 
 11925      5C50435C 
 11925      446F6375 
 11925      6D656E74 
 11926 00d5 4F6C6564 		.ascii	"Oled.cydsn\000"
 11926      2E637964 
 11926      736E00
 11927              	.LASF74:
 11928 00e0 64697370 		.ascii	"display_drawBitmapV1\000"
 11928      6C61795F 
 11928      64726177 
 11928      4269746D 
 11928      61705631 
 11929              	.LASF77:
 11930 00f5 64697370 		.ascii	"display_drawBitmapV2\000"
 11930      6C61795F 
 11930      64726177 
 11930      4269746D 
 11930      61705632 
 11931              	.LASF83:
 11932 010a 726F7461 		.ascii	"rotation\000"
 11932      74696F6E 
 11932      00
 11933              	.LASF24:
 11934 0113 64697370 		.ascii	"display_print\000"
 11934      6C61795F 
 11934      7072696E 
 11934      7400
 11935              	.LASF17:
 11936 0121 666C6F61 		.ascii	"float\000"
 11936      7400
 11937              	.LASF86:
 11938 0127 63757273 		.ascii	"cursor_x\000"
 11938      6F725F78 
 11938      00
 11939              	.LASF87:
 11940 0130 63757273 		.ascii	"cursor_y\000"
 11940      6F725F79 
 11940      00
 11941              	.LASF90:
 11942 0139 74657874 		.ascii	"textsize\000"
 11942      73697A65 
 11942      00
 11943              	.LASF14:
 11944 0142 696E7431 		.ascii	"int16_t\000"
 11944      365F7400 
 11945              	.LASF64:
 11946 014a 70726576 		.ascii	"prev_color\000"
 11946      5F636F6C 
 11946      6F7200
 11947              	.LASF11:
ARM GAS  C:\Users\PC\AppData\Local\Temp\ccF7GaWd.s 			page 234


 11948 0155 6C6F6E67 		.ascii	"long long unsigned int\000"
 11948      206C6F6E 
 11948      6720756E 
 11948      7369676E 
 11948      65642069 
 11949              	.LASF38:
 11950 016c 636F726E 		.ascii	"corners\000"
 11950      65727300 
 11951              	.LASF5:
 11952 0174 5F5F7569 		.ascii	"__uint16_t\000"
 11952      6E743136 
 11952      5F7400
 11953              	.LASF42:
 11954 017f 64697370 		.ascii	"display_drawRoundRect\000"
 11954      6C61795F 
 11954      64726177 
 11954      526F756E 
 11954      64526563 
 11955              	.LASF82:
 11956 0195 5F766363 		.ascii	"_vccstate\000"
 11956      73746174 
 11956      6500
 11957              	.LASF92:
 11958 019f 64726177 		.ascii	"drawPixel\000"
 11958      50697865 
 11958      6C00
 11959              	.LASF30:
 11960 01a9 5F426F6F 		.ascii	"_Bool\000"
 11960      6C00
 11961              	.LASF66:
 11962 01af 70726576 		.ascii	"prev_size\000"
 11962      5F73697A 
 11962      6500
 11963              	.LASF47:
 11964 01b9 64697370 		.ascii	"display_fillTriangle\000"
 11964      6C61795F 
 11964      66696C6C 
 11964      54726961 
 11964      6E676C65 
 11965              	.LASF57:
 11966 01ce 64697370 		.ascii	"display_getCursorX\000"
 11966      6C61795F 
 11966      67657443 
 11966      7572736F 
 11966      725800
 11967              	.LASF58:
 11968 01e1 64697370 		.ascii	"display_getCursorY\000"
 11968      6C61795F 
 11968      67657443 
 11968      7572736F 
 11968      725900
 11969              	.LASF40:
 11970 01f4 64697370 		.ascii	"display_fillCircle\000"
 11970      6C61795F 
 11970      66696C6C 
 11970      43697263 
 11970      6C6500
ARM GAS  C:\Users\PC\AppData\Local\Temp\ccF7GaWd.s 			page 235


 11971              	.LASF19:
 11972 0207 63686172 		.ascii	"char\000"
 11972      00
 11973              	.LASF50:
 11974 020c 64793031 		.ascii	"dy01\000"
 11974      00
 11975              	.LASF52:
 11976 0211 64793032 		.ascii	"dy02\000"
 11976      00
 11977              	.LASF13:
 11978 0216 75696E74 		.ascii	"uint8_t\000"
 11978      385F7400 
 11979              	.LASF84:
 11980 021e 5F776964 		.ascii	"_width\000"
 11980      746800
 11981              	.LASF28:
 11982 0225 73746565 		.ascii	"steep\000"
 11982      7000
 11983              	.LASF10:
 11984 022b 6C6F6E67 		.ascii	"long long int\000"
 11984      206C6F6E 
 11984      6720696E 
 11984      7400
 11985              	.LASF54:
 11986 0239 64793132 		.ascii	"dy12\000"
 11986      00
 11987              	.LASF78:
 11988 023e 62797465 		.ascii	"byteWidth\000"
 11988      57696474 
 11988      6800
 11989              	.LASF3:
 11990 0248 5F5F696E 		.ascii	"__int16_t\000"
 11990      7431365F 
 11990      7400
 11991              	.LASF60:
 11992 0252 64697370 		.ascii	"display_drawChar\000"
 11992      6C61795F 
 11992      64726177 
 11992      43686172 
 11992      00
 11993              	.LASF85:
 11994 0263 5F686569 		.ascii	"_height\000"
 11994      67687400 
 11995              	.LASF76:
 11996 026b 64697370 		.ascii	"display_drawBitmapV1_bg\000"
 11996      6C61795F 
 11996      64726177 
 11996      4269746D 
 11996      61705631 
 11997              	.LASF37:
 11998 0283 64697370 		.ascii	"display_fillCircleHelper\000"
 11998      6C61795F 
 11998      66696C6C 
 11998      43697263 
 11998      6C654865 
 11999              	.LASF70:
 12000 029c 64697370 		.ascii	"display_getWidth\000"
ARM GAS  C:\Users\PC\AppData\Local\Temp\ccF7GaWd.s 			page 236


 12000      6C61795F 
 12000      67657457 
 12000      69647468 
 12000      00
 12001              	.LASF61:
 12002 02ad 73697A65 		.ascii	"size\000"
 12002      00
 12003              	.LASF56:
 12004 02b2 64697370 		.ascii	"display_customChar\000"
 12004      6C61795F 
 12004      63757374 
 12004      6F6D4368 
 12004      617200
 12005              	.LASF55:
 12006 02c5 64697370 		.ascii	"display_string\000"
 12006      6C61795F 
 12006      73747269 
 12006      6E6700
 12007              	.LASF72:
 12008 02d4 67726565 		.ascii	"green\000"
 12008      6E00
 12009              	.LASF20:
 12010 02da 6C6F6E67 		.ascii	"long double\000"
 12010      20646F75 
 12010      626C6500 
 12011              	.LASF15:
 12012 02e6 75696E74 		.ascii	"uint16_t\000"
 12012      31365F74 
 12012      00
 12013              	.LASF45:
 12014 02ef 64697370 		.ascii	"display_FillRect\000"
 12014      6C61795F 
 12014      46696C6C 
 12014      52656374 
 12014      00
 12015              	.LASF65:
 12016 0300 70726576 		.ascii	"prev_bg\000"
 12016      5F626700 
 12017              	.LASF4:
 12018 0308 73686F72 		.ascii	"short int\000"
 12018      7420696E 
 12018      7400
 12019              	.LASF46:
 12020 0312 64697370 		.ascii	"display_drawTriangle\000"
 12020      6C61795F 
 12020      64726177 
 12020      54726961 
 12020      6E676C65 
 12021              	.LASF44:
 12022 0327 64697370 		.ascii	"display_fillRoundRect\000"
 12022      6C61795F 
 12022      66696C6C 
 12022      526F756E 
 12022      64526563 
 12023              	.LASF8:
 12024 033d 6C6F6E67 		.ascii	"long int\000"
 12024      20696E74 
ARM GAS  C:\Users\PC\AppData\Local\Temp\ccF7GaWd.s 			page 237


 12024      00
 12025              	.LASF71:
 12026 0346 64697370 		.ascii	"display_getHeight\000"
 12026      6C61795F 
 12026      67657448 
 12026      65696768 
 12026      7400
 12027              	.LASF32:
 12028 0358 64697370 		.ascii	"display_drawCircle\000"
 12028      6C61795F 
 12028      64726177 
 12028      43697263 
 12028      6C6500
 12029              	.LASF22:
 12030 036b 636F6C6F 		.ascii	"color\000"
 12030      7200
 12031              	.LASF59:
 12032 0371 64697370 		.ascii	"display_setTextSize\000"
 12032      6C61795F 
 12032      73657454 
 12032      65787453 
 12032      697A6500 
 12033              	.LASF26:
 12034 0385 64697370 		.ascii	"display_setTextColor2\000"
 12034      6C61795F 
 12034      73657454 
 12034      65787443 
 12034      6F6C6F72 
 12035              	.LASF2:
 12036 039b 5F5F7569 		.ascii	"__uint8_t\000"
 12036      6E74385F 
 12036      7400
 12037              	.LASF29:
 12038 03a5 79737465 		.ascii	"ystep\000"
 12038      7000
 12039              	.LASF81:
 12040 03ab 666F6E74 		.ascii	"font\000"
 12040      00
 12041              	.LASF95:
 12042 03b0 66696C6C 		.ascii	"fillRect\000"
 12042      52656374 
 12042      00
 12043              	.LASF96:
 12044 03b9 474E5520 		.ascii	"GNU C11 5.4.1 20160609 (release) [ARM/embedded-5-br"
 12044      43313120 
 12044      352E342E 
 12044      31203230 
 12044      31363036 
 12045 03ec 616E6368 		.ascii	"anch revision 237715] -mcpu=cortex-m0plus -mthumb -"
 12045      20726576 
 12045      6973696F 
 12045      6E203233 
 12045      37373135 
 12046 041f 67202D4F 		.ascii	"g -Os -ffunction-sections -ffat-lto-objects\000"
 12046      73202D66 
 12046      66756E63 
 12046      74696F6E 
ARM GAS  C:\Users\PC\AppData\Local\Temp\ccF7GaWd.s 			page 238


 12046      2D736563 
 12047              	.LASF43:
 12048 044b 6D61785F 		.ascii	"max_radius\000"
 12048      72616469 
 12048      757300
 12049              	.LASF21:
 12050 0456 73697A65 		.ascii	"sizetype\000"
 12050      74797065 
 12050      00
 12051              	.LASF9:
 12052 045f 6C6F6E67 		.ascii	"long unsigned int\000"
 12052      20756E73 
 12052      69676E65 
 12052      6420696E 
 12052      7400
 12053              	.LASF16:
 12054 0471 696E7433 		.ascii	"int32_t\000"
 12054      325F7400 
 12055              	.LASF91:
 12056 0479 77726170 		.ascii	"wrap\000"
 12056      00
 12057              	.LASF1:
 12058 047e 756E7369 		.ascii	"unsigned char\000"
 12058      676E6564 
 12058      20636861 
 12058      7200
 12059              	.LASF75:
 12060 048c 6269746D 		.ascii	"bitmap\000"
 12060      617000
 12061              	.LASF63:
 12062 0493 70726576 		.ascii	"prev_y\000"
 12062      5F7900
 12063              	.LASF25:
 12064 049a 6C696E65 		.ascii	"line\000"
 12064      00
 12065              	.LASF99:
 12066 049f 64697370 		.ascii	"display_color565\000"
 12066      6C61795F 
 12066      636F6C6F 
 12066      72353635 
 12066      00
 12067              	.LASF36:
 12068 04b0 636F726E 		.ascii	"cornername\000"
 12068      65726E61 
 12068      6D6500
 12069              	.LASF67:
 12070 04bb 64697370 		.ascii	"display_setTextColor\000"
 12070      6C61795F 
 12070      73657454 
 12070      65787443 
 12070      6F6C6F72 
 12071              	.LASF27:
 12072 04d0 64697370 		.ascii	"display_setCursor\000"
 12072      6C61795F 
 12072      73657443 
 12072      7572736F 
 12072      7200
ARM GAS  C:\Users\PC\AppData\Local\Temp\ccF7GaWd.s 			page 239


 12073              	.LASF33:
 12074 04e2 6464465F 		.ascii	"ddF_x\000"
 12074      7800
 12075              	.LASF34:
 12076 04e8 6464465F 		.ascii	"ddF_y\000"
 12076      7900
 12077              	.LASF0:
 12078 04ee 7369676E 		.ascii	"signed char\000"
 12078      65642063 
 12078      68617200 
 12079              	.LASF39:
 12080 04fa 64656C74 		.ascii	"delta\000"
 12080      6100
 12081              	.LASF6:
 12082 0500 73686F72 		.ascii	"short unsigned int\000"
 12082      7420756E 
 12082      7369676E 
 12082      65642069 
 12082      6E7400
 12083              	.LASF18:
 12084 0513 646F7562 		.ascii	"double\000"
 12084      6C6500
 12085              	.LASF88:
 12086 051a 74657874 		.ascii	"textcolor\000"
 12086      636F6C6F 
 12086      7200
 12087              	.LASF31:
 12088 0524 77726974 		.ascii	"writeLine\000"
 12088      654C696E 
 12088      6500
 12089              	.LASF23:
 12090 052e 64697370 		.ascii	"display_drawLine\000"
 12090      6C61795F 
 12090      64726177 
 12090      4C696E65 
 12090      00
 12091              	.LASF89:
 12092 053f 74657874 		.ascii	"textbgcolor\000"
 12092      6267636F 
 12092      6C6F7200 
 12093              	.LASF68:
 12094 054b 64697370 		.ascii	"display_setTextWrap\000"
 12094      6C61795F 
 12094      73657454 
 12094      65787457 
 12094      72617000 
 12095              	.LASF97:
 12096 055f 4746585F 		.ascii	"GFX_Library.c\000"
 12096      4C696272 
 12096      6172792E 
 12096      6300
 12097              		.ident	"GCC: (GNU Tools for ARM Embedded Processors) 5.4.1 20160609 (release) [ARM/embedded-5-bran
