ARM GAS  C:\Users\PC\AppData\Local\Temp\ccoEr05J.s 			page 1


   1              		.syntax unified
   2              		.cpu cortex-m0plus
   3              		.fpu softvfp
   4              		.eabi_attribute 20, 1
   5              		.eabi_attribute 21, 1
   6              		.eabi_attribute 23, 3
   7              		.eabi_attribute 24, 1
   8              		.eabi_attribute 25, 1
   9              		.eabi_attribute 26, 1
  10              		.eabi_attribute 30, 1
  11              		.eabi_attribute 34, 0
  12              		.eabi_attribute 18, 4
  13              		.thumb
  14              		.syntax unified
  15              		.file	"ssd1306.c"
  16              		.text
  17              	.Ltext0:
  18              		.cfi_sections	.debug_frame
  19              		.section	.text.ssd1306_command,"ax",%progbits
  20              		.align	2
  21              		.global	ssd1306_command
  22              		.code	16
  23              		.thumb_func
  24              		.type	ssd1306_command, %function
  25              	ssd1306_command:
  26              	.LFB33:
  27              		.file 1 "ssd1306.c"
   1:ssd1306.c     **** 
   2:ssd1306.c     **** /******************************************************************************
   3:ssd1306.c     ****                                   SSD1306.c                                   *
   4:ssd1306.c     ****                    SSD1306 OLED driver for CCS PIC C compiler                 *
   5:ssd1306.c     ****                                                                               *
   6:ssd1306.c     ****  This driver supports SPI mode and I2C mode (default).                        *
   7:ssd1306.c     ****  For the SPI mode and before the include of the driver file, add:             *
   8:ssd1306.c     ****    #define SSD1306_SPI_MODE                                                   *
   9:ssd1306.c     ****                                                                               *
  10:ssd1306.c     ****  https://simple-circuit.com/                                                  *
  11:ssd1306.c     ****                                                                               *
  12:ssd1306.c     **** *******************************************************************************
  13:ssd1306.c     **** *******************************************************************************
  14:ssd1306.c     ****  This is a library for our Monochrome OLEDs based on SSD1306 drivers          *
  15:ssd1306.c     ****                                                                               *
  16:ssd1306.c     ****   Pick one up today in the adafruit shop!                                     *
  17:ssd1306.c     ****   ------> http://www.adafruit.com/category/63_98                              *
  18:ssd1306.c     ****                                                                               *
  19:ssd1306.c     ****  Adafruit invests time and resources providing this open source code,         *
  20:ssd1306.c     ****  please support Adafruit and open-source hardware by purchasing               *
  21:ssd1306.c     ****  products from Adafruit!                                                      *
  22:ssd1306.c     ****                                                                               *
  23:ssd1306.c     ****  Written by Limor Fried/Ladyada  for Adafruit Industries.                     *
  24:ssd1306.c     ****  BSD license, check license.txt for more information                          *
  25:ssd1306.c     ****  All text above, and the splash screen must be included in any redistribution *
  26:ssd1306.c     **** *******************************************************************************/
  27:ssd1306.c     **** 
  28:ssd1306.c     **** #include "ssd1306.h"
  29:ssd1306.c     **** 
  30:ssd1306.c     **** #define HWSPIDELAY  25
ARM GAS  C:\Users\PC\AppData\Local\Temp\ccoEr05J.s 			page 2


  31:ssd1306.c     **** #define ssd1306_swap(a, b) { uint8_t t = a; a = b; b = t; }
  32:ssd1306.c     **** 
  33:ssd1306.c     **** //*************************** User Functions ***************************//
  34:ssd1306.c     **** 
  35:ssd1306.c     **** 
  36:ssd1306.c     **** 
  37:ssd1306.c     **** //--------------------------------------------------------------------------//
  38:ssd1306.c     **** void ssd1306_command(uint8_t c);
  39:ssd1306.c     **** 
  40:ssd1306.c     **** 
  41:ssd1306.c     **** static uint8_t ssd1306_buffer[SSD1306_LCDHEIGHT * SSD1306_LCDWIDTH / 8] = {
  42:ssd1306.c     **** 0x00, 0x00, 0x00, 0x00, 0x00, 0x00, 0x00, 0x00, 0x00, 0x00, 0x00, 0x00, 0x00, 0x00, 0x00, 0x00,
  43:ssd1306.c     **** 0x00, 0x00, 0x00, 0x00, 0x00, 0x00, 0x00, 0x00, 0x00, 0x00, 0x00, 0x00, 0x00, 0x00, 0x00, 0x00,
  44:ssd1306.c     **** 0x00, 0x00, 0x00, 0x00, 0x00, 0x00, 0x00, 0x00, 0x00, 0x00, 0x00, 0x00, 0x00, 0x00, 0x00, 0x00,
  45:ssd1306.c     **** 0x00, 0x00, 0x00, 0x00, 0x00, 0x00, 0x00, 0x00, 0x00, 0x00, 0x00, 0x00, 0x00, 0x00, 0x00, 0x80,
  46:ssd1306.c     **** 0x80, 0x80, 0x00, 0x00, 0x00, 0x00, 0x00, 0x00, 0x00, 0x00, 0x00, 0x00, 0x00, 0x00, 0x00, 0x00,
  47:ssd1306.c     **** 0x00, 0x80, 0x80, 0xC0, 0xC0, 0x00, 0x00, 0x00, 0x00, 0x00, 0x00, 0x00, 0x00, 0x00, 0x00, 0x00,
  48:ssd1306.c     **** 0x00, 0x00, 0x00, 0x00, 0x00, 0x00, 0x00, 0x00, 0x00, 0x00, 0x00, 0x00, 0x00, 0x00, 0x00, 0x00,
  49:ssd1306.c     **** 0x00, 0x00, 0x00, 0x00, 0x00, 0x00, 0x00, 0x00, 0x00, 0x00, 0x00, 0x00, 0x00, 0x00, 0x00, 0x00,
  50:ssd1306.c     **** 0x00, 0x00, 0x00, 0x00, 0x00, 0x00, 0x00, 0x00, 0x00, 0x00, 0x00, 0x00, 0x00, 0x00, 0x00, 0x00,
  51:ssd1306.c     **** 0x00, 0x00, 0x00, 0x00, 0x80, 0xC0, 0xE0, 0xF0, 0xF8, 0xFC, 0xF8, 0xE0, 0x00, 0x00, 0x00, 0x00,
  52:ssd1306.c     **** 0x00, 0x00, 0x00, 0x00, 0x00, 0x00, 0x00, 0x00, 0x00, 0x00, 0x00, 0x00, 0x00, 0x80, 0x80, 0x80,
  53:ssd1306.c     **** 0x80, 0x80, 0x00, 0x80, 0x80, 0x00, 0x00, 0x00, 0x00, 0x80, 0x80, 0x80, 0x80, 0x80, 0x00, 0xFF
  54:ssd1306.c     **** #if (SSD1306_LCDHEIGHT * SSD1306_LCDWIDTH > 96*16)
  55:ssd1306.c     **** ,
  56:ssd1306.c     **** 0xFF, 0xFF, 0x00, 0x00, 0x00, 0x00, 0x80, 0x80, 0x80, 0x80, 0x00, 0x00, 0x80, 0x80, 0x00, 0x00,
  57:ssd1306.c     **** 0x80, 0xFF, 0xFF, 0x80, 0x80, 0x00, 0x80, 0x80, 0x00, 0x80, 0x80, 0x80, 0x80, 0x00, 0x80, 0x80,
  58:ssd1306.c     **** 0x00, 0x00, 0x00, 0x00, 0x00, 0x80, 0x80, 0x00, 0x00, 0x8C, 0x8E, 0x84, 0x00, 0x00, 0x80, 0xF8,
  59:ssd1306.c     **** 0xF8, 0xF8, 0x80, 0x00, 0x00, 0x00, 0x00, 0x00, 0x00, 0x00, 0x00, 0x00, 0x00, 0x00, 0x00, 0x00,
  60:ssd1306.c     **** 0xF0, 0xF0, 0xF0, 0xF0, 0xF0, 0xF0, 0xF0, 0xF0, 0xF0, 0xF0, 0xF0, 0xF0, 0xE0, 0xE0, 0xC0, 0x80,
  61:ssd1306.c     **** 0x00, 0xE0, 0xFC, 0xFE, 0xFF, 0xFF, 0xFF, 0x7F, 0xFF, 0xFF, 0xFF, 0xFF, 0xFF, 0x00, 0x00, 0x00,
  62:ssd1306.c     **** 0x00, 0x00, 0x00, 0x00, 0x00, 0x00, 0x00, 0x00, 0x00, 0x00, 0x00, 0xFE, 0xFF, 0xC7, 0x01, 0x01,
  63:ssd1306.c     **** 0x01, 0x01, 0x83, 0xFF, 0xFF, 0x00, 0x00, 0x7C, 0xFE, 0xC7, 0x01, 0x01, 0x01, 0x01, 0x83, 0xFF,
  64:ssd1306.c     **** 0xFF, 0xFF, 0x00, 0x38, 0xFE, 0xC7, 0x83, 0x01, 0x01, 0x01, 0x83, 0xC7, 0xFF, 0xFF, 0x00, 0x00,
  65:ssd1306.c     **** 0x01, 0xFF, 0xFF, 0x01, 0x01, 0x00, 0xFF, 0xFF, 0x07, 0x01, 0x01, 0x01, 0x00, 0x00, 0x7F, 0xFF,
  66:ssd1306.c     **** 0x80, 0x00, 0x00, 0x00, 0xFF, 0xFF, 0x7F, 0x00, 0x00, 0xFF, 0xFF, 0xFF, 0x00, 0x00, 0x01, 0xFF,
  67:ssd1306.c     **** 0xFF, 0xFF, 0x01, 0x00, 0x00, 0x00, 0x00, 0x00, 0x00, 0x00, 0x00, 0x00, 0x00, 0x00, 0x00, 0x00,
  68:ssd1306.c     **** 0x03, 0x0F, 0x3F, 0x7F, 0x7F, 0xFF, 0xFF, 0xFF, 0xFF, 0xFF, 0xFF, 0xFF, 0xE7, 0xC7, 0xC7, 0x8F,
  69:ssd1306.c     **** 0x8F, 0x9F, 0xBF, 0xFF, 0xFF, 0xC3, 0xC0, 0xF0, 0xFF, 0xFF, 0xFF, 0xFF, 0xFF, 0xFC, 0xFC, 0xFC,
  70:ssd1306.c     **** 0xFC, 0xFC, 0xFC, 0xFC, 0xFC, 0xF8, 0xF8, 0xF0, 0xF0, 0xE0, 0xC0, 0x00, 0x01, 0x03, 0x03, 0x03,
  71:ssd1306.c     **** 0x03, 0x03, 0x01, 0x03, 0x03, 0x00, 0x00, 0x00, 0x00, 0x01, 0x03, 0x03, 0x03, 0x03, 0x01, 0x01,
  72:ssd1306.c     **** 0x03, 0x01, 0x00, 0x00, 0x00, 0x01, 0x03, 0x03, 0x03, 0x03, 0x01, 0x01, 0x03, 0x03, 0x00, 0x00,
  73:ssd1306.c     **** 0x00, 0x03, 0x03, 0x00, 0x00, 0x00, 0x03, 0x03, 0x00, 0x00, 0x00, 0x00, 0x00, 0x00, 0x00, 0x01,
  74:ssd1306.c     **** 0x03, 0x03, 0x03, 0x03, 0x03, 0x01, 0x00, 0x00, 0x00, 0x01, 0x03, 0x01, 0x00, 0x00, 0x00, 0x03,
  75:ssd1306.c     **** 0x03, 0x01, 0x00, 0x00, 0x00, 0x00, 0x00, 0x00, 0x00, 0x00, 0x00, 0x00, 0x00, 0x00, 0x00, 0x00
  76:ssd1306.c     **** #if (SSD1306_LCDHEIGHT == 64)
  77:ssd1306.c     **** ,
  78:ssd1306.c     **** 0x00, 0x00, 0x00, 0x80, 0xC0, 0xE0, 0xF0, 0xF9, 0xFF, 0xFF, 0xFF, 0xFF, 0xFF, 0x3F, 0x1F, 0x0F,
  79:ssd1306.c     **** 0x87, 0xC7, 0xF7, 0xFF, 0xFF, 0x1F, 0x1F, 0x3D, 0xFC, 0xF8, 0xF8, 0xF8, 0xF8, 0x7C, 0x7D, 0xFF,
  80:ssd1306.c     **** 0xFF, 0xFF, 0xFF, 0xFF, 0xFF, 0xFF, 0xFF, 0x7F, 0x3F, 0x0F, 0x07, 0x00, 0x30, 0x30, 0x00, 0x00,
  81:ssd1306.c     **** 0x00, 0x00, 0x00, 0x00, 0x00, 0x00, 0x00, 0x00, 0x00, 0x00, 0x00, 0x00, 0x00, 0x00, 0x00, 0x00,
  82:ssd1306.c     **** 0x00, 0x00, 0x00, 0x00, 0xFE, 0xFE, 0xFC, 0x00, 0x00, 0x00, 0x00, 0x00, 0x00, 0x00, 0x00, 0x00,
  83:ssd1306.c     **** 0x00, 0x00, 0x00, 0x00, 0x00, 0x00, 0x00, 0x00, 0x00, 0x00, 0x00, 0x00, 0x00, 0xE0, 0xC0, 0x00,
  84:ssd1306.c     **** 0x00, 0x00, 0x00, 0x00, 0x00, 0x00, 0x00, 0x00, 0x00, 0x00, 0x30, 0x30, 0x00, 0x00, 0x00, 0x00,
  85:ssd1306.c     **** 0x00, 0x00, 0x00, 0x00, 0x00, 0x00, 0x00, 0x00, 0x00, 0x00, 0x00, 0x00, 0x00, 0x00, 0x00, 0x00,
  86:ssd1306.c     **** 0x00, 0xC0, 0xFE, 0xFF, 0xFF, 0xFF, 0xFF, 0xFF, 0xFF, 0xFF, 0xFF, 0xFF, 0x7F, 0x7F, 0x3F, 0x1F,
  87:ssd1306.c     **** 0x0F, 0x07, 0x1F, 0x7F, 0xFF, 0xFF, 0xF8, 0xF8, 0xFF, 0xFF, 0xFF, 0xFF, 0xFF, 0xFE, 0xF8, 0xE0,
ARM GAS  C:\Users\PC\AppData\Local\Temp\ccoEr05J.s 			page 3


  88:ssd1306.c     **** 0x00, 0x00, 0x00, 0x01, 0x00, 0x00, 0x00, 0x00, 0x00, 0x00, 0x00, 0x00, 0xFE, 0xFE, 0x00, 0x00,
  89:ssd1306.c     **** 0x00, 0xFC, 0xFE, 0xFC, 0x0C, 0x06, 0x06, 0x0E, 0xFC, 0xF8, 0x00, 0x00, 0xF0, 0xF8, 0x1C, 0x0E,
  90:ssd1306.c     **** 0x06, 0x06, 0x06, 0x0C, 0xFF, 0xFF, 0xFF, 0x00, 0x00, 0xFE, 0xFE, 0x00, 0x00, 0x00, 0x00, 0xFC,
  91:ssd1306.c     **** 0xFE, 0xFC, 0x00, 0x18, 0x3C, 0x7E, 0x66, 0xE6, 0xCE, 0x84, 0x00, 0x00, 0x06, 0xFF, 0xFF, 0x06,
  92:ssd1306.c     **** 0x06, 0xFC, 0xFE, 0xFC, 0x0C, 0x06, 0x06, 0x06, 0x00, 0x00, 0xFE, 0xFE, 0x00, 0x00, 0xC0, 0xF8,
  93:ssd1306.c     **** 0xFC, 0x4E, 0x46, 0x46, 0x46, 0x4E, 0x7C, 0x78, 0x40, 0x18, 0x3C, 0x76, 0xE6, 0xCE, 0xCC, 0x80,
  94:ssd1306.c     **** 0x00, 0x00, 0x00, 0x00, 0x00, 0x00, 0x00, 0x00, 0x00, 0x00, 0x00, 0x00, 0x00, 0x00, 0x00, 0x00,
  95:ssd1306.c     **** 0x00, 0x00, 0x00, 0x00, 0x01, 0x07, 0x0F, 0x1F, 0x1F, 0x3F, 0x3F, 0x3F, 0x3F, 0x1F, 0x0F, 0x03,
  96:ssd1306.c     **** 0x00, 0x00, 0x00, 0x00, 0x00, 0x00, 0x00, 0x00, 0x00, 0x00, 0x00, 0x00, 0x0F, 0x0F, 0x00, 0x00,
  97:ssd1306.c     **** 0x00, 0x0F, 0x0F, 0x0F, 0x00, 0x00, 0x00, 0x00, 0x0F, 0x0F, 0x00, 0x00, 0x03, 0x07, 0x0E, 0x0C,
  98:ssd1306.c     **** 0x18, 0x18, 0x0C, 0x06, 0x0F, 0x0F, 0x0F, 0x00, 0x00, 0x01, 0x0F, 0x0E, 0x0C, 0x18, 0x0C, 0x0F,
  99:ssd1306.c     **** 0x07, 0x01, 0x00, 0x04, 0x0E, 0x0C, 0x18, 0x0C, 0x0F, 0x07, 0x00, 0x00, 0x00, 0x0F, 0x0F, 0x00,
 100:ssd1306.c     **** 0x00, 0x0F, 0x0F, 0x0F, 0x00, 0x00, 0x00, 0x00, 0x00, 0x00, 0x0F, 0x0F, 0x00, 0x00, 0x00, 0x07,
 101:ssd1306.c     **** 0x07, 0x0C, 0x0C, 0x18, 0x1C, 0x0C, 0x06, 0x06, 0x00, 0x04, 0x0E, 0x0C, 0x18, 0x0C, 0x0F, 0x07,
 102:ssd1306.c     **** 0x00, 0x00, 0x00, 0x00, 0x00, 0x00, 0x00, 0x00, 0x00, 0x00, 0x00, 0x00, 0x00, 0x00, 0x00, 0x00,
 103:ssd1306.c     **** 0x00, 0x00, 0x00, 0x00, 0x00, 0x00, 0x00, 0x00, 0x00, 0x00, 0x00, 0x00, 0x00, 0x00, 0x00, 0x00,
 104:ssd1306.c     **** 0x00, 0x00, 0x00, 0x00, 0x00, 0x00, 0x00, 0x00, 0x00, 0x00, 0x00, 0x00, 0x00, 0x00, 0x00, 0x00,
 105:ssd1306.c     **** 0x00, 0x00, 0x00, 0x00, 0x00, 0x00, 0x00, 0x00, 0x00, 0x00, 0x00, 0x00, 0x00, 0x00, 0x00, 0x00,
 106:ssd1306.c     **** 0x00, 0x00, 0x00, 0x00, 0x00, 0x00, 0x00, 0x00, 0x00, 0x00, 0x00, 0x00, 0x00, 0x00, 0x00, 0x00,
 107:ssd1306.c     **** 0x00, 0x00, 0x00, 0x00, 0x00, 0x00, 0x00, 0x00, 0x00, 0x00, 0x00, 0x00, 0x00, 0x00, 0x00, 0x00,
 108:ssd1306.c     **** 0x00, 0x00, 0x00, 0x00, 0x00, 0x00, 0x00, 0x00, 0x00, 0x00, 0x00, 0x00, 0x00, 0x00, 0x00, 0x00,
 109:ssd1306.c     **** 0x00, 0x00, 0x00, 0x00, 0x00, 0x00, 0x00, 0x00, 0x00, 0x00, 0x00, 0x00, 0x00, 0x00, 0x00, 0x00
 110:ssd1306.c     **** #endif
 111:ssd1306.c     **** #endif
 112:ssd1306.c     **** };
 113:ssd1306.c     **** 
 114:ssd1306.c     **** void ssd1306_command(uint8_t c) {
  28              		.loc 1 114 0
  29              		.cfi_startproc
  30              		@ args = 0, pretend = 0, frame = 8
  31              		@ frame_needed = 0, uses_anonymous_args = 0
  32              	.LVL0:
  33 0000 10B5     		push	{r4, lr}
  34              		.cfi_def_cfa_offset 8
  35              		.cfi_offset 4, -8
  36              		.cfi_offset 14, -4
  37 0002 82B0     		sub	sp, sp, #8
  38              		.cfi_def_cfa_offset 16
  39 0004 6B46     		mov	r3, sp
  40 0006 DC1D     		adds	r4, r3, #7
  41 0008 D871     		strb	r0, [r3, #7]
 115:ssd1306.c     ****     #ifdef SSD1306_SPI_MODE
 116:ssd1306.c     ****     pOledDc_Write(0);
  42              		.loc 1 116 0
  43 000a 0020     		movs	r0, #0
  44              	.LVL1:
  45 000c FFF7FEFF 		bl	pOledDc_Write
  46              	.LVL2:
 117:ssd1306.c     ****     mSPI_SpiUartPutArray(&c, 1);
  47              		.loc 1 117 0
  48 0010 0121     		movs	r1, #1
  49 0012 2000     		movs	r0, r4
  50 0014 FFF7FEFF 		bl	mSPI_SpiUartPutArray
  51              	.LVL3:
  52              	.L3:
 118:ssd1306.c     ****     while (0u != (mSPI_SpiUartGetTxBufferSize() + mSPI_GET_TX_FIFO_SR_VALID));
  53              		.loc 1 118 0 discriminator 5
ARM GAS  C:\Users\PC\AppData\Local\Temp\ccoEr05J.s 			page 4


  54 0018 FFF7FEFF 		bl	mSPI_SpiUartGetTxBufferSize
  55              	.LVL4:
  56 001c 074B     		ldr	r3, .L4
  57 001e 1B68     		ldr	r3, [r3]
  58 0020 8022     		movs	r2, #128
  59 0022 1202     		lsls	r2, r2, #8
  60 0024 1340     		ands	r3, r2
  61 0026 00D0     		beq	.L2
  62              		.loc 1 118 0 is_stmt 0
  63 0028 0123     		movs	r3, #1
  64              	.L2:
  65              		.loc 1 118 0 discriminator 4
  66 002a 1B18     		adds	r3, r3, r0
  67 002c 002B     		cmp	r3, #0
  68 002e F3D1     		bne	.L3
 119:ssd1306.c     ****     pOledDc_Write(1);
  69              		.loc 1 119 0 is_stmt 1
  70 0030 0120     		movs	r0, #1
  71 0032 FFF7FEFF 		bl	pOledDc_Write
  72              	.LVL5:
 120:ssd1306.c     ****     #else
 121:ssd1306.c     ****     uint8_t control = 0x00;   // Co = 0, D/C = 0
 122:ssd1306.c     ****     SSD1306_I2C_Start;
 123:ssd1306.c     ****     SSD1306_I2C_Write(_i2caddr);
 124:ssd1306.c     ****     SSD1306_I2C_Write(control);
 125:ssd1306.c     ****     SSD1306_I2C_Write(c);
 126:ssd1306.c     ****     SSD1306_I2C_Stop;
 127:ssd1306.c     ****     #endif
 128:ssd1306.c     **** }
  73              		.loc 1 128 0
  74 0036 02B0     		add	sp, sp, #8
  75              		@ sp needed
  76              	.LVL6:
  77 0038 10BD     		pop	{r4, pc}
  78              	.L5:
  79 003a C046     		.align	2
  80              	.L4:
  81 003c 08020940 		.word	1074332168
  82              		.cfi_endproc
  83              	.LFE33:
  84              		.size	ssd1306_command, .-ssd1306_command
  85              		.section	.text.SSD1306_begin,"ax",%progbits
  86              		.align	2
  87              		.global	SSD1306_begin
  88              		.code	16
  89              		.thumb_func
  90              		.type	SSD1306_begin, %function
  91              	SSD1306_begin:
  92              	.LFB34:
 129:ssd1306.c     **** 
 130:ssd1306.c     **** #ifdef SSD1306_SPI_MODE
 131:ssd1306.c     **** void SSD1306_begin(uint8_t vccstate) {
  93              		.loc 1 131 0
  94              		.cfi_startproc
  95              		@ args = 0, pretend = 0, frame = 0
  96              		@ frame_needed = 0, uses_anonymous_args = 0
  97              	.LVL7:
ARM GAS  C:\Users\PC\AppData\Local\Temp\ccoEr05J.s 			page 5


  98 0000 10B5     		push	{r4, lr}
  99              		.cfi_def_cfa_offset 8
 100              		.cfi_offset 4, -8
 101              		.cfi_offset 14, -4
 102 0002 0400     		movs	r4, r0
 132:ssd1306.c     **** #else
 133:ssd1306.c     **** void SSD1306_begin(uint8_t vccstate, uint8_t i2caddr) {
 134:ssd1306.c     ****     _i2caddr  = i2caddr;
 135:ssd1306.c     **** #endif
 136:ssd1306.c     ****     _vccstate = vccstate;
 103              		.loc 1 136 0
 104 0004 3B4B     		ldr	r3, .L13
 105 0006 1870     		strb	r0, [r3]
 137:ssd1306.c     ****     CyDelay(10);//delay_ms(10);
 106              		.loc 1 137 0
 107 0008 0A20     		movs	r0, #10
 108              	.LVL8:
 109 000a FFF7FEFF 		bl	CyDelay
 110              	.LVL9:
 138:ssd1306.c     **** 
 139:ssd1306.c     ****   #ifdef SSD1306_SPI_MODE
 140:ssd1306.c     ****     //pOledDc_Write(HIGH);//output_high(SSD1306_DC);
 141:ssd1306.c     ****     //pOledSs_Write(HIGH);//output_high(SSD1306_CS);
 142:ssd1306.c     ****     pOledDc_Write(1);
 111              		.loc 1 142 0
 112 000e 0120     		movs	r0, #1
 113 0010 FFF7FEFF 		bl	pOledDc_Write
 114              	.LVL10:
 143:ssd1306.c     ****     //output_drive(SSD1306_DC);
 144:ssd1306.c     ****     //output_drive(SSD1306_CS);
 145:ssd1306.c     ****   #endif
 146:ssd1306.c     **** 
 147:ssd1306.c     ****   #ifdef SSD1306_RST
 148:ssd1306.c     ****     pOledReset_Write(0);
 115              		.loc 1 148 0
 116 0014 0020     		movs	r0, #0
 117 0016 FFF7FEFF 		bl	pOledReset_Write
 118              	.LVL11:
 149:ssd1306.c     ****     //output_drive(SSD1306_RST);
 150:ssd1306.c     ****     CyDelay(10);
 119              		.loc 1 150 0
 120 001a 0A20     		movs	r0, #10
 121 001c FFF7FEFF 		bl	CyDelay
 122              	.LVL12:
 151:ssd1306.c     ****     pOledReset_Write(1);
 123              		.loc 1 151 0
 124 0020 0120     		movs	r0, #1
 125 0022 FFF7FEFF 		bl	pOledReset_Write
 126              	.LVL13:
 152:ssd1306.c     ****   #endif
 153:ssd1306.c     **** 
 154:ssd1306.c     ****     // Init sequence
 155:ssd1306.c     ****     ssd1306_command(SSD1306_DISPLAYOFF);                    // 0xAE
 127              		.loc 1 155 0
 128 0026 AE20     		movs	r0, #174
 129 0028 FFF7FEFF 		bl	ssd1306_command
 130              	.LVL14:
ARM GAS  C:\Users\PC\AppData\Local\Temp\ccoEr05J.s 			page 6


 156:ssd1306.c     ****     ssd1306_command(SSD1306_SETDISPLAYCLOCKDIV);            // 0xD5
 131              		.loc 1 156 0
 132 002c D520     		movs	r0, #213
 133 002e FFF7FEFF 		bl	ssd1306_command
 134              	.LVL15:
 157:ssd1306.c     ****     ssd1306_command(0x80);                                  // the suggested ratio 0x80
 135              		.loc 1 157 0
 136 0032 8020     		movs	r0, #128
 137 0034 FFF7FEFF 		bl	ssd1306_command
 138              	.LVL16:
 158:ssd1306.c     **** 
 159:ssd1306.c     ****     ssd1306_command(SSD1306_SETMULTIPLEX);                  // 0xA8
 139              		.loc 1 159 0
 140 0038 A820     		movs	r0, #168
 141 003a FFF7FEFF 		bl	ssd1306_command
 142              	.LVL17:
 160:ssd1306.c     ****     ssd1306_command(SSD1306_LCDHEIGHT - 1);
 143              		.loc 1 160 0
 144 003e 3F20     		movs	r0, #63
 145 0040 FFF7FEFF 		bl	ssd1306_command
 146              	.LVL18:
 161:ssd1306.c     **** 
 162:ssd1306.c     ****     ssd1306_command(SSD1306_SETDISPLAYOFFSET);              // 0xD3
 147              		.loc 1 162 0
 148 0044 D320     		movs	r0, #211
 149 0046 FFF7FEFF 		bl	ssd1306_command
 150              	.LVL19:
 163:ssd1306.c     ****     ssd1306_command(0x0);                                   // no offset
 151              		.loc 1 163 0
 152 004a 0020     		movs	r0, #0
 153 004c FFF7FEFF 		bl	ssd1306_command
 154              	.LVL20:
 164:ssd1306.c     ****     ssd1306_command(SSD1306_SETSTARTLINE | 0x0);            // line #0
 155              		.loc 1 164 0
 156 0050 4020     		movs	r0, #64
 157 0052 FFF7FEFF 		bl	ssd1306_command
 158              	.LVL21:
 165:ssd1306.c     ****     ssd1306_command(SSD1306_CHARGEPUMP);                    // 0x8D
 159              		.loc 1 165 0
 160 0056 8D20     		movs	r0, #141
 161 0058 FFF7FEFF 		bl	ssd1306_command
 162              	.LVL22:
 166:ssd1306.c     ****     if (vccstate == SSD1306_EXTERNALVCC)
 163              		.loc 1 166 0
 164 005c 012C     		cmp	r4, #1
 165 005e 03D1     		bne	.L7
 167:ssd1306.c     ****         { ssd1306_command(0x10); }
 166              		.loc 1 167 0
 167 0060 1020     		movs	r0, #16
 168 0062 FFF7FEFF 		bl	ssd1306_command
 169              	.LVL23:
 170 0066 02E0     		b	.L8
 171              	.L7:
 168:ssd1306.c     ****     else
 169:ssd1306.c     ****         { ssd1306_command(0x14); }
 172              		.loc 1 169 0
 173 0068 1420     		movs	r0, #20
ARM GAS  C:\Users\PC\AppData\Local\Temp\ccoEr05J.s 			page 7


 174 006a FFF7FEFF 		bl	ssd1306_command
 175              	.LVL24:
 176              	.L8:
 170:ssd1306.c     ****     ssd1306_command(SSD1306_MEMORYMODE);                    // 0x20
 177              		.loc 1 170 0
 178 006e 2020     		movs	r0, #32
 179 0070 FFF7FEFF 		bl	ssd1306_command
 180              	.LVL25:
 171:ssd1306.c     ****     ssd1306_command(0x00);                                  // 0x0 act like ks0108
 181              		.loc 1 171 0
 182 0074 0020     		movs	r0, #0
 183 0076 FFF7FEFF 		bl	ssd1306_command
 184              	.LVL26:
 172:ssd1306.c     ****     ssd1306_command(SSD1306_SEGREMAP | 0x1);
 185              		.loc 1 172 0
 186 007a A120     		movs	r0, #161
 187 007c FFF7FEFF 		bl	ssd1306_command
 188              	.LVL27:
 173:ssd1306.c     ****     ssd1306_command(SSD1306_COMSCANDEC);
 189              		.loc 1 173 0
 190 0080 C820     		movs	r0, #200
 191 0082 FFF7FEFF 		bl	ssd1306_command
 192              	.LVL28:
 174:ssd1306.c     **** 
 175:ssd1306.c     ****  #if defined SSD1306_128_32
 176:ssd1306.c     ****     ssd1306_command(SSD1306_SETCOMPINS);                    // 0xDA
 177:ssd1306.c     ****     ssd1306_command(0x02);
 178:ssd1306.c     ****     ssd1306_command(SSD1306_SETCONTRAST);                   // 0x81
 179:ssd1306.c     ****     ssd1306_command(0x8F);
 180:ssd1306.c     **** 
 181:ssd1306.c     **** #elif defined SSD1306_128_64
 182:ssd1306.c     ****     ssd1306_command(SSD1306_SETCOMPINS);                    // 0xDA
 193              		.loc 1 182 0
 194 0086 DA20     		movs	r0, #218
 195 0088 FFF7FEFF 		bl	ssd1306_command
 196              	.LVL29:
 183:ssd1306.c     ****     ssd1306_command(0x12);
 197              		.loc 1 183 0
 198 008c 1220     		movs	r0, #18
 199 008e FFF7FEFF 		bl	ssd1306_command
 200              	.LVL30:
 184:ssd1306.c     ****     ssd1306_command(SSD1306_SETCONTRAST);                   // 0x81
 201              		.loc 1 184 0
 202 0092 8120     		movs	r0, #129
 203 0094 FFF7FEFF 		bl	ssd1306_command
 204              	.LVL31:
 185:ssd1306.c     ****     if (vccstate == SSD1306_EXTERNALVCC)
 205              		.loc 1 185 0
 206 0098 012C     		cmp	r4, #1
 207 009a 03D1     		bne	.L9
 186:ssd1306.c     ****         { ssd1306_command(0x9F); }
 208              		.loc 1 186 0
 209 009c 9F20     		movs	r0, #159
 210 009e FFF7FEFF 		bl	ssd1306_command
 211              	.LVL32:
 212 00a2 02E0     		b	.L10
 213              	.L9:
ARM GAS  C:\Users\PC\AppData\Local\Temp\ccoEr05J.s 			page 8


 187:ssd1306.c     ****     else
 188:ssd1306.c     ****         { ssd1306_command(0xCF); }
 214              		.loc 1 188 0
 215 00a4 CF20     		movs	r0, #207
 216 00a6 FFF7FEFF 		bl	ssd1306_command
 217              	.LVL33:
 218              	.L10:
 189:ssd1306.c     **** 
 190:ssd1306.c     **** #elif defined SSD1306_96_16
 191:ssd1306.c     ****     ssd1306_command(SSD1306_SETCOMPINS);                    // 0xDA
 192:ssd1306.c     ****     ssd1306_command(0x2);   //ada x12
 193:ssd1306.c     ****     ssd1306_command(SSD1306_SETCONTRAST);                   // 0x81
 194:ssd1306.c     ****     if (vccstate == SSD1306_EXTERNALVCC)
 195:ssd1306.c     ****         { ssd1306_command(0x10); }
 196:ssd1306.c     ****     else
 197:ssd1306.c     ****         { ssd1306_command(0xAF); }
 198:ssd1306.c     **** 
 199:ssd1306.c     **** #endif
 200:ssd1306.c     **** 
 201:ssd1306.c     ****     ssd1306_command(SSD1306_SETPRECHARGE);                  // 0xd9
 219              		.loc 1 201 0
 220 00aa D920     		movs	r0, #217
 221 00ac FFF7FEFF 		bl	ssd1306_command
 222              	.LVL34:
 202:ssd1306.c     ****     if (vccstate == SSD1306_EXTERNALVCC)
 223              		.loc 1 202 0
 224 00b0 012C     		cmp	r4, #1
 225 00b2 03D1     		bne	.L11
 203:ssd1306.c     ****         { ssd1306_command(0x22); }
 226              		.loc 1 203 0
 227 00b4 2220     		movs	r0, #34
 228 00b6 FFF7FEFF 		bl	ssd1306_command
 229              	.LVL35:
 230 00ba 02E0     		b	.L12
 231              	.L11:
 204:ssd1306.c     ****     else
 205:ssd1306.c     ****         { ssd1306_command(0xF1); }
 232              		.loc 1 205 0
 233 00bc F120     		movs	r0, #241
 234 00be FFF7FEFF 		bl	ssd1306_command
 235              	.LVL36:
 236              	.L12:
 206:ssd1306.c     ****     ssd1306_command(SSD1306_SETVCOMDETECT);                 // 0xDB
 237              		.loc 1 206 0
 238 00c2 DB20     		movs	r0, #219
 239 00c4 FFF7FEFF 		bl	ssd1306_command
 240              	.LVL37:
 207:ssd1306.c     ****     ssd1306_command(0x40);
 241              		.loc 1 207 0
 242 00c8 4020     		movs	r0, #64
 243 00ca FFF7FEFF 		bl	ssd1306_command
 244              	.LVL38:
 208:ssd1306.c     ****     ssd1306_command(SSD1306_DISPLAYALLON_RESUME);           // 0xA4
 245              		.loc 1 208 0
 246 00ce A420     		movs	r0, #164
 247 00d0 FFF7FEFF 		bl	ssd1306_command
 248              	.LVL39:
ARM GAS  C:\Users\PC\AppData\Local\Temp\ccoEr05J.s 			page 9


 209:ssd1306.c     ****     ssd1306_command(SSD1306_NORMALDISPLAY);                 // 0xA6
 249              		.loc 1 209 0
 250 00d4 A620     		movs	r0, #166
 251 00d6 FFF7FEFF 		bl	ssd1306_command
 252              	.LVL40:
 210:ssd1306.c     **** 
 211:ssd1306.c     ****     ssd1306_command(SSD1306_DEACTIVATE_SCROLL);
 253              		.loc 1 211 0
 254 00da 2E20     		movs	r0, #46
 255 00dc FFF7FEFF 		bl	ssd1306_command
 256              	.LVL41:
 212:ssd1306.c     **** 
 213:ssd1306.c     ****     ssd1306_command(SSD1306_DISPLAYON);  //--turn on oled panel
 257              		.loc 1 213 0
 258 00e0 AF20     		movs	r0, #175
 259 00e2 FFF7FEFF 		bl	ssd1306_command
 260              	.LVL42:
 214:ssd1306.c     **** 
 215:ssd1306.c     ****     _height = SSD1306_LCDHEIGHT;
 261              		.loc 1 215 0
 262 00e6 4022     		movs	r2, #64
 263 00e8 034B     		ldr	r3, .L13+4
 264 00ea 1A70     		strb	r2, [r3]
 216:ssd1306.c     ****     _width  = SSD1306_LCDWIDTH;
 265              		.loc 1 216 0
 266 00ec 4032     		adds	r2, r2, #64
 267 00ee 034B     		ldr	r3, .L13+8
 268 00f0 1A70     		strb	r2, [r3]
 217:ssd1306.c     **** }
 269              		.loc 1 217 0
 270              		@ sp needed
 271 00f2 10BD     		pop	{r4, pc}
 272              	.L14:
 273              		.align	2
 274              	.L13:
 275 00f4 00000000 		.word	_vccstate
 276 00f8 00000000 		.word	_height
 277 00fc 00000000 		.word	_width
 278              		.cfi_endproc
 279              	.LFE34:
 280              		.size	SSD1306_begin, .-SSD1306_begin
 281              		.section	.text.drawPixel,"ax",%progbits
 282              		.align	2
 283              		.global	drawPixel
 284              		.code	16
 285              		.thumb_func
 286              		.type	drawPixel, %function
 287              	drawPixel:
 288              	.LFB35:
 218:ssd1306.c     **** 
 219:ssd1306.c     **** // the most basic function, set a single pixel
 220:ssd1306.c     **** void drawPixel(uint8_t x, uint8_t y, uint8_t color) {
 289              		.loc 1 220 0
 290              		.cfi_startproc
 291              		@ args = 0, pretend = 0, frame = 0
 292              		@ frame_needed = 0, uses_anonymous_args = 0
 293              		@ link register save eliminated.
ARM GAS  C:\Users\PC\AppData\Local\Temp\ccoEr05J.s 			page 10


 294              	.LVL43:
 221:ssd1306.c     ****     if ((x >= _width) || (y >= _height))
 295              		.loc 1 221 0
 296 0000 254B     		ldr	r3, .L24
 297 0002 1B78     		ldrb	r3, [r3]
 298 0004 8342     		cmp	r3, r0
 299 0006 45D9     		bls	.L15
 300              		.loc 1 221 0 is_stmt 0 discriminator 1
 301 0008 244B     		ldr	r3, .L24+4
 302 000a 1B78     		ldrb	r3, [r3]
 303 000c 8B42     		cmp	r3, r1
 304 000e 41D9     		bls	.L15
 222:ssd1306.c     ****         return;
 223:ssd1306.c     **** 
 224:ssd1306.c     ****     // check rotation, move pixel around if necessary
 225:ssd1306.c     ****     switch (rotation) {
 305              		.loc 1 225 0 is_stmt 1
 306 0010 234B     		ldr	r3, .L24+8
 307 0012 1B78     		ldrb	r3, [r3]
 308 0014 022B     		cmp	r3, #2
 309 0016 08D0     		beq	.L18
 310 0018 032B     		cmp	r3, #3
 311 001a 0DD0     		beq	.L19
 312 001c 012B     		cmp	r3, #1
 313 001e 0FD1     		bne	.L17
 314              	.LVL44:
 226:ssd1306.c     ****         case 1:
 227:ssd1306.c     ****             ssd1306_swap(x, y);
 228:ssd1306.c     ****             x = SSD1306_LCDWIDTH - x - 1;
 315              		.loc 1 228 0
 316 0020 7F23     		movs	r3, #127
 317 0022 5B1A     		subs	r3, r3, r1
 318              	.LVL45:
 319              	.LBB2:
 227:ssd1306.c     ****             x = SSD1306_LCDWIDTH - x - 1;
 320              		.loc 1 227 0
 321 0024 0100     		movs	r1, r0
 322              	.LBE2:
 323              		.loc 1 228 0
 324 0026 D8B2     		uxtb	r0, r3
 325              	.LVL46:
 229:ssd1306.c     ****             break;
 326              		.loc 1 229 0
 327 0028 0AE0     		b	.L17
 328              	.LVL47:
 329              	.L18:
 230:ssd1306.c     ****         case 2:
 231:ssd1306.c     ****             x = SSD1306_LCDWIDTH - x - 1;
 330              		.loc 1 231 0
 331 002a 7F23     		movs	r3, #127
 332 002c 181A     		subs	r0, r3, r0
 333              	.LVL48:
 334 002e C0B2     		uxtb	r0, r0
 335              	.LVL49:
 232:ssd1306.c     ****             y = SSD1306_LCDHEIGHT - y - 1;
 336              		.loc 1 232 0
 337 0030 3F23     		movs	r3, #63
ARM GAS  C:\Users\PC\AppData\Local\Temp\ccoEr05J.s 			page 11


 338 0032 591A     		subs	r1, r3, r1
 339              	.LVL50:
 340 0034 C9B2     		uxtb	r1, r1
 341              	.LVL51:
 233:ssd1306.c     ****             break;
 342              		.loc 1 233 0
 343 0036 03E0     		b	.L17
 344              	.L19:
 345              	.LVL52:
 234:ssd1306.c     ****         case 3:
 235:ssd1306.c     ****             ssd1306_swap(x, y);
 236:ssd1306.c     ****             y = SSD1306_LCDHEIGHT - y - 1;
 346              		.loc 1 236 0
 347 0038 3F23     		movs	r3, #63
 348 003a 1B1A     		subs	r3, r3, r0
 349              	.LVL53:
 350              	.LBB3:
 235:ssd1306.c     ****             y = SSD1306_LCDHEIGHT - y - 1;
 351              		.loc 1 235 0
 352 003c 0800     		movs	r0, r1
 353              	.LVL54:
 354              	.LBE3:
 355              		.loc 1 236 0
 356 003e D9B2     		uxtb	r1, r3
 357              	.LVL55:
 358              	.L17:
 237:ssd1306.c     ****             break;
 238:ssd1306.c     ****     }
 239:ssd1306.c     **** 
 240:ssd1306.c     ****   // x is which column
 241:ssd1306.c     ****     switch (color) {
 359              		.loc 1 241 0
 360 0040 012A     		cmp	r2, #1
 361 0042 04D0     		beq	.L21
 362 0044 002A     		cmp	r2, #0
 363 0046 0ED0     		beq	.L22
 364 0048 022A     		cmp	r2, #2
 365 004a 18D0     		beq	.L23
 366 004c 22E0     		b	.L15
 367              	.L21:
 242:ssd1306.c     ****       case WHITE:   ssd1306_buffer[x + (uint16_t)(y/8) * SSD1306_LCDWIDTH] |=  (1 << (y&7)); break;
 368              		.loc 1 242 0
 369 004e CB08     		lsrs	r3, r1, #3
 370 0050 DB01     		lsls	r3, r3, #7
 371 0052 1818     		adds	r0, r3, r0
 372              	.LVL56:
 373 0054 0723     		movs	r3, #7
 374 0056 1940     		ands	r1, r3
 375              	.LVL57:
 376 0058 063B     		subs	r3, r3, #6
 377 005a 8B40     		lsls	r3, r3, r1
 378 005c 114A     		ldr	r2, .L24+12
 379              	.LVL58:
 380 005e 115C     		ldrb	r1, [r2, r0]
 381 0060 0B43     		orrs	r3, r1
 382 0062 1354     		strb	r3, [r2, r0]
 383 0064 16E0     		b	.L15
ARM GAS  C:\Users\PC\AppData\Local\Temp\ccoEr05J.s 			page 12


 384              	.LVL59:
 385              	.L22:
 243:ssd1306.c     ****       case BLACK:   ssd1306_buffer[x + (uint16_t)(y/8) * SSD1306_LCDWIDTH] &= ~(1 << (y&7)); break;
 386              		.loc 1 243 0
 387 0066 CB08     		lsrs	r3, r1, #3
 388 0068 DB01     		lsls	r3, r3, #7
 389 006a 1818     		adds	r0, r3, r0
 390              	.LVL60:
 391 006c 0723     		movs	r3, #7
 392 006e 1940     		ands	r1, r3
 393              	.LVL61:
 394 0070 0122     		movs	r2, #1
 395              	.LVL62:
 396 0072 8A40     		lsls	r2, r2, r1
 397 0074 0B49     		ldr	r1, .L24+12
 398 0076 0B5C     		ldrb	r3, [r1, r0]
 399 0078 9343     		bics	r3, r2
 400 007a 0B54     		strb	r3, [r1, r0]
 401 007c 0AE0     		b	.L15
 402              	.LVL63:
 403              	.L23:
 244:ssd1306.c     ****       case INVERSE: ssd1306_buffer[x + (uint16_t)(y/8) * SSD1306_LCDWIDTH] ^=  (1 << (y&7)); break;
 404              		.loc 1 244 0
 405 007e CB08     		lsrs	r3, r1, #3
 406 0080 DB01     		lsls	r3, r3, #7
 407 0082 1818     		adds	r0, r3, r0
 408              	.LVL64:
 409 0084 0723     		movs	r3, #7
 410 0086 1940     		ands	r1, r3
 411              	.LVL65:
 412 0088 063B     		subs	r3, r3, #6
 413 008a 8B40     		lsls	r3, r3, r1
 414 008c 054A     		ldr	r2, .L24+12
 415              	.LVL66:
 416 008e 115C     		ldrb	r1, [r2, r0]
 417 0090 4B40     		eors	r3, r1
 418 0092 1354     		strb	r3, [r2, r0]
 419              	.L15:
 245:ssd1306.c     ****     }
 246:ssd1306.c     **** 
 247:ssd1306.c     **** }
 420              		.loc 1 247 0
 421              		@ sp needed
 422 0094 7047     		bx	lr
 423              	.L25:
 424 0096 C046     		.align	2
 425              	.L24:
 426 0098 00000000 		.word	_width
 427 009c 00000000 		.word	_height
 428 00a0 00000000 		.word	rotation
 429 00a4 00000000 		.word	.LANCHOR0
 430              		.cfi_endproc
 431              	.LFE35:
 432              		.size	drawPixel, .-drawPixel
 433              		.section	.text.display_startScrollRight,"ax",%progbits
 434              		.align	2
 435              		.global	display_startScrollRight
ARM GAS  C:\Users\PC\AppData\Local\Temp\ccoEr05J.s 			page 13


 436              		.code	16
 437              		.thumb_func
 438              		.type	display_startScrollRight, %function
 439              	display_startScrollRight:
 440              	.LFB36:
 248:ssd1306.c     **** 
 249:ssd1306.c     **** // startscrollright
 250:ssd1306.c     **** // Activate a right handed scroll for rows start through stop
 251:ssd1306.c     **** // Hint, the display is 16 rows tall. To scroll the whole display, run:
 252:ssd1306.c     **** // display_scrollright(0x00, 0x0F)
 253:ssd1306.c     **** void display_startScrollRight(uint8_t start, uint8_t stop) {
 441              		.loc 1 253 0
 442              		.cfi_startproc
 443              		@ args = 0, pretend = 0, frame = 0
 444              		@ frame_needed = 0, uses_anonymous_args = 0
 445              	.LVL67:
 446 0000 70B5     		push	{r4, r5, r6, lr}
 447              		.cfi_def_cfa_offset 16
 448              		.cfi_offset 4, -16
 449              		.cfi_offset 5, -12
 450              		.cfi_offset 6, -8
 451              		.cfi_offset 14, -4
 452 0002 0500     		movs	r5, r0
 453 0004 0C00     		movs	r4, r1
 254:ssd1306.c     ****     ssd1306_command(SSD1306_RIGHT_HORIZONTAL_SCROLL);
 454              		.loc 1 254 0
 455 0006 2620     		movs	r0, #38
 456              	.LVL68:
 457 0008 FFF7FEFF 		bl	ssd1306_command
 458              	.LVL69:
 255:ssd1306.c     ****     ssd1306_command(0X00);
 459              		.loc 1 255 0
 460 000c 0020     		movs	r0, #0
 461 000e FFF7FEFF 		bl	ssd1306_command
 462              	.LVL70:
 256:ssd1306.c     ****     ssd1306_command(start);
 463              		.loc 1 256 0
 464 0012 2800     		movs	r0, r5
 465 0014 FFF7FEFF 		bl	ssd1306_command
 466              	.LVL71:
 257:ssd1306.c     ****     ssd1306_command(0X00);
 467              		.loc 1 257 0
 468 0018 0020     		movs	r0, #0
 469 001a FFF7FEFF 		bl	ssd1306_command
 470              	.LVL72:
 258:ssd1306.c     ****     ssd1306_command(stop);
 471              		.loc 1 258 0
 472 001e 2000     		movs	r0, r4
 473 0020 FFF7FEFF 		bl	ssd1306_command
 474              	.LVL73:
 259:ssd1306.c     ****     ssd1306_command(0X00);
 475              		.loc 1 259 0
 476 0024 0020     		movs	r0, #0
 477 0026 FFF7FEFF 		bl	ssd1306_command
 478              	.LVL74:
 260:ssd1306.c     ****     ssd1306_command(0XFF);
 479              		.loc 1 260 0
ARM GAS  C:\Users\PC\AppData\Local\Temp\ccoEr05J.s 			page 14


 480 002a FF20     		movs	r0, #255
 481 002c FFF7FEFF 		bl	ssd1306_command
 482              	.LVL75:
 261:ssd1306.c     ****     ssd1306_command(SSD1306_ACTIVATE_SCROLL);
 483              		.loc 1 261 0
 484 0030 2F20     		movs	r0, #47
 485 0032 FFF7FEFF 		bl	ssd1306_command
 486              	.LVL76:
 262:ssd1306.c     **** }
 487              		.loc 1 262 0
 488              		@ sp needed
 489 0036 70BD     		pop	{r4, r5, r6, pc}
 490              		.cfi_endproc
 491              	.LFE36:
 492              		.size	display_startScrollRight, .-display_startScrollRight
 493              		.section	.text.display_startScrollLeft,"ax",%progbits
 494              		.align	2
 495              		.global	display_startScrollLeft
 496              		.code	16
 497              		.thumb_func
 498              		.type	display_startScrollLeft, %function
 499              	display_startScrollLeft:
 500              	.LFB37:
 263:ssd1306.c     **** 
 264:ssd1306.c     **** // startscrollleft
 265:ssd1306.c     **** // Activate a right handed scroll for rows start through stop
 266:ssd1306.c     **** // Hint, the display is 16 rows tall. To scroll the whole display, run:
 267:ssd1306.c     **** // display_scrollright(0x00, 0x0F)
 268:ssd1306.c     **** void display_startScrollLeft(uint8_t start, uint8_t stop) {
 501              		.loc 1 268 0
 502              		.cfi_startproc
 503              		@ args = 0, pretend = 0, frame = 0
 504              		@ frame_needed = 0, uses_anonymous_args = 0
 505              	.LVL77:
 506 0000 70B5     		push	{r4, r5, r6, lr}
 507              		.cfi_def_cfa_offset 16
 508              		.cfi_offset 4, -16
 509              		.cfi_offset 5, -12
 510              		.cfi_offset 6, -8
 511              		.cfi_offset 14, -4
 512 0002 0500     		movs	r5, r0
 513 0004 0C00     		movs	r4, r1
 269:ssd1306.c     ****     ssd1306_command(SSD1306_LEFT_HORIZONTAL_SCROLL);
 514              		.loc 1 269 0
 515 0006 2720     		movs	r0, #39
 516              	.LVL78:
 517 0008 FFF7FEFF 		bl	ssd1306_command
 518              	.LVL79:
 270:ssd1306.c     ****     ssd1306_command(0X00);
 519              		.loc 1 270 0
 520 000c 0020     		movs	r0, #0
 521 000e FFF7FEFF 		bl	ssd1306_command
 522              	.LVL80:
 271:ssd1306.c     ****     ssd1306_command(start);
 523              		.loc 1 271 0
 524 0012 2800     		movs	r0, r5
 525 0014 FFF7FEFF 		bl	ssd1306_command
ARM GAS  C:\Users\PC\AppData\Local\Temp\ccoEr05J.s 			page 15


 526              	.LVL81:
 272:ssd1306.c     ****     ssd1306_command(0X00);//0x07,0x00
 527              		.loc 1 272 0
 528 0018 0020     		movs	r0, #0
 529 001a FFF7FEFF 		bl	ssd1306_command
 530              	.LVL82:
 273:ssd1306.c     ****     ssd1306_command(stop);
 531              		.loc 1 273 0
 532 001e 2000     		movs	r0, r4
 533 0020 FFF7FEFF 		bl	ssd1306_command
 534              	.LVL83:
 274:ssd1306.c     ****     ssd1306_command(0X00);
 535              		.loc 1 274 0
 536 0024 0020     		movs	r0, #0
 537 0026 FFF7FEFF 		bl	ssd1306_command
 538              	.LVL84:
 275:ssd1306.c     ****     ssd1306_command(0XFF);
 539              		.loc 1 275 0
 540 002a FF20     		movs	r0, #255
 541 002c FFF7FEFF 		bl	ssd1306_command
 542              	.LVL85:
 276:ssd1306.c     ****     ssd1306_command(SSD1306_ACTIVATE_SCROLL);
 543              		.loc 1 276 0
 544 0030 2F20     		movs	r0, #47
 545 0032 FFF7FEFF 		bl	ssd1306_command
 546              	.LVL86:
 277:ssd1306.c     **** }
 547              		.loc 1 277 0
 548              		@ sp needed
 549 0036 70BD     		pop	{r4, r5, r6, pc}
 550              		.cfi_endproc
 551              	.LFE37:
 552              		.size	display_startScrollLeft, .-display_startScrollLeft
 553              		.section	.text.display_startScrollDiagRight,"ax",%progbits
 554              		.align	2
 555              		.global	display_startScrollDiagRight
 556              		.code	16
 557              		.thumb_func
 558              		.type	display_startScrollDiagRight, %function
 559              	display_startScrollDiagRight:
 560              	.LFB38:
 278:ssd1306.c     **** 
 279:ssd1306.c     **** // startscrolldiagright
 280:ssd1306.c     **** // Activate a diagonal scroll for rows start through stop
 281:ssd1306.c     **** // Hint, the display is 16 rows tall. To scroll the whole display, run:
 282:ssd1306.c     **** // display_scrollright(0x00, 0x0F)
 283:ssd1306.c     **** void display_startScrollDiagRight(uint8_t start, uint8_t stop) {
 561              		.loc 1 283 0
 562              		.cfi_startproc
 563              		@ args = 0, pretend = 0, frame = 0
 564              		@ frame_needed = 0, uses_anonymous_args = 0
 565              	.LVL87:
 566 0000 70B5     		push	{r4, r5, r6, lr}
 567              		.cfi_def_cfa_offset 16
 568              		.cfi_offset 4, -16
 569              		.cfi_offset 5, -12
 570              		.cfi_offset 6, -8
ARM GAS  C:\Users\PC\AppData\Local\Temp\ccoEr05J.s 			page 16


 571              		.cfi_offset 14, -4
 572 0002 0500     		movs	r5, r0
 573 0004 0C00     		movs	r4, r1
 284:ssd1306.c     ****     ssd1306_command(SSD1306_SET_VERTICAL_SCROLL_AREA);
 574              		.loc 1 284 0
 575 0006 A320     		movs	r0, #163
 576              	.LVL88:
 577 0008 FFF7FEFF 		bl	ssd1306_command
 578              	.LVL89:
 285:ssd1306.c     ****     ssd1306_command(0X00);
 579              		.loc 1 285 0
 580 000c 0020     		movs	r0, #0
 581 000e FFF7FEFF 		bl	ssd1306_command
 582              	.LVL90:
 286:ssd1306.c     ****     ssd1306_command(SSD1306_LCDHEIGHT);
 583              		.loc 1 286 0
 584 0012 4020     		movs	r0, #64
 585 0014 FFF7FEFF 		bl	ssd1306_command
 586              	.LVL91:
 287:ssd1306.c     ****     ssd1306_command(SSD1306_VERTICAL_AND_RIGHT_HORIZONTAL_SCROLL);
 587              		.loc 1 287 0
 588 0018 2920     		movs	r0, #41
 589 001a FFF7FEFF 		bl	ssd1306_command
 590              	.LVL92:
 288:ssd1306.c     ****     ssd1306_command(0X00);
 591              		.loc 1 288 0
 592 001e 0020     		movs	r0, #0
 593 0020 FFF7FEFF 		bl	ssd1306_command
 594              	.LVL93:
 289:ssd1306.c     ****     ssd1306_command(start);
 595              		.loc 1 289 0
 596 0024 2800     		movs	r0, r5
 597 0026 FFF7FEFF 		bl	ssd1306_command
 598              	.LVL94:
 290:ssd1306.c     ****     ssd1306_command(0X00);
 599              		.loc 1 290 0
 600 002a 0020     		movs	r0, #0
 601 002c FFF7FEFF 		bl	ssd1306_command
 602              	.LVL95:
 291:ssd1306.c     ****     ssd1306_command(stop);
 603              		.loc 1 291 0
 604 0030 2000     		movs	r0, r4
 605 0032 FFF7FEFF 		bl	ssd1306_command
 606              	.LVL96:
 292:ssd1306.c     ****     ssd1306_command(0X01);
 607              		.loc 1 292 0
 608 0036 0120     		movs	r0, #1
 609 0038 FFF7FEFF 		bl	ssd1306_command
 610              	.LVL97:
 293:ssd1306.c     ****     ssd1306_command(SSD1306_ACTIVATE_SCROLL);
 611              		.loc 1 293 0
 612 003c 2F20     		movs	r0, #47
 613 003e FFF7FEFF 		bl	ssd1306_command
 614              	.LVL98:
 294:ssd1306.c     **** }
 615              		.loc 1 294 0
 616              		@ sp needed
ARM GAS  C:\Users\PC\AppData\Local\Temp\ccoEr05J.s 			page 17


 617 0042 70BD     		pop	{r4, r5, r6, pc}
 618              		.cfi_endproc
 619              	.LFE38:
 620              		.size	display_startScrollDiagRight, .-display_startScrollDiagRight
 621              		.section	.text.display_startScrollDiagLeft,"ax",%progbits
 622              		.align	2
 623              		.global	display_startScrollDiagLeft
 624              		.code	16
 625              		.thumb_func
 626              		.type	display_startScrollDiagLeft, %function
 627              	display_startScrollDiagLeft:
 628              	.LFB39:
 295:ssd1306.c     **** 
 296:ssd1306.c     **** // startscrolldiagleft
 297:ssd1306.c     **** // Activate a diagonal scroll for rows start through stop
 298:ssd1306.c     **** // Hint, the display is 16 rows tall. To scroll the whole display, run:
 299:ssd1306.c     **** // display_scrollright(0x00, 0x0F)
 300:ssd1306.c     **** void display_startScrollDiagLeft(uint8_t start, uint8_t stop) {
 629              		.loc 1 300 0
 630              		.cfi_startproc
 631              		@ args = 0, pretend = 0, frame = 0
 632              		@ frame_needed = 0, uses_anonymous_args = 0
 633              	.LVL99:
 634 0000 70B5     		push	{r4, r5, r6, lr}
 635              		.cfi_def_cfa_offset 16
 636              		.cfi_offset 4, -16
 637              		.cfi_offset 5, -12
 638              		.cfi_offset 6, -8
 639              		.cfi_offset 14, -4
 640 0002 0500     		movs	r5, r0
 641 0004 0C00     		movs	r4, r1
 301:ssd1306.c     ****     ssd1306_command(SSD1306_SET_VERTICAL_SCROLL_AREA);
 642              		.loc 1 301 0
 643 0006 A320     		movs	r0, #163
 644              	.LVL100:
 645 0008 FFF7FEFF 		bl	ssd1306_command
 646              	.LVL101:
 302:ssd1306.c     ****     ssd1306_command(0X00);
 647              		.loc 1 302 0
 648 000c 0020     		movs	r0, #0
 649 000e FFF7FEFF 		bl	ssd1306_command
 650              	.LVL102:
 303:ssd1306.c     ****     ssd1306_command(SSD1306_LCDHEIGHT);
 651              		.loc 1 303 0
 652 0012 4020     		movs	r0, #64
 653 0014 FFF7FEFF 		bl	ssd1306_command
 654              	.LVL103:
 304:ssd1306.c     ****     ssd1306_command(SSD1306_VERTICAL_AND_LEFT_HORIZONTAL_SCROLL);
 655              		.loc 1 304 0
 656 0018 2A20     		movs	r0, #42
 657 001a FFF7FEFF 		bl	ssd1306_command
 658              	.LVL104:
 305:ssd1306.c     ****     ssd1306_command(0X00);
 659              		.loc 1 305 0
 660 001e 0020     		movs	r0, #0
 661 0020 FFF7FEFF 		bl	ssd1306_command
 662              	.LVL105:
ARM GAS  C:\Users\PC\AppData\Local\Temp\ccoEr05J.s 			page 18


 306:ssd1306.c     ****     ssd1306_command(start);
 663              		.loc 1 306 0
 664 0024 2800     		movs	r0, r5
 665 0026 FFF7FEFF 		bl	ssd1306_command
 666              	.LVL106:
 307:ssd1306.c     ****     ssd1306_command(0X00);
 667              		.loc 1 307 0
 668 002a 0020     		movs	r0, #0
 669 002c FFF7FEFF 		bl	ssd1306_command
 670              	.LVL107:
 308:ssd1306.c     ****     ssd1306_command(stop);
 671              		.loc 1 308 0
 672 0030 2000     		movs	r0, r4
 673 0032 FFF7FEFF 		bl	ssd1306_command
 674              	.LVL108:
 309:ssd1306.c     ****     ssd1306_command(0X01);
 675              		.loc 1 309 0
 676 0036 0120     		movs	r0, #1
 677 0038 FFF7FEFF 		bl	ssd1306_command
 678              	.LVL109:
 310:ssd1306.c     ****     ssd1306_command(SSD1306_ACTIVATE_SCROLL);
 679              		.loc 1 310 0
 680 003c 2F20     		movs	r0, #47
 681 003e FFF7FEFF 		bl	ssd1306_command
 682              	.LVL110:
 311:ssd1306.c     **** }
 683              		.loc 1 311 0
 684              		@ sp needed
 685 0042 70BD     		pop	{r4, r5, r6, pc}
 686              		.cfi_endproc
 687              	.LFE39:
 688              		.size	display_startScrollDiagLeft, .-display_startScrollDiagLeft
 689              		.section	.text.display_stopScroll,"ax",%progbits
 690              		.align	2
 691              		.global	display_stopScroll
 692              		.code	16
 693              		.thumb_func
 694              		.type	display_stopScroll, %function
 695              	display_stopScroll:
 696              	.LFB40:
 312:ssd1306.c     **** 
 313:ssd1306.c     **** void display_stopScroll(void) {
 697              		.loc 1 313 0
 698              		.cfi_startproc
 699              		@ args = 0, pretend = 0, frame = 0
 700              		@ frame_needed = 0, uses_anonymous_args = 0
 701 0000 10B5     		push	{r4, lr}
 702              		.cfi_def_cfa_offset 8
 703              		.cfi_offset 4, -8
 704              		.cfi_offset 14, -4
 314:ssd1306.c     ****     ssd1306_command(SSD1306_DEACTIVATE_SCROLL);
 705              		.loc 1 314 0
 706 0002 2E20     		movs	r0, #46
 707 0004 FFF7FEFF 		bl	ssd1306_command
 708              	.LVL111:
 315:ssd1306.c     **** }
 709              		.loc 1 315 0
ARM GAS  C:\Users\PC\AppData\Local\Temp\ccoEr05J.s 			page 19


 710              		@ sp needed
 711 0008 10BD     		pop	{r4, pc}
 712              		.cfi_endproc
 713              	.LFE40:
 714              		.size	display_stopScroll, .-display_stopScroll
 715 000a C046     		.section	.text.display_dim,"ax",%progbits
 716              		.align	2
 717              		.global	display_dim
 718              		.code	16
 719              		.thumb_func
 720              		.type	display_dim, %function
 721              	display_dim:
 722              	.LFB41:
 316:ssd1306.c     **** 
 317:ssd1306.c     **** // Dim the display
 318:ssd1306.c     **** // dim = true: display is dimmed
 319:ssd1306.c     **** // dim = false: display is normal
 320:ssd1306.c     **** void display_dim(bool dim)
 321:ssd1306.c     **** {
 723              		.loc 1 321 0
 724              		.cfi_startproc
 725              		@ args = 0, pretend = 0, frame = 0
 726              		@ frame_needed = 0, uses_anonymous_args = 0
 727              	.LVL112:
 728 0000 10B5     		push	{r4, lr}
 729              		.cfi_def_cfa_offset 8
 730              		.cfi_offset 4, -8
 731              		.cfi_offset 14, -4
 322:ssd1306.c     ****   uint8_t contrast;
 323:ssd1306.c     ****   if (dim)
 732              		.loc 1 323 0
 733 0002 0028     		cmp	r0, #0
 734 0004 05D1     		bne	.L33
 324:ssd1306.c     ****     contrast = 0; // Dimmed display
 325:ssd1306.c     ****   else {
 326:ssd1306.c     ****     if (_vccstate == SSD1306_EXTERNALVCC)
 735              		.loc 1 326 0
 736 0006 084B     		ldr	r3, .L35
 737 0008 1B78     		ldrb	r3, [r3]
 738 000a 012B     		cmp	r3, #1
 739 000c 03D1     		bne	.L34
 327:ssd1306.c     ****       contrast = 0x9F;
 740              		.loc 1 327 0
 741 000e 9F24     		movs	r4, #159
 742 0010 02E0     		b	.L32
 743              	.L33:
 324:ssd1306.c     ****     contrast = 0; // Dimmed display
 744              		.loc 1 324 0
 745 0012 0024     		movs	r4, #0
 746 0014 00E0     		b	.L32
 747              	.L34:
 328:ssd1306.c     ****     else
 329:ssd1306.c     ****       contrast = 0xCF;
 748              		.loc 1 329 0
 749 0016 CF24     		movs	r4, #207
 750              	.L32:
 751              	.LVL113:
ARM GAS  C:\Users\PC\AppData\Local\Temp\ccoEr05J.s 			page 20


 330:ssd1306.c     ****   }
 331:ssd1306.c     ****   // the range of contrast to too small to be really useful
 332:ssd1306.c     ****   // it is useful to dim the display
 333:ssd1306.c     ****   ssd1306_command(SSD1306_SETCONTRAST);
 752              		.loc 1 333 0
 753 0018 8120     		movs	r0, #129
 754              	.LVL114:
 755 001a FFF7FEFF 		bl	ssd1306_command
 756              	.LVL115:
 334:ssd1306.c     ****   ssd1306_command(contrast);
 757              		.loc 1 334 0
 758 001e 2000     		movs	r0, r4
 759 0020 FFF7FEFF 		bl	ssd1306_command
 760              	.LVL116:
 335:ssd1306.c     **** }
 761              		.loc 1 335 0
 762              		@ sp needed
 763              	.LVL117:
 764 0024 10BD     		pop	{r4, pc}
 765              	.L36:
 766 0026 C046     		.align	2
 767              	.L35:
 768 0028 00000000 		.word	_vccstate
 769              		.cfi_endproc
 770              	.LFE41:
 771              		.size	display_dim, .-display_dim
 772              		.section	.text.display,"ax",%progbits
 773              		.align	2
 774              		.global	display
 775              		.code	16
 776              		.thumb_func
 777              		.type	display, %function
 778              	display:
 779              	.LFB42:
 336:ssd1306.c     **** 
 337:ssd1306.c     **** void display(void)
 338:ssd1306.c     **** {
 780              		.loc 1 338 0
 781              		.cfi_startproc
 782              		@ args = 0, pretend = 0, frame = 0
 783              		@ frame_needed = 0, uses_anonymous_args = 0
 784 0000 10B5     		push	{r4, lr}
 785              		.cfi_def_cfa_offset 8
 786              		.cfi_offset 4, -8
 787              		.cfi_offset 14, -4
 339:ssd1306.c     ****   ssd1306_command(SSD1306_COLUMNADDR);
 788              		.loc 1 339 0
 789 0002 2120     		movs	r0, #33
 790 0004 FFF7FEFF 		bl	ssd1306_command
 791              	.LVL118:
 340:ssd1306.c     ****   ssd1306_command(0);   // Column start address (0 = reset)
 792              		.loc 1 340 0
 793 0008 0020     		movs	r0, #0
 794 000a FFF7FEFF 		bl	ssd1306_command
 795              	.LVL119:
 341:ssd1306.c     ****   ssd1306_command(SSD1306_LCDWIDTH-1); // Column end address (127 = reset)
 796              		.loc 1 341 0
ARM GAS  C:\Users\PC\AppData\Local\Temp\ccoEr05J.s 			page 21


 797 000e 7F20     		movs	r0, #127
 798 0010 FFF7FEFF 		bl	ssd1306_command
 799              	.LVL120:
 342:ssd1306.c     **** 
 343:ssd1306.c     ****   ssd1306_command(SSD1306_PAGEADDR);
 800              		.loc 1 343 0
 801 0014 2220     		movs	r0, #34
 802 0016 FFF7FEFF 		bl	ssd1306_command
 803              	.LVL121:
 344:ssd1306.c     ****   ssd1306_command(0); // Page start address (0 = reset)
 804              		.loc 1 344 0
 805 001a 0020     		movs	r0, #0
 806 001c FFF7FEFF 		bl	ssd1306_command
 807              	.LVL122:
 345:ssd1306.c     ****   #if SSD1306_LCDHEIGHT == 64
 346:ssd1306.c     ****     ssd1306_command(7); // Page end address
 808              		.loc 1 346 0
 809 0020 0720     		movs	r0, #7
 810 0022 FFF7FEFF 		bl	ssd1306_command
 811              	.LVL123:
 347:ssd1306.c     ****   #endif
 348:ssd1306.c     ****   #if SSD1306_LCDHEIGHT == 32
 349:ssd1306.c     ****     ssd1306_command(3); // Page end address
 350:ssd1306.c     ****   #endif
 351:ssd1306.c     ****   #if SSD1306_LCDHEIGHT == 16
 352:ssd1306.c     ****     ssd1306_command(1); // Page end address
 353:ssd1306.c     ****   #endif
 354:ssd1306.c     **** 
 355:ssd1306.c     ****   /*for (uint16_t i = 0; i < (SSD1306_LCDWIDTH*SSD1306_LCDHEIGHT / 8); i++) {
 356:ssd1306.c     ****       // send a bunch of data in one xmission
 357:ssd1306.c     ****       #ifdef SSD1306_SPI_MODE
 358:ssd1306.c     ****       //pOledSs_Write(LOW);//output_low(SSD1306_CS);
 359:ssd1306.c     ****       //SoftSPI_WriteByte(ssd1306_buffer[i]);//SpiOled_WriteByte(ssd1306_buffer[i]);//SSD1306_SPI_W
 360:ssd1306.c     ****       //while((SpiOled_ReadTxStatus() & (SpiOled_STS_SPI_DONE | SpiOled_STS_SPI_IDLE)) == false);
 361:ssd1306.c     ****       //SpiOled_WriteTxData(ssd1306_buffer[i]);CyDelayUs(HWSPIDELAY);//SpiOled_WriteByte(ssd1306_bu
 362:ssd1306.c     ****         pOledDc_Write(1);
 363:ssd1306.c     ****         mSPI_SpiUartPutArray(&ssd1306_buffer[i], 1);
 364:ssd1306.c     ****         while (0u != (mSPI_SpiUartGetTxBufferSize() + mSPI_GET_TX_FIFO_SR_VALID));
 365:ssd1306.c     ****       //pOledSs_Write(HIGH);//output_high(SSD1306_CS);
 366:ssd1306.c     ****       #else
 367:ssd1306.c     ****       SSD1306_I2C_Start;
 368:ssd1306.c     ****       SSD1306_I2C_Write(_i2caddr);
 369:ssd1306.c     ****       SSD1306_I2C_Write(0x40);
 370:ssd1306.c     ****       for (uint8_t x = 0; x < 16; x++) {
 371:ssd1306.c     ****         SSD1306_I2C_Write(ssd1306_buffer[i]);
 372:ssd1306.c     ****         i++;
 373:ssd1306.c     ****       }
 374:ssd1306.c     ****       i--;
 375:ssd1306.c     ****       SSD1306_I2C_Stop;
 376:ssd1306.c     ****       #endif
 377:ssd1306.c     ****     }//*/
 378:ssd1306.c     ****     pOledDc_Write(1);
 812              		.loc 1 378 0
 813 0026 0120     		movs	r0, #1
 814 0028 FFF7FEFF 		bl	pOledDc_Write
 815              	.LVL124:
 379:ssd1306.c     ****     mSPI_SpiUartPutArray(ssd1306_buffer, SSD1306_LCDWIDTH*SSD1306_LCDHEIGHT / 8);
ARM GAS  C:\Users\PC\AppData\Local\Temp\ccoEr05J.s 			page 22


 816              		.loc 1 379 0
 817 002c 8021     		movs	r1, #128
 818 002e C900     		lsls	r1, r1, #3
 819 0030 0748     		ldr	r0, .L40
 820 0032 FFF7FEFF 		bl	mSPI_SpiUartPutArray
 821              	.LVL125:
 822              	.L39:
 380:ssd1306.c     ****     while (0u != (mSPI_SpiUartGetTxBufferSize() + mSPI_GET_TX_FIFO_SR_VALID));//*/
 823              		.loc 1 380 0 discriminator 5
 824 0036 FFF7FEFF 		bl	mSPI_SpiUartGetTxBufferSize
 825              	.LVL126:
 826 003a 064B     		ldr	r3, .L40+4
 827 003c 1B68     		ldr	r3, [r3]
 828 003e 8022     		movs	r2, #128
 829 0040 1202     		lsls	r2, r2, #8
 830 0042 1340     		ands	r3, r2
 831 0044 00D0     		beq	.L38
 832              		.loc 1 380 0 is_stmt 0
 833 0046 0123     		movs	r3, #1
 834              	.L38:
 835              		.loc 1 380 0 discriminator 4
 836 0048 1B18     		adds	r3, r3, r0
 837 004a 002B     		cmp	r3, #0
 838 004c F3D1     		bne	.L39
 381:ssd1306.c     **** }
 839              		.loc 1 381 0 is_stmt 1
 840              		@ sp needed
 841 004e 10BD     		pop	{r4, pc}
 842              	.L41:
 843              		.align	2
 844              	.L40:
 845 0050 00000000 		.word	.LANCHOR0
 846 0054 08020940 		.word	1074332168
 847              		.cfi_endproc
 848              	.LFE42:
 849              		.size	display, .-display
 850              		.section	.text.display_setColum,"ax",%progbits
 851              		.align	2
 852              		.global	display_setColum
 853              		.code	16
 854              		.thumb_func
 855              		.type	display_setColum, %function
 856              	display_setColum:
 857              	.LFB43:
 382:ssd1306.c     **** 
 383:ssd1306.c     **** void display_setColum(uint8 col) {
 858              		.loc 1 383 0
 859              		.cfi_startproc
 860              		@ args = 0, pretend = 0, frame = 0
 861              		@ frame_needed = 0, uses_anonymous_args = 0
 862              		@ link register save eliminated.
 863              	.LVL127:
 384:ssd1306.c     **** }
 864              		.loc 1 384 0
 865              		@ sp needed
 866 0000 7047     		bx	lr
 867              		.cfi_endproc
ARM GAS  C:\Users\PC\AppData\Local\Temp\ccoEr05J.s 			page 23


 868              	.LFE43:
 869              		.size	display_setColum, .-display_setColum
 870 0002 C046     		.section	.text.display_setRow,"ax",%progbits
 871              		.align	2
 872              		.global	display_setRow
 873              		.code	16
 874              		.thumb_func
 875              		.type	display_setRow, %function
 876              	display_setRow:
 877              	.LFB44:
 385:ssd1306.c     **** 
 386:ssd1306.c     **** void display_setRow(uint8 row) {
 878              		.loc 1 386 0
 879              		.cfi_startproc
 880              		@ args = 0, pretend = 0, frame = 0
 881              		@ frame_needed = 0, uses_anonymous_args = 0
 882              		@ link register save eliminated.
 883              	.LVL128:
 387:ssd1306.c     **** }
 884              		.loc 1 387 0
 885              		@ sp needed
 886 0000 7047     		bx	lr
 887              		.cfi_endproc
 888              	.LFE44:
 889              		.size	display_setRow, .-display_setRow
 890 0002 C046     		.section	.text.display_directSetVertical,"ax",%progbits
 891              		.align	2
 892              		.global	display_directSetVertical
 893              		.code	16
 894              		.thumb_func
 895              		.type	display_directSetVertical, %function
 896              	display_directSetVertical:
 897              	.LFB45:
 388:ssd1306.c     **** 
 389:ssd1306.c     **** void display_directSetVertical(uint8 *inData) {
 898              		.loc 1 389 0
 899              		.cfi_startproc
 900              		@ args = 0, pretend = 0, frame = 0
 901              		@ frame_needed = 0, uses_anonymous_args = 0
 902              	.LVL129:
 903 0000 70B5     		push	{r4, r5, r6, lr}
 904              		.cfi_def_cfa_offset 16
 905              		.cfi_offset 4, -16
 906              		.cfi_offset 5, -12
 907              		.cfi_offset 6, -8
 908              		.cfi_offset 14, -4
 909 0002 0400     		movs	r4, r0
 390:ssd1306.c     ****     ssd1306_command(SSD1306_COLUMNADDR);
 910              		.loc 1 390 0
 911 0004 2120     		movs	r0, #33
 912              	.LVL130:
 913 0006 FFF7FEFF 		bl	ssd1306_command
 914              	.LVL131:
 391:ssd1306.c     ****     ssd1306_command(0);   // Column start address (0 = reset)
 915              		.loc 1 391 0
 916 000a 0020     		movs	r0, #0
 917 000c FFF7FEFF 		bl	ssd1306_command
ARM GAS  C:\Users\PC\AppData\Local\Temp\ccoEr05J.s 			page 24


 918              	.LVL132:
 392:ssd1306.c     ****     ssd1306_command(SSD1306_LCDWIDTH-1); // Column end address (127 = reset)
 919              		.loc 1 392 0
 920 0010 7F20     		movs	r0, #127
 921 0012 FFF7FEFF 		bl	ssd1306_command
 922              	.LVL133:
 393:ssd1306.c     **** 
 394:ssd1306.c     ****     ssd1306_command(SSD1306_PAGEADDR);
 923              		.loc 1 394 0
 924 0016 2220     		movs	r0, #34
 925 0018 FFF7FEFF 		bl	ssd1306_command
 926              	.LVL134:
 395:ssd1306.c     ****     ssd1306_command(0); // Page start address (0 = reset)
 927              		.loc 1 395 0
 928 001c 0020     		movs	r0, #0
 929 001e FFF7FEFF 		bl	ssd1306_command
 930              	.LVL135:
 396:ssd1306.c     ****     #if SSD1306_LCDHEIGHT == 64
 397:ssd1306.c     ****     ssd1306_command(7); // Page end address
 931              		.loc 1 397 0
 932 0022 0720     		movs	r0, #7
 933 0024 FFF7FEFF 		bl	ssd1306_command
 934              	.LVL136:
 935              	.LBB4:
 398:ssd1306.c     ****     #endif
 399:ssd1306.c     ****     #if SSD1306_LCDHEIGHT == 32
 400:ssd1306.c     ****     ssd1306_command(3); // Page end address
 401:ssd1306.c     ****     #endif
 402:ssd1306.c     ****     #if SSD1306_LCDHEIGHT == 16
 403:ssd1306.c     ****     ssd1306_command(1); // Page end address
 404:ssd1306.c     ****     #endif
 405:ssd1306.c     **** 
 406:ssd1306.c     ****     for (uint16_t i = 0; i < 8; i++) {
 936              		.loc 1 406 0
 937 0028 0025     		movs	r5, #0
 938 002a 14E0     		b	.L45
 939              	.LVL137:
 940              	.L48:
 407:ssd1306.c     ****         pOledDc_Write(1);
 941              		.loc 1 407 0
 942 002c 0120     		movs	r0, #1
 943 002e FFF7FEFF 		bl	pOledDc_Write
 944              	.LVL138:
 408:ssd1306.c     ****         mSPI_SpiUartPutArray(inData, 1);
 945              		.loc 1 408 0
 946 0032 0121     		movs	r1, #1
 947 0034 2000     		movs	r0, r4
 948 0036 FFF7FEFF 		bl	mSPI_SpiUartPutArray
 949              	.LVL139:
 950              	.L47:
 409:ssd1306.c     ****         while (0u != (mSPI_SpiUartGetTxBufferSize() + mSPI_GET_TX_FIFO_SR_VALID));
 951              		.loc 1 409 0 discriminator 5
 952 003a FFF7FEFF 		bl	mSPI_SpiUartGetTxBufferSize
 953              	.LVL140:
 954 003e 074B     		ldr	r3, .L49
 955 0040 1B68     		ldr	r3, [r3]
 956 0042 8022     		movs	r2, #128
ARM GAS  C:\Users\PC\AppData\Local\Temp\ccoEr05J.s 			page 25


 957 0044 1202     		lsls	r2, r2, #8
 958 0046 1340     		ands	r3, r2
 959 0048 00D0     		beq	.L46
 960              		.loc 1 409 0 is_stmt 0
 961 004a 0123     		movs	r3, #1
 962              	.L46:
 963              		.loc 1 409 0 discriminator 4
 964 004c 1B18     		adds	r3, r3, r0
 965 004e 002B     		cmp	r3, #0
 966 0050 F3D1     		bne	.L47
 406:ssd1306.c     ****         pOledDc_Write(1);
 967              		.loc 1 406 0 is_stmt 1 discriminator 2
 968 0052 0135     		adds	r5, r5, #1
 969              	.LVL141:
 970 0054 ADB2     		uxth	r5, r5
 971              	.LVL142:
 972              	.L45:
 406:ssd1306.c     ****         pOledDc_Write(1);
 973              		.loc 1 406 0 is_stmt 0 discriminator 1
 974 0056 072D     		cmp	r5, #7
 975 0058 E8D9     		bls	.L48
 976              	.LBE4:
 410:ssd1306.c     ****     }
 411:ssd1306.c     **** }
 977              		.loc 1 411 0 is_stmt 1
 978              		@ sp needed
 979              	.LVL143:
 980              	.LVL144:
 981 005a 70BD     		pop	{r4, r5, r6, pc}
 982              	.L50:
 983              		.align	2
 984              	.L49:
 985 005c 08020940 		.word	1074332168
 986              		.cfi_endproc
 987              	.LFE45:
 988              		.size	display_directSetVertical, .-display_directSetVertical
 989              		.section	.text.display_clear,"ax",%progbits
 990              		.align	2
 991              		.global	display_clear
 992              		.code	16
 993              		.thumb_func
 994              		.type	display_clear, %function
 995              	display_clear:
 996              	.LFB46:
 412:ssd1306.c     **** 
 413:ssd1306.c     **** void display_clear(void)
 414:ssd1306.c     **** {
 997              		.loc 1 414 0
 998              		.cfi_startproc
 999              		@ args = 0, pretend = 0, frame = 0
 1000              		@ frame_needed = 0, uses_anonymous_args = 0
 1001              		@ link register save eliminated.
 1002              	.LVL145:
 1003              	.LBB5:
 415:ssd1306.c     ****   for (uint16_t i = 0; i < (SSD1306_LCDWIDTH*SSD1306_LCDHEIGHT / 8); i++)
 1004              		.loc 1 415 0
 1005 0000 0023     		movs	r3, #0
ARM GAS  C:\Users\PC\AppData\Local\Temp\ccoEr05J.s 			page 26


 1006 0002 04E0     		b	.L52
 1007              	.LVL146:
 1008              	.L53:
 416:ssd1306.c     ****     ssd1306_buffer[i] = 0;
 1009              		.loc 1 416 0 discriminator 3
 1010 0004 0021     		movs	r1, #0
 1011 0006 044A     		ldr	r2, .L54
 1012 0008 D154     		strb	r1, [r2, r3]
 415:ssd1306.c     ****   for (uint16_t i = 0; i < (SSD1306_LCDWIDTH*SSD1306_LCDHEIGHT / 8); i++)
 1013              		.loc 1 415 0 discriminator 3
 1014 000a 0133     		adds	r3, r3, #1
 1015              	.LVL147:
 1016 000c 9BB2     		uxth	r3, r3
 1017              	.LVL148:
 1018              	.L52:
 415:ssd1306.c     ****   for (uint16_t i = 0; i < (SSD1306_LCDWIDTH*SSD1306_LCDHEIGHT / 8); i++)
 1019              		.loc 1 415 0 is_stmt 0 discriminator 1
 1020 000e 034A     		ldr	r2, .L54+4
 1021 0010 9342     		cmp	r3, r2
 1022 0012 F7D9     		bls	.L53
 1023              	.LBE5:
 417:ssd1306.c     **** }
 1024              		.loc 1 417 0 is_stmt 1
 1025              		@ sp needed
 1026 0014 7047     		bx	lr
 1027              	.L55:
 1028 0016 C046     		.align	2
 1029              	.L54:
 1030 0018 00000000 		.word	.LANCHOR0
 1031 001c FF030000 		.word	1023
 1032              		.cfi_endproc
 1033              	.LFE46:
 1034              		.size	display_clear, .-display_clear
 1035              		.section	.text.invertDisplay,"ax",%progbits
 1036              		.align	2
 1037              		.global	invertDisplay
 1038              		.code	16
 1039              		.thumb_func
 1040              		.type	invertDisplay, %function
 1041              	invertDisplay:
 1042              	.LFB49:
 418:ssd1306.c     **** 
 419:ssd1306.c     **** void fillRect(uint8_t x, uint8_t y, uint8_t w, uint8_t h, uint8_t color)
 420:ssd1306.c     **** {
 421:ssd1306.c     ****   for (int16_t i = x; i < x + w; i++)
 422:ssd1306.c     ****     drawVLine(i, y, h, color);
 423:ssd1306.c     **** }
 424:ssd1306.c     **** 
 425:ssd1306.c     **** void fillScreen(void) {
 426:ssd1306.c     ****   fillRect(0, 0, SSD1306_LCDWIDTH, SSD1306_LCDHEIGHT, 1);
 427:ssd1306.c     **** }
 428:ssd1306.c     **** 
 429:ssd1306.c     **** // invert the display
 430:ssd1306.c     **** void invertDisplay(bool i)
 431:ssd1306.c     **** {
 1043              		.loc 1 431 0
 1044              		.cfi_startproc
ARM GAS  C:\Users\PC\AppData\Local\Temp\ccoEr05J.s 			page 27


 1045              		@ args = 0, pretend = 0, frame = 0
 1046              		@ frame_needed = 0, uses_anonymous_args = 0
 1047              	.LVL149:
 1048 0000 10B5     		push	{r4, lr}
 1049              		.cfi_def_cfa_offset 8
 1050              		.cfi_offset 4, -8
 1051              		.cfi_offset 14, -4
 432:ssd1306.c     ****   if (i)
 1052              		.loc 1 432 0
 1053 0002 0028     		cmp	r0, #0
 1054 0004 03D0     		beq	.L57
 433:ssd1306.c     ****     ssd1306_command(SSD1306_INVERTDISPLAY_);
 1055              		.loc 1 433 0
 1056 0006 A720     		movs	r0, #167
 1057              	.LVL150:
 1058 0008 FFF7FEFF 		bl	ssd1306_command
 1059              	.LVL151:
 1060 000c 02E0     		b	.L56
 1061              	.LVL152:
 1062              	.L57:
 434:ssd1306.c     ****   else
 435:ssd1306.c     ****     ssd1306_command(SSD1306_NORMALDISPLAY);
 1063              		.loc 1 435 0
 1064 000e A620     		movs	r0, #166
 1065              	.LVL153:
 1066 0010 FFF7FEFF 		bl	ssd1306_command
 1067              	.LVL154:
 1068              	.L56:
 436:ssd1306.c     **** }
 1069              		.loc 1 436 0
 1070              		@ sp needed
 1071 0014 10BD     		pop	{r4, pc}
 1072              		.cfi_endproc
 1073              	.LFE49:
 1074              		.size	invertDisplay, .-invertDisplay
 1075 0016 C046     		.section	.text.setRotation,"ax",%progbits
 1076              		.align	2
 1077              		.global	setRotation
 1078              		.code	16
 1079              		.thumb_func
 1080              		.type	setRotation, %function
 1081              	setRotation:
 1082              	.LFB50:
 437:ssd1306.c     **** 
 438:ssd1306.c     **** void setRotation(uint8_t m) {
 1083              		.loc 1 438 0
 1084              		.cfi_startproc
 1085              		@ args = 0, pretend = 0, frame = 0
 1086              		@ frame_needed = 0, uses_anonymous_args = 0
 1087              		@ link register save eliminated.
 1088              	.LVL155:
 439:ssd1306.c     ****     rotation = (m & 3);
 1089              		.loc 1 439 0
 1090 0000 0323     		movs	r3, #3
 1091 0002 1840     		ands	r0, r3
 1092              	.LVL156:
 1093 0004 0C4B     		ldr	r3, .L63
ARM GAS  C:\Users\PC\AppData\Local\Temp\ccoEr05J.s 			page 28


 1094 0006 1870     		strb	r0, [r3]
 440:ssd1306.c     ****     switch(rotation) {
 1095              		.loc 1 440 0
 1096 0008 0128     		cmp	r0, #1
 1097 000a 0DD0     		beq	.L61
 1098 000c 0028     		cmp	r0, #0
 1099 000e 04D0     		beq	.L62
 1100 0010 0228     		cmp	r0, #2
 1101 0012 02D0     		beq	.L62
 1102 0014 0328     		cmp	r0, #3
 1103 0016 0DD1     		bne	.L59
 1104 0018 06E0     		b	.L61
 1105              	.L62:
 441:ssd1306.c     ****         case 0:
 442:ssd1306.c     ****         case 2:
 443:ssd1306.c     ****             _width  = SSD1306_LCDWIDTH;
 1106              		.loc 1 443 0
 1107 001a 8022     		movs	r2, #128
 1108 001c 074B     		ldr	r3, .L63+4
 1109 001e 1A70     		strb	r2, [r3]
 444:ssd1306.c     ****             _height = SSD1306_LCDHEIGHT;
 1110              		.loc 1 444 0
 1111 0020 403A     		subs	r2, r2, #64
 1112 0022 074B     		ldr	r3, .L63+8
 1113 0024 1A70     		strb	r2, [r3]
 445:ssd1306.c     ****             break;
 1114              		.loc 1 445 0
 1115 0026 05E0     		b	.L59
 1116              	.L61:
 446:ssd1306.c     ****         case 1:
 447:ssd1306.c     ****         case 3:
 448:ssd1306.c     ****             _width  = SSD1306_LCDHEIGHT;
 1117              		.loc 1 448 0
 1118 0028 4022     		movs	r2, #64
 1119 002a 044B     		ldr	r3, .L63+4
 1120 002c 1A70     		strb	r2, [r3]
 449:ssd1306.c     ****             _height = SSD1306_LCDWIDTH;
 1121              		.loc 1 449 0
 1122 002e 4032     		adds	r2, r2, #64
 1123 0030 034B     		ldr	r3, .L63+8
 1124 0032 1A70     		strb	r2, [r3]
 1125              	.L59:
 450:ssd1306.c     ****             break;
 451:ssd1306.c     ****     }
 452:ssd1306.c     **** }
 1126              		.loc 1 452 0
 1127              		@ sp needed
 1128 0034 7047     		bx	lr
 1129              	.L64:
 1130 0036 C046     		.align	2
 1131              	.L63:
 1132 0038 00000000 		.word	rotation
 1133 003c 00000000 		.word	_width
 1134 0040 00000000 		.word	_height
 1135              		.cfi_endproc
 1136              	.LFE50:
 1137              		.size	setRotation, .-setRotation
ARM GAS  C:\Users\PC\AppData\Local\Temp\ccoEr05J.s 			page 29


 1138              		.section	.text.drawFastHLineInternal,"ax",%progbits
 1139              		.align	2
 1140              		.global	drawFastHLineInternal
 1141              		.code	16
 1142              		.thumb_func
 1143              		.type	drawFastHLineInternal, %function
 1144              	drawFastHLineInternal:
 1145              	.LFB52:
 453:ssd1306.c     **** 
 454:ssd1306.c     **** void drawHLine(uint8_t x, uint8_t y, uint8_t w, uint8_t color) {
 455:ssd1306.c     ****     bool bSwap = false;
 456:ssd1306.c     ****     switch(rotation) {
 457:ssd1306.c     ****         case 0:
 458:ssd1306.c     ****             // 0 degree rotation, do nothing
 459:ssd1306.c     ****             break;
 460:ssd1306.c     ****         case 1:
 461:ssd1306.c     ****             // 90 degree rotation, swap x & y for rotation, then invert x
 462:ssd1306.c     ****             bSwap = true;
 463:ssd1306.c     ****             ssd1306_swap(x, y);
 464:ssd1306.c     ****             x = SSD1306_LCDWIDTH - x - 1;
 465:ssd1306.c     ****             break;
 466:ssd1306.c     ****         case 2:
 467:ssd1306.c     ****             // 180 degree rotation, invert x and y - then shift y around for _height.
 468:ssd1306.c     ****             x = SSD1306_LCDWIDTH - x - 1;
 469:ssd1306.c     ****             y = SSD1306_LCDHEIGHT - y - 1;
 470:ssd1306.c     ****             x -= (w-1);
 471:ssd1306.c     ****             break;
 472:ssd1306.c     ****         case 3:
 473:ssd1306.c     ****             // 270 degree rotation, swap x & y for rotation, then invert y  and adjust y for w (not
 474:ssd1306.c     ****             bSwap = true;
 475:ssd1306.c     ****             ssd1306_swap(x, y);
 476:ssd1306.c     ****             y = SSD1306_LCDHEIGHT - y - 1;
 477:ssd1306.c     ****             y -= (w-1);
 478:ssd1306.c     ****             break;
 479:ssd1306.c     ****     }
 480:ssd1306.c     **** 
 481:ssd1306.c     ****     if(bSwap) {
 482:ssd1306.c     ****         drawFastVLineInternal(x, y, w, color);
 483:ssd1306.c     ****     }
 484:ssd1306.c     ****     else {
 485:ssd1306.c     ****         drawFastHLineInternal(x, y, w, color);
 486:ssd1306.c     ****     }
 487:ssd1306.c     **** }
 488:ssd1306.c     **** 
 489:ssd1306.c     **** void drawFastHLineInternal(uint8_t x, uint8_t y, uint8_t w, uint8_t color) {
 1146              		.loc 1 489 0
 1147              		.cfi_startproc
 1148              		@ args = 0, pretend = 0, frame = 0
 1149              		@ frame_needed = 0, uses_anonymous_args = 0
 1150              	.LVL157:
 1151 0000 10B5     		push	{r4, lr}
 1152              		.cfi_def_cfa_offset 8
 1153              		.cfi_offset 4, -8
 1154              		.cfi_offset 14, -4
 490:ssd1306.c     ****     // Do bounds/limit checks
 491:ssd1306.c     ****     if(y >= SSD1306_LCDHEIGHT) { return; }
 1155              		.loc 1 491 0
ARM GAS  C:\Users\PC\AppData\Local\Temp\ccoEr05J.s 			page 30


 1156 0002 3F29     		cmp	r1, #63
 1157 0004 37D8     		bhi	.L65
 492:ssd1306.c     **** 
 493:ssd1306.c     ****     // make sure we don't go off the edge of the display
 494:ssd1306.c     ****     if( (x + w) > SSD1306_LCDWIDTH) {
 1158              		.loc 1 494 0
 1159 0006 8418     		adds	r4, r0, r2
 1160 0008 802C     		cmp	r4, #128
 1161 000a 03DD     		ble	.L67
 495:ssd1306.c     ****         w = (SSD1306_LCDWIDTH - x);
 1162              		.loc 1 495 0
 1163 000c 8022     		movs	r2, #128
 1164              	.LVL158:
 1165 000e 5242     		rsbs	r2, r2, #0
 1166 0010 121A     		subs	r2, r2, r0
 1167 0012 D2B2     		uxtb	r2, r2
 1168              	.LVL159:
 1169              	.L67:
 496:ssd1306.c     ****     }
 497:ssd1306.c     **** 
 498:ssd1306.c     ****     // set up the pointer for  movement through the buffer
 499:ssd1306.c     ****     register uint8_t *pBuf = ssd1306_buffer;
 500:ssd1306.c     ****     // adjust the buffer pointer for the current row
 501:ssd1306.c     ****     pBuf += ((uint16_t)(y/8) * SSD1306_LCDWIDTH);
 1170              		.loc 1 501 0
 1171 0014 CC08     		lsrs	r4, r1, #3
 1172 0016 E401     		lsls	r4, r4, #7
 1173              	.LVL160:
 502:ssd1306.c     ****     // and offset x columns in
 503:ssd1306.c     ****     pBuf += x;
 1174              		.loc 1 503 0
 1175 0018 2018     		adds	r0, r4, r0
 1176              	.LVL161:
 1177 001a 174C     		ldr	r4, .L75
 1178              	.LVL162:
 1179 001c 2018     		adds	r0, r4, r0
 1180              	.LVL163:
 504:ssd1306.c     **** 
 505:ssd1306.c     ****     register uint8_t mask = 1 << (y&7);
 1181              		.loc 1 505 0
 1182 001e 0724     		movs	r4, #7
 1183 0020 0C40     		ands	r4, r1
 1184 0022 0121     		movs	r1, #1
 1185              	.LVL164:
 1186 0024 A140     		lsls	r1, r1, r4
 1187 0026 C9B2     		uxtb	r1, r1
 1188              	.LVL165:
 506:ssd1306.c     **** 
 507:ssd1306.c     ****     switch (color) {
 1189              		.loc 1 507 0
 1190 0028 012B     		cmp	r3, #1
 1191 002a 09D0     		beq	.L68
 1192 002c 002B     		cmp	r3, #0
 1193 002e 0CD0     		beq	.L69
 1194 0030 022B     		cmp	r3, #2
 1195 0032 1CD0     		beq	.L70
 1196 0034 1FE0     		b	.L65
ARM GAS  C:\Users\PC\AppData\Local\Temp\ccoEr05J.s 			page 31


 1197              	.LVL166:
 1198              	.L71:
 508:ssd1306.c     ****         case WHITE:                 while(w--) { *pBuf++ |= mask; }; break;
 1199              		.loc 1 508 0 discriminator 2
 1200 0036 0278     		ldrb	r2, [r0]
 1201 0038 0A43     		orrs	r2, r1
 1202 003a 0270     		strb	r2, [r0]
 1203 003c 1A00     		movs	r2, r3
 1204 003e 0130     		adds	r0, r0, #1
 1205              	.LVL167:
 1206              	.L68:
 1207              		.loc 1 508 0 is_stmt 0 discriminator 1
 1208 0040 531E     		subs	r3, r2, #1
 1209 0042 DBB2     		uxtb	r3, r3
 1210              	.LVL168:
 1211 0044 002A     		cmp	r2, #0
 1212 0046 F6D1     		bne	.L71
 1213 0048 15E0     		b	.L65
 1214              	.LVL169:
 1215              	.L69:
 509:ssd1306.c     ****         case BLACK: mask = ~mask;   while(w--) { *pBuf++ &= mask; }; break;
 1216              		.loc 1 509 0 is_stmt 1
 1217 004a C943     		mvns	r1, r1
 1218              	.LVL170:
 1219 004c C9B2     		uxtb	r1, r1
 1220              	.LVL171:
 1221 004e 04E0     		b	.L72
 1222              	.LVL172:
 1223              	.L73:
 1224              		.loc 1 509 0 is_stmt 0 discriminator 3
 1225 0050 0278     		ldrb	r2, [r0]
 1226 0052 0A40     		ands	r2, r1
 1227 0054 0270     		strb	r2, [r0]
 1228 0056 1A00     		movs	r2, r3
 1229 0058 0130     		adds	r0, r0, #1
 1230              	.LVL173:
 1231              	.L72:
 1232              		.loc 1 509 0 discriminator 1
 1233 005a 531E     		subs	r3, r2, #1
 1234 005c DBB2     		uxtb	r3, r3
 1235              	.LVL174:
 1236 005e 002A     		cmp	r2, #0
 1237 0060 F6D1     		bne	.L73
 1238 0062 08E0     		b	.L65
 1239              	.L74:
 1240              	.LVL175:
 510:ssd1306.c     ****         case INVERSE:               while(w--) { *pBuf++ ^= mask; }; break;
 1241              		.loc 1 510 0 is_stmt 1 discriminator 2
 1242 0064 0278     		ldrb	r2, [r0]
 1243 0066 4A40     		eors	r2, r1
 1244 0068 0270     		strb	r2, [r0]
 1245 006a 1A00     		movs	r2, r3
 1246 006c 0130     		adds	r0, r0, #1
 1247              	.LVL176:
 1248              	.L70:
 1249              		.loc 1 510 0 is_stmt 0 discriminator 1
 1250 006e 531E     		subs	r3, r2, #1
ARM GAS  C:\Users\PC\AppData\Local\Temp\ccoEr05J.s 			page 32


 1251 0070 DBB2     		uxtb	r3, r3
 1252              	.LVL177:
 1253 0072 002A     		cmp	r2, #0
 1254 0074 F6D1     		bne	.L74
 1255              	.LVL178:
 1256              	.L65:
 511:ssd1306.c     ****     }
 512:ssd1306.c     **** }
 1257              		.loc 1 512 0 is_stmt 1
 1258              		@ sp needed
 1259 0076 10BD     		pop	{r4, pc}
 1260              	.L76:
 1261              		.align	2
 1262              	.L75:
 1263 0078 00000000 		.word	.LANCHOR0
 1264              		.cfi_endproc
 1265              	.LFE52:
 1266              		.size	drawFastHLineInternal, .-drawFastHLineInternal
 1267              		.section	.text.drawFastVLineInternal,"ax",%progbits
 1268              		.align	2
 1269              		.global	drawFastVLineInternal
 1270              		.code	16
 1271              		.thumb_func
 1272              		.type	drawFastVLineInternal, %function
 1273              	drawFastVLineInternal:
 1274              	.LFB54:
 513:ssd1306.c     **** 
 514:ssd1306.c     **** void drawVLine(uint8_t x, uint8_t y, uint8_t h, uint8_t color) {
 515:ssd1306.c     ****     bool bSwap = false;
 516:ssd1306.c     ****     switch(rotation) {
 517:ssd1306.c     ****         case 0:
 518:ssd1306.c     ****             break;
 519:ssd1306.c     ****         case 1:
 520:ssd1306.c     ****             // 90 degree rotation, swap x & y for rotation, then invert x and adjust x for h (now t
 521:ssd1306.c     ****             bSwap = true;
 522:ssd1306.c     ****             ssd1306_swap(x, y);
 523:ssd1306.c     ****             x = SSD1306_LCDWIDTH - x - 1;
 524:ssd1306.c     ****             x -= (h-1);
 525:ssd1306.c     ****             break;
 526:ssd1306.c     ****         case 2:
 527:ssd1306.c     ****             // 180 degree rotation, invert x and y - then shift y around for _height.
 528:ssd1306.c     ****             x = SSD1306_LCDWIDTH - x - 1;
 529:ssd1306.c     ****             y = SSD1306_LCDHEIGHT - y - 1;
 530:ssd1306.c     ****             y -= (h-1);
 531:ssd1306.c     ****             break;
 532:ssd1306.c     ****         case 3:
 533:ssd1306.c     ****             // 270 degree rotation, swap x & y for rotation, then invert y
 534:ssd1306.c     ****             bSwap = true;
 535:ssd1306.c     ****             ssd1306_swap(x, y);
 536:ssd1306.c     ****             y = SSD1306_LCDHEIGHT - y - 1;
 537:ssd1306.c     ****             break;
 538:ssd1306.c     ****     }
 539:ssd1306.c     **** 
 540:ssd1306.c     ****     if(bSwap) {
 541:ssd1306.c     ****         drawFastHLineInternal(x, y, h, color);
 542:ssd1306.c     ****     }
 543:ssd1306.c     ****     else {
ARM GAS  C:\Users\PC\AppData\Local\Temp\ccoEr05J.s 			page 33


 544:ssd1306.c     ****         drawFastVLineInternal(x, y, h, color);
 545:ssd1306.c     ****     }
 546:ssd1306.c     **** }
 547:ssd1306.c     **** 
 548:ssd1306.c     **** void drawFastVLineInternal(uint8_t x, uint8_t __y, uint8_t __h, uint8_t color) {
 1275              		.loc 1 548 0
 1276              		.cfi_startproc
 1277              		@ args = 0, pretend = 0, frame = 0
 1278              		@ frame_needed = 0, uses_anonymous_args = 0
 1279              	.LVL179:
 1280 0000 70B5     		push	{r4, r5, r6, lr}
 1281              		.cfi_def_cfa_offset 16
 1282              		.cfi_offset 4, -16
 1283              		.cfi_offset 5, -12
 1284              		.cfi_offset 6, -8
 1285              		.cfi_offset 14, -4
 549:ssd1306.c     **** 
 550:ssd1306.c     ****     // do nothing if we're off the left or right side of the screen
 551:ssd1306.c     ****     if(x >= SSD1306_LCDWIDTH) { return; }
 1286              		.loc 1 551 0
 1287 0002 44B2     		sxtb	r4, r0
 1288 0004 002C     		cmp	r4, #0
 1289 0006 60DB     		blt	.L77
 552:ssd1306.c     **** 
 553:ssd1306.c     ****     // make sure we don't go past the _height of the display
 554:ssd1306.c     ****     if( (__y + __h) > SSD1306_LCDHEIGHT) {
 1290              		.loc 1 554 0
 1291 0008 8C18     		adds	r4, r1, r2
 1292 000a 402C     		cmp	r4, #64
 1293 000c 02DD     		ble	.L79
 555:ssd1306.c     ****         __h = (SSD1306_LCDHEIGHT - __y);
 1294              		.loc 1 555 0
 1295 000e 4022     		movs	r2, #64
 1296              	.LVL180:
 1297 0010 521A     		subs	r2, r2, r1
 1298 0012 D2B2     		uxtb	r2, r2
 1299              	.LVL181:
 1300              	.L79:
 556:ssd1306.c     ****     }
 557:ssd1306.c     **** 
 558:ssd1306.c     ****     // this display doesn't need ints for coordinates, use local byte registers for faster juggling
 559:ssd1306.c     ****     register uint8_t y = __y;
 560:ssd1306.c     ****     register uint8_t h = __h;
 561:ssd1306.c     **** 
 562:ssd1306.c     ****     // set up the pointer for fast movement through the buffer
 563:ssd1306.c     ****     register uint8_t *pBuf = ssd1306_buffer;
 564:ssd1306.c     ****     // adjust the buffer pointer for the current row
 565:ssd1306.c     ****     pBuf += ((uint16_t)(y/8) * SSD1306_LCDWIDTH);
 1301              		.loc 1 565 0
 1302 0014 CC08     		lsrs	r4, r1, #3
 1303 0016 E401     		lsls	r4, r4, #7
 1304              	.LVL182:
 566:ssd1306.c     ****     // and offset x columns in
 567:ssd1306.c     ****     pBuf += x;
 1305              		.loc 1 567 0
 1306 0018 2018     		adds	r0, r4, r0
 1307              	.LVL183:
ARM GAS  C:\Users\PC\AppData\Local\Temp\ccoEr05J.s 			page 34


 1308 001a 2C4C     		ldr	r4, .L95
 1309              	.LVL184:
 1310 001c 2018     		adds	r0, r4, r0
 1311              	.LVL185:
 568:ssd1306.c     **** 
 569:ssd1306.c     ****     // do the first partial byte, if necessary - this requires some masking
 570:ssd1306.c     ****     register uint8_t mod = (y&7);
 1312              		.loc 1 570 0
 1313 001e 0724     		movs	r4, #7
 1314 0020 2140     		ands	r1, r4
 1315              	.LVL186:
 571:ssd1306.c     ****     if(mod) {
 1316              		.loc 1 571 0
 1317 0022 21D0     		beq	.L80
 1318              	.LBB6:
 572:ssd1306.c     ****         // mask off the high n bits we want to set
 573:ssd1306.c     ****         mod = 8-mod;
 1319              		.loc 1 573 0
 1320 0024 0824     		movs	r4, #8
 1321 0026 611A     		subs	r1, r4, r1
 1322              	.LVL187:
 1323 0028 C9B2     		uxtb	r1, r1
 1324              	.LVL188:
 574:ssd1306.c     **** 
 575:ssd1306.c     ****         // note - lookup table results in a nearly 10% performance improvement in fill* functions
 576:ssd1306.c     ****         // register uint8_t mask = ~(0xFF >> (mod));
 577:ssd1306.c     ****         static uint8_t premask[8] = {0x00, 0x80, 0xC0, 0xE0, 0xF0, 0xF8, 0xFC, 0xFE };
 578:ssd1306.c     ****         register uint8_t mask = premask[mod];
 1325              		.loc 1 578 0
 1326 002a 294C     		ldr	r4, .L95+4
 1327 002c 645C     		ldrb	r4, [r4, r1]
 1328              	.LVL189:
 579:ssd1306.c     **** 
 580:ssd1306.c     ****         // adjust the mask if we're not going to reach the end of this byte
 581:ssd1306.c     ****         if( h < mod) {
 1329              		.loc 1 581 0
 1330 002e 8A42     		cmp	r2, r1
 1331 0030 03D2     		bcs	.L81
 582:ssd1306.c     ****             mask &= (0XFF >> (mod-h));
 1332              		.loc 1 582 0
 1333 0032 8E1A     		subs	r6, r1, r2
 1334 0034 FF25     		movs	r5, #255
 1335 0036 3541     		asrs	r5, r5, r6
 1336 0038 2C40     		ands	r4, r5
 1337              	.LVL190:
 1338              	.L81:
 583:ssd1306.c     ****         }
 584:ssd1306.c     **** 
 585:ssd1306.c     ****         switch (color) {
 1339              		.loc 1 585 0
 1340 003a 012B     		cmp	r3, #1
 1341 003c 04D0     		beq	.L83
 1342 003e 002B     		cmp	r3, #0
 1343 0040 06D0     		beq	.L84
 1344 0042 022B     		cmp	r3, #2
 1345 0044 08D0     		beq	.L85
 1346 0046 0AE0     		b	.L82
ARM GAS  C:\Users\PC\AppData\Local\Temp\ccoEr05J.s 			page 35


 1347              	.L83:
 586:ssd1306.c     ****             case WHITE:   *pBuf |=  mask;  break;
 1348              		.loc 1 586 0
 1349 0048 0578     		ldrb	r5, [r0]
 1350 004a 2C43     		orrs	r4, r5
 1351              	.LVL191:
 1352 004c 0470     		strb	r4, [r0]
 1353 004e 06E0     		b	.L82
 1354              	.LVL192:
 1355              	.L84:
 587:ssd1306.c     ****             case BLACK:   *pBuf &= ~mask;  break;
 1356              		.loc 1 587 0
 1357 0050 0578     		ldrb	r5, [r0]
 1358 0052 A543     		bics	r5, r4
 1359 0054 0570     		strb	r5, [r0]
 1360 0056 02E0     		b	.L82
 1361              	.L85:
 588:ssd1306.c     ****             case INVERSE: *pBuf ^=  mask;  break;
 1362              		.loc 1 588 0
 1363 0058 0578     		ldrb	r5, [r0]
 1364 005a 6C40     		eors	r4, r5
 1365              	.LVL193:
 1366 005c 0470     		strb	r4, [r0]
 1367              	.L82:
 589:ssd1306.c     ****         }
 590:ssd1306.c     **** 
 591:ssd1306.c     ****         // fast exit if we're done here!
 592:ssd1306.c     ****         if(h<mod) { return; }
 1368              		.loc 1 592 0
 1369 005e 8A42     		cmp	r2, r1
 1370 0060 33D3     		bcc	.L77
 593:ssd1306.c     **** 
 594:ssd1306.c     ****         h -= mod;
 1371              		.loc 1 594 0
 1372 0062 521A     		subs	r2, r2, r1
 1373              	.LVL194:
 1374 0064 D2B2     		uxtb	r2, r2
 1375              	.LVL195:
 595:ssd1306.c     **** 
 596:ssd1306.c     ****         pBuf += SSD1306_LCDWIDTH;
 1376              		.loc 1 596 0
 1377 0066 8030     		adds	r0, r0, #128
 1378              	.LVL196:
 1379              	.L80:
 1380              	.LBE6:
 597:ssd1306.c     ****     }
 598:ssd1306.c     **** 
 599:ssd1306.c     **** 
 600:ssd1306.c     ****     // write solid bytes while we can - effectively doing 8 rows at a time
 601:ssd1306.c     ****     if(h >= 8) {
 1381              		.loc 1 601 0
 1382 0068 072A     		cmp	r2, #7
 1383 006a 15D9     		bls	.L86
 602:ssd1306.c     ****         if (color == INVERSE)  {          // separate copy of the code so we don't impact performan
 1384              		.loc 1 602 0
 1385 006c 022B     		cmp	r3, #2
 1386 006e 08D1     		bne	.L87
ARM GAS  C:\Users\PC\AppData\Local\Temp\ccoEr05J.s 			page 36


 1387              	.LVL197:
 1388              	.L88:
 603:ssd1306.c     ****             do  {
 604:ssd1306.c     ****                 *pBuf=~(*pBuf);
 1389              		.loc 1 604 0 discriminator 1
 1390 0070 0178     		ldrb	r1, [r0]
 1391 0072 C943     		mvns	r1, r1
 1392 0074 0170     		strb	r1, [r0]
 605:ssd1306.c     **** 
 606:ssd1306.c     ****                 // adjust the buffer forward 8 rows worth of data
 607:ssd1306.c     ****                 pBuf += SSD1306_LCDWIDTH;
 1393              		.loc 1 607 0 discriminator 1
 1394 0076 8030     		adds	r0, r0, #128
 1395              	.LVL198:
 608:ssd1306.c     **** 
 609:ssd1306.c     ****                 // adjust h & y (there's got to be a faster way for me to do this, but this should 
 610:ssd1306.c     ****                 h -= 8;
 1396              		.loc 1 610 0 discriminator 1
 1397 0078 083A     		subs	r2, r2, #8
 1398              	.LVL199:
 1399 007a D2B2     		uxtb	r2, r2
 1400              	.LVL200:
 611:ssd1306.c     ****             } while(h >= 8);
 1401              		.loc 1 611 0 discriminator 1
 1402 007c 072A     		cmp	r2, #7
 1403 007e F7D8     		bhi	.L88
 1404 0080 0AE0     		b	.L86
 1405              	.LVL201:
 1406              	.L87:
 1407              	.LBB7:
 612:ssd1306.c     ****         }
 613:ssd1306.c     ****         else {
 614:ssd1306.c     ****             // store a local value to work with
 615:ssd1306.c     ****             register uint8_t val = (color == WHITE) ? 255 : 0;
 1408              		.loc 1 615 0
 1409 0082 012B     		cmp	r3, #1
 1410 0084 01D1     		bne	.L94
 1411 0086 FF21     		movs	r1, #255
 1412              	.LVL202:
 1413 0088 00E0     		b	.L90
 1414              	.LVL203:
 1415              	.L94:
 1416 008a 0021     		movs	r1, #0
 1417              	.LVL204:
 1418              	.L90:
 616:ssd1306.c     **** 
 617:ssd1306.c     ****             do  {
 618:ssd1306.c     ****                 // write our value in
 619:ssd1306.c     ****                 *pBuf = val;
 1419              		.loc 1 619 0 discriminator 1
 1420 008c 0170     		strb	r1, [r0]
 620:ssd1306.c     **** 
 621:ssd1306.c     ****                 // adjust the buffer forward 8 rows worth of data
 622:ssd1306.c     ****                 pBuf += SSD1306_LCDWIDTH;
 1421              		.loc 1 622 0 discriminator 1
 1422 008e 8030     		adds	r0, r0, #128
 1423              	.LVL205:
ARM GAS  C:\Users\PC\AppData\Local\Temp\ccoEr05J.s 			page 37


 623:ssd1306.c     **** 
 624:ssd1306.c     ****                 // adjust h & y (there's got to be a faster way for me to do this, but this should 
 625:ssd1306.c     ****                 h -= 8;
 1424              		.loc 1 625 0 discriminator 1
 1425 0090 083A     		subs	r2, r2, #8
 1426              	.LVL206:
 1427 0092 D2B2     		uxtb	r2, r2
 1428              	.LVL207:
 626:ssd1306.c     ****             } while(h >= 8);
 1429              		.loc 1 626 0 discriminator 1
 1430 0094 072A     		cmp	r2, #7
 1431 0096 F9D8     		bhi	.L90
 1432              	.L86:
 1433              	.LBE7:
 627:ssd1306.c     ****         }
 628:ssd1306.c     ****     }
 629:ssd1306.c     **** 
 630:ssd1306.c     ****     // now do the final partial byte, if necessary
 631:ssd1306.c     ****     if(h) {
 1434              		.loc 1 631 0
 1435 0098 002A     		cmp	r2, #0
 1436 009a 16D0     		beq	.L77
 1437              	.LBB8:
 632:ssd1306.c     ****         mod = h & 7;
 1438              		.loc 1 632 0
 1439 009c 0721     		movs	r1, #7
 1440 009e 0A40     		ands	r2, r1
 1441              	.LVL208:
 633:ssd1306.c     ****         // this time we want to mask the low bits of the byte, vs the high bits we did above
 634:ssd1306.c     ****         // register uint8_t mask = (1 << mod) - 1;
 635:ssd1306.c     ****         // note - lookup table results in a nearly 10% performance improvement in fill* functions
 636:ssd1306.c     ****         static uint8_t postmask[8] = {0x00, 0x01, 0x03, 0x07, 0x0F, 0x1F, 0x3F, 0x7F };
 637:ssd1306.c     ****         register uint8_t mask = postmask[mod];
 1442              		.loc 1 637 0
 1443 00a0 0B49     		ldr	r1, .L95+4
 1444 00a2 8A18     		adds	r2, r1, r2
 1445              	.LVL209:
 1446 00a4 127A     		ldrb	r2, [r2, #8]
 1447              	.LVL210:
 638:ssd1306.c     ****         switch (color) {
 1448              		.loc 1 638 0
 1449 00a6 012B     		cmp	r3, #1
 1450 00a8 04D0     		beq	.L91
 1451 00aa 002B     		cmp	r3, #0
 1452 00ac 06D0     		beq	.L92
 1453 00ae 022B     		cmp	r3, #2
 1454 00b0 08D0     		beq	.L93
 1455 00b2 0AE0     		b	.L77
 1456              	.L91:
 639:ssd1306.c     ****             case WHITE:   *pBuf |=  mask;  break;
 1457              		.loc 1 639 0
 1458 00b4 0378     		ldrb	r3, [r0]
 1459              	.LVL211:
 1460 00b6 1A43     		orrs	r2, r3
 1461              	.LVL212:
 1462 00b8 0270     		strb	r2, [r0]
 1463 00ba 06E0     		b	.L77
ARM GAS  C:\Users\PC\AppData\Local\Temp\ccoEr05J.s 			page 38


 1464              	.LVL213:
 1465              	.L92:
 640:ssd1306.c     ****             case BLACK:   *pBuf &= ~mask;  break;
 1466              		.loc 1 640 0
 1467 00bc 0378     		ldrb	r3, [r0]
 1468              	.LVL214:
 1469 00be 9343     		bics	r3, r2
 1470 00c0 0370     		strb	r3, [r0]
 1471 00c2 02E0     		b	.L77
 1472              	.LVL215:
 1473              	.L93:
 641:ssd1306.c     ****             case INVERSE: *pBuf ^=  mask;  break;
 1474              		.loc 1 641 0
 1475 00c4 0378     		ldrb	r3, [r0]
 1476              	.LVL216:
 1477 00c6 5A40     		eors	r2, r3
 1478              	.LVL217:
 1479 00c8 0270     		strb	r2, [r0]
 1480              	.LVL218:
 1481              	.L77:
 1482              	.LBE8:
 642:ssd1306.c     ****         }
 643:ssd1306.c     ****     }
 644:ssd1306.c     **** }
 1483              		.loc 1 644 0
 1484              		@ sp needed
 1485 00ca 70BD     		pop	{r4, r5, r6, pc}
 1486              	.L96:
 1487              		.align	2
 1488              	.L95:
 1489 00cc 00000000 		.word	.LANCHOR0
 1490 00d0 00000000 		.word	.LANCHOR1
 1491              		.cfi_endproc
 1492              	.LFE54:
 1493              		.size	drawFastVLineInternal, .-drawFastVLineInternal
 1494              		.section	.text.drawHLine,"ax",%progbits
 1495              		.align	2
 1496              		.global	drawHLine
 1497              		.code	16
 1498              		.thumb_func
 1499              		.type	drawHLine, %function
 1500              	drawHLine:
 1501              	.LFB51:
 454:ssd1306.c     ****     bool bSwap = false;
 1502              		.loc 1 454 0
 1503              		.cfi_startproc
 1504              		@ args = 0, pretend = 0, frame = 0
 1505              		@ frame_needed = 0, uses_anonymous_args = 0
 1506              	.LVL219:
 1507 0000 10B5     		push	{r4, lr}
 1508              		.cfi_def_cfa_offset 8
 1509              		.cfi_offset 4, -8
 1510              		.cfi_offset 14, -4
 1511              	.LVL220:
 456:ssd1306.c     ****         case 0:
 1512              		.loc 1 456 0
 1513 0002 164C     		ldr	r4, .L106
ARM GAS  C:\Users\PC\AppData\Local\Temp\ccoEr05J.s 			page 39


 1514 0004 2478     		ldrb	r4, [r4]
 1515 0006 022C     		cmp	r4, #2
 1516 0008 09D0     		beq	.L99
 1517 000a 032C     		cmp	r4, #3
 1518 000c 13D0     		beq	.L100
 1519 000e 012C     		cmp	r4, #1
 1520 0010 1BD1     		bne	.L105
 1521              	.LVL221:
 464:ssd1306.c     ****             break;
 1522              		.loc 1 464 0
 1523 0012 7F24     		movs	r4, #127
 1524 0014 641A     		subs	r4, r4, r1
 1525              	.LVL222:
 1526              	.LBB9:
 463:ssd1306.c     ****             x = SSD1306_LCDWIDTH - x - 1;
 1527              		.loc 1 463 0
 1528 0016 0100     		movs	r1, r0
 1529              	.LBE9:
 464:ssd1306.c     ****             break;
 1530              		.loc 1 464 0
 1531 0018 E0B2     		uxtb	r0, r4
 1532              	.LVL223:
 462:ssd1306.c     ****             ssd1306_swap(x, y);
 1533              		.loc 1 462 0
 1534 001a 0124     		movs	r4, #1
 1535              	.LVL224:
 465:ssd1306.c     ****         case 2:
 1536              		.loc 1 465 0
 1537 001c 16E0     		b	.L98
 1538              	.LVL225:
 1539              	.L99:
 468:ssd1306.c     ****             y = SSD1306_LCDHEIGHT - y - 1;
 1540              		.loc 1 468 0
 1541 001e 7F24     		movs	r4, #127
 1542 0020 201A     		subs	r0, r4, r0
 1543              	.LVL226:
 1544 0022 C0B2     		uxtb	r0, r0
 1545              	.LVL227:
 469:ssd1306.c     ****             x -= (w-1);
 1546              		.loc 1 469 0
 1547 0024 3F24     		movs	r4, #63
 1548 0026 611A     		subs	r1, r4, r1
 1549              	.LVL228:
 1550 0028 C9B2     		uxtb	r1, r1
 1551              	.LVL229:
 470:ssd1306.c     ****             break;
 1552              		.loc 1 470 0
 1553 002a 801A     		subs	r0, r0, r2
 1554              	.LVL230:
 1555 002c C0B2     		uxtb	r0, r0
 1556 002e 0130     		adds	r0, r0, #1
 1557 0030 C0B2     		uxtb	r0, r0
 1558              	.LVL231:
 455:ssd1306.c     ****     switch(rotation) {
 1559              		.loc 1 455 0
 1560 0032 0024     		movs	r4, #0
 471:ssd1306.c     ****         case 3:
ARM GAS  C:\Users\PC\AppData\Local\Temp\ccoEr05J.s 			page 40


 1561              		.loc 1 471 0
 1562 0034 0AE0     		b	.L98
 1563              	.L100:
 1564              	.LVL232:
 476:ssd1306.c     ****             y -= (w-1);
 1565              		.loc 1 476 0
 1566 0036 3F24     		movs	r4, #63
 1567 0038 241A     		subs	r4, r4, r0
 1568 003a E4B2     		uxtb	r4, r4
 1569              	.LVL233:
 477:ssd1306.c     ****             break;
 1570              		.loc 1 477 0
 1571 003c A41A     		subs	r4, r4, r2
 1572              	.LVL234:
 1573 003e E4B2     		uxtb	r4, r4
 1574 0040 0134     		adds	r4, r4, #1
 1575              	.LVL235:
 1576              	.LBB10:
 475:ssd1306.c     ****             y = SSD1306_LCDHEIGHT - y - 1;
 1577              		.loc 1 475 0
 1578 0042 0800     		movs	r0, r1
 1579              	.LVL236:
 1580              	.LBE10:
 477:ssd1306.c     ****             break;
 1581              		.loc 1 477 0
 1582 0044 E1B2     		uxtb	r1, r4
 1583              	.LVL237:
 474:ssd1306.c     ****             ssd1306_swap(x, y);
 1584              		.loc 1 474 0
 1585 0046 0124     		movs	r4, #1
 1586              	.LVL238:
 478:ssd1306.c     ****     }
 1587              		.loc 1 478 0
 1588 0048 00E0     		b	.L98
 1589              	.LVL239:
 1590              	.L105:
 455:ssd1306.c     ****     switch(rotation) {
 1591              		.loc 1 455 0
 1592 004a 0024     		movs	r4, #0
 1593              	.LVL240:
 1594              	.L98:
 481:ssd1306.c     ****         drawFastVLineInternal(x, y, w, color);
 1595              		.loc 1 481 0
 1596 004c 002C     		cmp	r4, #0
 1597 004e 02D0     		beq	.L102
 482:ssd1306.c     ****     }
 1598              		.loc 1 482 0
 1599 0050 FFF7FEFF 		bl	drawFastVLineInternal
 1600              	.LVL241:
 1601 0054 01E0     		b	.L97
 1602              	.LVL242:
 1603              	.L102:
 485:ssd1306.c     ****     }
 1604              		.loc 1 485 0
 1605 0056 FFF7FEFF 		bl	drawFastHLineInternal
 1606              	.LVL243:
 1607              	.L97:
ARM GAS  C:\Users\PC\AppData\Local\Temp\ccoEr05J.s 			page 41


 487:ssd1306.c     **** 
 1608              		.loc 1 487 0
 1609              		@ sp needed
 1610              	.LVL244:
 1611 005a 10BD     		pop	{r4, pc}
 1612              	.L107:
 1613              		.align	2
 1614              	.L106:
 1615 005c 00000000 		.word	rotation
 1616              		.cfi_endproc
 1617              	.LFE51:
 1618              		.size	drawHLine, .-drawHLine
 1619              		.section	.text.drawVLine,"ax",%progbits
 1620              		.align	2
 1621              		.global	drawVLine
 1622              		.code	16
 1623              		.thumb_func
 1624              		.type	drawVLine, %function
 1625              	drawVLine:
 1626              	.LFB53:
 514:ssd1306.c     ****     bool bSwap = false;
 1627              		.loc 1 514 0
 1628              		.cfi_startproc
 1629              		@ args = 0, pretend = 0, frame = 0
 1630              		@ frame_needed = 0, uses_anonymous_args = 0
 1631              	.LVL245:
 1632 0000 10B5     		push	{r4, lr}
 1633              		.cfi_def_cfa_offset 8
 1634              		.cfi_offset 4, -8
 1635              		.cfi_offset 14, -4
 1636              	.LVL246:
 516:ssd1306.c     ****         case 0:
 1637              		.loc 1 516 0
 1638 0002 164C     		ldr	r4, .L117
 1639 0004 2478     		ldrb	r4, [r4]
 1640 0006 022C     		cmp	r4, #2
 1641 0008 0DD0     		beq	.L110
 1642 000a 032C     		cmp	r4, #3
 1643 000c 17D0     		beq	.L111
 1644 000e 012C     		cmp	r4, #1
 1645 0010 1BD1     		bne	.L116
 1646              	.LVL247:
 523:ssd1306.c     ****             x -= (h-1);
 1647              		.loc 1 523 0
 1648 0012 7F24     		movs	r4, #127
 1649 0014 641A     		subs	r4, r4, r1
 1650 0016 E4B2     		uxtb	r4, r4
 1651              	.LVL248:
 524:ssd1306.c     ****             break;
 1652              		.loc 1 524 0
 1653 0018 A41A     		subs	r4, r4, r2
 1654              	.LVL249:
 1655 001a E4B2     		uxtb	r4, r4
 1656 001c 0134     		adds	r4, r4, #1
 1657              	.LVL250:
 1658              	.LBB11:
 522:ssd1306.c     ****             x = SSD1306_LCDWIDTH - x - 1;
ARM GAS  C:\Users\PC\AppData\Local\Temp\ccoEr05J.s 			page 42


 1659              		.loc 1 522 0
 1660 001e 0100     		movs	r1, r0
 1661              	.LBE11:
 524:ssd1306.c     ****             break;
 1662              		.loc 1 524 0
 1663 0020 E0B2     		uxtb	r0, r4
 1664              	.LVL251:
 521:ssd1306.c     ****             ssd1306_swap(x, y);
 1665              		.loc 1 521 0
 1666 0022 0124     		movs	r4, #1
 1667              	.LVL252:
 525:ssd1306.c     ****         case 2:
 1668              		.loc 1 525 0
 1669 0024 12E0     		b	.L109
 1670              	.LVL253:
 1671              	.L110:
 528:ssd1306.c     ****             y = SSD1306_LCDHEIGHT - y - 1;
 1672              		.loc 1 528 0
 1673 0026 7F24     		movs	r4, #127
 1674 0028 201A     		subs	r0, r4, r0
 1675              	.LVL254:
 1676 002a C0B2     		uxtb	r0, r0
 1677              	.LVL255:
 529:ssd1306.c     ****             y -= (h-1);
 1678              		.loc 1 529 0
 1679 002c 3F24     		movs	r4, #63
 1680 002e 611A     		subs	r1, r4, r1
 1681              	.LVL256:
 1682 0030 C9B2     		uxtb	r1, r1
 1683              	.LVL257:
 530:ssd1306.c     ****             break;
 1684              		.loc 1 530 0
 1685 0032 891A     		subs	r1, r1, r2
 1686              	.LVL258:
 1687 0034 C9B2     		uxtb	r1, r1
 1688 0036 0131     		adds	r1, r1, #1
 1689 0038 C9B2     		uxtb	r1, r1
 1690              	.LVL259:
 515:ssd1306.c     ****     switch(rotation) {
 1691              		.loc 1 515 0
 1692 003a 0024     		movs	r4, #0
 531:ssd1306.c     ****         case 3:
 1693              		.loc 1 531 0
 1694 003c 06E0     		b	.L109
 1695              	.L111:
 1696              	.LVL260:
 536:ssd1306.c     ****             break;
 1697              		.loc 1 536 0
 1698 003e 3F24     		movs	r4, #63
 1699 0040 241A     		subs	r4, r4, r0
 1700              	.LVL261:
 1701              	.LBB12:
 535:ssd1306.c     ****             y = SSD1306_LCDHEIGHT - y - 1;
 1702              		.loc 1 535 0
 1703 0042 0800     		movs	r0, r1
 1704              	.LVL262:
 1705              	.LBE12:
ARM GAS  C:\Users\PC\AppData\Local\Temp\ccoEr05J.s 			page 43


 536:ssd1306.c     ****             break;
 1706              		.loc 1 536 0
 1707 0044 E1B2     		uxtb	r1, r4
 1708              	.LVL263:
 534:ssd1306.c     ****             ssd1306_swap(x, y);
 1709              		.loc 1 534 0
 1710 0046 0124     		movs	r4, #1
 1711              	.LVL264:
 537:ssd1306.c     ****     }
 1712              		.loc 1 537 0
 1713 0048 00E0     		b	.L109
 1714              	.LVL265:
 1715              	.L116:
 515:ssd1306.c     ****     switch(rotation) {
 1716              		.loc 1 515 0
 1717 004a 0024     		movs	r4, #0
 1718              	.LVL266:
 1719              	.L109:
 540:ssd1306.c     ****         drawFastHLineInternal(x, y, h, color);
 1720              		.loc 1 540 0
 1721 004c 002C     		cmp	r4, #0
 1722 004e 02D0     		beq	.L113
 541:ssd1306.c     ****     }
 1723              		.loc 1 541 0
 1724 0050 FFF7FEFF 		bl	drawFastHLineInternal
 1725              	.LVL267:
 1726 0054 01E0     		b	.L108
 1727              	.LVL268:
 1728              	.L113:
 544:ssd1306.c     ****     }
 1729              		.loc 1 544 0
 1730 0056 FFF7FEFF 		bl	drawFastVLineInternal
 1731              	.LVL269:
 1732              	.L108:
 546:ssd1306.c     **** 
 1733              		.loc 1 546 0
 1734              		@ sp needed
 1735              	.LVL270:
 1736 005a 10BD     		pop	{r4, pc}
 1737              	.L118:
 1738              		.align	2
 1739              	.L117:
 1740 005c 00000000 		.word	rotation
 1741              		.cfi_endproc
 1742              	.LFE53:
 1743              		.size	drawVLine, .-drawVLine
 1744              		.section	.text.fillRect,"ax",%progbits
 1745              		.align	2
 1746              		.global	fillRect
 1747              		.code	16
 1748              		.thumb_func
 1749              		.type	fillRect, %function
 1750              	fillRect:
 1751              	.LFB47:
 420:ssd1306.c     ****   for (int16_t i = x; i < x + w; i++)
 1752              		.loc 1 420 0
 1753              		.cfi_startproc
ARM GAS  C:\Users\PC\AppData\Local\Temp\ccoEr05J.s 			page 44


 1754              		@ args = 4, pretend = 0, frame = 8
 1755              		@ frame_needed = 0, uses_anonymous_args = 0
 1756              	.LVL271:
 1757 0000 F0B5     		push	{r4, r5, r6, r7, lr}
 1758              		.cfi_def_cfa_offset 20
 1759              		.cfi_offset 4, -20
 1760              		.cfi_offset 5, -16
 1761              		.cfi_offset 6, -12
 1762              		.cfi_offset 7, -8
 1763              		.cfi_offset 14, -4
 1764 0002 83B0     		sub	sp, sp, #12
 1765              		.cfi_def_cfa_offset 32
 1766 0004 0600     		movs	r6, r0
 1767 0006 0091     		str	r1, [sp]
 1768 0008 1700     		movs	r7, r2
 1769 000a 0193     		str	r3, [sp, #4]
 1770 000c 08AB     		add	r3, sp, #32
 1771              	.LVL272:
 1772 000e 1D78     		ldrb	r5, [r3]
 1773              	.LBB13:
 421:ssd1306.c     ****     drawVLine(i, y, h, color);
 1774              		.loc 1 421 0
 1775 0010 04B2     		sxth	r4, r0
 1776              	.LVL273:
 1777 0012 07E0     		b	.L120
 1778              	.LVL274:
 1779              	.L121:
 422:ssd1306.c     **** }
 1780              		.loc 1 422 0 discriminator 3
 1781 0014 E0B2     		uxtb	r0, r4
 1782 0016 2B00     		movs	r3, r5
 1783 0018 019A     		ldr	r2, [sp, #4]
 1784 001a 0099     		ldr	r1, [sp]
 1785 001c FFF7FEFF 		bl	drawVLine
 1786              	.LVL275:
 421:ssd1306.c     ****     drawVLine(i, y, h, color);
 1787              		.loc 1 421 0 discriminator 3
 1788 0020 0134     		adds	r4, r4, #1
 1789              	.LVL276:
 1790 0022 24B2     		sxth	r4, r4
 1791              	.LVL277:
 1792              	.L120:
 421:ssd1306.c     ****     drawVLine(i, y, h, color);
 1793              		.loc 1 421 0 is_stmt 0 discriminator 1
 1794 0024 F319     		adds	r3, r6, r7
 1795 0026 9C42     		cmp	r4, r3
 1796 0028 F4DB     		blt	.L121
 1797              	.LBE13:
 423:ssd1306.c     **** 
 1798              		.loc 1 423 0 is_stmt 1
 1799 002a 03B0     		add	sp, sp, #12
 1800              		@ sp needed
 1801              	.LVL278:
 1802 002c F0BD     		pop	{r4, r5, r6, r7, pc}
 1803              		.cfi_endproc
 1804              	.LFE47:
 1805              		.size	fillRect, .-fillRect
ARM GAS  C:\Users\PC\AppData\Local\Temp\ccoEr05J.s 			page 45


 1806 002e C046     		.section	.text.fillScreen,"ax",%progbits
 1807              		.align	2
 1808              		.global	fillScreen
 1809              		.code	16
 1810              		.thumb_func
 1811              		.type	fillScreen, %function
 1812              	fillScreen:
 1813              	.LFB48:
 425:ssd1306.c     ****   fillRect(0, 0, SSD1306_LCDWIDTH, SSD1306_LCDHEIGHT, 1);
 1814              		.loc 1 425 0
 1815              		.cfi_startproc
 1816              		@ args = 0, pretend = 0, frame = 0
 1817              		@ frame_needed = 0, uses_anonymous_args = 0
 1818 0000 00B5     		push	{lr}
 1819              		.cfi_def_cfa_offset 4
 1820              		.cfi_offset 14, -4
 1821 0002 83B0     		sub	sp, sp, #12
 1822              		.cfi_def_cfa_offset 16
 426:ssd1306.c     **** }
 1823              		.loc 1 426 0
 1824 0004 0123     		movs	r3, #1
 1825 0006 0093     		str	r3, [sp]
 1826 0008 3F33     		adds	r3, r3, #63
 1827 000a 8022     		movs	r2, #128
 1828 000c 0021     		movs	r1, #0
 1829 000e 0020     		movs	r0, #0
 1830 0010 FFF7FEFF 		bl	fillRect
 1831              	.LVL279:
 427:ssd1306.c     **** 
 1832              		.loc 1 427 0
 1833 0014 03B0     		add	sp, sp, #12
 1834              		@ sp needed
 1835 0016 00BD     		pop	{pc}
 1836              		.cfi_endproc
 1837              	.LFE48:
 1838              		.size	fillScreen, .-fillScreen
 1839              		.comm	_height,1,1
 1840              		.comm	_width,1,1
 1841              		.comm	rotation,1,1
 1842              		.comm	_vccstate,1,1
 1843              		.section	.rodata
 1844              		.align	2
 1845              		.set	.LANCHOR1,. + 0
 1846              		.type	premask.5729, %object
 1847              		.size	premask.5729, 8
 1848              	premask.5729:
 1849 0000 00       		.byte	0
 1850 0001 80       		.byte	-128
 1851 0002 C0       		.byte	-64
 1852 0003 E0       		.byte	-32
 1853 0004 F0       		.byte	-16
 1854 0005 F8       		.byte	-8
 1855 0006 FC       		.byte	-4
 1856 0007 FE       		.byte	-2
 1857              		.type	postmask.5740, %object
 1858              		.size	postmask.5740, 8
 1859              	postmask.5740:
ARM GAS  C:\Users\PC\AppData\Local\Temp\ccoEr05J.s 			page 46


 1860 0008 00       		.byte	0
 1861 0009 01       		.byte	1
 1862 000a 03       		.byte	3
 1863 000b 07       		.byte	7
 1864 000c 0F       		.byte	15
 1865 000d 1F       		.byte	31
 1866 000e 3F       		.byte	63
 1867 000f 7F       		.byte	127
 1868              		.data
 1869              		.align	2
 1870              		.set	.LANCHOR0,. + 0
 1871              		.type	ssd1306_buffer, %object
 1872              		.size	ssd1306_buffer, 1024
 1873              	ssd1306_buffer:
 1874 0000 00       		.byte	0
 1875 0001 00       		.byte	0
 1876 0002 00       		.byte	0
 1877 0003 00       		.byte	0
 1878 0004 00       		.byte	0
 1879 0005 00       		.byte	0
 1880 0006 00       		.byte	0
 1881 0007 00       		.byte	0
 1882 0008 00       		.byte	0
 1883 0009 00       		.byte	0
 1884 000a 00       		.byte	0
 1885 000b 00       		.byte	0
 1886 000c 00       		.byte	0
 1887 000d 00       		.byte	0
 1888 000e 00       		.byte	0
 1889 000f 00       		.byte	0
 1890 0010 00       		.byte	0
 1891 0011 00       		.byte	0
 1892 0012 00       		.byte	0
 1893 0013 00       		.byte	0
 1894 0014 00       		.byte	0
 1895 0015 00       		.byte	0
 1896 0016 00       		.byte	0
 1897 0017 00       		.byte	0
 1898 0018 00       		.byte	0
 1899 0019 00       		.byte	0
 1900 001a 00       		.byte	0
 1901 001b 00       		.byte	0
 1902 001c 00       		.byte	0
 1903 001d 00       		.byte	0
 1904 001e 00       		.byte	0
 1905 001f 00       		.byte	0
 1906 0020 00       		.byte	0
 1907 0021 00       		.byte	0
 1908 0022 00       		.byte	0
 1909 0023 00       		.byte	0
 1910 0024 00       		.byte	0
 1911 0025 00       		.byte	0
 1912 0026 00       		.byte	0
 1913 0027 00       		.byte	0
 1914 0028 00       		.byte	0
 1915 0029 00       		.byte	0
 1916 002a 00       		.byte	0
ARM GAS  C:\Users\PC\AppData\Local\Temp\ccoEr05J.s 			page 47


 1917 002b 00       		.byte	0
 1918 002c 00       		.byte	0
 1919 002d 00       		.byte	0
 1920 002e 00       		.byte	0
 1921 002f 00       		.byte	0
 1922 0030 00       		.byte	0
 1923 0031 00       		.byte	0
 1924 0032 00       		.byte	0
 1925 0033 00       		.byte	0
 1926 0034 00       		.byte	0
 1927 0035 00       		.byte	0
 1928 0036 00       		.byte	0
 1929 0037 00       		.byte	0
 1930 0038 00       		.byte	0
 1931 0039 00       		.byte	0
 1932 003a 00       		.byte	0
 1933 003b 00       		.byte	0
 1934 003c 00       		.byte	0
 1935 003d 00       		.byte	0
 1936 003e 00       		.byte	0
 1937 003f 80       		.byte	-128
 1938 0040 80       		.byte	-128
 1939 0041 80       		.byte	-128
 1940 0042 00       		.byte	0
 1941 0043 00       		.byte	0
 1942 0044 00       		.byte	0
 1943 0045 00       		.byte	0
 1944 0046 00       		.byte	0
 1945 0047 00       		.byte	0
 1946 0048 00       		.byte	0
 1947 0049 00       		.byte	0
 1948 004a 00       		.byte	0
 1949 004b 00       		.byte	0
 1950 004c 00       		.byte	0
 1951 004d 00       		.byte	0
 1952 004e 00       		.byte	0
 1953 004f 00       		.byte	0
 1954 0050 00       		.byte	0
 1955 0051 80       		.byte	-128
 1956 0052 80       		.byte	-128
 1957 0053 C0       		.byte	-64
 1958 0054 C0       		.byte	-64
 1959 0055 00       		.byte	0
 1960 0056 00       		.byte	0
 1961 0057 00       		.byte	0
 1962 0058 00       		.byte	0
 1963 0059 00       		.byte	0
 1964 005a 00       		.byte	0
 1965 005b 00       		.byte	0
 1966 005c 00       		.byte	0
 1967 005d 00       		.byte	0
 1968 005e 00       		.byte	0
 1969 005f 00       		.byte	0
 1970 0060 00       		.byte	0
 1971 0061 00       		.byte	0
 1972 0062 00       		.byte	0
 1973 0063 00       		.byte	0
ARM GAS  C:\Users\PC\AppData\Local\Temp\ccoEr05J.s 			page 48


 1974 0064 00       		.byte	0
 1975 0065 00       		.byte	0
 1976 0066 00       		.byte	0
 1977 0067 00       		.byte	0
 1978 0068 00       		.byte	0
 1979 0069 00       		.byte	0
 1980 006a 00       		.byte	0
 1981 006b 00       		.byte	0
 1982 006c 00       		.byte	0
 1983 006d 00       		.byte	0
 1984 006e 00       		.byte	0
 1985 006f 00       		.byte	0
 1986 0070 00       		.byte	0
 1987 0071 00       		.byte	0
 1988 0072 00       		.byte	0
 1989 0073 00       		.byte	0
 1990 0074 00       		.byte	0
 1991 0075 00       		.byte	0
 1992 0076 00       		.byte	0
 1993 0077 00       		.byte	0
 1994 0078 00       		.byte	0
 1995 0079 00       		.byte	0
 1996 007a 00       		.byte	0
 1997 007b 00       		.byte	0
 1998 007c 00       		.byte	0
 1999 007d 00       		.byte	0
 2000 007e 00       		.byte	0
 2001 007f 00       		.byte	0
 2002 0080 00       		.byte	0
 2003 0081 00       		.byte	0
 2004 0082 00       		.byte	0
 2005 0083 00       		.byte	0
 2006 0084 00       		.byte	0
 2007 0085 00       		.byte	0
 2008 0086 00       		.byte	0
 2009 0087 00       		.byte	0
 2010 0088 00       		.byte	0
 2011 0089 00       		.byte	0
 2012 008a 00       		.byte	0
 2013 008b 00       		.byte	0
 2014 008c 00       		.byte	0
 2015 008d 00       		.byte	0
 2016 008e 00       		.byte	0
 2017 008f 00       		.byte	0
 2018 0090 00       		.byte	0
 2019 0091 00       		.byte	0
 2020 0092 00       		.byte	0
 2021 0093 00       		.byte	0
 2022 0094 80       		.byte	-128
 2023 0095 C0       		.byte	-64
 2024 0096 E0       		.byte	-32
 2025 0097 F0       		.byte	-16
 2026 0098 F8       		.byte	-8
 2027 0099 FC       		.byte	-4
 2028 009a F8       		.byte	-8
 2029 009b E0       		.byte	-32
 2030 009c 00       		.byte	0
ARM GAS  C:\Users\PC\AppData\Local\Temp\ccoEr05J.s 			page 49


 2031 009d 00       		.byte	0
 2032 009e 00       		.byte	0
 2033 009f 00       		.byte	0
 2034 00a0 00       		.byte	0
 2035 00a1 00       		.byte	0
 2036 00a2 00       		.byte	0
 2037 00a3 00       		.byte	0
 2038 00a4 00       		.byte	0
 2039 00a5 00       		.byte	0
 2040 00a6 00       		.byte	0
 2041 00a7 00       		.byte	0
 2042 00a8 00       		.byte	0
 2043 00a9 00       		.byte	0
 2044 00aa 00       		.byte	0
 2045 00ab 00       		.byte	0
 2046 00ac 00       		.byte	0
 2047 00ad 80       		.byte	-128
 2048 00ae 80       		.byte	-128
 2049 00af 80       		.byte	-128
 2050 00b0 80       		.byte	-128
 2051 00b1 80       		.byte	-128
 2052 00b2 00       		.byte	0
 2053 00b3 80       		.byte	-128
 2054 00b4 80       		.byte	-128
 2055 00b5 00       		.byte	0
 2056 00b6 00       		.byte	0
 2057 00b7 00       		.byte	0
 2058 00b8 00       		.byte	0
 2059 00b9 80       		.byte	-128
 2060 00ba 80       		.byte	-128
 2061 00bb 80       		.byte	-128
 2062 00bc 80       		.byte	-128
 2063 00bd 80       		.byte	-128
 2064 00be 00       		.byte	0
 2065 00bf FF       		.byte	-1
 2066 00c0 FF       		.byte	-1
 2067 00c1 FF       		.byte	-1
 2068 00c2 00       		.byte	0
 2069 00c3 00       		.byte	0
 2070 00c4 00       		.byte	0
 2071 00c5 00       		.byte	0
 2072 00c6 80       		.byte	-128
 2073 00c7 80       		.byte	-128
 2074 00c8 80       		.byte	-128
 2075 00c9 80       		.byte	-128
 2076 00ca 00       		.byte	0
 2077 00cb 00       		.byte	0
 2078 00cc 80       		.byte	-128
 2079 00cd 80       		.byte	-128
 2080 00ce 00       		.byte	0
 2081 00cf 00       		.byte	0
 2082 00d0 80       		.byte	-128
 2083 00d1 FF       		.byte	-1
 2084 00d2 FF       		.byte	-1
 2085 00d3 80       		.byte	-128
 2086 00d4 80       		.byte	-128
 2087 00d5 00       		.byte	0
ARM GAS  C:\Users\PC\AppData\Local\Temp\ccoEr05J.s 			page 50


 2088 00d6 80       		.byte	-128
 2089 00d7 80       		.byte	-128
 2090 00d8 00       		.byte	0
 2091 00d9 80       		.byte	-128
 2092 00da 80       		.byte	-128
 2093 00db 80       		.byte	-128
 2094 00dc 80       		.byte	-128
 2095 00dd 00       		.byte	0
 2096 00de 80       		.byte	-128
 2097 00df 80       		.byte	-128
 2098 00e0 00       		.byte	0
 2099 00e1 00       		.byte	0
 2100 00e2 00       		.byte	0
 2101 00e3 00       		.byte	0
 2102 00e4 00       		.byte	0
 2103 00e5 80       		.byte	-128
 2104 00e6 80       		.byte	-128
 2105 00e7 00       		.byte	0
 2106 00e8 00       		.byte	0
 2107 00e9 8C       		.byte	-116
 2108 00ea 8E       		.byte	-114
 2109 00eb 84       		.byte	-124
 2110 00ec 00       		.byte	0
 2111 00ed 00       		.byte	0
 2112 00ee 80       		.byte	-128
 2113 00ef F8       		.byte	-8
 2114 00f0 F8       		.byte	-8
 2115 00f1 F8       		.byte	-8
 2116 00f2 80       		.byte	-128
 2117 00f3 00       		.byte	0
 2118 00f4 00       		.byte	0
 2119 00f5 00       		.byte	0
 2120 00f6 00       		.byte	0
 2121 00f7 00       		.byte	0
 2122 00f8 00       		.byte	0
 2123 00f9 00       		.byte	0
 2124 00fa 00       		.byte	0
 2125 00fb 00       		.byte	0
 2126 00fc 00       		.byte	0
 2127 00fd 00       		.byte	0
 2128 00fe 00       		.byte	0
 2129 00ff 00       		.byte	0
 2130 0100 F0       		.byte	-16
 2131 0101 F0       		.byte	-16
 2132 0102 F0       		.byte	-16
 2133 0103 F0       		.byte	-16
 2134 0104 F0       		.byte	-16
 2135 0105 F0       		.byte	-16
 2136 0106 F0       		.byte	-16
 2137 0107 F0       		.byte	-16
 2138 0108 F0       		.byte	-16
 2139 0109 F0       		.byte	-16
 2140 010a F0       		.byte	-16
 2141 010b F0       		.byte	-16
 2142 010c E0       		.byte	-32
 2143 010d E0       		.byte	-32
 2144 010e C0       		.byte	-64
ARM GAS  C:\Users\PC\AppData\Local\Temp\ccoEr05J.s 			page 51


 2145 010f 80       		.byte	-128
 2146 0110 00       		.byte	0
 2147 0111 E0       		.byte	-32
 2148 0112 FC       		.byte	-4
 2149 0113 FE       		.byte	-2
 2150 0114 FF       		.byte	-1
 2151 0115 FF       		.byte	-1
 2152 0116 FF       		.byte	-1
 2153 0117 7F       		.byte	127
 2154 0118 FF       		.byte	-1
 2155 0119 FF       		.byte	-1
 2156 011a FF       		.byte	-1
 2157 011b FF       		.byte	-1
 2158 011c FF       		.byte	-1
 2159 011d 00       		.byte	0
 2160 011e 00       		.byte	0
 2161 011f 00       		.byte	0
 2162 0120 00       		.byte	0
 2163 0121 00       		.byte	0
 2164 0122 00       		.byte	0
 2165 0123 00       		.byte	0
 2166 0124 00       		.byte	0
 2167 0125 00       		.byte	0
 2168 0126 00       		.byte	0
 2169 0127 00       		.byte	0
 2170 0128 00       		.byte	0
 2171 0129 00       		.byte	0
 2172 012a 00       		.byte	0
 2173 012b FE       		.byte	-2
 2174 012c FF       		.byte	-1
 2175 012d C7       		.byte	-57
 2176 012e 01       		.byte	1
 2177 012f 01       		.byte	1
 2178 0130 01       		.byte	1
 2179 0131 01       		.byte	1
 2180 0132 83       		.byte	-125
 2181 0133 FF       		.byte	-1
 2182 0134 FF       		.byte	-1
 2183 0135 00       		.byte	0
 2184 0136 00       		.byte	0
 2185 0137 7C       		.byte	124
 2186 0138 FE       		.byte	-2
 2187 0139 C7       		.byte	-57
 2188 013a 01       		.byte	1
 2189 013b 01       		.byte	1
 2190 013c 01       		.byte	1
 2191 013d 01       		.byte	1
 2192 013e 83       		.byte	-125
 2193 013f FF       		.byte	-1
 2194 0140 FF       		.byte	-1
 2195 0141 FF       		.byte	-1
 2196 0142 00       		.byte	0
 2197 0143 38       		.byte	56
 2198 0144 FE       		.byte	-2
 2199 0145 C7       		.byte	-57
 2200 0146 83       		.byte	-125
 2201 0147 01       		.byte	1
ARM GAS  C:\Users\PC\AppData\Local\Temp\ccoEr05J.s 			page 52


 2202 0148 01       		.byte	1
 2203 0149 01       		.byte	1
 2204 014a 83       		.byte	-125
 2205 014b C7       		.byte	-57
 2206 014c FF       		.byte	-1
 2207 014d FF       		.byte	-1
 2208 014e 00       		.byte	0
 2209 014f 00       		.byte	0
 2210 0150 01       		.byte	1
 2211 0151 FF       		.byte	-1
 2212 0152 FF       		.byte	-1
 2213 0153 01       		.byte	1
 2214 0154 01       		.byte	1
 2215 0155 00       		.byte	0
 2216 0156 FF       		.byte	-1
 2217 0157 FF       		.byte	-1
 2218 0158 07       		.byte	7
 2219 0159 01       		.byte	1
 2220 015a 01       		.byte	1
 2221 015b 01       		.byte	1
 2222 015c 00       		.byte	0
 2223 015d 00       		.byte	0
 2224 015e 7F       		.byte	127
 2225 015f FF       		.byte	-1
 2226 0160 80       		.byte	-128
 2227 0161 00       		.byte	0
 2228 0162 00       		.byte	0
 2229 0163 00       		.byte	0
 2230 0164 FF       		.byte	-1
 2231 0165 FF       		.byte	-1
 2232 0166 7F       		.byte	127
 2233 0167 00       		.byte	0
 2234 0168 00       		.byte	0
 2235 0169 FF       		.byte	-1
 2236 016a FF       		.byte	-1
 2237 016b FF       		.byte	-1
 2238 016c 00       		.byte	0
 2239 016d 00       		.byte	0
 2240 016e 01       		.byte	1
 2241 016f FF       		.byte	-1
 2242 0170 FF       		.byte	-1
 2243 0171 FF       		.byte	-1
 2244 0172 01       		.byte	1
 2245 0173 00       		.byte	0
 2246 0174 00       		.byte	0
 2247 0175 00       		.byte	0
 2248 0176 00       		.byte	0
 2249 0177 00       		.byte	0
 2250 0178 00       		.byte	0
 2251 0179 00       		.byte	0
 2252 017a 00       		.byte	0
 2253 017b 00       		.byte	0
 2254 017c 00       		.byte	0
 2255 017d 00       		.byte	0
 2256 017e 00       		.byte	0
 2257 017f 00       		.byte	0
 2258 0180 03       		.byte	3
ARM GAS  C:\Users\PC\AppData\Local\Temp\ccoEr05J.s 			page 53


 2259 0181 0F       		.byte	15
 2260 0182 3F       		.byte	63
 2261 0183 7F       		.byte	127
 2262 0184 7F       		.byte	127
 2263 0185 FF       		.byte	-1
 2264 0186 FF       		.byte	-1
 2265 0187 FF       		.byte	-1
 2266 0188 FF       		.byte	-1
 2267 0189 FF       		.byte	-1
 2268 018a FF       		.byte	-1
 2269 018b FF       		.byte	-1
 2270 018c E7       		.byte	-25
 2271 018d C7       		.byte	-57
 2272 018e C7       		.byte	-57
 2273 018f 8F       		.byte	-113
 2274 0190 8F       		.byte	-113
 2275 0191 9F       		.byte	-97
 2276 0192 BF       		.byte	-65
 2277 0193 FF       		.byte	-1
 2278 0194 FF       		.byte	-1
 2279 0195 C3       		.byte	-61
 2280 0196 C0       		.byte	-64
 2281 0197 F0       		.byte	-16
 2282 0198 FF       		.byte	-1
 2283 0199 FF       		.byte	-1
 2284 019a FF       		.byte	-1
 2285 019b FF       		.byte	-1
 2286 019c FF       		.byte	-1
 2287 019d FC       		.byte	-4
 2288 019e FC       		.byte	-4
 2289 019f FC       		.byte	-4
 2290 01a0 FC       		.byte	-4
 2291 01a1 FC       		.byte	-4
 2292 01a2 FC       		.byte	-4
 2293 01a3 FC       		.byte	-4
 2294 01a4 FC       		.byte	-4
 2295 01a5 F8       		.byte	-8
 2296 01a6 F8       		.byte	-8
 2297 01a7 F0       		.byte	-16
 2298 01a8 F0       		.byte	-16
 2299 01a9 E0       		.byte	-32
 2300 01aa C0       		.byte	-64
 2301 01ab 00       		.byte	0
 2302 01ac 01       		.byte	1
 2303 01ad 03       		.byte	3
 2304 01ae 03       		.byte	3
 2305 01af 03       		.byte	3
 2306 01b0 03       		.byte	3
 2307 01b1 03       		.byte	3
 2308 01b2 01       		.byte	1
 2309 01b3 03       		.byte	3
 2310 01b4 03       		.byte	3
 2311 01b5 00       		.byte	0
 2312 01b6 00       		.byte	0
 2313 01b7 00       		.byte	0
 2314 01b8 00       		.byte	0
 2315 01b9 01       		.byte	1
ARM GAS  C:\Users\PC\AppData\Local\Temp\ccoEr05J.s 			page 54


 2316 01ba 03       		.byte	3
 2317 01bb 03       		.byte	3
 2318 01bc 03       		.byte	3
 2319 01bd 03       		.byte	3
 2320 01be 01       		.byte	1
 2321 01bf 01       		.byte	1
 2322 01c0 03       		.byte	3
 2323 01c1 01       		.byte	1
 2324 01c2 00       		.byte	0
 2325 01c3 00       		.byte	0
 2326 01c4 00       		.byte	0
 2327 01c5 01       		.byte	1
 2328 01c6 03       		.byte	3
 2329 01c7 03       		.byte	3
 2330 01c8 03       		.byte	3
 2331 01c9 03       		.byte	3
 2332 01ca 01       		.byte	1
 2333 01cb 01       		.byte	1
 2334 01cc 03       		.byte	3
 2335 01cd 03       		.byte	3
 2336 01ce 00       		.byte	0
 2337 01cf 00       		.byte	0
 2338 01d0 00       		.byte	0
 2339 01d1 03       		.byte	3
 2340 01d2 03       		.byte	3
 2341 01d3 00       		.byte	0
 2342 01d4 00       		.byte	0
 2343 01d5 00       		.byte	0
 2344 01d6 03       		.byte	3
 2345 01d7 03       		.byte	3
 2346 01d8 00       		.byte	0
 2347 01d9 00       		.byte	0
 2348 01da 00       		.byte	0
 2349 01db 00       		.byte	0
 2350 01dc 00       		.byte	0
 2351 01dd 00       		.byte	0
 2352 01de 00       		.byte	0
 2353 01df 01       		.byte	1
 2354 01e0 03       		.byte	3
 2355 01e1 03       		.byte	3
 2356 01e2 03       		.byte	3
 2357 01e3 03       		.byte	3
 2358 01e4 03       		.byte	3
 2359 01e5 01       		.byte	1
 2360 01e6 00       		.byte	0
 2361 01e7 00       		.byte	0
 2362 01e8 00       		.byte	0
 2363 01e9 01       		.byte	1
 2364 01ea 03       		.byte	3
 2365 01eb 01       		.byte	1
 2366 01ec 00       		.byte	0
 2367 01ed 00       		.byte	0
 2368 01ee 00       		.byte	0
 2369 01ef 03       		.byte	3
 2370 01f0 03       		.byte	3
 2371 01f1 01       		.byte	1
 2372 01f2 00       		.byte	0
ARM GAS  C:\Users\PC\AppData\Local\Temp\ccoEr05J.s 			page 55


 2373 01f3 00       		.byte	0
 2374 01f4 00       		.byte	0
 2375 01f5 00       		.byte	0
 2376 01f6 00       		.byte	0
 2377 01f7 00       		.byte	0
 2378 01f8 00       		.byte	0
 2379 01f9 00       		.byte	0
 2380 01fa 00       		.byte	0
 2381 01fb 00       		.byte	0
 2382 01fc 00       		.byte	0
 2383 01fd 00       		.byte	0
 2384 01fe 00       		.byte	0
 2385 01ff 00       		.byte	0
 2386 0200 00       		.byte	0
 2387 0201 00       		.byte	0
 2388 0202 00       		.byte	0
 2389 0203 80       		.byte	-128
 2390 0204 C0       		.byte	-64
 2391 0205 E0       		.byte	-32
 2392 0206 F0       		.byte	-16
 2393 0207 F9       		.byte	-7
 2394 0208 FF       		.byte	-1
 2395 0209 FF       		.byte	-1
 2396 020a FF       		.byte	-1
 2397 020b FF       		.byte	-1
 2398 020c FF       		.byte	-1
 2399 020d 3F       		.byte	63
 2400 020e 1F       		.byte	31
 2401 020f 0F       		.byte	15
 2402 0210 87       		.byte	-121
 2403 0211 C7       		.byte	-57
 2404 0212 F7       		.byte	-9
 2405 0213 FF       		.byte	-1
 2406 0214 FF       		.byte	-1
 2407 0215 1F       		.byte	31
 2408 0216 1F       		.byte	31
 2409 0217 3D       		.byte	61
 2410 0218 FC       		.byte	-4
 2411 0219 F8       		.byte	-8
 2412 021a F8       		.byte	-8
 2413 021b F8       		.byte	-8
 2414 021c F8       		.byte	-8
 2415 021d 7C       		.byte	124
 2416 021e 7D       		.byte	125
 2417 021f FF       		.byte	-1
 2418 0220 FF       		.byte	-1
 2419 0221 FF       		.byte	-1
 2420 0222 FF       		.byte	-1
 2421 0223 FF       		.byte	-1
 2422 0224 FF       		.byte	-1
 2423 0225 FF       		.byte	-1
 2424 0226 FF       		.byte	-1
 2425 0227 7F       		.byte	127
 2426 0228 3F       		.byte	63
 2427 0229 0F       		.byte	15
 2428 022a 07       		.byte	7
 2429 022b 00       		.byte	0
ARM GAS  C:\Users\PC\AppData\Local\Temp\ccoEr05J.s 			page 56


 2430 022c 30       		.byte	48
 2431 022d 30       		.byte	48
 2432 022e 00       		.byte	0
 2433 022f 00       		.byte	0
 2434 0230 00       		.byte	0
 2435 0231 00       		.byte	0
 2436 0232 00       		.byte	0
 2437 0233 00       		.byte	0
 2438 0234 00       		.byte	0
 2439 0235 00       		.byte	0
 2440 0236 00       		.byte	0
 2441 0237 00       		.byte	0
 2442 0238 00       		.byte	0
 2443 0239 00       		.byte	0
 2444 023a 00       		.byte	0
 2445 023b 00       		.byte	0
 2446 023c 00       		.byte	0
 2447 023d 00       		.byte	0
 2448 023e 00       		.byte	0
 2449 023f 00       		.byte	0
 2450 0240 00       		.byte	0
 2451 0241 00       		.byte	0
 2452 0242 00       		.byte	0
 2453 0243 00       		.byte	0
 2454 0244 FE       		.byte	-2
 2455 0245 FE       		.byte	-2
 2456 0246 FC       		.byte	-4
 2457 0247 00       		.byte	0
 2458 0248 00       		.byte	0
 2459 0249 00       		.byte	0
 2460 024a 00       		.byte	0
 2461 024b 00       		.byte	0
 2462 024c 00       		.byte	0
 2463 024d 00       		.byte	0
 2464 024e 00       		.byte	0
 2465 024f 00       		.byte	0
 2466 0250 00       		.byte	0
 2467 0251 00       		.byte	0
 2468 0252 00       		.byte	0
 2469 0253 00       		.byte	0
 2470 0254 00       		.byte	0
 2471 0255 00       		.byte	0
 2472 0256 00       		.byte	0
 2473 0257 00       		.byte	0
 2474 0258 00       		.byte	0
 2475 0259 00       		.byte	0
 2476 025a 00       		.byte	0
 2477 025b 00       		.byte	0
 2478 025c 00       		.byte	0
 2479 025d E0       		.byte	-32
 2480 025e C0       		.byte	-64
 2481 025f 00       		.byte	0
 2482 0260 00       		.byte	0
 2483 0261 00       		.byte	0
 2484 0262 00       		.byte	0
 2485 0263 00       		.byte	0
 2486 0264 00       		.byte	0
ARM GAS  C:\Users\PC\AppData\Local\Temp\ccoEr05J.s 			page 57


 2487 0265 00       		.byte	0
 2488 0266 00       		.byte	0
 2489 0267 00       		.byte	0
 2490 0268 00       		.byte	0
 2491 0269 00       		.byte	0
 2492 026a 30       		.byte	48
 2493 026b 30       		.byte	48
 2494 026c 00       		.byte	0
 2495 026d 00       		.byte	0
 2496 026e 00       		.byte	0
 2497 026f 00       		.byte	0
 2498 0270 00       		.byte	0
 2499 0271 00       		.byte	0
 2500 0272 00       		.byte	0
 2501 0273 00       		.byte	0
 2502 0274 00       		.byte	0
 2503 0275 00       		.byte	0
 2504 0276 00       		.byte	0
 2505 0277 00       		.byte	0
 2506 0278 00       		.byte	0
 2507 0279 00       		.byte	0
 2508 027a 00       		.byte	0
 2509 027b 00       		.byte	0
 2510 027c 00       		.byte	0
 2511 027d 00       		.byte	0
 2512 027e 00       		.byte	0
 2513 027f 00       		.byte	0
 2514 0280 00       		.byte	0
 2515 0281 C0       		.byte	-64
 2516 0282 FE       		.byte	-2
 2517 0283 FF       		.byte	-1
 2518 0284 FF       		.byte	-1
 2519 0285 FF       		.byte	-1
 2520 0286 FF       		.byte	-1
 2521 0287 FF       		.byte	-1
 2522 0288 FF       		.byte	-1
 2523 0289 FF       		.byte	-1
 2524 028a FF       		.byte	-1
 2525 028b FF       		.byte	-1
 2526 028c 7F       		.byte	127
 2527 028d 7F       		.byte	127
 2528 028e 3F       		.byte	63
 2529 028f 1F       		.byte	31
 2530 0290 0F       		.byte	15
 2531 0291 07       		.byte	7
 2532 0292 1F       		.byte	31
 2533 0293 7F       		.byte	127
 2534 0294 FF       		.byte	-1
 2535 0295 FF       		.byte	-1
 2536 0296 F8       		.byte	-8
 2537 0297 F8       		.byte	-8
 2538 0298 FF       		.byte	-1
 2539 0299 FF       		.byte	-1
 2540 029a FF       		.byte	-1
 2541 029b FF       		.byte	-1
 2542 029c FF       		.byte	-1
 2543 029d FE       		.byte	-2
ARM GAS  C:\Users\PC\AppData\Local\Temp\ccoEr05J.s 			page 58


 2544 029e F8       		.byte	-8
 2545 029f E0       		.byte	-32
 2546 02a0 00       		.byte	0
 2547 02a1 00       		.byte	0
 2548 02a2 00       		.byte	0
 2549 02a3 01       		.byte	1
 2550 02a4 00       		.byte	0
 2551 02a5 00       		.byte	0
 2552 02a6 00       		.byte	0
 2553 02a7 00       		.byte	0
 2554 02a8 00       		.byte	0
 2555 02a9 00       		.byte	0
 2556 02aa 00       		.byte	0
 2557 02ab 00       		.byte	0
 2558 02ac FE       		.byte	-2
 2559 02ad FE       		.byte	-2
 2560 02ae 00       		.byte	0
 2561 02af 00       		.byte	0
 2562 02b0 00       		.byte	0
 2563 02b1 FC       		.byte	-4
 2564 02b2 FE       		.byte	-2
 2565 02b3 FC       		.byte	-4
 2566 02b4 0C       		.byte	12
 2567 02b5 06       		.byte	6
 2568 02b6 06       		.byte	6
 2569 02b7 0E       		.byte	14
 2570 02b8 FC       		.byte	-4
 2571 02b9 F8       		.byte	-8
 2572 02ba 00       		.byte	0
 2573 02bb 00       		.byte	0
 2574 02bc F0       		.byte	-16
 2575 02bd F8       		.byte	-8
 2576 02be 1C       		.byte	28
 2577 02bf 0E       		.byte	14
 2578 02c0 06       		.byte	6
 2579 02c1 06       		.byte	6
 2580 02c2 06       		.byte	6
 2581 02c3 0C       		.byte	12
 2582 02c4 FF       		.byte	-1
 2583 02c5 FF       		.byte	-1
 2584 02c6 FF       		.byte	-1
 2585 02c7 00       		.byte	0
 2586 02c8 00       		.byte	0
 2587 02c9 FE       		.byte	-2
 2588 02ca FE       		.byte	-2
 2589 02cb 00       		.byte	0
 2590 02cc 00       		.byte	0
 2591 02cd 00       		.byte	0
 2592 02ce 00       		.byte	0
 2593 02cf FC       		.byte	-4
 2594 02d0 FE       		.byte	-2
 2595 02d1 FC       		.byte	-4
 2596 02d2 00       		.byte	0
 2597 02d3 18       		.byte	24
 2598 02d4 3C       		.byte	60
 2599 02d5 7E       		.byte	126
 2600 02d6 66       		.byte	102
ARM GAS  C:\Users\PC\AppData\Local\Temp\ccoEr05J.s 			page 59


 2601 02d7 E6       		.byte	-26
 2602 02d8 CE       		.byte	-50
 2603 02d9 84       		.byte	-124
 2604 02da 00       		.byte	0
 2605 02db 00       		.byte	0
 2606 02dc 06       		.byte	6
 2607 02dd FF       		.byte	-1
 2608 02de FF       		.byte	-1
 2609 02df 06       		.byte	6
 2610 02e0 06       		.byte	6
 2611 02e1 FC       		.byte	-4
 2612 02e2 FE       		.byte	-2
 2613 02e3 FC       		.byte	-4
 2614 02e4 0C       		.byte	12
 2615 02e5 06       		.byte	6
 2616 02e6 06       		.byte	6
 2617 02e7 06       		.byte	6
 2618 02e8 00       		.byte	0
 2619 02e9 00       		.byte	0
 2620 02ea FE       		.byte	-2
 2621 02eb FE       		.byte	-2
 2622 02ec 00       		.byte	0
 2623 02ed 00       		.byte	0
 2624 02ee C0       		.byte	-64
 2625 02ef F8       		.byte	-8
 2626 02f0 FC       		.byte	-4
 2627 02f1 4E       		.byte	78
 2628 02f2 46       		.byte	70
 2629 02f3 46       		.byte	70
 2630 02f4 46       		.byte	70
 2631 02f5 4E       		.byte	78
 2632 02f6 7C       		.byte	124
 2633 02f7 78       		.byte	120
 2634 02f8 40       		.byte	64
 2635 02f9 18       		.byte	24
 2636 02fa 3C       		.byte	60
 2637 02fb 76       		.byte	118
 2638 02fc E6       		.byte	-26
 2639 02fd CE       		.byte	-50
 2640 02fe CC       		.byte	-52
 2641 02ff 80       		.byte	-128
 2642 0300 00       		.byte	0
 2643 0301 00       		.byte	0
 2644 0302 00       		.byte	0
 2645 0303 00       		.byte	0
 2646 0304 00       		.byte	0
 2647 0305 00       		.byte	0
 2648 0306 00       		.byte	0
 2649 0307 00       		.byte	0
 2650 0308 00       		.byte	0
 2651 0309 00       		.byte	0
 2652 030a 00       		.byte	0
 2653 030b 00       		.byte	0
 2654 030c 00       		.byte	0
 2655 030d 00       		.byte	0
 2656 030e 00       		.byte	0
 2657 030f 00       		.byte	0
ARM GAS  C:\Users\PC\AppData\Local\Temp\ccoEr05J.s 			page 60


 2658 0310 00       		.byte	0
 2659 0311 00       		.byte	0
 2660 0312 00       		.byte	0
 2661 0313 00       		.byte	0
 2662 0314 01       		.byte	1
 2663 0315 07       		.byte	7
 2664 0316 0F       		.byte	15
 2665 0317 1F       		.byte	31
 2666 0318 1F       		.byte	31
 2667 0319 3F       		.byte	63
 2668 031a 3F       		.byte	63
 2669 031b 3F       		.byte	63
 2670 031c 3F       		.byte	63
 2671 031d 1F       		.byte	31
 2672 031e 0F       		.byte	15
 2673 031f 03       		.byte	3
 2674 0320 00       		.byte	0
 2675 0321 00       		.byte	0
 2676 0322 00       		.byte	0
 2677 0323 00       		.byte	0
 2678 0324 00       		.byte	0
 2679 0325 00       		.byte	0
 2680 0326 00       		.byte	0
 2681 0327 00       		.byte	0
 2682 0328 00       		.byte	0
 2683 0329 00       		.byte	0
 2684 032a 00       		.byte	0
 2685 032b 00       		.byte	0
 2686 032c 0F       		.byte	15
 2687 032d 0F       		.byte	15
 2688 032e 00       		.byte	0
 2689 032f 00       		.byte	0
 2690 0330 00       		.byte	0
 2691 0331 0F       		.byte	15
 2692 0332 0F       		.byte	15
 2693 0333 0F       		.byte	15
 2694 0334 00       		.byte	0
 2695 0335 00       		.byte	0
 2696 0336 00       		.byte	0
 2697 0337 00       		.byte	0
 2698 0338 0F       		.byte	15
 2699 0339 0F       		.byte	15
 2700 033a 00       		.byte	0
 2701 033b 00       		.byte	0
 2702 033c 03       		.byte	3
 2703 033d 07       		.byte	7
 2704 033e 0E       		.byte	14
 2705 033f 0C       		.byte	12
 2706 0340 18       		.byte	24
 2707 0341 18       		.byte	24
 2708 0342 0C       		.byte	12
 2709 0343 06       		.byte	6
 2710 0344 0F       		.byte	15
 2711 0345 0F       		.byte	15
 2712 0346 0F       		.byte	15
 2713 0347 00       		.byte	0
 2714 0348 00       		.byte	0
ARM GAS  C:\Users\PC\AppData\Local\Temp\ccoEr05J.s 			page 61


 2715 0349 01       		.byte	1
 2716 034a 0F       		.byte	15
 2717 034b 0E       		.byte	14
 2718 034c 0C       		.byte	12
 2719 034d 18       		.byte	24
 2720 034e 0C       		.byte	12
 2721 034f 0F       		.byte	15
 2722 0350 07       		.byte	7
 2723 0351 01       		.byte	1
 2724 0352 00       		.byte	0
 2725 0353 04       		.byte	4
 2726 0354 0E       		.byte	14
 2727 0355 0C       		.byte	12
 2728 0356 18       		.byte	24
 2729 0357 0C       		.byte	12
 2730 0358 0F       		.byte	15
 2731 0359 07       		.byte	7
 2732 035a 00       		.byte	0
 2733 035b 00       		.byte	0
 2734 035c 00       		.byte	0
 2735 035d 0F       		.byte	15
 2736 035e 0F       		.byte	15
 2737 035f 00       		.byte	0
 2738 0360 00       		.byte	0
 2739 0361 0F       		.byte	15
 2740 0362 0F       		.byte	15
 2741 0363 0F       		.byte	15
 2742 0364 00       		.byte	0
 2743 0365 00       		.byte	0
 2744 0366 00       		.byte	0
 2745 0367 00       		.byte	0
 2746 0368 00       		.byte	0
 2747 0369 00       		.byte	0
 2748 036a 0F       		.byte	15
 2749 036b 0F       		.byte	15
 2750 036c 00       		.byte	0
 2751 036d 00       		.byte	0
 2752 036e 00       		.byte	0
 2753 036f 07       		.byte	7
 2754 0370 07       		.byte	7
 2755 0371 0C       		.byte	12
 2756 0372 0C       		.byte	12
 2757 0373 18       		.byte	24
 2758 0374 1C       		.byte	28
 2759 0375 0C       		.byte	12
 2760 0376 06       		.byte	6
 2761 0377 06       		.byte	6
 2762 0378 00       		.byte	0
 2763 0379 04       		.byte	4
 2764 037a 0E       		.byte	14
 2765 037b 0C       		.byte	12
 2766 037c 18       		.byte	24
 2767 037d 0C       		.byte	12
 2768 037e 0F       		.byte	15
 2769 037f 07       		.byte	7
 2770 0380 00       		.byte	0
 2771 0381 00       		.byte	0
ARM GAS  C:\Users\PC\AppData\Local\Temp\ccoEr05J.s 			page 62


 2772 0382 00       		.byte	0
 2773 0383 00       		.byte	0
 2774 0384 00       		.byte	0
 2775 0385 00       		.byte	0
 2776 0386 00       		.byte	0
 2777 0387 00       		.byte	0
 2778 0388 00       		.byte	0
 2779 0389 00       		.byte	0
 2780 038a 00       		.byte	0
 2781 038b 00       		.byte	0
 2782 038c 00       		.byte	0
 2783 038d 00       		.byte	0
 2784 038e 00       		.byte	0
 2785 038f 00       		.byte	0
 2786 0390 00       		.byte	0
 2787 0391 00       		.byte	0
 2788 0392 00       		.byte	0
 2789 0393 00       		.byte	0
 2790 0394 00       		.byte	0
 2791 0395 00       		.byte	0
 2792 0396 00       		.byte	0
 2793 0397 00       		.byte	0
 2794 0398 00       		.byte	0
 2795 0399 00       		.byte	0
 2796 039a 00       		.byte	0
 2797 039b 00       		.byte	0
 2798 039c 00       		.byte	0
 2799 039d 00       		.byte	0
 2800 039e 00       		.byte	0
 2801 039f 00       		.byte	0
 2802 03a0 00       		.byte	0
 2803 03a1 00       		.byte	0
 2804 03a2 00       		.byte	0
 2805 03a3 00       		.byte	0
 2806 03a4 00       		.byte	0
 2807 03a5 00       		.byte	0
 2808 03a6 00       		.byte	0
 2809 03a7 00       		.byte	0
 2810 03a8 00       		.byte	0
 2811 03a9 00       		.byte	0
 2812 03aa 00       		.byte	0
 2813 03ab 00       		.byte	0
 2814 03ac 00       		.byte	0
 2815 03ad 00       		.byte	0
 2816 03ae 00       		.byte	0
 2817 03af 00       		.byte	0
 2818 03b0 00       		.byte	0
 2819 03b1 00       		.byte	0
 2820 03b2 00       		.byte	0
 2821 03b3 00       		.byte	0
 2822 03b4 00       		.byte	0
 2823 03b5 00       		.byte	0
 2824 03b6 00       		.byte	0
 2825 03b7 00       		.byte	0
 2826 03b8 00       		.byte	0
 2827 03b9 00       		.byte	0
 2828 03ba 00       		.byte	0
ARM GAS  C:\Users\PC\AppData\Local\Temp\ccoEr05J.s 			page 63


 2829 03bb 00       		.byte	0
 2830 03bc 00       		.byte	0
 2831 03bd 00       		.byte	0
 2832 03be 00       		.byte	0
 2833 03bf 00       		.byte	0
 2834 03c0 00       		.byte	0
 2835 03c1 00       		.byte	0
 2836 03c2 00       		.byte	0
 2837 03c3 00       		.byte	0
 2838 03c4 00       		.byte	0
 2839 03c5 00       		.byte	0
 2840 03c6 00       		.byte	0
 2841 03c7 00       		.byte	0
 2842 03c8 00       		.byte	0
 2843 03c9 00       		.byte	0
 2844 03ca 00       		.byte	0
 2845 03cb 00       		.byte	0
 2846 03cc 00       		.byte	0
 2847 03cd 00       		.byte	0
 2848 03ce 00       		.byte	0
 2849 03cf 00       		.byte	0
 2850 03d0 00       		.byte	0
 2851 03d1 00       		.byte	0
 2852 03d2 00       		.byte	0
 2853 03d3 00       		.byte	0
 2854 03d4 00       		.byte	0
 2855 03d5 00       		.byte	0
 2856 03d6 00       		.byte	0
 2857 03d7 00       		.byte	0
 2858 03d8 00       		.byte	0
 2859 03d9 00       		.byte	0
 2860 03da 00       		.byte	0
 2861 03db 00       		.byte	0
 2862 03dc 00       		.byte	0
 2863 03dd 00       		.byte	0
 2864 03de 00       		.byte	0
 2865 03df 00       		.byte	0
 2866 03e0 00       		.byte	0
 2867 03e1 00       		.byte	0
 2868 03e2 00       		.byte	0
 2869 03e3 00       		.byte	0
 2870 03e4 00       		.byte	0
 2871 03e5 00       		.byte	0
 2872 03e6 00       		.byte	0
 2873 03e7 00       		.byte	0
 2874 03e8 00       		.byte	0
 2875 03e9 00       		.byte	0
 2876 03ea 00       		.byte	0
 2877 03eb 00       		.byte	0
 2878 03ec 00       		.byte	0
 2879 03ed 00       		.byte	0
 2880 03ee 00       		.byte	0
 2881 03ef 00       		.byte	0
 2882 03f0 00       		.byte	0
 2883 03f1 00       		.byte	0
 2884 03f2 00       		.byte	0
 2885 03f3 00       		.byte	0
ARM GAS  C:\Users\PC\AppData\Local\Temp\ccoEr05J.s 			page 64


 2886 03f4 00       		.byte	0
 2887 03f5 00       		.byte	0
 2888 03f6 00       		.byte	0
 2889 03f7 00       		.byte	0
 2890 03f8 00       		.byte	0
 2891 03f9 00       		.byte	0
 2892 03fa 00       		.byte	0
 2893 03fb 00       		.byte	0
 2894 03fc 00       		.byte	0
 2895 03fd 00       		.byte	0
 2896 03fe 00       		.byte	0
 2897 03ff 00       		.byte	0
 2898              		.text
 2899              	.Letext0:
 2900              		.file 2 "c:\\program files (x86)\\cypress\\psoc creator\\4.4\\psoc creator\\import\\gnu\\arm\\5.4.
 2901              		.file 3 "c:\\program files (x86)\\cypress\\psoc creator\\4.4\\psoc creator\\import\\gnu\\arm\\5.4.
 2902              		.file 4 "Generated_Source\\PSoC4/cytypes.h"
 2903              		.file 5 "ssd1306.h"
 2904              		.file 6 "Generated_Source\\PSoC4/pOledDc.h"
 2905              		.file 7 "Generated_Source\\PSoC4/mSPI_SPI_UART.h"
 2906              		.file 8 "Generated_Source\\PSoC4/CyLib.h"
 2907              		.file 9 "Generated_Source\\PSoC4/pOledReset.h"