ARM GAS  C:\Users\PC\AppData\Local\Temp\ccKVdNiW.s 			page 1


   1              		.syntax unified
   2              		.cpu cortex-m0plus
   3              		.fpu softvfp
   4              		.eabi_attribute 20, 1
   5              		.eabi_attribute 21, 1
   6              		.eabi_attribute 23, 3
   7              		.eabi_attribute 24, 1
   8              		.eabi_attribute 25, 1
   9              		.eabi_attribute 26, 1
  10              		.eabi_attribute 30, 1
  11              		.eabi_attribute 34, 0
  12              		.eabi_attribute 18, 4
  13              		.thumb
  14              		.syntax unified
  15              		.file	"GFX_Library.c"
  16              		.text
  17              	.Ltext0:
  18              		.cfi_sections	.debug_frame
  19              		.section	.text.writeLine,"ax",%progbits
  20              		.align	2
  21              		.global	writeLine
  22              		.code	16
  23              		.thumb_func
  24              		.type	writeLine, %function
  25              	writeLine:
  26              	.LFB33:
  27              		.file 1 "GFX_Library.c"
   1:GFX_Library.c **** 
   2:GFX_Library.c **** ///////////////////////////////////////////////////////////////////////////
   3:GFX_Library.c **** ////                                                                   ////
   4:GFX_Library.c **** ////                            GFX_Library.c                          ////
   5:GFX_Library.c **** ////                                                                   ////
   6:GFX_Library.c **** ////                 Graphics library for CCS C compiler.              ////
   7:GFX_Library.c **** ////                                                                   ////
   8:GFX_Library.c **** ///////////////////////////////////////////////////////////////////////////
   9:GFX_Library.c **** ////                                                                   ////
  10:GFX_Library.c **** ////               This is a free software with NO WARRANTY.           ////
  11:GFX_Library.c **** ////                     https://simple-circuit.com/                   ////
  12:GFX_Library.c **** ////                                                                   ////
  13:GFX_Library.c **** ///////////////////////////////////////////////////////////////////////////
  14:GFX_Library.c **** /*
  15:GFX_Library.c **** This is the core graphics library for all our displays, providing a common
  16:GFX_Library.c **** set of graphics primitives (points, lines, circles, etc.).  It needs to be
  17:GFX_Library.c **** paired with a hardware-specific library for each display device we carry
  18:GFX_Library.c **** (to handle the lower-level functions).
  19:GFX_Library.c **** 
  20:GFX_Library.c **** Adafruit invests time and resources providing this open source code, please
  21:GFX_Library.c **** support Adafruit & open-source hardware by purchasing products from Adafruit!
  22:GFX_Library.c **** 
  23:GFX_Library.c **** Copyright (c) 2013 Adafruit Industries.  All rights reserved.
  24:GFX_Library.c **** 
  25:GFX_Library.c **** Redistribution and use in source and binary forms, with or without
  26:GFX_Library.c **** modification, are permitted provided that the following conditions are met:
  27:GFX_Library.c **** 
  28:GFX_Library.c **** - Redistributions of source code must retain the above copyright notice,
  29:GFX_Library.c ****   this list of conditions and the following disclaimer.
  30:GFX_Library.c **** - Redistributions in binary form must reproduce the above copyright notice,
ARM GAS  C:\Users\PC\AppData\Local\Temp\ccKVdNiW.s 			page 2


  31:GFX_Library.c ****   this list of conditions and the following disclaimer in the documentation
  32:GFX_Library.c ****   and/or other materials provided with the distribution.
  33:GFX_Library.c **** 
  34:GFX_Library.c **** THIS SOFTWARE IS PROVIDED BY THE COPYRIGHT HOLDERS AND CONTRIBUTORS "AS IS"
  35:GFX_Library.c **** AND ANY EXPRESS OR IMPLIED WARRANTIES, INCLUDING, BUT NOT LIMITED TO, THE
  36:GFX_Library.c **** IMPLIED WARRANTIES OF MERCHANTABILITY AND FITNESS FOR A PARTICULAR PURPOSE
  37:GFX_Library.c **** ARE DISCLAIMED. IN NO EVENT SHALL THE COPYRIGHT HOLDER OR CONTRIBUTORS BE
  38:GFX_Library.c **** LIABLE FOR ANY DIRECT, INDIRECT, INCIDENTAL, SPECIAL, EXEMPLARY, OR
  39:GFX_Library.c **** CONSEQUENTIAL DAMAGES (INCLUDING, BUT NOT LIMITED TO, PROCUREMENT OF
  40:GFX_Library.c **** SUBSTITUTE GOODS OR SERVICES; LOSS OF USE, DATA, OR PROFITS; OR BUSINESS
  41:GFX_Library.c **** INTERRUPTION) HOWEVER CAUSED AND ON ANY THEORY OF LIABILITY, WHETHER IN
  42:GFX_Library.c **** CONTRACT, STRICT LIABILITY, OR TORT (INCLUDING NEGLIGENCE OR OTHERWISE)
  43:GFX_Library.c **** ARISING IN ANY WAY OUT OF THE USE OF THIS SOFTWARE, EVEN IF ADVISED OF THE
  44:GFX_Library.c **** POSSIBILITY OF SUCH DAMAGE.
  45:GFX_Library.c ****  */
  46:GFX_Library.c **** ///////////////////////////////////////////////////////////////////////////////
  47:GFX_Library.c **** 
  48:GFX_Library.c **** #include "ssd1306.h"
  49:GFX_Library.c **** #include "GFX_Library.h"
  50:GFX_Library.c **** 
  51:GFX_Library.c **** //************************* Non User Functions *************************//
  52:GFX_Library.c **** void writeLine(uint16_t x0, uint16_t y0, uint16_t x1, uint16_t y1, uint16_t color);
  53:GFX_Library.c **** //////////////////////////////////////////////////////////////////////////
  54:GFX_Library.c **** 
  55:GFX_Library.c **** #ifndef min
  56:GFX_Library.c **** #define min(a,b) (((a) < (b)) ? (a) : (b))
  57:GFX_Library.c **** #endif
  58:GFX_Library.c **** #ifndef _swap_int16_t
  59:GFX_Library.c **** #define _swap_int16_t(a, b) { int16_t t = a; a = b; b = t; }
  60:GFX_Library.c **** #endif
  61:GFX_Library.c **** 
  62:GFX_Library.c **** #define display_width   _width
  63:GFX_Library.c **** #define display_height  _height
  64:GFX_Library.c **** 
  65:GFX_Library.c **** #define display_drawPixel   drawPixel
  66:GFX_Library.c **** #define display_drawVLine   drawVLine
  67:GFX_Library.c **** #define display_drawHLine   drawHLine
  68:GFX_Library.c **** #define display_fillScreen  fillScreen
  69:GFX_Library.c **** #define display_fillRect    fillRect
  70:GFX_Library.c **** #define display_setRotation setRotation
  71:GFX_Library.c **** #define display_invert      invertDisplay
  72:GFX_Library.c **** 
  73:GFX_Library.c **** 
  74:GFX_Library.c **** int16_t
  75:GFX_Library.c ****   cursor_x = 0,          ///< x location to start print()ing text
  76:GFX_Library.c ****   cursor_y = 0;          ///< y location to start print()ing text
  77:GFX_Library.c **** uint16_t
  78:GFX_Library.c ****   textcolor = 0xFFFF,    ///< 16-bit background color for print()
  79:GFX_Library.c ****   textbgcolor = 0xFFFF;  ///< 16-bit text color for print()
  80:GFX_Library.c **** uint8_t
  81:GFX_Library.c ****   textsize = 1;          ///< Desired magnification of text to print()
  82:GFX_Library.c **** bool
  83:GFX_Library.c ****   wrap = true;           ///< If set, 'wrap' text at right edge of display
  84:GFX_Library.c **** 
  85:GFX_Library.c **** // Standard ASCII 5x7 font
  86:GFX_Library.c **** #ifndef FONT5X7_H
  87:GFX_Library.c **** static const uint8_t font[256][5] = {
ARM GAS  C:\Users\PC\AppData\Local\Temp\ccKVdNiW.s 			page 3


  88:GFX_Library.c ****    0x00, 0x00, 0x00, 0x00, 0x00,
  89:GFX_Library.c ****    0x3E, 0x5B, 0x4F, 0x5B, 0x3E,
  90:GFX_Library.c ****    0x3E, 0x6B, 0x4F, 0x6B, 0x3E,
  91:GFX_Library.c ****    0x1C, 0x3E, 0x7C, 0x3E, 0x1C,
  92:GFX_Library.c ****    0x18, 0x3C, 0x7E, 0x3C, 0x18,
  93:GFX_Library.c ****    0x1C, 0x57, 0x7D, 0x57, 0x1C,
  94:GFX_Library.c ****    0x1C, 0x5E, 0x7F, 0x5E, 0x1C,
  95:GFX_Library.c ****    0x00, 0x18, 0x3C, 0x18, 0x00,
  96:GFX_Library.c ****    0xFF, 0xE7, 0xC3, 0xE7, 0xFF,
  97:GFX_Library.c ****    0x00, 0x18, 0x24, 0x18, 0x00,
  98:GFX_Library.c ****    0xFF, 0xE7, 0xDB, 0xE7, 0xFF,
  99:GFX_Library.c ****    0x30, 0x48, 0x3A, 0x06, 0x0E,
 100:GFX_Library.c ****    0x26, 0x29, 0x79, 0x29, 0x26,
 101:GFX_Library.c ****    0x40, 0x7F, 0x05, 0x05, 0x07,
 102:GFX_Library.c ****    0x40, 0x7F, 0x05, 0x25, 0x3F,
 103:GFX_Library.c ****    0x5A, 0x3C, 0xE7, 0x3C, 0x5A,
 104:GFX_Library.c ****    0x7F, 0x3E, 0x1C, 0x1C, 0x08,
 105:GFX_Library.c ****    0x08, 0x1C, 0x1C, 0x3E, 0x7F,
 106:GFX_Library.c ****    0x14, 0x22, 0x7F, 0x22, 0x14,
 107:GFX_Library.c ****    0x5F, 0x5F, 0x00, 0x5F, 0x5F,
 108:GFX_Library.c ****    0x06, 0x09, 0x7F, 0x01, 0x7F,
 109:GFX_Library.c ****    0x00, 0x66, 0x89, 0x95, 0x6A,
 110:GFX_Library.c ****    0x60, 0x60, 0x60, 0x60, 0x60,
 111:GFX_Library.c ****    0x94, 0xA2, 0xFF, 0xA2, 0x94,
 112:GFX_Library.c ****    0x08, 0x04, 0x7E, 0x04, 0x08,
 113:GFX_Library.c ****    0x10, 0x20, 0x7E, 0x20, 0x10,
 114:GFX_Library.c ****    0x08, 0x08, 0x2A, 0x1C, 0x08,
 115:GFX_Library.c ****    0x08, 0x1C, 0x2A, 0x08, 0x08,
 116:GFX_Library.c ****    0x1E, 0x10, 0x10, 0x10, 0x10,
 117:GFX_Library.c ****    0x0C, 0x1E, 0x0C, 0x1E, 0x0C,
 118:GFX_Library.c ****    0x30, 0x38, 0x3E, 0x38, 0x30,
 119:GFX_Library.c ****    0x06, 0x0E, 0x3E, 0x0E, 0x06,
 120:GFX_Library.c ****    0x00, 0x00, 0x00, 0x00, 0x00,
 121:GFX_Library.c ****    0x00, 0x00, 0x5F, 0x00, 0x00,
 122:GFX_Library.c ****    0x00, 0x07, 0x00, 0x07, 0x00,
 123:GFX_Library.c ****    0x14, 0x7F, 0x14, 0x7F, 0x14,
 124:GFX_Library.c ****    0x24, 0x2A, 0x7F, 0x2A, 0x12,
 125:GFX_Library.c ****    0x23, 0x13, 0x08, 0x64, 0x62,
 126:GFX_Library.c ****    0x36, 0x49, 0x56, 0x20, 0x50,
 127:GFX_Library.c ****    0x00, 0x08, 0x07, 0x03, 0x00,
 128:GFX_Library.c ****    0x00, 0x1C, 0x22, 0x41, 0x00,
 129:GFX_Library.c ****    0x00, 0x41, 0x22, 0x1C, 0x00,
 130:GFX_Library.c ****    0x2A, 0x1C, 0x7F, 0x1C, 0x2A,
 131:GFX_Library.c ****    0x08, 0x08, 0x3E, 0x08, 0x08,
 132:GFX_Library.c ****    0x00, 0x80, 0x70, 0x30, 0x00,
 133:GFX_Library.c ****    0x08, 0x08, 0x08, 0x08, 0x08,
 134:GFX_Library.c ****    0x00, 0x00, 0x60, 0x60, 0x00,
 135:GFX_Library.c ****    0x20, 0x10, 0x08, 0x04, 0x02,
 136:GFX_Library.c ****    0x3E, 0x51, 0x49, 0x45, 0x3E,
 137:GFX_Library.c ****    0x00, 0x42, 0x7F, 0x40, 0x00,
 138:GFX_Library.c ****    0x72, 0x49, 0x49, 0x49, 0x46,
 139:GFX_Library.c ****    0x21, 0x41, 0x49, 0x4D, 0x33,
 140:GFX_Library.c ****    0x18, 0x14, 0x12, 0x7F, 0x10,
 141:GFX_Library.c ****    0x27, 0x45, 0x45, 0x45, 0x39,
 142:GFX_Library.c ****    0x3C, 0x4A, 0x49, 0x49, 0x31,
 143:GFX_Library.c ****    0x41, 0x21, 0x11, 0x09, 0x07,
 144:GFX_Library.c ****    0x36, 0x49, 0x49, 0x49, 0x36,
ARM GAS  C:\Users\PC\AppData\Local\Temp\ccKVdNiW.s 			page 4


 145:GFX_Library.c ****    0x46, 0x49, 0x49, 0x29, 0x1E,
 146:GFX_Library.c ****    0x00, 0x00, 0x14, 0x00, 0x00,
 147:GFX_Library.c ****    0x00, 0x40, 0x34, 0x00, 0x00,
 148:GFX_Library.c ****    0x00, 0x08, 0x14, 0x22, 0x41,
 149:GFX_Library.c ****    0x14, 0x14, 0x14, 0x14, 0x14,
 150:GFX_Library.c ****    0x00, 0x41, 0x22, 0x14, 0x08,
 151:GFX_Library.c ****    0x02, 0x01, 0x59, 0x09, 0x06,
 152:GFX_Library.c ****    0x3E, 0x41, 0x5D, 0x59, 0x4E,
 153:GFX_Library.c ****    0x7C, 0x12, 0x11, 0x12, 0x7C,
 154:GFX_Library.c ****    0x7F, 0x49, 0x49, 0x49, 0x36,
 155:GFX_Library.c ****    0x3E, 0x41, 0x41, 0x41, 0x22,
 156:GFX_Library.c ****    0x7F, 0x41, 0x41, 0x41, 0x3E,
 157:GFX_Library.c ****    0x7F, 0x49, 0x49, 0x49, 0x41,
 158:GFX_Library.c ****    0x7F, 0x09, 0x09, 0x09, 0x01,
 159:GFX_Library.c ****    0x3E, 0x41, 0x41, 0x51, 0x73,
 160:GFX_Library.c ****    0x7F, 0x08, 0x08, 0x08, 0x7F,
 161:GFX_Library.c ****    0x00, 0x41, 0x7F, 0x41, 0x00,
 162:GFX_Library.c ****    0x20, 0x40, 0x41, 0x3F, 0x01,
 163:GFX_Library.c ****    0x7F, 0x08, 0x14, 0x22, 0x41,
 164:GFX_Library.c ****    0x7F, 0x40, 0x40, 0x40, 0x40,
 165:GFX_Library.c ****    0x7F, 0x02, 0x1C, 0x02, 0x7F,
 166:GFX_Library.c ****    0x7F, 0x04, 0x08, 0x10, 0x7F,
 167:GFX_Library.c ****    0x3E, 0x41, 0x41, 0x41, 0x3E,
 168:GFX_Library.c ****    0x7F, 0x09, 0x09, 0x09, 0x06,
 169:GFX_Library.c ****    0x3E, 0x41, 0x51, 0x21, 0x5E,
 170:GFX_Library.c ****    0x7F, 0x09, 0x19, 0x29, 0x46,
 171:GFX_Library.c ****    0x26, 0x49, 0x49, 0x49, 0x32,
 172:GFX_Library.c ****    0x03, 0x01, 0x7F, 0x01, 0x03,
 173:GFX_Library.c ****    0x3F, 0x40, 0x40, 0x40, 0x3F,
 174:GFX_Library.c ****    0x1F, 0x20, 0x40, 0x20, 0x1F,
 175:GFX_Library.c ****    0x3F, 0x40, 0x38, 0x40, 0x3F,
 176:GFX_Library.c ****    0x63, 0x14, 0x08, 0x14, 0x63,
 177:GFX_Library.c ****    0x03, 0x04, 0x78, 0x04, 0x03,
 178:GFX_Library.c ****    0x61, 0x59, 0x49, 0x4D, 0x43,
 179:GFX_Library.c ****    0x00, 0x7F, 0x41, 0x41, 0x41,
 180:GFX_Library.c ****    0x02, 0x04, 0x08, 0x10, 0x20,
 181:GFX_Library.c ****    0x00, 0x41, 0x41, 0x41, 0x7F,
 182:GFX_Library.c ****    0x04, 0x02, 0x01, 0x02, 0x04,
 183:GFX_Library.c ****    0x40, 0x40, 0x40, 0x40, 0x40,
 184:GFX_Library.c ****    0x00, 0x03, 0x07, 0x08, 0x00,
 185:GFX_Library.c ****    0x20, 0x54, 0x54, 0x78, 0x40,
 186:GFX_Library.c ****    0x7F, 0x28, 0x44, 0x44, 0x38,
 187:GFX_Library.c ****    0x38, 0x44, 0x44, 0x44, 0x28,
 188:GFX_Library.c ****    0x38, 0x44, 0x44, 0x28, 0x7F,
 189:GFX_Library.c ****    0x38, 0x54, 0x54, 0x54, 0x18,
 190:GFX_Library.c ****    0x00, 0x08, 0x7E, 0x09, 0x02,
 191:GFX_Library.c ****    0x18, 0xA4, 0xA4, 0x9C, 0x78,
 192:GFX_Library.c ****    0x7F, 0x08, 0x04, 0x04, 0x78,
 193:GFX_Library.c ****    0x00, 0x44, 0x7D, 0x40, 0x00,
 194:GFX_Library.c ****    0x20, 0x40, 0x40, 0x3D, 0x00,
 195:GFX_Library.c ****    0x7F, 0x10, 0x28, 0x44, 0x00,
 196:GFX_Library.c ****    0x00, 0x41, 0x7F, 0x40, 0x00,
 197:GFX_Library.c ****    0x7C, 0x04, 0x78, 0x04, 0x78,
 198:GFX_Library.c ****    0x7C, 0x08, 0x04, 0x04, 0x78,
 199:GFX_Library.c ****    0x38, 0x44, 0x44, 0x44, 0x38,
 200:GFX_Library.c ****    0xFC, 0x18, 0x24, 0x24, 0x18,
 201:GFX_Library.c ****    0x18, 0x24, 0x24, 0x18, 0xFC,
ARM GAS  C:\Users\PC\AppData\Local\Temp\ccKVdNiW.s 			page 5


 202:GFX_Library.c ****    0x7C, 0x08, 0x04, 0x04, 0x08,
 203:GFX_Library.c ****    0x48, 0x54, 0x54, 0x54, 0x24,
 204:GFX_Library.c ****    0x04, 0x04, 0x3F, 0x44, 0x24,
 205:GFX_Library.c ****    0x3C, 0x40, 0x40, 0x20, 0x7C,
 206:GFX_Library.c ****    0x1C, 0x20, 0x40, 0x20, 0x1C,
 207:GFX_Library.c ****    0x3C, 0x40, 0x30, 0x40, 0x3C,
 208:GFX_Library.c ****    0x44, 0x28, 0x10, 0x28, 0x44,
 209:GFX_Library.c ****    0x4C, 0x90, 0x90, 0x90, 0x7C,
 210:GFX_Library.c ****    0x44, 0x64, 0x54, 0x4C, 0x44,
 211:GFX_Library.c ****    0x00, 0x08, 0x36, 0x41, 0x00,
 212:GFX_Library.c ****    0x00, 0x00, 0x77, 0x00, 0x00,
 213:GFX_Library.c ****    0x00, 0x41, 0x36, 0x08, 0x00,
 214:GFX_Library.c ****    0x02, 0x01, 0x02, 0x04, 0x02,
 215:GFX_Library.c ****    0x3C, 0x26, 0x23, 0x26, 0x3C,
 216:GFX_Library.c ****    0x1E, 0xA1, 0xA1, 0x61, 0x12,
 217:GFX_Library.c ****    0x3A, 0x40, 0x40, 0x20, 0x7A,
 218:GFX_Library.c ****    0x38, 0x54, 0x54, 0x55, 0x59,
 219:GFX_Library.c ****    0x21, 0x55, 0x55, 0x79, 0x41,
 220:GFX_Library.c ****    0x22, 0x54, 0x54, 0x78, 0x42, // a-umlaut
 221:GFX_Library.c ****    0x21, 0x55, 0x54, 0x78, 0x40,
 222:GFX_Library.c ****    0x20, 0x54, 0x55, 0x79, 0x40,
 223:GFX_Library.c ****    0x0C, 0x1E, 0x52, 0x72, 0x12,
 224:GFX_Library.c ****    0x39, 0x55, 0x55, 0x55, 0x59,
 225:GFX_Library.c ****    0x39, 0x54, 0x54, 0x54, 0x59,
 226:GFX_Library.c ****    0x39, 0x55, 0x54, 0x54, 0x58,
 227:GFX_Library.c ****    0x00, 0x00, 0x45, 0x7C, 0x41,
 228:GFX_Library.c ****    0x00, 0x02, 0x45, 0x7D, 0x42,
 229:GFX_Library.c ****    0x00, 0x01, 0x45, 0x7C, 0x40,
 230:GFX_Library.c ****    0x7D, 0x12, 0x11, 0x12, 0x7D, // A-umlaut
 231:GFX_Library.c ****    0xF0, 0x28, 0x25, 0x28, 0xF0,
 232:GFX_Library.c ****    0x7C, 0x54, 0x55, 0x45, 0x00,
 233:GFX_Library.c ****    0x20, 0x54, 0x54, 0x7C, 0x54,
 234:GFX_Library.c ****    0x7C, 0x0A, 0x09, 0x7F, 0x49,
 235:GFX_Library.c ****    0x32, 0x49, 0x49, 0x49, 0x32,
 236:GFX_Library.c ****    0x3A, 0x44, 0x44, 0x44, 0x3A, // o-umlaut
 237:GFX_Library.c ****    0x32, 0x4A, 0x48, 0x48, 0x30,
 238:GFX_Library.c ****    0x3A, 0x41, 0x41, 0x21, 0x7A,
 239:GFX_Library.c ****    0x3A, 0x42, 0x40, 0x20, 0x78,
 240:GFX_Library.c ****    0x00, 0x9D, 0xA0, 0xA0, 0x7D,
 241:GFX_Library.c ****    0x3D, 0x42, 0x42, 0x42, 0x3D, // O-umlaut
 242:GFX_Library.c ****    0x3D, 0x40, 0x40, 0x40, 0x3D,
 243:GFX_Library.c ****    0x3C, 0x24, 0xFF, 0x24, 0x24,
 244:GFX_Library.c ****    0x48, 0x7E, 0x49, 0x43, 0x66,
 245:GFX_Library.c ****    0x2B, 0x2F, 0xFC, 0x2F, 0x2B,
 246:GFX_Library.c ****    0xFF, 0x09, 0x29, 0xF6, 0x20,
 247:GFX_Library.c ****    0xC0, 0x88, 0x7E, 0x09, 0x03,
 248:GFX_Library.c ****    0x20, 0x54, 0x54, 0x79, 0x41,
 249:GFX_Library.c ****    0x00, 0x00, 0x44, 0x7D, 0x41,
 250:GFX_Library.c ****    0x30, 0x48, 0x48, 0x4A, 0x32,
 251:GFX_Library.c ****    0x38, 0x40, 0x40, 0x22, 0x7A,
 252:GFX_Library.c ****    0x00, 0x7A, 0x0A, 0x0A, 0x72,
 253:GFX_Library.c ****    0x7D, 0x0D, 0x19, 0x31, 0x7D,
 254:GFX_Library.c ****    0x26, 0x29, 0x29, 0x2F, 0x28,
 255:GFX_Library.c ****    0x26, 0x29, 0x29, 0x29, 0x26,
 256:GFX_Library.c ****    0x30, 0x48, 0x4D, 0x40, 0x20,
 257:GFX_Library.c ****    0x38, 0x08, 0x08, 0x08, 0x08,
 258:GFX_Library.c ****    0x08, 0x08, 0x08, 0x08, 0x38,
ARM GAS  C:\Users\PC\AppData\Local\Temp\ccKVdNiW.s 			page 6


 259:GFX_Library.c ****    0x2F, 0x10, 0xC8, 0xAC, 0xBA,
 260:GFX_Library.c ****    0x2F, 0x10, 0x28, 0x34, 0xFA,
 261:GFX_Library.c ****    0x00, 0x00, 0x7B, 0x00, 0x00,
 262:GFX_Library.c ****    0x08, 0x14, 0x2A, 0x14, 0x22,
 263:GFX_Library.c ****    0x22, 0x14, 0x2A, 0x14, 0x08,
 264:GFX_Library.c ****    0x55, 0x00, 0x55, 0x00, 0x55, // #176 (25% block) missing in old code
 265:GFX_Library.c ****    0xAA, 0x55, 0xAA, 0x55, 0xAA, // 50% block
 266:GFX_Library.c ****    0xFF, 0x55, 0xFF, 0x55, 0xFF, // 75% block
 267:GFX_Library.c ****    0x00, 0x00, 0x00, 0xFF, 0x00,
 268:GFX_Library.c ****    0x10, 0x10, 0x10, 0xFF, 0x00,
 269:GFX_Library.c ****    0x14, 0x14, 0x14, 0xFF, 0x00,
 270:GFX_Library.c ****    0x10, 0x10, 0xFF, 0x00, 0xFF,
 271:GFX_Library.c ****    0x10, 0x10, 0xF0, 0x10, 0xF0,
 272:GFX_Library.c ****    0x14, 0x14, 0x14, 0xFC, 0x00,
 273:GFX_Library.c ****    0x14, 0x14, 0xF7, 0x00, 0xFF,
 274:GFX_Library.c ****    0x00, 0x00, 0xFF, 0x00, 0xFF,
 275:GFX_Library.c ****    0x14, 0x14, 0xF4, 0x04, 0xFC,
 276:GFX_Library.c ****    0x14, 0x14, 0x17, 0x10, 0x1F,
 277:GFX_Library.c ****    0x10, 0x10, 0x1F, 0x10, 0x1F,
 278:GFX_Library.c ****    0x14, 0x14, 0x14, 0x1F, 0x00,
 279:GFX_Library.c ****    0x10, 0x10, 0x10, 0xF0, 0x00,
 280:GFX_Library.c ****    0x00, 0x00, 0x00, 0x1F, 0x10,
 281:GFX_Library.c ****    0x10, 0x10, 0x10, 0x1F, 0x10,
 282:GFX_Library.c ****    0x10, 0x10, 0x10, 0xF0, 0x10,
 283:GFX_Library.c ****    0x00, 0x00, 0x00, 0xFF, 0x10,
 284:GFX_Library.c ****    0x10, 0x10, 0x10, 0x10, 0x10,
 285:GFX_Library.c ****    0x10, 0x10, 0x10, 0xFF, 0x10,
 286:GFX_Library.c ****    0x00, 0x00, 0x00, 0xFF, 0x14,
 287:GFX_Library.c ****    0x00, 0x00, 0xFF, 0x00, 0xFF,
 288:GFX_Library.c ****    0x00, 0x00, 0x1F, 0x10, 0x17,
 289:GFX_Library.c ****    0x00, 0x00, 0xFC, 0x04, 0xF4,
 290:GFX_Library.c ****    0x14, 0x14, 0x17, 0x10, 0x17,
 291:GFX_Library.c ****    0x14, 0x14, 0xF4, 0x04, 0xF4,
 292:GFX_Library.c ****    0x00, 0x00, 0xFF, 0x00, 0xF7,
 293:GFX_Library.c ****    0x14, 0x14, 0x14, 0x14, 0x14,
 294:GFX_Library.c ****    0x14, 0x14, 0xF7, 0x00, 0xF7,
 295:GFX_Library.c ****    0x14, 0x14, 0x14, 0x17, 0x14,
 296:GFX_Library.c ****    0x10, 0x10, 0x1F, 0x10, 0x1F,
 297:GFX_Library.c ****    0x14, 0x14, 0x14, 0xF4, 0x14,
 298:GFX_Library.c ****    0x10, 0x10, 0xF0, 0x10, 0xF0,
 299:GFX_Library.c ****    0x00, 0x00, 0x1F, 0x10, 0x1F,
 300:GFX_Library.c ****    0x00, 0x00, 0x00, 0x1F, 0x14,
 301:GFX_Library.c ****    0x00, 0x00, 0x00, 0xFC, 0x14,
 302:GFX_Library.c ****    0x00, 0x00, 0xF0, 0x10, 0xF0,
 303:GFX_Library.c ****    0x10, 0x10, 0xFF, 0x10, 0xFF,
 304:GFX_Library.c ****    0x14, 0x14, 0x14, 0xFF, 0x14,
 305:GFX_Library.c ****    0x10, 0x10, 0x10, 0x1F, 0x00,
 306:GFX_Library.c ****    0x00, 0x00, 0x00, 0xF0, 0x10,
 307:GFX_Library.c ****    0xFF, 0xFF, 0xFF, 0xFF, 0xFF,
 308:GFX_Library.c ****    0xF0, 0xF0, 0xF0, 0xF0, 0xF0,
 309:GFX_Library.c ****    0xFF, 0xFF, 0xFF, 0x00, 0x00,
 310:GFX_Library.c ****    0x00, 0x00, 0x00, 0xFF, 0xFF,
 311:GFX_Library.c ****    0x0F, 0x0F, 0x0F, 0x0F, 0x0F,
 312:GFX_Library.c ****    0x38, 0x44, 0x44, 0x38, 0x44,
 313:GFX_Library.c ****    0xFC, 0x4A, 0x4A, 0x4A, 0x34, // sharp-s or beta
 314:GFX_Library.c ****    0x7E, 0x02, 0x02, 0x06, 0x06,
 315:GFX_Library.c ****    0x02, 0x7E, 0x02, 0x7E, 0x02,
ARM GAS  C:\Users\PC\AppData\Local\Temp\ccKVdNiW.s 			page 7


 316:GFX_Library.c ****    0x63, 0x55, 0x49, 0x41, 0x63,
 317:GFX_Library.c ****    0x38, 0x44, 0x44, 0x3C, 0x04,
 318:GFX_Library.c ****    0x40, 0x7E, 0x20, 0x1E, 0x20,
 319:GFX_Library.c ****    0x06, 0x02, 0x7E, 0x02, 0x02,
 320:GFX_Library.c ****    0x99, 0xA5, 0xE7, 0xA5, 0x99,
 321:GFX_Library.c ****    0x1C, 0x2A, 0x49, 0x2A, 0x1C,
 322:GFX_Library.c ****    0x4C, 0x72, 0x01, 0x72, 0x4C,
 323:GFX_Library.c ****    0x30, 0x4A, 0x4D, 0x4D, 0x30,
 324:GFX_Library.c ****    0x30, 0x48, 0x78, 0x48, 0x30,
 325:GFX_Library.c ****    0xBC, 0x62, 0x5A, 0x46, 0x3D,
 326:GFX_Library.c ****    0x3E, 0x49, 0x49, 0x49, 0x00,
 327:GFX_Library.c ****    0x7E, 0x01, 0x01, 0x01, 0x7E,
 328:GFX_Library.c ****    0x2A, 0x2A, 0x2A, 0x2A, 0x2A,
 329:GFX_Library.c ****    0x44, 0x44, 0x5F, 0x44, 0x44,
 330:GFX_Library.c ****    0x40, 0x51, 0x4A, 0x44, 0x40,
 331:GFX_Library.c ****    0x40, 0x44, 0x4A, 0x51, 0x40,
 332:GFX_Library.c ****    0x00, 0x00, 0xFF, 0x01, 0x03,
 333:GFX_Library.c ****    0xE0, 0x80, 0xFF, 0x00, 0x00,
 334:GFX_Library.c ****    0x08, 0x08, 0x6B, 0x6B, 0x08,
 335:GFX_Library.c ****    0x36, 0x12, 0x36, 0x24, 0x36,
 336:GFX_Library.c ****    0x06, 0x0F, 0x09, 0x0F, 0x06,
 337:GFX_Library.c ****    0x00, 0x00, 0x18, 0x18, 0x00,
 338:GFX_Library.c ****    0x00, 0x00, 0x10, 0x10, 0x00,
 339:GFX_Library.c ****    0x30, 0x40, 0xFF, 0x01, 0x01,
 340:GFX_Library.c ****    0x00, 0x1F, 0x01, 0x01, 0x1E,
 341:GFX_Library.c ****    0x00, 0x19, 0x1D, 0x17, 0x12,
 342:GFX_Library.c ****    0x00, 0x3C, 0x3C, 0x3C, 0x3C,
 343:GFX_Library.c ****    0x00, 0x00, 0x00, 0x00, 0x00  // #255 NBSP
 344:GFX_Library.c **** };
 345:GFX_Library.c **** #endif // FONT5X7_H
 346:GFX_Library.c **** 
 347:GFX_Library.c **** /**************************************************************************/
 348:GFX_Library.c **** /*!
 349:GFX_Library.c ****    @brief    Write a line.  Bresenham's algorithm - thx wikpedia
 350:GFX_Library.c ****     @param    x0  Start point x coordinate
 351:GFX_Library.c ****     @param    y0  Start point y coordinate
 352:GFX_Library.c ****     @param    x1  End point x coordinate
 353:GFX_Library.c ****     @param    y1  End point y coordinate
 354:GFX_Library.c ****     @param    color 16-bit 5-6-5 Color to draw with
 355:GFX_Library.c **** */
 356:GFX_Library.c **** /**************************************************************************/
 357:GFX_Library.c **** void writeLine(uint16_t x0, uint16_t y0, uint16_t x1, uint16_t y1, uint16_t color) {
  28              		.loc 1 357 0
  29              		.cfi_startproc
  30              		@ args = 4, pretend = 0, frame = 8
  31              		@ frame_needed = 0, uses_anonymous_args = 0
  32              	.LVL0:
  33 0000 F0B5     		push	{r4, r5, r6, r7, lr}
  34              		.cfi_def_cfa_offset 20
  35              		.cfi_offset 4, -20
  36              		.cfi_offset 5, -16
  37              		.cfi_offset 6, -12
  38              		.cfi_offset 7, -8
  39              		.cfi_offset 14, -4
  40 0002 5F46     		mov	r7, fp
  41 0004 5646     		mov	r6, r10
  42 0006 4D46     		mov	r5, r9
ARM GAS  C:\Users\PC\AppData\Local\Temp\ccKVdNiW.s 			page 8


  43 0008 4446     		mov	r4, r8
  44 000a F0B4     		push	{r4, r5, r6, r7}
  45              		.cfi_def_cfa_offset 36
  46              		.cfi_offset 8, -36
  47              		.cfi_offset 9, -32
  48              		.cfi_offset 10, -28
  49              		.cfi_offset 11, -24
  50 000c 83B0     		sub	sp, sp, #12
  51              		.cfi_def_cfa_offset 48
  52 000e 0500     		movs	r5, r0
  53 0010 0E00     		movs	r6, r1
  54 0012 1700     		movs	r7, r2
  55 0014 0CAA     		add	r2, sp, #48
  56              	.LVL1:
  57 0016 1288     		ldrh	r2, [r2]
  58              	.LVL2:
  59 0018 0092     		str	r2, [sp]
 358:GFX_Library.c ****     bool steep = abs((int16_t)(y1 - y0)) > abs((int16_t)(x1 - x0));
  60              		.loc 1 358 0
  61 001a 5A1A     		subs	r2, r3, r1
  62 001c 12B2     		sxth	r2, r2
  63 001e D117     		asrs	r1, r2, #31
  64              	.LVL3:
  65 0020 5218     		adds	r2, r2, r1
  66 0022 4A40     		eors	r2, r1
  67 0024 9046     		mov	r8, r2
  68 0026 3A1A     		subs	r2, r7, r0
  69 0028 12B2     		sxth	r2, r2
  70 002a D117     		asrs	r1, r2, #31
  71 002c 5218     		adds	r2, r2, r1
  72 002e 4A40     		eors	r2, r1
  73 0030 9146     		mov	r9, r2
  74              	.LVL4:
 359:GFX_Library.c ****     if (steep) {
  75              		.loc 1 359 0
  76 0032 9045     		cmp	r8, r2
  77 0034 04DD     		ble	.L2
  78 0036 3A00     		movs	r2, r7
  79              	.LVL5:
  80              	.LBB2:
 360:GFX_Library.c ****         _swap_int16_t(x0, y0);
 361:GFX_Library.c ****         _swap_int16_t(x1, y1);
  81              		.loc 1 361 0
  82 0038 1F00     		movs	r7, r3
  83 003a 1300     		movs	r3, r2
  84              	.LVL6:
  85              	.LBE2:
  86              	.LBB3:
 360:GFX_Library.c ****         _swap_int16_t(x0, y0);
  87              		.loc 1 360 0
  88 003c 3500     		movs	r5, r6
  89 003e 0600     		movs	r6, r0
  90              	.L2:
  91              	.LVL7:
  92              	.LBE3:
 362:GFX_Library.c ****     }
 363:GFX_Library.c **** 
ARM GAS  C:\Users\PC\AppData\Local\Temp\ccKVdNiW.s 			page 9


 364:GFX_Library.c ****     if (x0 > x1) {
  93              		.loc 1 364 0
  94 0040 BD42     		cmp	r5, r7
  95 0042 05D9     		bls	.L3
  96 0044 3200     		movs	r2, r6
  97              	.LBB4:
 365:GFX_Library.c ****         _swap_int16_t(x0, x1);
 366:GFX_Library.c ****         _swap_int16_t(y0, y1);
  98              		.loc 1 366 0
  99 0046 1E00     		movs	r6, r3
 100              	.LVL8:
 101 0048 1300     		movs	r3, r2
 102              	.LVL9:
 103              	.LBE4:
 104 004a 2A00     		movs	r2, r5
 105              	.LBB5:
 365:GFX_Library.c ****         _swap_int16_t(x0, x1);
 106              		.loc 1 365 0
 107 004c 3D00     		movs	r5, r7
 108              	.LVL10:
 109 004e 1700     		movs	r7, r2
 110              	.LVL11:
 111              	.L3:
 112              	.LBE5:
 367:GFX_Library.c ****     }
 368:GFX_Library.c **** 
 369:GFX_Library.c ****     int16_t dx, dy;
 370:GFX_Library.c ****     dx = x1 - x0;
 113              		.loc 1 370 0
 114 0050 7A1B     		subs	r2, r7, r5
 115 0052 92B2     		uxth	r2, r2
 116 0054 9346     		mov	fp, r2
 117 0056 14B2     		sxth	r4, r2
 118              	.LVL12:
 371:GFX_Library.c ****     dy = abs((int16_t)(y1 - y0));
 119              		.loc 1 371 0
 120 0058 9A1B     		subs	r2, r3, r6
 121 005a 12B2     		sxth	r2, r2
 122 005c D117     		asrs	r1, r2, #31
 123 005e 5218     		adds	r2, r2, r1
 124 0060 4A40     		eors	r2, r1
 125 0062 9246     		mov	r10, r2
 126              	.LVL13:
 372:GFX_Library.c **** 
 373:GFX_Library.c ****     int16_t err = dx / 2;
 127              		.loc 1 373 0
 128 0064 E20F     		lsrs	r2, r4, #31
 129 0066 1419     		adds	r4, r2, r4
 130              	.LVL14:
 131 0068 6410     		asrs	r4, r4, #1
 132              	.LVL15:
 374:GFX_Library.c ****     int16_t ystep;
 375:GFX_Library.c **** 
 376:GFX_Library.c ****     if (y0 < y1) {
 133              		.loc 1 376 0
 134 006a 9E42     		cmp	r6, r3
 135 006c 02D2     		bcs	.L12
ARM GAS  C:\Users\PC\AppData\Local\Temp\ccKVdNiW.s 			page 10


 377:GFX_Library.c ****         ystep = 1;
 136              		.loc 1 377 0
 137 006e 0123     		movs	r3, #1
 138              	.LVL16:
 139 0070 0193     		str	r3, [sp, #4]
 140 0072 20E0     		b	.L5
 141              	.LVL17:
 142              	.L12:
 378:GFX_Library.c ****     } else {
 379:GFX_Library.c ****         ystep = -1;
 143              		.loc 1 379 0
 144 0074 0123     		movs	r3, #1
 145              	.LVL18:
 146 0076 5B42     		rsbs	r3, r3, #0
 147 0078 0193     		str	r3, [sp, #4]
 148 007a 1CE0     		b	.L5
 149              	.LVL19:
 150              	.L9:
 380:GFX_Library.c ****     }
 381:GFX_Library.c **** 
 382:GFX_Library.c ****     for (; x0<=x1; x0++) {
 383:GFX_Library.c ****         if (steep) {
 151              		.loc 1 383 0
 152 007c C845     		cmp	r8, r9
 153 007e 06DD     		ble	.L6
 384:GFX_Library.c ****             display_drawPixel(y0, x0, color);
 154              		.loc 1 384 0
 155 0080 6B46     		mov	r3, sp
 156 0082 1A78     		ldrb	r2, [r3]
 157 0084 E9B2     		uxtb	r1, r5
 158 0086 F0B2     		uxtb	r0, r6
 159 0088 FFF7FEFF 		bl	drawPixel
 160              	.LVL20:
 161 008c 05E0     		b	.L7
 162              	.L6:
 385:GFX_Library.c ****         } else {
 386:GFX_Library.c ****             display_drawPixel(x0, y0, color);
 163              		.loc 1 386 0
 164 008e 6B46     		mov	r3, sp
 165 0090 1A78     		ldrb	r2, [r3]
 166 0092 F1B2     		uxtb	r1, r6
 167 0094 E8B2     		uxtb	r0, r5
 168 0096 FFF7FEFF 		bl	drawPixel
 169              	.LVL21:
 170              	.L7:
 387:GFX_Library.c ****         }
 388:GFX_Library.c ****         err -= dy;
 171              		.loc 1 388 0
 172 009a 5346     		mov	r3, r10
 173 009c E41A     		subs	r4, r4, r3
 174              	.LVL22:
 175 009e A3B2     		uxth	r3, r4
 176 00a0 1CB2     		sxth	r4, r3
 177              	.LVL23:
 389:GFX_Library.c ****         if (err < 0) {
 178              		.loc 1 389 0
 179 00a2 002C     		cmp	r4, #0
ARM GAS  C:\Users\PC\AppData\Local\Temp\ccKVdNiW.s 			page 11


 180 00a4 05DA     		bge	.L8
 390:GFX_Library.c ****             y0 += ystep;
 181              		.loc 1 390 0
 182 00a6 019A     		ldr	r2, [sp, #4]
 183 00a8 9446     		mov	ip, r2
 184 00aa 6644     		add	r6, r6, ip
 185              	.LVL24:
 186 00ac B6B2     		uxth	r6, r6
 187              	.LVL25:
 391:GFX_Library.c ****             err += dx;
 188              		.loc 1 391 0
 189 00ae 5B44     		add	r3, r3, fp
 190 00b0 1CB2     		sxth	r4, r3
 191              	.LVL26:
 192              	.L8:
 382:GFX_Library.c ****         if (steep) {
 193              		.loc 1 382 0
 194 00b2 0135     		adds	r5, r5, #1
 195              	.LVL27:
 196 00b4 ADB2     		uxth	r5, r5
 197              	.LVL28:
 198              	.L5:
 382:GFX_Library.c ****         if (steep) {
 199              		.loc 1 382 0 is_stmt 0 discriminator 1
 200 00b6 BD42     		cmp	r5, r7
 201 00b8 E0D9     		bls	.L9
 392:GFX_Library.c ****         }
 393:GFX_Library.c ****     }
 394:GFX_Library.c **** }
 202              		.loc 1 394 0 is_stmt 1
 203 00ba 03B0     		add	sp, sp, #12
 204              		@ sp needed
 205              	.LVL29:
 206              	.LVL30:
 207              	.LVL31:
 208              	.LVL32:
 209              	.LVL33:
 210              	.LVL34:
 211              	.LVL35:
 212 00bc 3CBC     		pop	{r2, r3, r4, r5}
 213 00be 9046     		mov	r8, r2
 214 00c0 9946     		mov	r9, r3
 215 00c2 A246     		mov	r10, r4
 216 00c4 AB46     		mov	fp, r5
 217 00c6 F0BD     		pop	{r4, r5, r6, r7, pc}
 218              		.cfi_endproc
 219              	.LFE33:
 220              		.size	writeLine, .-writeLine
 221              		.section	.text.display_drawLine,"ax",%progbits
 222              		.align	2
 223              		.global	display_drawLine
 224              		.code	16
 225              		.thumb_func
 226              		.type	display_drawLine, %function
 227              	display_drawLine:
 228              	.LFB34:
 395:GFX_Library.c **** 
ARM GAS  C:\Users\PC\AppData\Local\Temp\ccKVdNiW.s 			page 12


 396:GFX_Library.c **** /**************************************************************************/
 397:GFX_Library.c **** /*!
 398:GFX_Library.c ****    @brief    Draw a line
 399:GFX_Library.c ****     @param    x0  Start point x coordinate
 400:GFX_Library.c ****     @param    y0  Start point y coordinate
 401:GFX_Library.c ****     @param    x1  End point x coordinate
 402:GFX_Library.c ****     @param    y1  End point y coordinate
 403:GFX_Library.c ****     @param    color 16-bit 5-6-5 Color to draw with
 404:GFX_Library.c **** */
 405:GFX_Library.c **** /**************************************************************************/
 406:GFX_Library.c **** void display_drawLine(uint16_t x0, uint16_t y0, uint16_t x1, uint16_t y1, uint16_t color) {
 229              		.loc 1 406 0
 230              		.cfi_startproc
 231              		@ args = 4, pretend = 0, frame = 0
 232              		@ frame_needed = 0, uses_anonymous_args = 0
 233              	.LVL36:
 234 0000 10B5     		push	{r4, lr}
 235              		.cfi_def_cfa_offset 8
 236              		.cfi_offset 4, -8
 237              		.cfi_offset 14, -4
 238 0002 82B0     		sub	sp, sp, #8
 239              		.cfi_def_cfa_offset 16
 240 0004 04AC     		add	r4, sp, #16
 241              	.LVL37:
 242 0006 2488     		ldrh	r4, [r4]
 243              	.LVL38:
 407:GFX_Library.c ****     // Update in subclasses if desired!
 408:GFX_Library.c ****     if(x0 == x1){
 244              		.loc 1 408 0
 245 0008 9042     		cmp	r0, r2
 246 000a 0ED1     		bne	.L14
 409:GFX_Library.c ****         if(y0 > y1) _swap_int16_t(y0, y1);
 247              		.loc 1 409 0
 248 000c 9942     		cmp	r1, r3
 249 000e 02D9     		bls	.L15
 250 0010 0A00     		movs	r2, r1
 251              	.LVL39:
 252              	.LBB6:
 253 0012 1900     		movs	r1, r3
 254              	.LVL40:
 255 0014 1300     		movs	r3, r2
 256              	.LVL41:
 257              	.L15:
 258              	.LBE6:
 410:GFX_Library.c ****         display_drawVLine(x0, y0, y1 - y0 + 1, color);
 259              		.loc 1 410 0
 260 0016 C9B2     		uxtb	r1, r1
 261              	.LVL42:
 262 0018 E4B2     		uxtb	r4, r4
 263 001a 5A1A     		subs	r2, r3, r1
 264 001c 531C     		adds	r3, r2, #1
 265              	.LVL43:
 266 001e DAB2     		uxtb	r2, r3
 267 0020 C0B2     		uxtb	r0, r0
 268              	.LVL44:
 269 0022 2300     		movs	r3, r4
 270 0024 FFF7FEFF 		bl	drawVLine
ARM GAS  C:\Users\PC\AppData\Local\Temp\ccKVdNiW.s 			page 13


 271              	.LVL45:
 272 0028 12E0     		b	.L13
 273              	.LVL46:
 274              	.L14:
 411:GFX_Library.c ****     } else if(y0 == y1){
 275              		.loc 1 411 0
 276 002a 9942     		cmp	r1, r3
 277 002c 0DD1     		bne	.L17
 412:GFX_Library.c ****         if(x0 > x1) _swap_int16_t(x0, x1);
 278              		.loc 1 412 0
 279 002e 9042     		cmp	r0, r2
 280 0030 02D9     		bls	.L18
 281 0032 0300     		movs	r3, r0
 282              	.LVL47:
 283              	.LBB7:
 284 0034 1000     		movs	r0, r2
 285              	.LVL48:
 286 0036 1A00     		movs	r2, r3
 287              	.LVL49:
 288              	.L18:
 289              	.LBE7:
 413:GFX_Library.c ****         display_drawHLine(x0, y0, x1 - x0 + 1, color);
 290              		.loc 1 413 0
 291 0038 C0B2     		uxtb	r0, r0
 292              	.LVL50:
 293 003a E3B2     		uxtb	r3, r4
 294 003c 121A     		subs	r2, r2, r0
 295              	.LVL51:
 296 003e 0132     		adds	r2, r2, #1
 297 0040 D2B2     		uxtb	r2, r2
 298 0042 C9B2     		uxtb	r1, r1
 299              	.LVL52:
 300 0044 FFF7FEFF 		bl	drawHLine
 301              	.LVL53:
 302 0048 02E0     		b	.L13
 303              	.LVL54:
 304              	.L17:
 414:GFX_Library.c ****     } else {
 415:GFX_Library.c ****         writeLine(x0, y0, x1, y1, color);
 305              		.loc 1 415 0
 306 004a 0094     		str	r4, [sp]
 307 004c FFF7FEFF 		bl	writeLine
 308              	.LVL55:
 309              	.L13:
 416:GFX_Library.c ****     }
 417:GFX_Library.c **** }
 310              		.loc 1 417 0
 311 0050 02B0     		add	sp, sp, #8
 312              		@ sp needed
 313 0052 10BD     		pop	{r4, pc}
 314              		.cfi_endproc
 315              	.LFE34:
 316              		.size	display_drawLine, .-display_drawLine
 317              		.section	.text.display_drawCircle,"ax",%progbits
 318              		.align	2
 319              		.global	display_drawCircle
 320              		.code	16
ARM GAS  C:\Users\PC\AppData\Local\Temp\ccKVdNiW.s 			page 14


 321              		.thumb_func
 322              		.type	display_drawCircle, %function
 323              	display_drawCircle:
 324              	.LFB35:
 418:GFX_Library.c **** 
 419:GFX_Library.c **** /**************************************************************************/
 420:GFX_Library.c **** /*!
 421:GFX_Library.c ****    @brief    Draw a circle outline
 422:GFX_Library.c ****     @param    x0   Center-point x coordinate
 423:GFX_Library.c ****     @param    y0   Center-point y coordinate
 424:GFX_Library.c ****     @param    r   Radius of circle
 425:GFX_Library.c ****     @param    color 16-bit 5-6-5 Color to draw with
 426:GFX_Library.c **** */
 427:GFX_Library.c **** /**************************************************************************/
 428:GFX_Library.c **** void display_drawCircle(uint16_t x0, uint16_t y0, uint16_t r, uint16_t color) {
 325              		.loc 1 428 0
 326              		.cfi_startproc
 327              		@ args = 0, pretend = 0, frame = 24
 328              		@ frame_needed = 0, uses_anonymous_args = 0
 329              	.LVL56:
 330 0000 F0B5     		push	{r4, r5, r6, r7, lr}
 331              		.cfi_def_cfa_offset 20
 332              		.cfi_offset 4, -20
 333              		.cfi_offset 5, -16
 334              		.cfi_offset 6, -12
 335              		.cfi_offset 7, -8
 336              		.cfi_offset 14, -4
 337 0002 5F46     		mov	r7, fp
 338 0004 5646     		mov	r6, r10
 339 0006 4D46     		mov	r5, r9
 340 0008 4446     		mov	r4, r8
 341 000a F0B4     		push	{r4, r5, r6, r7}
 342              		.cfi_def_cfa_offset 36
 343              		.cfi_offset 8, -36
 344              		.cfi_offset 9, -32
 345              		.cfi_offset 10, -28
 346              		.cfi_offset 11, -24
 347 000c 87B0     		sub	sp, sp, #28
 348              		.cfi_def_cfa_offset 64
 429:GFX_Library.c ****     int16_t f = 1 - r;
 349              		.loc 1 429 0
 350 000e 0124     		movs	r4, #1
 351 0010 A41A     		subs	r4, r4, r2
 352 0012 24B2     		sxth	r4, r4
 353              	.LVL57:
 430:GFX_Library.c ****     int16_t ddF_x = 1;
 431:GFX_Library.c ****     int16_t ddF_y = -2 * r;
 354              		.loc 1 431 0
 355 0014 D503     		lsls	r5, r2, #15
 356 0016 AD1A     		subs	r5, r5, r2
 357 0018 6E00     		lsls	r6, r5, #1
 358 001a 35B2     		sxth	r5, r6
 359 001c 0595     		str	r5, [sp, #20]
 360              	.LVL58:
 432:GFX_Library.c ****     int16_t x = 0;
 433:GFX_Library.c ****     int16_t y = r;
 361              		.loc 1 433 0
ARM GAS  C:\Users\PC\AppData\Local\Temp\ccKVdNiW.s 			page 15


 362 001e 15B2     		sxth	r5, r2
 363 0020 0295     		str	r5, [sp, #8]
 364              	.LVL59:
 434:GFX_Library.c **** 
 435:GFX_Library.c ****     display_drawPixel(x0  , y0+r, color);
 365              		.loc 1 435 0
 366 0022 C0B2     		uxtb	r0, r0
 367              	.LVL60:
 368 0024 8246     		mov	r10, r0
 369 0026 C9B2     		uxtb	r1, r1
 370              	.LVL61:
 371 0028 8B46     		mov	fp, r1
 372 002a D5B2     		uxtb	r5, r2
 373 002c DBB2     		uxtb	r3, r3
 374              	.LVL62:
 375 002e 1E00     		movs	r6, r3
 376 0030 0193     		str	r3, [sp, #4]
 377 0032 4919     		adds	r1, r1, r5
 378 0034 C9B2     		uxtb	r1, r1
 379 0036 3200     		movs	r2, r6
 380              	.LVL63:
 381 0038 FFF7FEFF 		bl	drawPixel
 382              	.LVL64:
 436:GFX_Library.c ****     display_drawPixel(x0  , y0-r, color);
 383              		.loc 1 436 0
 384 003c 5B46     		mov	r3, fp
 385 003e 591B     		subs	r1, r3, r5
 386 0040 C9B2     		uxtb	r1, r1
 387 0042 3200     		movs	r2, r6
 388 0044 5046     		mov	r0, r10
 389 0046 FFF7FEFF 		bl	drawPixel
 390              	.LVL65:
 437:GFX_Library.c ****     display_drawPixel(x0+r, y0  , color);
 391              		.loc 1 437 0
 392 004a 5346     		mov	r3, r10
 393 004c 5819     		adds	r0, r3, r5
 394 004e C0B2     		uxtb	r0, r0
 395 0050 3200     		movs	r2, r6
 396 0052 5946     		mov	r1, fp
 397 0054 FFF7FEFF 		bl	drawPixel
 398              	.LVL66:
 438:GFX_Library.c ****     display_drawPixel(x0-r, y0  , color);
 399              		.loc 1 438 0
 400 0058 5346     		mov	r3, r10
 401 005a 581B     		subs	r0, r3, r5
 402 005c C0B2     		uxtb	r0, r0
 403 005e 3200     		movs	r2, r6
 404 0060 5946     		mov	r1, fp
 405 0062 FFF7FEFF 		bl	drawPixel
 406              	.LVL67:
 432:GFX_Library.c ****     int16_t y = r;
 407              		.loc 1 432 0
 408 0066 0023     		movs	r3, #0
 430:GFX_Library.c ****     int16_t ddF_y = -2 * r;
 409              		.loc 1 430 0
 410 0068 0122     		movs	r2, #1
 411 006a 0392     		str	r2, [sp, #12]
ARM GAS  C:\Users\PC\AppData\Local\Temp\ccKVdNiW.s 			page 16


 412 006c A046     		mov	r8, r4
 413 006e 9946     		mov	r9, r3
 439:GFX_Library.c **** 
 440:GFX_Library.c ****     while (x<y) {
 414              		.loc 1 440 0
 415 0070 60E0     		b	.L22
 416              	.LVL68:
 417              	.L24:
 441:GFX_Library.c ****         if (f >= 0) {
 418              		.loc 1 441 0
 419 0072 4346     		mov	r3, r8
 420 0074 002B     		cmp	r3, #0
 421 0076 0BDB     		blt	.L23
 442:GFX_Library.c ****             y--;
 422              		.loc 1 442 0
 423 0078 029B     		ldr	r3, [sp, #8]
 424 007a 013B     		subs	r3, r3, #1
 425 007c 1BB2     		sxth	r3, r3
 426 007e 0293     		str	r3, [sp, #8]
 427              	.LVL69:
 443:GFX_Library.c ****             ddF_y += 2;
 428              		.loc 1 443 0
 429 0080 059B     		ldr	r3, [sp, #20]
 430 0082 0233     		adds	r3, r3, #2
 431 0084 9BB2     		uxth	r3, r3
 432 0086 1AB2     		sxth	r2, r3
 433 0088 0592     		str	r2, [sp, #20]
 434              	.LVL70:
 444:GFX_Library.c ****             f += ddF_y;
 435              		.loc 1 444 0
 436 008a 4344     		add	r3, r3, r8
 437 008c 1BB2     		sxth	r3, r3
 438 008e 9846     		mov	r8, r3
 439              	.LVL71:
 440              	.L23:
 445:GFX_Library.c ****         }
 446:GFX_Library.c ****         x++;
 441              		.loc 1 446 0
 442 0090 4D46     		mov	r5, r9
 443 0092 0135     		adds	r5, r5, #1
 444 0094 ADB2     		uxth	r5, r5
 445 0096 2BB2     		sxth	r3, r5
 446 0098 9946     		mov	r9, r3
 447              	.LVL72:
 447:GFX_Library.c ****         ddF_x += 2;
 448              		.loc 1 447 0
 449 009a 039B     		ldr	r3, [sp, #12]
 450 009c 0233     		adds	r3, r3, #2
 451 009e 9BB2     		uxth	r3, r3
 452 00a0 1AB2     		sxth	r2, r3
 453 00a2 0392     		str	r2, [sp, #12]
 454              	.LVL73:
 448:GFX_Library.c ****         f += ddF_x;
 455              		.loc 1 448 0
 456 00a4 4344     		add	r3, r3, r8
 457 00a6 1BB2     		sxth	r3, r3
 458 00a8 9846     		mov	r8, r3
ARM GAS  C:\Users\PC\AppData\Local\Temp\ccKVdNiW.s 			page 17


 459              	.LVL74:
 449:GFX_Library.c **** 
 450:GFX_Library.c ****         display_drawPixel(x0 + x, y0 + y, color);
 460              		.loc 1 450 0
 461 00aa EDB2     		uxtb	r5, r5
 462 00ac 5346     		mov	r3, r10
 463 00ae 5B19     		adds	r3, r3, r5
 464 00b0 DBB2     		uxtb	r3, r3
 465 00b2 6A46     		mov	r2, sp
 466 00b4 167A     		ldrb	r6, [r2, #8]
 467 00b6 5A46     		mov	r2, fp
 468 00b8 9719     		adds	r7, r2, r6
 469 00ba FFB2     		uxtb	r7, r7
 470 00bc 019A     		ldr	r2, [sp, #4]
 471 00be 3900     		movs	r1, r7
 472 00c0 0493     		str	r3, [sp, #16]
 473 00c2 1800     		movs	r0, r3
 474 00c4 FFF7FEFF 		bl	drawPixel
 475              	.LVL75:
 451:GFX_Library.c ****         display_drawPixel(x0 - x, y0 + y, color);
 476              		.loc 1 451 0
 477 00c8 5246     		mov	r2, r10
 478 00ca 541B     		subs	r4, r2, r5
 479 00cc E4B2     		uxtb	r4, r4
 480 00ce 019A     		ldr	r2, [sp, #4]
 481 00d0 3900     		movs	r1, r7
 482 00d2 2000     		movs	r0, r4
 483 00d4 FFF7FEFF 		bl	drawPixel
 484              	.LVL76:
 452:GFX_Library.c ****         display_drawPixel(x0 + x, y0 - y, color);
 485              		.loc 1 452 0
 486 00d8 5A46     		mov	r2, fp
 487 00da 971B     		subs	r7, r2, r6
 488 00dc FFB2     		uxtb	r7, r7
 489 00de 019A     		ldr	r2, [sp, #4]
 490 00e0 3900     		movs	r1, r7
 491 00e2 0498     		ldr	r0, [sp, #16]
 492 00e4 FFF7FEFF 		bl	drawPixel
 493              	.LVL77:
 453:GFX_Library.c ****         display_drawPixel(x0 - x, y0 - y, color);
 494              		.loc 1 453 0
 495 00e8 019A     		ldr	r2, [sp, #4]
 496 00ea 3900     		movs	r1, r7
 497 00ec 2000     		movs	r0, r4
 498 00ee FFF7FEFF 		bl	drawPixel
 499              	.LVL78:
 454:GFX_Library.c ****         display_drawPixel(x0 + y, y0 + x, color);
 500              		.loc 1 454 0
 501 00f2 5346     		mov	r3, r10
 502 00f4 9F19     		adds	r7, r3, r6
 503 00f6 FFB2     		uxtb	r7, r7
 504 00f8 5B46     		mov	r3, fp
 505 00fa 5C19     		adds	r4, r3, r5
 506 00fc E4B2     		uxtb	r4, r4
 507 00fe 019A     		ldr	r2, [sp, #4]
 508 0100 2100     		movs	r1, r4
 509 0102 3800     		movs	r0, r7
ARM GAS  C:\Users\PC\AppData\Local\Temp\ccKVdNiW.s 			page 18


 510 0104 FFF7FEFF 		bl	drawPixel
 511              	.LVL79:
 455:GFX_Library.c ****         display_drawPixel(x0 - y, y0 + x, color);
 512              		.loc 1 455 0
 513 0108 5346     		mov	r3, r10
 514 010a 9E1B     		subs	r6, r3, r6
 515 010c F6B2     		uxtb	r6, r6
 516 010e 019A     		ldr	r2, [sp, #4]
 517 0110 2100     		movs	r1, r4
 518 0112 3000     		movs	r0, r6
 519 0114 FFF7FEFF 		bl	drawPixel
 520              	.LVL80:
 456:GFX_Library.c ****         display_drawPixel(x0 + y, y0 - x, color);
 521              		.loc 1 456 0
 522 0118 5B46     		mov	r3, fp
 523 011a 5D1B     		subs	r5, r3, r5
 524 011c EDB2     		uxtb	r5, r5
 525 011e 019C     		ldr	r4, [sp, #4]
 526 0120 2200     		movs	r2, r4
 527 0122 2900     		movs	r1, r5
 528 0124 3800     		movs	r0, r7
 529 0126 FFF7FEFF 		bl	drawPixel
 530              	.LVL81:
 457:GFX_Library.c ****         display_drawPixel(x0 - y, y0 - x, color);
 531              		.loc 1 457 0
 532 012a 2200     		movs	r2, r4
 533 012c 2900     		movs	r1, r5
 534 012e 3000     		movs	r0, r6
 535 0130 FFF7FEFF 		bl	drawPixel
 536              	.LVL82:
 537              	.L22:
 440:GFX_Library.c ****         if (f >= 0) {
 538              		.loc 1 440 0
 539 0134 029B     		ldr	r3, [sp, #8]
 540 0136 9945     		cmp	r9, r3
 541 0138 9BDB     		blt	.L24
 458:GFX_Library.c ****     }
 459:GFX_Library.c **** }
 542              		.loc 1 459 0
 543 013a 07B0     		add	sp, sp, #28
 544              		@ sp needed
 545              	.LVL83:
 546              	.LVL84:
 547 013c 3CBC     		pop	{r2, r3, r4, r5}
 548 013e 9046     		mov	r8, r2
 549 0140 9946     		mov	r9, r3
 550 0142 A246     		mov	r10, r4
 551 0144 AB46     		mov	fp, r5
 552 0146 F0BD     		pop	{r4, r5, r6, r7, pc}
 553              		.cfi_endproc
 554              	.LFE35:
 555              		.size	display_drawCircle, .-display_drawCircle
 556              		.section	.text.display_drawCircleHelper,"ax",%progbits
 557              		.align	2
 558              		.global	display_drawCircleHelper
 559              		.code	16
 560              		.thumb_func
ARM GAS  C:\Users\PC\AppData\Local\Temp\ccKVdNiW.s 			page 19


 561              		.type	display_drawCircleHelper, %function
 562              	display_drawCircleHelper:
 563              	.LFB36:
 460:GFX_Library.c **** 
 461:GFX_Library.c **** /**************************************************************************/
 462:GFX_Library.c **** /*!
 463:GFX_Library.c ****     @brief    Quarter-circle drawer, used to do circles and roundrects
 464:GFX_Library.c ****     @param    x0   Center-point x coordinate
 465:GFX_Library.c ****     @param    y0   Center-point y coordinate
 466:GFX_Library.c ****     @param    r   Radius of circle
 467:GFX_Library.c ****     @param    cornername  Mask bit #1 or bit #2 to indicate which quarters of the circle we're doin
 468:GFX_Library.c ****     @param    color 16-bit 5-6-5 Color to draw with
 469:GFX_Library.c **** */
 470:GFX_Library.c **** /**************************************************************************/
 471:GFX_Library.c **** void display_drawCircleHelper(uint16_t x0, uint16_t y0, uint16_t r, uint8_t cornername, uint16_t co
 564              		.loc 1 471 0
 565              		.cfi_startproc
 566              		@ args = 4, pretend = 0, frame = 32
 567              		@ frame_needed = 0, uses_anonymous_args = 0
 568              	.LVL85:
 569 0000 F0B5     		push	{r4, r5, r6, r7, lr}
 570              		.cfi_def_cfa_offset 20
 571              		.cfi_offset 4, -20
 572              		.cfi_offset 5, -16
 573              		.cfi_offset 6, -12
 574              		.cfi_offset 7, -8
 575              		.cfi_offset 14, -4
 576 0002 5F46     		mov	r7, fp
 577 0004 5646     		mov	r6, r10
 578 0006 4D46     		mov	r5, r9
 579 0008 4446     		mov	r4, r8
 580 000a F0B4     		push	{r4, r5, r6, r7}
 581              		.cfi_def_cfa_offset 36
 582              		.cfi_offset 8, -36
 583              		.cfi_offset 9, -32
 584              		.cfi_offset 10, -28
 585              		.cfi_offset 11, -24
 586 000c 89B0     		sub	sp, sp, #36
 587              		.cfi_def_cfa_offset 72
 588 000e 0290     		str	r0, [sp, #8]
 589 0010 0391     		str	r1, [sp, #12]
 590 0012 1E00     		movs	r6, r3
 591 0014 12AB     		add	r3, sp, #72
 592              	.LVL86:
 593 0016 1B88     		ldrh	r3, [r3]
 594              	.LVL87:
 595 0018 0493     		str	r3, [sp, #16]
 472:GFX_Library.c ****     int16_t f     = 1 - r;
 596              		.loc 1 472 0
 597 001a 0124     		movs	r4, #1
 598 001c A41A     		subs	r4, r4, r2
 599 001e 24B2     		sxth	r4, r4
 600              	.LVL88:
 473:GFX_Library.c ****     int16_t ddF_x = 1;
 474:GFX_Library.c ****     int16_t ddF_y = -2 * r;
 601              		.loc 1 474 0
 602 0020 D303     		lsls	r3, r2, #15
ARM GAS  C:\Users\PC\AppData\Local\Temp\ccKVdNiW.s 			page 20


 603 0022 9B1A     		subs	r3, r3, r2
 604 0024 5900     		lsls	r1, r3, #1
 605              	.LVL89:
 606 0026 0BB2     		sxth	r3, r1
 607 0028 9946     		mov	r9, r3
 608              	.LVL90:
 475:GFX_Library.c ****     int16_t x     = 0;
 476:GFX_Library.c ****     int16_t y     = r;
 609              		.loc 1 476 0
 610 002a 13B2     		sxth	r3, r2
 611 002c 9846     		mov	r8, r3
 612              	.LVL91:
 475:GFX_Library.c ****     int16_t x     = 0;
 613              		.loc 1 475 0
 614 002e 0027     		movs	r7, #0
 473:GFX_Library.c ****     int16_t ddF_x = 1;
 615              		.loc 1 473 0
 616 0030 0123     		movs	r3, #1
 617 0032 9B46     		mov	fp, r3
 477:GFX_Library.c **** 
 478:GFX_Library.c ****     while (x<y) {
 618              		.loc 1 478 0
 619 0034 9EE0     		b	.L26
 620              	.LVL92:
 621              	.L32:
 479:GFX_Library.c ****         if (f >= 0) {
 622              		.loc 1 479 0
 623 0036 002C     		cmp	r4, #0
 624 0038 0ADB     		blt	.L27
 480:GFX_Library.c ****             y--;
 625              		.loc 1 480 0
 626 003a 4346     		mov	r3, r8
 627 003c 013B     		subs	r3, r3, #1
 628 003e 1BB2     		sxth	r3, r3
 629 0040 9846     		mov	r8, r3
 630              	.LVL93:
 481:GFX_Library.c ****             ddF_y += 2;
 631              		.loc 1 481 0
 632 0042 4B46     		mov	r3, r9
 633 0044 0233     		adds	r3, r3, #2
 634 0046 9BB2     		uxth	r3, r3
 635 0048 1AB2     		sxth	r2, r3
 636 004a 9146     		mov	r9, r2
 637              	.LVL94:
 482:GFX_Library.c ****             f     += ddF_y;
 638              		.loc 1 482 0
 639 004c 1C19     		adds	r4, r3, r4
 640              	.LVL95:
 641 004e 24B2     		sxth	r4, r4
 642              	.LVL96:
 643              	.L27:
 483:GFX_Library.c ****         }
 484:GFX_Library.c ****         x++;
 644              		.loc 1 484 0
 645 0050 0137     		adds	r7, r7, #1
 646              	.LVL97:
 647 0052 BBB2     		uxth	r3, r7
ARM GAS  C:\Users\PC\AppData\Local\Temp\ccKVdNiW.s 			page 21


 648 0054 0193     		str	r3, [sp, #4]
 649 0056 1FB2     		sxth	r7, r3
 650              	.LVL98:
 485:GFX_Library.c ****         ddF_x += 2;
 651              		.loc 1 485 0
 652 0058 5B46     		mov	r3, fp
 653 005a 0233     		adds	r3, r3, #2
 654 005c 9BB2     		uxth	r3, r3
 655 005e 1AB2     		sxth	r2, r3
 656 0060 9346     		mov	fp, r2
 657              	.LVL99:
 486:GFX_Library.c ****         f     += ddF_x;
 658              		.loc 1 486 0
 659 0062 1C19     		adds	r4, r3, r4
 660              	.LVL100:
 661 0064 24B2     		sxth	r4, r4
 662              	.LVL101:
 487:GFX_Library.c ****         if (cornername & 0x4) {
 663              		.loc 1 487 0
 664 0066 7307     		lsls	r3, r6, #29
 665 0068 1FD5     		bpl	.L28
 488:GFX_Library.c ****             display_drawPixel(x0 + x, y0 + y, color);
 666              		.loc 1 488 0
 667 006a 6B46     		mov	r3, sp
 668 006c 187A     		ldrb	r0, [r3, #8]
 669 006e 1B79     		ldrb	r3, [r3, #4]
 670 0070 6A46     		mov	r2, sp
 671 0072 117B     		ldrb	r1, [r2, #12]
 672 0074 4246     		mov	r2, r8
 673 0076 6D46     		mov	r5, sp
 674 0078 2A75     		strb	r2, [r5, #20]
 675 007a 6A46     		mov	r2, sp
 676 007c 2D7D     		ldrb	r5, [r5, #20]
 677 007e 127C     		ldrb	r2, [r2, #16]
 678 0080 0591     		str	r1, [sp, #20]
 679 0082 0695     		str	r5, [sp, #24]
 680 0084 AC46     		mov	ip, r5
 681 0086 6144     		add	r1, r1, ip
 682 0088 C9B2     		uxtb	r1, r1
 683 008a 8246     		mov	r10, r0
 684 008c 1D00     		movs	r5, r3
 685 008e 4019     		adds	r0, r0, r5
 686 0090 C0B2     		uxtb	r0, r0
 687 0092 0792     		str	r2, [sp, #28]
 688 0094 FFF7FEFF 		bl	drawPixel
 689              	.LVL102:
 489:GFX_Library.c ****             display_drawPixel(x0 + y, y0 + x, color);
 690              		.loc 1 489 0
 691 0098 0599     		ldr	r1, [sp, #20]
 692 009a 6918     		adds	r1, r5, r1
 693 009c C9B2     		uxtb	r1, r1
 694 009e 069D     		ldr	r5, [sp, #24]
 695 00a0 5544     		add	r5, r5, r10
 696 00a2 E8B2     		uxtb	r0, r5
 697 00a4 079A     		ldr	r2, [sp, #28]
 698 00a6 FFF7FEFF 		bl	drawPixel
 699              	.LVL103:
ARM GAS  C:\Users\PC\AppData\Local\Temp\ccKVdNiW.s 			page 22


 700              	.L28:
 490:GFX_Library.c ****         }
 491:GFX_Library.c ****         if (cornername & 0x2) {
 701              		.loc 1 491 0
 702 00aa B307     		lsls	r3, r6, #30
 703 00ac 1ED5     		bpl	.L29
 492:GFX_Library.c ****             display_drawPixel(x0 + x, y0 - y, color);
 704              		.loc 1 492 0
 705 00ae 6B46     		mov	r3, sp
 706 00b0 187A     		ldrb	r0, [r3, #8]
 707 00b2 1B79     		ldrb	r3, [r3, #4]
 708 00b4 6A46     		mov	r2, sp
 709 00b6 117B     		ldrb	r1, [r2, #12]
 710 00b8 4246     		mov	r2, r8
 711 00ba 6D46     		mov	r5, sp
 712 00bc 2A75     		strb	r2, [r5, #20]
 713 00be 6A46     		mov	r2, sp
 714 00c0 2D7D     		ldrb	r5, [r5, #20]
 715 00c2 127C     		ldrb	r2, [r2, #16]
 716 00c4 0591     		str	r1, [sp, #20]
 717 00c6 0695     		str	r5, [sp, #24]
 718 00c8 491B     		subs	r1, r1, r5
 719 00ca C9B2     		uxtb	r1, r1
 720 00cc 8246     		mov	r10, r0
 721 00ce 1D00     		movs	r5, r3
 722 00d0 4019     		adds	r0, r0, r5
 723 00d2 C0B2     		uxtb	r0, r0
 724 00d4 0792     		str	r2, [sp, #28]
 725 00d6 FFF7FEFF 		bl	drawPixel
 726              	.LVL104:
 493:GFX_Library.c ****             display_drawPixel(x0 + y, y0 - x, color);
 727              		.loc 1 493 0
 728 00da 0599     		ldr	r1, [sp, #20]
 729 00dc 491B     		subs	r1, r1, r5
 730 00de C9B2     		uxtb	r1, r1
 731 00e0 069D     		ldr	r5, [sp, #24]
 732 00e2 5544     		add	r5, r5, r10
 733 00e4 E8B2     		uxtb	r0, r5
 734 00e6 079A     		ldr	r2, [sp, #28]
 735 00e8 FFF7FEFF 		bl	drawPixel
 736              	.LVL105:
 737              	.L29:
 494:GFX_Library.c ****         }
 495:GFX_Library.c ****         if (cornername & 0x8) {
 738              		.loc 1 495 0
 739 00ec 3307     		lsls	r3, r6, #28
 740 00ee 1ED5     		bpl	.L30
 496:GFX_Library.c ****             display_drawPixel(x0 - y, y0 + x, color);
 741              		.loc 1 496 0
 742 00f0 6B46     		mov	r3, sp
 743 00f2 187A     		ldrb	r0, [r3, #8]
 744 00f4 4346     		mov	r3, r8
 745 00f6 6A46     		mov	r2, sp
 746 00f8 1375     		strb	r3, [r2, #20]
 747 00fa 137D     		ldrb	r3, [r2, #20]
 748 00fc 117B     		ldrb	r1, [r2, #12]
 749 00fe 1579     		ldrb	r5, [r2, #4]
ARM GAS  C:\Users\PC\AppData\Local\Temp\ccKVdNiW.s 			page 23


 750 0100 127C     		ldrb	r2, [r2, #16]
 751 0102 0591     		str	r1, [sp, #20]
 752 0104 0695     		str	r5, [sp, #24]
 753 0106 AC46     		mov	ip, r5
 754 0108 6144     		add	r1, r1, ip
 755 010a C9B2     		uxtb	r1, r1
 756 010c 8246     		mov	r10, r0
 757 010e 1D00     		movs	r5, r3
 758 0110 401B     		subs	r0, r0, r5
 759 0112 C0B2     		uxtb	r0, r0
 760 0114 0792     		str	r2, [sp, #28]
 761 0116 FFF7FEFF 		bl	drawPixel
 762              	.LVL106:
 497:GFX_Library.c ****             display_drawPixel(x0 - x, y0 + y, color);
 763              		.loc 1 497 0
 764 011a 0599     		ldr	r1, [sp, #20]
 765 011c 6918     		adds	r1, r5, r1
 766 011e C9B2     		uxtb	r1, r1
 767 0120 5346     		mov	r3, r10
 768 0122 069D     		ldr	r5, [sp, #24]
 769 0124 581B     		subs	r0, r3, r5
 770 0126 C0B2     		uxtb	r0, r0
 771 0128 079A     		ldr	r2, [sp, #28]
 772 012a FFF7FEFF 		bl	drawPixel
 773              	.LVL107:
 774              	.L30:
 498:GFX_Library.c ****         }
 499:GFX_Library.c ****         if (cornername & 0x1) {
 775              		.loc 1 499 0
 776 012e F307     		lsls	r3, r6, #31
 777 0130 20D5     		bpl	.L26
 500:GFX_Library.c ****             display_drawPixel(x0 - y, y0 - x, color);
 778              		.loc 1 500 0
 779 0132 6B46     		mov	r3, sp
 780 0134 1D7A     		ldrb	r5, [r3, #8]
 781 0136 4346     		mov	r3, r8
 782 0138 6A46     		mov	r2, sp
 783 013a 1375     		strb	r3, [r2, #20]
 784 013c 6B46     		mov	r3, sp
 785 013e 127D     		ldrb	r2, [r2, #20]
 786 0140 197B     		ldrb	r1, [r3, #12]
 787 0142 1B79     		ldrb	r3, [r3, #4]
 788 0144 9A46     		mov	r10, r3
 789 0146 6B46     		mov	r3, sp
 790 0148 1B7C     		ldrb	r3, [r3, #16]
 791 014a 0591     		str	r1, [sp, #20]
 792 014c 5046     		mov	r0, r10
 793 014e 091A     		subs	r1, r1, r0
 794 0150 C9B2     		uxtb	r1, r1
 795 0152 0192     		str	r2, [sp, #4]
 796 0154 A81A     		subs	r0, r5, r2
 797 0156 C0B2     		uxtb	r0, r0
 798 0158 0693     		str	r3, [sp, #24]
 799 015a 1A00     		movs	r2, r3
 800 015c FFF7FEFF 		bl	drawPixel
 801              	.LVL108:
 501:GFX_Library.c ****             display_drawPixel(x0 - x, y0 - y, color);
ARM GAS  C:\Users\PC\AppData\Local\Temp\ccKVdNiW.s 			page 24


 802              		.loc 1 501 0
 803 0160 0599     		ldr	r1, [sp, #20]
 804 0162 019B     		ldr	r3, [sp, #4]
 805 0164 C91A     		subs	r1, r1, r3
 806 0166 C9B2     		uxtb	r1, r1
 807 0168 5046     		mov	r0, r10
 808 016a 2D1A     		subs	r5, r5, r0
 809 016c E8B2     		uxtb	r0, r5
 810 016e 069A     		ldr	r2, [sp, #24]
 811 0170 FFF7FEFF 		bl	drawPixel
 812              	.LVL109:
 813              	.L26:
 478:GFX_Library.c ****         if (f >= 0) {
 814              		.loc 1 478 0
 815 0174 4745     		cmp	r7, r8
 816 0176 00DA     		bge	.LCB882
 817 0178 5DE7     		b	.L32	@long jump
 818              	.LCB882:
 502:GFX_Library.c ****         }
 503:GFX_Library.c ****     }
 504:GFX_Library.c **** }
 819              		.loc 1 504 0
 820 017a 09B0     		add	sp, sp, #36
 821              		@ sp needed
 822              	.LVL110:
 823              	.LVL111:
 824              	.LVL112:
 825              	.LVL113:
 826              	.LVL114:
 827 017c 3CBC     		pop	{r2, r3, r4, r5}
 828 017e 9046     		mov	r8, r2
 829 0180 9946     		mov	r9, r3
 830 0182 A246     		mov	r10, r4
 831 0184 AB46     		mov	fp, r5
 832 0186 F0BD     		pop	{r4, r5, r6, r7, pc}
 833              		.cfi_endproc
 834              	.LFE36:
 835              		.size	display_drawCircleHelper, .-display_drawCircleHelper
 836              		.section	.text.display_fillCircleHelper,"ax",%progbits
 837              		.align	2
 838              		.global	display_fillCircleHelper
 839              		.code	16
 840              		.thumb_func
 841              		.type	display_fillCircleHelper, %function
 842              	display_fillCircleHelper:
 843              	.LFB38:
 505:GFX_Library.c **** 
 506:GFX_Library.c **** /**************************************************************************/
 507:GFX_Library.c **** /*!
 508:GFX_Library.c ****    @brief    Draw a circle with filled color
 509:GFX_Library.c ****     @param    x0   Center-point x coordinate
 510:GFX_Library.c ****     @param    y0   Center-point y coordinate
 511:GFX_Library.c ****     @param    r   Radius of circle
 512:GFX_Library.c ****     @param    color 16-bit 5-6-5 Color to fill with
 513:GFX_Library.c **** */
 514:GFX_Library.c **** /**************************************************************************/
 515:GFX_Library.c **** void display_fillCircle(uint16_t x0, uint16_t y0, uint16_t r, uint16_t color) {
ARM GAS  C:\Users\PC\AppData\Local\Temp\ccKVdNiW.s 			page 25


 516:GFX_Library.c ****     display_drawVLine(x0, y0-r, 2*r+1, color);
 517:GFX_Library.c ****     display_fillCircleHelper(x0, y0, r, 3, 0, color);
 518:GFX_Library.c **** }
 519:GFX_Library.c **** 
 520:GFX_Library.c **** 
 521:GFX_Library.c **** /**************************************************************************/
 522:GFX_Library.c **** /*!
 523:GFX_Library.c ****     @brief  Quarter-circle drawer with fill, used for circles and roundrects
 524:GFX_Library.c ****     @param  x0       Center-point x coordinate
 525:GFX_Library.c ****     @param  y0       Center-point y coordinate
 526:GFX_Library.c ****     @param  r        Radius of circle
 527:GFX_Library.c ****     @param  corners  Mask bits indicating which quarters we're doing
 528:GFX_Library.c ****     @param  delta    Offset from center-point, used for round-rects
 529:GFX_Library.c ****     @param  color    16-bit 5-6-5 Color to fill with
 530:GFX_Library.c **** */
 531:GFX_Library.c **** /**************************************************************************/
 532:GFX_Library.c **** void display_fillCircleHelper(uint16_t x0, uint16_t y0, uint16_t r, uint8_t corners, uint16_t delta
 844              		.loc 1 532 0
 845              		.cfi_startproc
 846              		@ args = 8, pretend = 0, frame = 24
 847              		@ frame_needed = 0, uses_anonymous_args = 0
 848              	.LVL115:
 849 0000 F0B5     		push	{r4, r5, r6, r7, lr}
 850              		.cfi_def_cfa_offset 20
 851              		.cfi_offset 4, -20
 852              		.cfi_offset 5, -16
 853              		.cfi_offset 6, -12
 854              		.cfi_offset 7, -8
 855              		.cfi_offset 14, -4
 856 0002 5F46     		mov	r7, fp
 857 0004 5646     		mov	r6, r10
 858 0006 4D46     		mov	r5, r9
 859 0008 4446     		mov	r4, r8
 860 000a F0B4     		push	{r4, r5, r6, r7}
 861              		.cfi_def_cfa_offset 36
 862              		.cfi_offset 8, -36
 863              		.cfi_offset 9, -32
 864              		.cfi_offset 10, -28
 865              		.cfi_offset 11, -24
 866 000c 87B0     		sub	sp, sp, #28
 867              		.cfi_def_cfa_offset 64
 868 000e 0190     		str	r0, [sp, #4]
 869 0010 0291     		str	r1, [sp, #8]
 870 0012 9B46     		mov	fp, r3
 871 0014 10AB     		add	r3, sp, #64
 872              	.LVL116:
 873 0016 1988     		ldrh	r1, [r3]
 874              	.LVL117:
 875 0018 11AB     		add	r3, sp, #68
 876              	.LVL118:
 877 001a 1B88     		ldrh	r3, [r3]
 878              	.LVL119:
 879 001c 0393     		str	r3, [sp, #12]
 533:GFX_Library.c ****     int16_t f     = 1 - r;
 880              		.loc 1 533 0
 881 001e 0124     		movs	r4, #1
 882 0020 A41A     		subs	r4, r4, r2
ARM GAS  C:\Users\PC\AppData\Local\Temp\ccKVdNiW.s 			page 26


 883 0022 24B2     		sxth	r4, r4
 884              	.LVL120:
 534:GFX_Library.c ****     int16_t ddF_x = 1;
 535:GFX_Library.c ****     int16_t ddF_y = -2 * r;
 885              		.loc 1 535 0
 886 0024 D303     		lsls	r3, r2, #15
 887 0026 9B1A     		subs	r3, r3, r2
 888 0028 5800     		lsls	r0, r3, #1
 889              	.LVL121:
 890 002a 03B2     		sxth	r3, r0
 891 002c 9946     		mov	r9, r3
 892              	.LVL122:
 536:GFX_Library.c ****     int16_t x     = 0;
 537:GFX_Library.c ****     int16_t y     = r;
 893              		.loc 1 537 0
 894 002e 16B2     		sxth	r6, r2
 895              	.LVL123:
 538:GFX_Library.c ****     int16_t px    = x;
 539:GFX_Library.c ****     int16_t py    = y;
 540:GFX_Library.c **** 
 541:GFX_Library.c ****     delta++; // Avoid some +1's in the loop
 896              		.loc 1 541 0
 897 0030 4B1C     		adds	r3, r1, #1
 898 0032 9BB2     		uxth	r3, r3
 899              	.LVL124:
 539:GFX_Library.c **** 
 900              		.loc 1 539 0
 901 0034 0096     		str	r6, [sp]
 536:GFX_Library.c ****     int16_t x     = 0;
 902              		.loc 1 536 0
 903 0036 0027     		movs	r7, #0
 534:GFX_Library.c ****     int16_t ddF_y = -2 * r;
 904              		.loc 1 534 0
 905 0038 0125     		movs	r5, #1
 906 003a AA46     		mov	r10, r5
 907 003c 2500     		movs	r5, r4
 908 003e 0493     		str	r3, [sp, #16]
 542:GFX_Library.c **** 
 543:GFX_Library.c ****     while(x < y) {
 909              		.loc 1 543 0
 910 0040 73E0     		b	.L34
 911              	.LVL125:
 912              	.L40:
 544:GFX_Library.c ****         if (f >= 0) {
 913              		.loc 1 544 0
 914 0042 002D     		cmp	r5, #0
 915 0044 08DB     		blt	.L35
 545:GFX_Library.c ****             y--;
 916              		.loc 1 545 0
 917 0046 013E     		subs	r6, r6, #1
 918              	.LVL126:
 919 0048 36B2     		sxth	r6, r6
 920              	.LVL127:
 546:GFX_Library.c ****             ddF_y += 2;
 921              		.loc 1 546 0
 922 004a 4B46     		mov	r3, r9
 923 004c 0233     		adds	r3, r3, #2
ARM GAS  C:\Users\PC\AppData\Local\Temp\ccKVdNiW.s 			page 27


 924 004e 9BB2     		uxth	r3, r3
 925 0050 1AB2     		sxth	r2, r3
 926 0052 9146     		mov	r9, r2
 927              	.LVL128:
 547:GFX_Library.c ****             f     += ddF_y;
 928              		.loc 1 547 0
 929 0054 5D19     		adds	r5, r3, r5
 930              	.LVL129:
 931 0056 2DB2     		sxth	r5, r5
 932              	.LVL130:
 933              	.L35:
 548:GFX_Library.c ****         }
 549:GFX_Library.c ****         x++;
 934              		.loc 1 549 0
 935 0058 7C1C     		adds	r4, r7, #1
 936 005a A3B2     		uxth	r3, r4
 937 005c 9846     		mov	r8, r3
 938 005e 1CB2     		sxth	r4, r3
 939              	.LVL131:
 550:GFX_Library.c ****         ddF_x += 2;
 940              		.loc 1 550 0
 941 0060 5346     		mov	r3, r10
 942 0062 0233     		adds	r3, r3, #2
 943 0064 9BB2     		uxth	r3, r3
 944 0066 1AB2     		sxth	r2, r3
 945 0068 9246     		mov	r10, r2
 946              	.LVL132:
 551:GFX_Library.c ****         f     += ddF_x;
 947              		.loc 1 551 0
 948 006a 5D19     		adds	r5, r3, r5
 949              	.LVL133:
 950 006c 2DB2     		sxth	r5, r5
 951              	.LVL134:
 552:GFX_Library.c ****         // These checks avoid double-drawing certain lines, important
 553:GFX_Library.c ****         // for the SSD1306 library which has an INVERT drawing mode.
 554:GFX_Library.c ****         if(x < (y + 1)) {
 952              		.loc 1 554 0
 953 006e 731C     		adds	r3, r6, #1
 954 0070 9C42     		cmp	r4, r3
 955 0072 28DA     		bge	.L36
 555:GFX_Library.c ****             if(corners & 1) display_drawVLine(x0+x, y0-y, 2*y+delta, color);
 956              		.loc 1 555 0
 957 0074 5B46     		mov	r3, fp
 958 0076 DB07     		lsls	r3, r3, #31
 959 0078 0FD5     		bpl	.L37
 960              		.loc 1 555 0 is_stmt 0 discriminator 1
 961 007a F1B2     		uxtb	r1, r6
 962 007c 6B46     		mov	r3, sp
 963 007e 1B7B     		ldrb	r3, [r3, #12]
 964 0080 4A00     		lsls	r2, r1, #1
 965 0082 0498     		ldr	r0, [sp, #16]
 966 0084 8446     		mov	ip, r0
 967 0086 6244     		add	r2, r2, ip
 968 0088 D2B2     		uxtb	r2, r2
 969 008a 0298     		ldr	r0, [sp, #8]
 970 008c 411A     		subs	r1, r0, r1
 971 008e C9B2     		uxtb	r1, r1
ARM GAS  C:\Users\PC\AppData\Local\Temp\ccKVdNiW.s 			page 28


 972 0090 0198     		ldr	r0, [sp, #4]
 973 0092 4044     		add	r0, r0, r8
 974 0094 C0B2     		uxtb	r0, r0
 975 0096 FFF7FEFF 		bl	drawVLine
 976              	.LVL135:
 977              	.L37:
 556:GFX_Library.c ****             if(corners & 2) display_drawVLine(x0-x, y0-y, 2*y+delta, color);
 978              		.loc 1 556 0 is_stmt 1
 979 009a 5B46     		mov	r3, fp
 980 009c 9B07     		lsls	r3, r3, #30
 981 009e 12D5     		bpl	.L36
 982              		.loc 1 556 0 is_stmt 0 discriminator 1
 983 00a0 F1B2     		uxtb	r1, r6
 984 00a2 6B46     		mov	r3, sp
 985 00a4 1B7B     		ldrb	r3, [r3, #12]
 986 00a6 0593     		str	r3, [sp, #20]
 987 00a8 4A00     		lsls	r2, r1, #1
 988 00aa 0498     		ldr	r0, [sp, #16]
 989 00ac 8446     		mov	ip, r0
 990 00ae 6244     		add	r2, r2, ip
 991 00b0 D2B2     		uxtb	r2, r2
 992 00b2 0298     		ldr	r0, [sp, #8]
 993 00b4 411A     		subs	r1, r0, r1
 994 00b6 C9B2     		uxtb	r1, r1
 995 00b8 0198     		ldr	r0, [sp, #4]
 996 00ba 4346     		mov	r3, r8
 997 00bc C01A     		subs	r0, r0, r3
 998 00be C0B2     		uxtb	r0, r0
 999 00c0 059B     		ldr	r3, [sp, #20]
 1000 00c2 FFF7FEFF 		bl	drawVLine
 1001              	.LVL136:
 1002              	.L36:
 557:GFX_Library.c ****         }
 558:GFX_Library.c ****         if(y != py) {
 1003              		.loc 1 558 0 is_stmt 1
 1004 00c6 009B     		ldr	r3, [sp]
 1005 00c8 9E42     		cmp	r6, r3
 1006 00ca 2DD0     		beq	.L38
 559:GFX_Library.c ****             if(corners & 1) display_drawVLine(x0+py, y0-px, 2*px+delta, color);
 1007              		.loc 1 559 0
 1008 00cc 5B46     		mov	r3, fp
 1009 00ce DB07     		lsls	r3, r3, #31
 1010 00d0 13D5     		bpl	.L39
 1011              		.loc 1 559 0 is_stmt 0 discriminator 1
 1012 00d2 F9B2     		uxtb	r1, r7
 1013 00d4 6B46     		mov	r3, sp
 1014 00d6 1B7B     		ldrb	r3, [r3, #12]
 1015 00d8 4A00     		lsls	r2, r1, #1
 1016 00da 0498     		ldr	r0, [sp, #16]
 1017 00dc 8446     		mov	ip, r0
 1018 00de 6244     		add	r2, r2, ip
 1019 00e0 D2B2     		uxtb	r2, r2
 1020 00e2 0298     		ldr	r0, [sp, #8]
 1021 00e4 411A     		subs	r1, r0, r1
 1022 00e6 C9B2     		uxtb	r1, r1
 1023 00e8 0198     		ldr	r0, [sp, #4]
 1024 00ea 8046     		mov	r8, r0
ARM GAS  C:\Users\PC\AppData\Local\Temp\ccKVdNiW.s 			page 29


 1025 00ec 0098     		ldr	r0, [sp]
 1026 00ee 8446     		mov	ip, r0
 1027 00f0 E044     		add	r8, r8, ip
 1028 00f2 4046     		mov	r0, r8
 1029 00f4 C0B2     		uxtb	r0, r0
 1030 00f6 FFF7FEFF 		bl	drawVLine
 1031              	.LVL137:
 1032              	.L39:
 560:GFX_Library.c ****             if(corners & 2) display_drawVLine(x0-py, y0-px, 2*px+delta, color);
 1033              		.loc 1 560 0 is_stmt 1
 1034 00fa 5B46     		mov	r3, fp
 1035 00fc 9B07     		lsls	r3, r3, #30
 1036 00fe 12D5     		bpl	.L41
 1037              		.loc 1 560 0 is_stmt 0 discriminator 1
 1038 0100 FFB2     		uxtb	r7, r7
 1039              	.LVL138:
 1040 0102 6B46     		mov	r3, sp
 1041 0104 1B7B     		ldrb	r3, [r3, #12]
 1042 0106 7A00     		lsls	r2, r7, #1
 1043 0108 0499     		ldr	r1, [sp, #16]
 1044 010a 8C46     		mov	ip, r1
 1045 010c 6244     		add	r2, r2, ip
 1046 010e D2B2     		uxtb	r2, r2
 1047 0110 0299     		ldr	r1, [sp, #8]
 1048 0112 CF1B     		subs	r7, r1, r7
 1049 0114 F9B2     		uxtb	r1, r7
 1050 0116 0198     		ldr	r0, [sp, #4]
 1051 0118 009F     		ldr	r7, [sp]
 1052 011a C01B     		subs	r0, r0, r7
 1053 011c C0B2     		uxtb	r0, r0
 1054 011e FFF7FEFF 		bl	drawVLine
 1055              	.LVL139:
 561:GFX_Library.c ****             py = y;
 1056              		.loc 1 561 0 is_stmt 1 discriminator 1
 1057 0122 0096     		str	r6, [sp]
 1058              	.LVL140:
 1059 0124 00E0     		b	.L38
 1060              	.LVL141:
 1061              	.L41:
 1062              		.loc 1 561 0 is_stmt 0
 1063 0126 0096     		str	r6, [sp]
 1064              	.LVL142:
 1065              	.L38:
 1066 0128 2700     		movs	r7, r4
 1067              	.LVL143:
 1068              	.L34:
 543:GFX_Library.c ****         if (f >= 0) {
 1069              		.loc 1 543 0 is_stmt 1
 1070 012a B742     		cmp	r7, r6
 1071 012c 89DB     		blt	.L40
 562:GFX_Library.c ****         }
 563:GFX_Library.c ****         px = x;
 564:GFX_Library.c ****     }
 565:GFX_Library.c **** }
 1072              		.loc 1 565 0
 1073 012e 07B0     		add	sp, sp, #28
 1074              	.LVL144:
ARM GAS  C:\Users\PC\AppData\Local\Temp\ccKVdNiW.s 			page 30


 1075              		@ sp needed
 1076              	.LVL145:
 1077              	.LVL146:
 1078              	.LVL147:
 1079              	.LVL148:
 1080              	.LVL149:
 1081 0130 3CBC     		pop	{r2, r3, r4, r5}
 1082 0132 9046     		mov	r8, r2
 1083 0134 9946     		mov	r9, r3
 1084 0136 A246     		mov	r10, r4
 1085 0138 AB46     		mov	fp, r5
 1086 013a F0BD     		pop	{r4, r5, r6, r7, pc}
 1087              		.cfi_endproc
 1088              	.LFE38:
 1089              		.size	display_fillCircleHelper, .-display_fillCircleHelper
 1090              		.section	.text.display_fillCircle,"ax",%progbits
 1091              		.align	2
 1092              		.global	display_fillCircle
 1093              		.code	16
 1094              		.thumb_func
 1095              		.type	display_fillCircle, %function
 1096              	display_fillCircle:
 1097              	.LFB37:
 515:GFX_Library.c ****     display_drawVLine(x0, y0-r, 2*r+1, color);
 1098              		.loc 1 515 0
 1099              		.cfi_startproc
 1100              		@ args = 0, pretend = 0, frame = 0
 1101              		@ frame_needed = 0, uses_anonymous_args = 0
 1102              	.LVL150:
 1103 0000 F0B5     		push	{r4, r5, r6, r7, lr}
 1104              		.cfi_def_cfa_offset 20
 1105              		.cfi_offset 4, -20
 1106              		.cfi_offset 5, -16
 1107              		.cfi_offset 6, -12
 1108              		.cfi_offset 7, -8
 1109              		.cfi_offset 14, -4
 1110 0002 83B0     		sub	sp, sp, #12
 1111              		.cfi_def_cfa_offset 32
 1112 0004 0400     		movs	r4, r0
 1113 0006 0D00     		movs	r5, r1
 1114 0008 1600     		movs	r6, r2
 1115 000a 1F00     		movs	r7, r3
 516:GFX_Library.c ****     display_fillCircleHelper(x0, y0, r, 3, 0, color);
 1116              		.loc 1 516 0
 1117 000c D1B2     		uxtb	r1, r2
 1118              	.LVL151:
 1119 000e DBB2     		uxtb	r3, r3
 1120              	.LVL152:
 1121 0010 4A00     		lsls	r2, r1, #1
 1122              	.LVL153:
 1123 0012 0132     		adds	r2, r2, #1
 1124 0014 D2B2     		uxtb	r2, r2
 1125 0016 691A     		subs	r1, r5, r1
 1126 0018 C9B2     		uxtb	r1, r1
 1127 001a C0B2     		uxtb	r0, r0
 1128              	.LVL154:
 1129 001c FFF7FEFF 		bl	drawVLine
ARM GAS  C:\Users\PC\AppData\Local\Temp\ccKVdNiW.s 			page 31


 1130              	.LVL155:
 517:GFX_Library.c **** }
 1131              		.loc 1 517 0
 1132 0020 0197     		str	r7, [sp, #4]
 1133 0022 0023     		movs	r3, #0
 1134 0024 0093     		str	r3, [sp]
 1135 0026 0333     		adds	r3, r3, #3
 1136 0028 3200     		movs	r2, r6
 1137 002a 2900     		movs	r1, r5
 1138 002c 2000     		movs	r0, r4
 1139 002e FFF7FEFF 		bl	display_fillCircleHelper
 1140              	.LVL156:
 518:GFX_Library.c **** 
 1141              		.loc 1 518 0
 1142 0032 03B0     		add	sp, sp, #12
 1143              		@ sp needed
 1144 0034 F0BD     		pop	{r4, r5, r6, r7, pc}
 1145              		.cfi_endproc
 1146              	.LFE37:
 1147              		.size	display_fillCircle, .-display_fillCircle
 1148 0036 C046     		.section	.text.display_drawRect,"ax",%progbits
 1149              		.align	2
 1150              		.global	display_drawRect
 1151              		.code	16
 1152              		.thumb_func
 1153              		.type	display_drawRect, %function
 1154              	display_drawRect:
 1155              	.LFB39:
 566:GFX_Library.c **** 
 567:GFX_Library.c **** /**************************************************************************/
 568:GFX_Library.c **** /*!
 569:GFX_Library.c ****    @brief   Draw a rectangle with no fill color
 570:GFX_Library.c ****     @param    x   Top left corner x coordinate
 571:GFX_Library.c ****     @param    y   Top left corner y coordinate
 572:GFX_Library.c ****     @param    w   Width in pixels
 573:GFX_Library.c ****     @param    h   Height in pixels
 574:GFX_Library.c ****     @param    color 16-bit 5-6-5 Color to draw with
 575:GFX_Library.c **** */
 576:GFX_Library.c **** /**************************************************************************/
 577:GFX_Library.c **** void display_drawRect(uint16_t x, uint16_t y, uint16_t w, uint16_t h, uint16_t color) {
 1156              		.loc 1 577 0
 1157              		.cfi_startproc
 1158              		@ args = 4, pretend = 0, frame = 8
 1159              		@ frame_needed = 0, uses_anonymous_args = 0
 1160              	.LVL157:
 1161 0000 F0B5     		push	{r4, r5, r6, r7, lr}
 1162              		.cfi_def_cfa_offset 20
 1163              		.cfi_offset 4, -20
 1164              		.cfi_offset 5, -16
 1165              		.cfi_offset 6, -12
 1166              		.cfi_offset 7, -8
 1167              		.cfi_offset 14, -4
 1168 0002 83B0     		sub	sp, sp, #12
 1169              		.cfi_def_cfa_offset 32
 1170 0004 1E00     		movs	r6, r3
 578:GFX_Library.c ****     display_drawHLine(x, y, w, color);
 1171              		.loc 1 578 0
ARM GAS  C:\Users\PC\AppData\Local\Temp\ccKVdNiW.s 			page 32


 1172 0006 C5B2     		uxtb	r5, r0
 1173 0008 CCB2     		uxtb	r4, r1
 1174 000a D7B2     		uxtb	r7, r2
 1175 000c 08AB     		add	r3, sp, #32
 1176              	.LVL158:
 1177 000e 1B78     		ldrb	r3, [r3]
 1178              	.LVL159:
 1179 0010 0193     		str	r3, [sp, #4]
 1180 0012 3A00     		movs	r2, r7
 1181              	.LVL160:
 1182 0014 2100     		movs	r1, r4
 1183              	.LVL161:
 1184 0016 2800     		movs	r0, r5
 1185              	.LVL162:
 1186 0018 FFF7FEFF 		bl	drawHLine
 1187              	.LVL163:
 579:GFX_Library.c ****     display_drawHLine(x, y+h-1, w, color);
 1188              		.loc 1 579 0
 1189 001c F6B2     		uxtb	r6, r6
 1190 001e A119     		adds	r1, r4, r6
 1191 0020 0139     		subs	r1, r1, #1
 1192 0022 C9B2     		uxtb	r1, r1
 1193 0024 019B     		ldr	r3, [sp, #4]
 1194 0026 3A00     		movs	r2, r7
 1195 0028 2800     		movs	r0, r5
 1196 002a FFF7FEFF 		bl	drawHLine
 1197              	.LVL164:
 580:GFX_Library.c ****     display_drawVLine(x, y, h, color);
 1198              		.loc 1 580 0
 1199 002e 019B     		ldr	r3, [sp, #4]
 1200 0030 3200     		movs	r2, r6
 1201 0032 2100     		movs	r1, r4
 1202 0034 2800     		movs	r0, r5
 1203 0036 FFF7FEFF 		bl	drawVLine
 1204              	.LVL165:
 581:GFX_Library.c ****     display_drawVLine(x+w-1, y, h, color);
 1205              		.loc 1 581 0
 1206 003a ED19     		adds	r5, r5, r7
 1207 003c 013D     		subs	r5, r5, #1
 1208 003e E8B2     		uxtb	r0, r5
 1209 0040 019B     		ldr	r3, [sp, #4]
 1210 0042 3200     		movs	r2, r6
 1211 0044 2100     		movs	r1, r4
 1212 0046 FFF7FEFF 		bl	drawVLine
 1213              	.LVL166:
 582:GFX_Library.c **** }
 1214              		.loc 1 582 0
 1215 004a 03B0     		add	sp, sp, #12
 1216              		@ sp needed
 1217 004c F0BD     		pop	{r4, r5, r6, r7, pc}
 1218              		.cfi_endproc
 1219              	.LFE39:
 1220              		.size	display_drawRect, .-display_drawRect
 1221 004e C046     		.section	.text.display_drawRoundRect,"ax",%progbits
 1222              		.align	2
 1223              		.global	display_drawRoundRect
 1224              		.code	16
ARM GAS  C:\Users\PC\AppData\Local\Temp\ccKVdNiW.s 			page 33


 1225              		.thumb_func
 1226              		.type	display_drawRoundRect, %function
 1227              	display_drawRoundRect:
 1228              	.LFB40:
 583:GFX_Library.c **** 
 584:GFX_Library.c **** /**************************************************************************/
 585:GFX_Library.c **** /*!
 586:GFX_Library.c ****    @brief   Draw a rounded rectangle with no fill color
 587:GFX_Library.c ****     @param    x   Top left corner x coordinate
 588:GFX_Library.c ****     @param    y   Top left corner y coordinate
 589:GFX_Library.c ****     @param    w   Width in pixels
 590:GFX_Library.c ****     @param    h   Height in pixels
 591:GFX_Library.c ****     @param    r   Radius of corner rounding
 592:GFX_Library.c ****     @param    color 16-bit 5-6-5 Color to draw with
 593:GFX_Library.c **** */
 594:GFX_Library.c **** /**************************************************************************/
 595:GFX_Library.c **** void display_drawRoundRect(uint16_t x, uint16_t y, uint16_t w, uint16_t h, uint16_t r, uint16_t col
 1229              		.loc 1 595 0
 1230              		.cfi_startproc
 1231              		@ args = 8, pretend = 0, frame = 32
 1232              		@ frame_needed = 0, uses_anonymous_args = 0
 1233              	.LVL167:
 1234 0000 F0B5     		push	{r4, r5, r6, r7, lr}
 1235              		.cfi_def_cfa_offset 20
 1236              		.cfi_offset 4, -20
 1237              		.cfi_offset 5, -16
 1238              		.cfi_offset 6, -12
 1239              		.cfi_offset 7, -8
 1240              		.cfi_offset 14, -4
 1241 0002 5F46     		mov	r7, fp
 1242 0004 5646     		mov	r6, r10
 1243 0006 4D46     		mov	r5, r9
 1244 0008 4446     		mov	r4, r8
 1245 000a F0B4     		push	{r4, r5, r6, r7}
 1246              		.cfi_def_cfa_offset 36
 1247              		.cfi_offset 8, -36
 1248              		.cfi_offset 9, -32
 1249              		.cfi_offset 10, -28
 1250              		.cfi_offset 11, -24
 1251 000c 8BB0     		sub	sp, sp, #44
 1252              		.cfi_def_cfa_offset 80
 1253 000e 0590     		str	r0, [sp, #20]
 1254 0010 0491     		str	r1, [sp, #16]
 1255 0012 0692     		str	r2, [sp, #24]
 1256 0014 1900     		movs	r1, r3
 1257              	.LVL168:
 1258 0016 0793     		str	r3, [sp, #28]
 1259 0018 14AB     		add	r3, sp, #80
 1260              	.LVL169:
 1261 001a 1E88     		ldrh	r6, [r3]
 1262 001c 15AB     		add	r3, sp, #84
 1263              	.LVL170:
 1264 001e 1B88     		ldrh	r3, [r3]
 1265              	.LVL171:
 1266 0020 9846     		mov	r8, r3
 596:GFX_Library.c ****     int16_t max_radius = ((w < h) ? w : h) / 2; // 1/2 minor axis
 1267              		.loc 1 596 0
ARM GAS  C:\Users\PC\AppData\Local\Temp\ccKVdNiW.s 			page 34


 1268 0022 0B1C     		adds	r3, r1, #0
 1269 0024 9142     		cmp	r1, r2
 1270 0026 00D9     		bls	.L45
 1271 0028 131C     		adds	r3, r2, #0
 1272              	.L45:
 1273 002a 9BB2     		uxth	r3, r3
 1274 002c 5B10     		asrs	r3, r3, #1
 1275 002e 1AB2     		sxth	r2, r3
 1276              	.LVL172:
 597:GFX_Library.c ****     if(r > max_radius) r = max_radius;
 1277              		.loc 1 597 0
 1278 0030 9642     		cmp	r6, r2
 1279 0032 00DD     		ble	.L46
 1280              		.loc 1 597 0 is_stmt 0 discriminator 1
 1281 0034 9EB2     		uxth	r6, r3
 1282              	.LVL173:
 1283              	.L46:
 598:GFX_Library.c ****     // smarter version
 599:GFX_Library.c ****     display_drawHLine(x+r  , y    , w-2*r, color); // Top
 1284              		.loc 1 599 0 is_stmt 1
 1285 0036 6B46     		mov	r3, sp
 1286 0038 1D7D     		ldrb	r5, [r3, #20]
 1287 003a F2B2     		uxtb	r2, r6
 1288              	.LVL174:
 1289 003c 9346     		mov	fp, r2
 1290 003e AB18     		adds	r3, r5, r2
 1291 0040 DBB2     		uxtb	r3, r3
 1292 0042 1800     		movs	r0, r3
 1293              	.LVL175:
 1294 0044 6B46     		mov	r3, sp
 1295 0046 1F7C     		ldrb	r7, [r3, #16]
 1296 0048 1A7E     		ldrb	r2, [r3, #24]
 1297 004a 9146     		mov	r9, r2
 1298 004c 5A46     		mov	r2, fp
 1299 004e 5400     		lsls	r4, r2, #1
 1300 0050 E2B2     		uxtb	r2, r4
 1301 0052 9246     		mov	r10, r2
 1302 0054 4A46     		mov	r2, r9
 1303 0056 5146     		mov	r1, r10
 1304 0058 531A     		subs	r3, r2, r1
 1305 005a DBB2     		uxtb	r3, r3
 1306 005c 1A00     		movs	r2, r3
 1307 005e 4146     		mov	r1, r8
 1308 0060 CBB2     		uxtb	r3, r1
 1309 0062 0393     		str	r3, [sp, #12]
 1310 0064 0992     		str	r2, [sp, #36]
 1311 0066 3900     		movs	r1, r7
 1312 0068 0890     		str	r0, [sp, #32]
 1313 006a FFF7FEFF 		bl	drawHLine
 1314              	.LVL176:
 600:GFX_Library.c ****     display_drawHLine(x+r  , y+h-1, w-2*r, color); // Bottom
 1315              		.loc 1 600 0
 1316 006e 6B46     		mov	r3, sp
 1317 0070 1C7F     		ldrb	r4, [r3, #28]
 1318 0072 3919     		adds	r1, r7, r4
 1319 0074 0139     		subs	r1, r1, #1
 1320 0076 C9B2     		uxtb	r1, r1
ARM GAS  C:\Users\PC\AppData\Local\Temp\ccKVdNiW.s 			page 35


 1321 0078 039B     		ldr	r3, [sp, #12]
 1322 007a 099A     		ldr	r2, [sp, #36]
 1323 007c 0898     		ldr	r0, [sp, #32]
 1324 007e FFF7FEFF 		bl	drawHLine
 1325              	.LVL177:
 601:GFX_Library.c ****     display_drawVLine(x    , y+r  , h-2*r, color); // Left
 1326              		.loc 1 601 0
 1327 0082 5F44     		add	r7, r7, fp
 1328 0084 FFB2     		uxtb	r7, r7
 1329 0086 5146     		mov	r1, r10
 1330 0088 641A     		subs	r4, r4, r1
 1331 008a E4B2     		uxtb	r4, r4
 1332 008c 039B     		ldr	r3, [sp, #12]
 1333 008e 2200     		movs	r2, r4
 1334 0090 3900     		movs	r1, r7
 1335 0092 2800     		movs	r0, r5
 1336 0094 FFF7FEFF 		bl	drawVLine
 1337              	.LVL178:
 602:GFX_Library.c ****     display_drawVLine(x+w-1, y+r  , h-2*r, color); // Right
 1338              		.loc 1 602 0
 1339 0098 2800     		movs	r0, r5
 1340 009a 4844     		add	r0, r0, r9
 1341 009c 0138     		subs	r0, r0, #1
 1342 009e C0B2     		uxtb	r0, r0
 1343 00a0 039B     		ldr	r3, [sp, #12]
 1344 00a2 2200     		movs	r2, r4
 1345 00a4 3900     		movs	r1, r7
 1346 00a6 FFF7FEFF 		bl	drawVLine
 1347              	.LVL179:
 603:GFX_Library.c ****     // draw four corners
 604:GFX_Library.c ****     display_drawCircleHelper(x+r    , y+r    , r, 1, color);
 1348              		.loc 1 604 0
 1349 00aa 059D     		ldr	r5, [sp, #20]
 1350 00ac 7719     		adds	r7, r6, r5
 1351 00ae BFB2     		uxth	r7, r7
 1352 00b0 049B     		ldr	r3, [sp, #16]
 1353 00b2 F418     		adds	r4, r6, r3
 1354 00b4 A4B2     		uxth	r4, r4
 1355 00b6 4146     		mov	r1, r8
 1356 00b8 0091     		str	r1, [sp]
 1357 00ba 0123     		movs	r3, #1
 1358 00bc 3200     		movs	r2, r6
 1359 00be 2100     		movs	r1, r4
 1360 00c0 3800     		movs	r0, r7
 1361 00c2 FFF7FEFF 		bl	display_drawCircleHelper
 1362              	.LVL180:
 605:GFX_Library.c ****     display_drawCircleHelper(x+w-r-1, y+r    , r, 2, color);
 1363              		.loc 1 605 0
 1364 00c6 0699     		ldr	r1, [sp, #24]
 1365 00c8 AC46     		mov	ip, r5
 1366 00ca 6144     		add	r1, r1, ip
 1367 00cc 8D1B     		subs	r5, r1, r6
 1368 00ce 013D     		subs	r5, r5, #1
 1369 00d0 ADB2     		uxth	r5, r5
 1370 00d2 4146     		mov	r1, r8
 1371 00d4 0091     		str	r1, [sp]
 1372 00d6 0223     		movs	r3, #2
ARM GAS  C:\Users\PC\AppData\Local\Temp\ccKVdNiW.s 			page 36


 1373 00d8 3200     		movs	r2, r6
 1374 00da 2100     		movs	r1, r4
 1375 00dc 2800     		movs	r0, r5
 1376 00de FFF7FEFF 		bl	display_drawCircleHelper
 1377              	.LVL181:
 606:GFX_Library.c ****     display_drawCircleHelper(x+w-r-1, y+h-r-1, r, 4, color);
 1378              		.loc 1 606 0
 1379 00e2 079A     		ldr	r2, [sp, #28]
 1380 00e4 049B     		ldr	r3, [sp, #16]
 1381 00e6 9C46     		mov	ip, r3
 1382 00e8 6244     		add	r2, r2, ip
 1383 00ea 941B     		subs	r4, r2, r6
 1384 00ec 013C     		subs	r4, r4, #1
 1385 00ee A4B2     		uxth	r4, r4
 1386 00f0 4346     		mov	r3, r8
 1387 00f2 0093     		str	r3, [sp]
 1388 00f4 0423     		movs	r3, #4
 1389 00f6 3200     		movs	r2, r6
 1390 00f8 2100     		movs	r1, r4
 1391 00fa 2800     		movs	r0, r5
 1392 00fc FFF7FEFF 		bl	display_drawCircleHelper
 1393              	.LVL182:
 607:GFX_Library.c ****     display_drawCircleHelper(x+r    , y+h-r-1, r, 8, color);
 1394              		.loc 1 607 0
 1395 0100 4346     		mov	r3, r8
 1396 0102 0093     		str	r3, [sp]
 1397 0104 0823     		movs	r3, #8
 1398 0106 3200     		movs	r2, r6
 1399 0108 2100     		movs	r1, r4
 1400 010a 3800     		movs	r0, r7
 1401 010c FFF7FEFF 		bl	display_drawCircleHelper
 1402              	.LVL183:
 608:GFX_Library.c **** }
 1403              		.loc 1 608 0
 1404 0110 0BB0     		add	sp, sp, #44
 1405              		@ sp needed
 1406              	.LVL184:
 1407 0112 3CBC     		pop	{r2, r3, r4, r5}
 1408 0114 9046     		mov	r8, r2
 1409 0116 9946     		mov	r9, r3
 1410 0118 A246     		mov	r10, r4
 1411 011a AB46     		mov	fp, r5
 1412 011c F0BD     		pop	{r4, r5, r6, r7, pc}
 1413              		.cfi_endproc
 1414              	.LFE40:
 1415              		.size	display_drawRoundRect, .-display_drawRoundRect
 1416 011e C046     		.section	.text.display_fillRoundRect,"ax",%progbits
 1417              		.align	2
 1418              		.global	display_fillRoundRect
 1419              		.code	16
 1420              		.thumb_func
 1421              		.type	display_fillRoundRect, %function
 1422              	display_fillRoundRect:
 1423              	.LFB41:
 609:GFX_Library.c **** 
 610:GFX_Library.c **** /**************************************************************************/
 611:GFX_Library.c **** /*!
ARM GAS  C:\Users\PC\AppData\Local\Temp\ccKVdNiW.s 			page 37


 612:GFX_Library.c ****    @brief   Draw a rounded rectangle with fill color
 613:GFX_Library.c ****     @param    x   Top left corner x coordinate
 614:GFX_Library.c ****     @param    y   Top left corner y coordinate
 615:GFX_Library.c ****     @param    w   Width in pixels
 616:GFX_Library.c ****     @param    h   Height in pixels
 617:GFX_Library.c ****     @param    r   Radius of corner rounding
 618:GFX_Library.c ****     @param    color 16-bit 5-6-5 Color to draw/fill with
 619:GFX_Library.c **** */
 620:GFX_Library.c **** /**************************************************************************/
 621:GFX_Library.c **** void display_fillRoundRect(uint16_t x, uint16_t y, uint16_t w,
 622:GFX_Library.c ****   uint16_t h, uint16_t r, uint16_t color) {
 1424              		.loc 1 622 0
 1425              		.cfi_startproc
 1426              		@ args = 8, pretend = 0, frame = 8
 1427              		@ frame_needed = 0, uses_anonymous_args = 0
 1428              	.LVL185:
 1429 0000 F0B5     		push	{r4, r5, r6, r7, lr}
 1430              		.cfi_def_cfa_offset 20
 1431              		.cfi_offset 4, -20
 1432              		.cfi_offset 5, -16
 1433              		.cfi_offset 6, -12
 1434              		.cfi_offset 7, -8
 1435              		.cfi_offset 14, -4
 1436 0002 5746     		mov	r7, r10
 1437 0004 4646     		mov	r6, r8
 1438 0006 C0B4     		push	{r6, r7}
 1439              		.cfi_def_cfa_offset 28
 1440              		.cfi_offset 8, -28
 1441              		.cfi_offset 10, -24
 1442 0008 85B0     		sub	sp, sp, #20
 1443              		.cfi_def_cfa_offset 48
 1444 000a 8046     		mov	r8, r0
 1445 000c 0E00     		movs	r6, r1
 1446 000e 1500     		movs	r5, r2
 1447 0010 1C00     		movs	r4, r3
 1448 0012 0CAB     		add	r3, sp, #48
 1449              	.LVL186:
 1450 0014 1F88     		ldrh	r7, [r3]
 1451 0016 0DAB     		add	r3, sp, #52
 1452              	.LVL187:
 1453 0018 1B88     		ldrh	r3, [r3]
 1454              	.LVL188:
 1455 001a 9A46     		mov	r10, r3
 623:GFX_Library.c ****     int16_t max_radius = ((w < h) ? w : h) / 2; // 1/2 minor axis
 1456              		.loc 1 623 0
 1457 001c 231C     		adds	r3, r4, #0
 1458 001e 9442     		cmp	r4, r2
 1459 0020 00D9     		bls	.L48
 1460 0022 131C     		adds	r3, r2, #0
 1461              	.L48:
 1462 0024 9BB2     		uxth	r3, r3
 1463 0026 5B10     		asrs	r3, r3, #1
 1464 0028 1AB2     		sxth	r2, r3
 1465              	.LVL189:
 624:GFX_Library.c ****     if(r > max_radius) r = max_radius;
 1466              		.loc 1 624 0
 1467 002a 9742     		cmp	r7, r2
ARM GAS  C:\Users\PC\AppData\Local\Temp\ccKVdNiW.s 			page 38


 1468 002c 00DD     		ble	.L49
 1469              		.loc 1 624 0 is_stmt 0 discriminator 1
 1470 002e 9FB2     		uxth	r7, r3
 1471              	.LVL190:
 1472              	.L49:
 625:GFX_Library.c ****     // smarter version
 626:GFX_Library.c ****     display_FillRect(x+r, y, w-2*r, h, color);
 1473              		.loc 1 626 0 is_stmt 1
 1474 0030 7A00     		lsls	r2, r7, #1
 1475              	.LVL191:
 1476 0032 AA1A     		subs	r2, r5, r2
 1477 0034 3B00     		movs	r3, r7
 1478              	.LVL192:
 1479 0036 4344     		add	r3, r3, r8
 1480 0038 1800     		movs	r0, r3
 1481              	.LVL193:
 1482 003a 5346     		mov	r3, r10
 1483 003c 0093     		str	r3, [sp]
 1484 003e 2300     		movs	r3, r4
 1485 0040 3100     		movs	r1, r6
 1486              	.LVL194:
 1487 0042 0390     		str	r0, [sp, #12]
 1488 0044 FFF7FEFF 		bl	display_FillRect
 1489              	.LVL195:
 627:GFX_Library.c ****     // draw four corners
 628:GFX_Library.c ****     display_fillCircleHelper(x+w-r-1, y+r, r, 1, h-2*r-1, color);
 1490              		.loc 1 628 0
 1491 0048 BE19     		adds	r6, r7, r6
 1492 004a B6B2     		uxth	r6, r6
 1493 004c 7B00     		lsls	r3, r7, #1
 1494 004e E41A     		subs	r4, r4, r3
 1495 0050 013C     		subs	r4, r4, #1
 1496 0052 A4B2     		uxth	r4, r4
 1497 0054 4544     		add	r5, r5, r8
 1498 0056 E81B     		subs	r0, r5, r7
 1499 0058 0138     		subs	r0, r0, #1
 1500 005a 80B2     		uxth	r0, r0
 1501 005c 5246     		mov	r2, r10
 1502 005e 0192     		str	r2, [sp, #4]
 1503 0060 0094     		str	r4, [sp]
 1504 0062 0123     		movs	r3, #1
 1505 0064 3A00     		movs	r2, r7
 1506 0066 3100     		movs	r1, r6
 1507 0068 FFF7FEFF 		bl	display_fillCircleHelper
 1508              	.LVL196:
 629:GFX_Library.c ****     //display_fillCircleHelper(94, 18, 8, 1, 43, color);
 630:GFX_Library.c ****     display_fillCircleHelper(x+r    , y+r, r, 2, h-2*r-1, color);
 1509              		.loc 1 630 0
 1510 006c 6B46     		mov	r3, sp
 1511 006e 9889     		ldrh	r0, [r3, #12]
 1512 0070 5346     		mov	r3, r10
 1513 0072 0193     		str	r3, [sp, #4]
 1514 0074 0094     		str	r4, [sp]
 1515 0076 0223     		movs	r3, #2
 1516 0078 3A00     		movs	r2, r7
 1517 007a 3100     		movs	r1, r6
 1518 007c FFF7FEFF 		bl	display_fillCircleHelper
ARM GAS  C:\Users\PC\AppData\Local\Temp\ccKVdNiW.s 			page 39


 1519              	.LVL197:
 631:GFX_Library.c **** }
 1520              		.loc 1 631 0
 1521 0080 05B0     		add	sp, sp, #20
 1522              		@ sp needed
 1523              	.LVL198:
 1524 0082 0CBC     		pop	{r2, r3}
 1525 0084 9046     		mov	r8, r2
 1526 0086 9A46     		mov	r10, r3
 1527 0088 F0BD     		pop	{r4, r5, r6, r7, pc}
 1528              		.cfi_endproc
 1529              	.LFE41:
 1530              		.size	display_fillRoundRect, .-display_fillRoundRect
 1531 008a C046     		.section	.text.display_drawTriangle,"ax",%progbits
 1532              		.align	2
 1533              		.global	display_drawTriangle
 1534              		.code	16
 1535              		.thumb_func
 1536              		.type	display_drawTriangle, %function
 1537              	display_drawTriangle:
 1538              	.LFB42:
 632:GFX_Library.c **** 
 633:GFX_Library.c **** /**************************************************************************/
 634:GFX_Library.c **** /*!
 635:GFX_Library.c ****    @brief   Draw a triangle with no fill color
 636:GFX_Library.c ****     @param    x0  Vertex #0 x coordinate
 637:GFX_Library.c ****     @param    y0  Vertex #0 y coordinate
 638:GFX_Library.c ****     @param    x1  Vertex #1 x coordinate
 639:GFX_Library.c ****     @param    y1  Vertex #1 y coordinate
 640:GFX_Library.c ****     @param    x2  Vertex #2 x coordinate
 641:GFX_Library.c ****     @param    y2  Vertex #2 y coordinate
 642:GFX_Library.c ****     @param    color 16-bit 5-6-5 Color to draw with
 643:GFX_Library.c **** */
 644:GFX_Library.c **** /**************************************************************************/
 645:GFX_Library.c **** void display_drawTriangle(uint16_t x0, uint16_t y0, uint16_t x1, uint16_t y1,
 646:GFX_Library.c ****   uint16_t x2, uint16_t y2, uint16_t color) {
 1539              		.loc 1 646 0
 1540              		.cfi_startproc
 1541              		@ args = 12, pretend = 0, frame = 16
 1542              		@ frame_needed = 0, uses_anonymous_args = 0
 1543              	.LVL199:
 1544 0000 F0B5     		push	{r4, r5, r6, r7, lr}
 1545              		.cfi_def_cfa_offset 20
 1546              		.cfi_offset 4, -20
 1547              		.cfi_offset 5, -16
 1548              		.cfi_offset 6, -12
 1549              		.cfi_offset 7, -8
 1550              		.cfi_offset 14, -4
 1551 0002 87B0     		sub	sp, sp, #28
 1552              		.cfi_def_cfa_offset 48
 1553 0004 0390     		str	r0, [sp, #12]
 1554 0006 0491     		str	r1, [sp, #16]
 1555 0008 0592     		str	r2, [sp, #20]
 1556 000a 1F00     		movs	r7, r3
 1557 000c 0CAB     		add	r3, sp, #48
 1558              	.LVL200:
 1559 000e 1C88     		ldrh	r4, [r3]
ARM GAS  C:\Users\PC\AppData\Local\Temp\ccKVdNiW.s 			page 40


 1560 0010 0DAB     		add	r3, sp, #52
 1561              	.LVL201:
 1562 0012 1D88     		ldrh	r5, [r3]
 1563 0014 0EAB     		add	r3, sp, #56
 1564              	.LVL202:
 1565 0016 1E88     		ldrh	r6, [r3]
 647:GFX_Library.c ****     display_drawLine(x0, y0, x1, y1, color);
 1566              		.loc 1 647 0
 1567 0018 0096     		str	r6, [sp]
 1568 001a 3B00     		movs	r3, r7
 1569              	.LVL203:
 1570 001c FFF7FEFF 		bl	display_drawLine
 1571              	.LVL204:
 648:GFX_Library.c ****     display_drawLine(x1, y1, x2, y2, color);
 1572              		.loc 1 648 0
 1573 0020 0096     		str	r6, [sp]
 1574 0022 2B00     		movs	r3, r5
 1575 0024 2200     		movs	r2, r4
 1576 0026 3900     		movs	r1, r7
 1577 0028 0598     		ldr	r0, [sp, #20]
 1578 002a FFF7FEFF 		bl	display_drawLine
 1579              	.LVL205:
 649:GFX_Library.c ****     display_drawLine(x2, y2, x0, y0, color);
 1580              		.loc 1 649 0
 1581 002e 0096     		str	r6, [sp]
 1582 0030 049B     		ldr	r3, [sp, #16]
 1583 0032 039A     		ldr	r2, [sp, #12]
 1584 0034 2900     		movs	r1, r5
 1585 0036 2000     		movs	r0, r4
 1586 0038 FFF7FEFF 		bl	display_drawLine
 1587              	.LVL206:
 650:GFX_Library.c **** }
 1588              		.loc 1 650 0
 1589 003c 07B0     		add	sp, sp, #28
 1590              		@ sp needed
 1591 003e F0BD     		pop	{r4, r5, r6, r7, pc}
 1592              		.cfi_endproc
 1593              	.LFE42:
 1594              		.size	display_drawTriangle, .-display_drawTriangle
 1595              		.global	__aeabi_idiv
 1596              		.section	.text.display_fillTriangle,"ax",%progbits
 1597              		.align	2
 1598              		.global	display_fillTriangle
 1599              		.code	16
 1600              		.thumb_func
 1601              		.type	display_fillTriangle, %function
 1602              	display_fillTriangle:
 1603              	.LFB43:
 651:GFX_Library.c **** 
 652:GFX_Library.c **** /**************************************************************************/
 653:GFX_Library.c **** /*!
 654:GFX_Library.c ****    @brief     Draw a triangle with color-fill
 655:GFX_Library.c ****     @param    x0  Vertex #0 x coordinate
 656:GFX_Library.c ****     @param    y0  Vertex #0 y coordinate
 657:GFX_Library.c ****     @param    x1  Vertex #1 x coordinate
 658:GFX_Library.c ****     @param    y1  Vertex #1 y coordinate
 659:GFX_Library.c ****     @param    x2  Vertex #2 x coordinate
ARM GAS  C:\Users\PC\AppData\Local\Temp\ccKVdNiW.s 			page 41


 660:GFX_Library.c ****     @param    y2  Vertex #2 y coordinate
 661:GFX_Library.c ****     @param    color 16-bit 5-6-5 Color to fill/draw with
 662:GFX_Library.c **** */
 663:GFX_Library.c **** /**************************************************************************/
 664:GFX_Library.c **** void display_fillTriangle(uint16_t x0, uint16_t y0, uint16_t x1, uint16_t y1,
 665:GFX_Library.c ****   uint16_t x2, uint16_t y2, uint16_t color) {
 1604              		.loc 1 665 0
 1605              		.cfi_startproc
 1606              		@ args = 12, pretend = 0, frame = 40
 1607              		@ frame_needed = 0, uses_anonymous_args = 0
 1608              	.LVL207:
 1609 0000 F0B5     		push	{r4, r5, r6, r7, lr}
 1610              		.cfi_def_cfa_offset 20
 1611              		.cfi_offset 4, -20
 1612              		.cfi_offset 5, -16
 1613              		.cfi_offset 6, -12
 1614              		.cfi_offset 7, -8
 1615              		.cfi_offset 14, -4
 1616 0002 5F46     		mov	r7, fp
 1617 0004 5646     		mov	r6, r10
 1618 0006 4D46     		mov	r5, r9
 1619 0008 4446     		mov	r4, r8
 1620 000a F0B4     		push	{r4, r5, r6, r7}
 1621              		.cfi_def_cfa_offset 36
 1622              		.cfi_offset 8, -36
 1623              		.cfi_offset 9, -32
 1624              		.cfi_offset 10, -28
 1625              		.cfi_offset 11, -24
 1626 000c 8BB0     		sub	sp, sp, #44
 1627              		.cfi_def_cfa_offset 80
 1628 000e 0600     		movs	r6, r0
 1629 0010 0800     		movs	r0, r1
 1630              	.LVL208:
 1631 0012 0891     		str	r1, [sp, #32]
 1632 0014 0392     		str	r2, [sp, #12]
 1633 0016 1C00     		movs	r4, r3
 1634 0018 0793     		str	r3, [sp, #28]
 1635 001a 14AB     		add	r3, sp, #80
 1636              	.LVL209:
 1637 001c 1F88     		ldrh	r7, [r3]
 1638 001e 15AB     		add	r3, sp, #84
 1639              	.LVL210:
 1640 0020 1D88     		ldrh	r5, [r3]
 1641 0022 A946     		mov	r9, r5
 1642 0024 16AB     		add	r3, sp, #88
 1643              	.LVL211:
 1644 0026 1D88     		ldrh	r5, [r3]
 1645 0028 0195     		str	r5, [sp, #4]
 666:GFX_Library.c ****     int16_t a, b, y, last;
 667:GFX_Library.c **** 
 668:GFX_Library.c ****     // Sort coordinates by Y order (y2 >= y1 >= y0)
 669:GFX_Library.c ****     if (y0 > y1) {
 1646              		.loc 1 669 0
 1647 002a A142     		cmp	r1, r4
 1648 002c 04D9     		bls	.L52
 1649              	.LBB8:
 670:GFX_Library.c ****         _swap_int16_t(y0, y1); _swap_int16_t(x0, x1);
ARM GAS  C:\Users\PC\AppData\Local\Temp\ccKVdNiW.s 			page 42


 1650              		.loc 1 670 0
 1651 002e 0894     		str	r4, [sp, #32]
 1652 0030 0790     		str	r0, [sp, #28]
 1653              	.LBE8:
 1654 0032 3300     		movs	r3, r6
 1655              	.LVL212:
 1656              	.LBB9:
 1657 0034 1600     		movs	r6, r2
 1658 0036 0393     		str	r3, [sp, #12]
 1659              	.L52:
 1660              	.LVL213:
 1661              	.LBE9:
 671:GFX_Library.c ****     }
 672:GFX_Library.c ****     if (y1 > y2) {
 1662              		.loc 1 672 0
 1663 0038 079B     		ldr	r3, [sp, #28]
 1664 003a 4B45     		cmp	r3, r9
 1665 003c 05D9     		bls	.L53
 1666              	.LBB10:
 673:GFX_Library.c ****         _swap_int16_t(y2, y1); _swap_int16_t(x2, x1);
 1667              		.loc 1 673 0
 1668 003e 4A46     		mov	r2, r9
 1669 0040 0792     		str	r2, [sp, #28]
 1670              	.LVL214:
 1671 0042 9946     		mov	r9, r3
 1672              	.LBE10:
 1673 0044 039B     		ldr	r3, [sp, #12]
 1674              	.LBB11:
 1675 0046 0397     		str	r7, [sp, #12]
 1676              	.LVL215:
 1677 0048 1F00     		movs	r7, r3
 1678              	.L53:
 1679              	.LVL216:
 1680              	.LBE11:
 674:GFX_Library.c ****     }
 675:GFX_Library.c ****     if (y0 > y1) {
 1681              		.loc 1 675 0
 1682 004a 089B     		ldr	r3, [sp, #32]
 1683 004c 0798     		ldr	r0, [sp, #28]
 1684 004e 8342     		cmp	r3, r0
 1685 0050 04D9     		bls	.L54
 1686              	.LBB12:
 676:GFX_Library.c ****         _swap_int16_t(y0, y1); _swap_int16_t(x0, x1);
 1687              		.loc 1 676 0
 1688 0052 0890     		str	r0, [sp, #32]
 1689              	.LVL217:
 1690 0054 0793     		str	r3, [sp, #28]
 1691              	.LVL218:
 1692              	.LBE12:
 1693 0056 3300     		movs	r3, r6
 1694              	.LBB13:
 1695 0058 039E     		ldr	r6, [sp, #12]
 1696              	.LVL219:
 1697 005a 0393     		str	r3, [sp, #12]
 1698              	.LVL220:
 1699              	.L54:
 1700              	.LBE13:
ARM GAS  C:\Users\PC\AppData\Local\Temp\ccKVdNiW.s 			page 43


 677:GFX_Library.c ****     }
 678:GFX_Library.c **** 
 679:GFX_Library.c ****     if(y0 == y2) { // Handle awkward all-on-same-line case as its own thing
 1701              		.loc 1 679 0
 1702 005c 089B     		ldr	r3, [sp, #32]
 1703 005e 4B45     		cmp	r3, r9
 1704 0060 21D1     		bne	.L55
 680:GFX_Library.c ****         a = b = x0;
 1705              		.loc 1 680 0
 1706 0062 36B2     		sxth	r6, r6
 1707              	.LVL221:
 681:GFX_Library.c ****         if(x1 < a)      a = x1;
 1708              		.loc 1 681 0
 1709 0064 0398     		ldr	r0, [sp, #12]
 1710 0066 B042     		cmp	r0, r6
 1711 0068 01DA     		bge	.L56
 1712              		.loc 1 681 0 is_stmt 0 discriminator 1
 1713 006a 00B2     		sxth	r0, r0
 1714              	.LVL222:
 1715 006c 07E0     		b	.L57
 1716              	.LVL223:
 1717              	.L56:
 682:GFX_Library.c ****         else if(x1 > b) b = x1;
 1718              		.loc 1 682 0 is_stmt 1
 1719 006e B042     		cmp	r0, r6
 1720 0070 04DD     		ble	.L72
 1721              	.LVL224:
 680:GFX_Library.c ****         a = b = x0;
 1722              		.loc 1 680 0 discriminator 1
 1723 0072 3000     		movs	r0, r6
 1724              		.loc 1 682 0 discriminator 1
 1725 0074 6B46     		mov	r3, sp
 1726 0076 0C26     		movs	r6, #12
 1727 0078 9E5F     		ldrsh	r6, [r3, r6]
 1728              	.LVL225:
 1729 007a 00E0     		b	.L57
 1730              	.LVL226:
 1731              	.L72:
 680:GFX_Library.c ****         a = b = x0;
 1732              		.loc 1 680 0
 1733 007c 3000     		movs	r0, r6
 1734              	.LVL227:
 1735              	.L57:
 683:GFX_Library.c ****         if(x2 < a)      a = x2;
 1736              		.loc 1 683 0
 1737 007e 8742     		cmp	r7, r0
 1738 0080 01DA     		bge	.L58
 1739              		.loc 1 683 0 is_stmt 0 discriminator 1
 1740 0082 38B2     		sxth	r0, r7
 1741              	.LVL228:
 1742 0084 02E0     		b	.L59
 1743              	.L58:
 684:GFX_Library.c ****         else if(x2 > b) b = x2;
 1744              		.loc 1 684 0 is_stmt 1
 1745 0086 B742     		cmp	r7, r6
 1746 0088 00DD     		ble	.L59
 1747              		.loc 1 684 0 is_stmt 0 discriminator 1
ARM GAS  C:\Users\PC\AppData\Local\Temp\ccKVdNiW.s 			page 44


 1748 008a 3EB2     		sxth	r6, r7
 1749              	.LVL229:
 1750              	.L59:
 685:GFX_Library.c ****         display_drawHLine(a, y0, b-a+1, color);
 1751              		.loc 1 685 0 is_stmt 1
 1752 008c C0B2     		uxtb	r0, r0
 1753              	.LVL230:
 1754 008e 6B46     		mov	r3, sp
 1755 0090 1B79     		ldrb	r3, [r3, #4]
 1756 0092 361A     		subs	r6, r6, r0
 1757              	.LVL231:
 1758 0094 0136     		adds	r6, r6, #1
 1759 0096 F2B2     		uxtb	r2, r6
 1760 0098 6946     		mov	r1, sp
 1761 009a 2024     		movs	r4, #32
 1762 009c 0919     		adds	r1, r1, r4
 1763 009e 0978     		ldrb	r1, [r1]
 1764 00a0 FFF7FEFF 		bl	drawHLine
 1765              	.LVL232:
 686:GFX_Library.c ****         return;
 1766              		.loc 1 686 0
 1767 00a4 7FE0     		b	.L51
 1768              	.LVL233:
 1769              	.L55:
 687:GFX_Library.c ****     }
 688:GFX_Library.c **** 
 689:GFX_Library.c ****     int16_t
 690:GFX_Library.c ****     dx01 = x1 - x0,
 1770              		.loc 1 690 0
 1771 00a6 0399     		ldr	r1, [sp, #12]
 1772 00a8 8B1B     		subs	r3, r1, r6
 1773 00aa 1BB2     		sxth	r3, r3
 1774 00ac 0493     		str	r3, [sp, #16]
 1775              	.LVL234:
 691:GFX_Library.c ****     dy01 = y1 - y0,
 1776              		.loc 1 691 0
 1777 00ae 079A     		ldr	r2, [sp, #28]
 1778 00b0 0898     		ldr	r0, [sp, #32]
 1779 00b2 131A     		subs	r3, r2, r0
 1780 00b4 1BB2     		sxth	r3, r3
 1781 00b6 0593     		str	r3, [sp, #20]
 1782              	.LVL235:
 692:GFX_Library.c ****     dx02 = x2 - x0,
 1783              		.loc 1 692 0
 1784 00b8 BB1B     		subs	r3, r7, r6
 1785 00ba 1BB2     		sxth	r3, r3
 1786 00bc 9A46     		mov	r10, r3
 1787              	.LVL236:
 693:GFX_Library.c ****     dy02 = y2 - y0,
 1788              		.loc 1 693 0
 1789 00be 4B46     		mov	r3, r9
 1790 00c0 1B1A     		subs	r3, r3, r0
 1791 00c2 1BB2     		sxth	r3, r3
 1792 00c4 0293     		str	r3, [sp, #8]
 1793              	.LVL237:
 694:GFX_Library.c ****     dx12 = x2 - x1,
 1794              		.loc 1 694 0
ARM GAS  C:\Users\PC\AppData\Local\Temp\ccKVdNiW.s 			page 45


 1795 00c6 7F1A     		subs	r7, r7, r1
 1796              	.LVL238:
 1797 00c8 3BB2     		sxth	r3, r7
 1798 00ca 0993     		str	r3, [sp, #36]
 1799              	.LVL239:
 695:GFX_Library.c ****     dy12 = y2 - y1;
 1800              		.loc 1 695 0
 1801 00cc 4946     		mov	r1, r9
 1802 00ce 8B1A     		subs	r3, r1, r2
 1803 00d0 1BB2     		sxth	r3, r3
 1804 00d2 0693     		str	r3, [sp, #24]
 1805              	.LVL240:
 696:GFX_Library.c ****     int32_t
 697:GFX_Library.c ****     sa   = 0,
 698:GFX_Library.c ****     sb   = 0;
 699:GFX_Library.c **** 
 700:GFX_Library.c ****     // For upper part of triangle, find scanline crossings for segments
 701:GFX_Library.c ****     // 0-1 and 0-2.  If y1=y2 (flat-bottomed triangle), the scanline y1
 702:GFX_Library.c ****     // is included here (and second loop will be skipped, avoiding a /0
 703:GFX_Library.c ****     // error there), otherwise scanline y1 is skipped here and handled
 704:GFX_Library.c ****     // in the second loop...which also avoids a /0 error here if y0=y1
 705:GFX_Library.c ****     // (flat-topped triangle).
 706:GFX_Library.c ****     if(y1 == y2) last = y1;   // Include y1 scanline
 1806              		.loc 1 706 0
 1807 00d4 4A45     		cmp	r2, r9
 1808 00d6 04D1     		bne	.L61
 1809              		.loc 1 706 0 is_stmt 0 discriminator 1
 1810 00d8 6B46     		mov	r3, sp
 1811 00da 1C22     		movs	r2, #28
 1812 00dc 9B5E     		ldrsh	r3, [r3, r2]
 1813 00de 9B46     		mov	fp, r3
 1814              	.LVL241:
 1815 00e0 03E0     		b	.L62
 1816              	.LVL242:
 1817              	.L61:
 707:GFX_Library.c ****     else         last = y1-1; // Skip it
 1818              		.loc 1 707 0 is_stmt 1
 1819 00e2 079B     		ldr	r3, [sp, #28]
 1820 00e4 013B     		subs	r3, r3, #1
 1821 00e6 1BB2     		sxth	r3, r3
 1822 00e8 9B46     		mov	fp, r3
 1823              	.LVL243:
 1824              	.L62:
 708:GFX_Library.c **** 
 709:GFX_Library.c ****     for(y=y0; y<=last; y++) {
 1825              		.loc 1 709 0
 1826 00ea 6B46     		mov	r3, sp
 1827 00ec 2025     		movs	r5, #32
 1828 00ee 5D5F     		ldrsh	r5, [r3, r5]
 1829              	.LVL244:
 698:GFX_Library.c **** 
 1830              		.loc 1 698 0
 1831 00f0 0023     		movs	r3, #0
 1832 00f2 9846     		mov	r8, r3
 697:GFX_Library.c ****     sb   = 0;
 1833              		.loc 1 697 0
 1834 00f4 0027     		movs	r7, #0
ARM GAS  C:\Users\PC\AppData\Local\Temp\ccKVdNiW.s 			page 46


 1835 00f6 3300     		movs	r3, r6
 1836 00f8 4646     		mov	r6, r8
 1837              	.LVL245:
 1838 00fa 9846     		mov	r8, r3
 1839              		.loc 1 709 0
 1840 00fc 1FE0     		b	.L63
 1841              	.LVL246:
 1842              	.L65:
 710:GFX_Library.c ****         a   = x0 + sa / dy01;
 1843              		.loc 1 710 0
 1844 00fe 0599     		ldr	r1, [sp, #20]
 1845 0100 3800     		movs	r0, r7
 1846 0102 FFF7FEFF 		bl	__aeabi_idiv
 1847              	.LVL247:
 1848 0106 4044     		add	r0, r0, r8
 1849 0108 04B2     		sxth	r4, r0
 1850              	.LVL248:
 711:GFX_Library.c ****         b   = x0 + sb / dy02;
 1851              		.loc 1 711 0
 1852 010a 0299     		ldr	r1, [sp, #8]
 1853 010c 3000     		movs	r0, r6
 1854 010e FFF7FEFF 		bl	__aeabi_idiv
 1855              	.LVL249:
 1856 0112 4044     		add	r0, r0, r8
 1857 0114 00B2     		sxth	r0, r0
 1858              	.LVL250:
 712:GFX_Library.c ****         sa += dx01;
 1859              		.loc 1 712 0
 1860 0116 049B     		ldr	r3, [sp, #16]
 1861 0118 9C46     		mov	ip, r3
 1862 011a 6744     		add	r7, r7, ip
 1863              	.LVL251:
 713:GFX_Library.c ****         sb += dx02;
 1864              		.loc 1 713 0
 1865 011c 5644     		add	r6, r6, r10
 1866              	.LVL252:
 714:GFX_Library.c ****         /* longhand:
 715:GFX_Library.c ****         a = x0 + (x1 - x0) * (y - y0) / (y1 - y0);
 716:GFX_Library.c ****         b = x0 + (x2 - x0) * (y - y0) / (y2 - y0);
 717:GFX_Library.c ****         */
 718:GFX_Library.c ****         if(a > b) _swap_int16_t(a,b);
 1867              		.loc 1 718 0
 1868 011e 8442     		cmp	r4, r0
 1869 0120 02DC     		bgt	.L64
 1870 0122 0300     		movs	r3, r0
 710:GFX_Library.c ****         b   = x0 + sb / dy02;
 1871              		.loc 1 710 0
 1872 0124 2000     		movs	r0, r4
 1873              	.LVL253:
 711:GFX_Library.c ****         sa += dx01;
 1874              		.loc 1 711 0
 1875 0126 1C00     		movs	r4, r3
 1876              	.LVL254:
 1877              	.L64:
 719:GFX_Library.c ****         display_drawHLine(a, y, b-a+1, color);
 1878              		.loc 1 719 0 discriminator 2
 1879 0128 C0B2     		uxtb	r0, r0
ARM GAS  C:\Users\PC\AppData\Local\Temp\ccKVdNiW.s 			page 47


 1880              	.LVL255:
 1881 012a 6B46     		mov	r3, sp
 1882 012c 1B79     		ldrb	r3, [r3, #4]
 1883 012e 221A     		subs	r2, r4, r0
 1884 0130 541C     		adds	r4, r2, #1
 1885              	.LVL256:
 1886 0132 E2B2     		uxtb	r2, r4
 1887 0134 E9B2     		uxtb	r1, r5
 1888 0136 FFF7FEFF 		bl	drawHLine
 1889              	.LVL257:
 709:GFX_Library.c ****         a   = x0 + sa / dy01;
 1890              		.loc 1 709 0 discriminator 2
 1891 013a 0135     		adds	r5, r5, #1
 1892              	.LVL258:
 1893 013c 2DB2     		sxth	r5, r5
 1894              	.LVL259:
 1895              	.L63:
 709:GFX_Library.c ****         a   = x0 + sa / dy01;
 1896              		.loc 1 709 0 is_stmt 0 discriminator 1
 1897 013e 5D45     		cmp	r5, fp
 1898 0140 DDDD     		ble	.L65
 1899 0142 4646     		mov	r6, r8
 1900              	.LVL260:
 720:GFX_Library.c ****     }
 721:GFX_Library.c **** 
 722:GFX_Library.c ****     // For lower part of triangle, find scanline crossings for segments
 723:GFX_Library.c ****     // 0-2 and 1-2.  This loop is skipped if y1=y2.
 724:GFX_Library.c ****     sa = dx12 * (y - y1);
 1901              		.loc 1 724 0 is_stmt 1
 1902 0144 099A     		ldr	r2, [sp, #36]
 1903 0146 9346     		mov	fp, r2
 1904              	.LVL261:
 1905 0148 079B     		ldr	r3, [sp, #28]
 1906 014a EF1A     		subs	r7, r5, r3
 1907              	.LVL262:
 1908 014c 5743     		muls	r7, r2
 1909              	.LVL263:
 725:GFX_Library.c ****     sb = dx02 * (y - y0);
 1910              		.loc 1 725 0
 1911 014e D046     		mov	r8, r10
 1912 0150 089B     		ldr	r3, [sp, #32]
 1913 0152 E91A     		subs	r1, r5, r3
 1914 0154 5346     		mov	r3, r10
 1915 0156 4B43     		muls	r3, r1
 1916 0158 9A46     		mov	r10, r3
 1917              	.LVL264:
 1918 015a 3300     		movs	r3, r6
 1919              	.LVL265:
 1920 015c 5646     		mov	r6, r10
 1921 015e 9A46     		mov	r10, r3
 1922              	.LVL266:
 726:GFX_Library.c ****     for(; y<=y2; y++) {
 1923              		.loc 1 726 0
 1924 0160 1FE0     		b	.L66
 1925              	.L68:
 727:GFX_Library.c ****         a   = x1 + sa / dy12;
 1926              		.loc 1 727 0
ARM GAS  C:\Users\PC\AppData\Local\Temp\ccKVdNiW.s 			page 48


 1927 0162 0699     		ldr	r1, [sp, #24]
 1928 0164 3800     		movs	r0, r7
 1929 0166 FFF7FEFF 		bl	__aeabi_idiv
 1930              	.LVL267:
 1931 016a 039B     		ldr	r3, [sp, #12]
 1932 016c 9C46     		mov	ip, r3
 1933 016e 6044     		add	r0, r0, ip
 1934 0170 04B2     		sxth	r4, r0
 1935              	.LVL268:
 728:GFX_Library.c ****         b   = x0 + sb / dy02;
 1936              		.loc 1 728 0
 1937 0172 0299     		ldr	r1, [sp, #8]
 1938 0174 3000     		movs	r0, r6
 1939 0176 FFF7FEFF 		bl	__aeabi_idiv
 1940              	.LVL269:
 1941 017a 5044     		add	r0, r0, r10
 1942 017c 00B2     		sxth	r0, r0
 1943              	.LVL270:
 729:GFX_Library.c ****         sa += dx12;
 1944              		.loc 1 729 0
 1945 017e 5F44     		add	r7, r7, fp
 1946              	.LVL271:
 730:GFX_Library.c ****         sb += dx02;
 1947              		.loc 1 730 0
 1948 0180 4644     		add	r6, r6, r8
 1949              	.LVL272:
 731:GFX_Library.c ****         /* longhand:
 732:GFX_Library.c ****         a = x1 + (x2 - x1) * (y - y1) / (y2 - y1);
 733:GFX_Library.c ****         b = x0 + (x2 - x0) * (y - y0) / (y2 - y0);
 734:GFX_Library.c ****         */
 735:GFX_Library.c ****         if(a > b) _swap_int16_t(a,b);
 1950              		.loc 1 735 0
 1951 0182 8442     		cmp	r4, r0
 1952 0184 02DC     		bgt	.L67
 1953 0186 0300     		movs	r3, r0
 727:GFX_Library.c ****         b   = x0 + sb / dy02;
 1954              		.loc 1 727 0
 1955 0188 2000     		movs	r0, r4
 1956              	.LVL273:
 728:GFX_Library.c ****         sa += dx12;
 1957              		.loc 1 728 0
 1958 018a 1C00     		movs	r4, r3
 1959              	.LVL274:
 1960              	.L67:
 736:GFX_Library.c ****         display_drawHLine(a, y, b-a+1, color);
 1961              		.loc 1 736 0
 1962 018c C0B2     		uxtb	r0, r0
 1963              	.LVL275:
 1964 018e 6B46     		mov	r3, sp
 1965 0190 1B79     		ldrb	r3, [r3, #4]
 1966 0192 221A     		subs	r2, r4, r0
 1967 0194 541C     		adds	r4, r2, #1
 1968              	.LVL276:
 1969 0196 E2B2     		uxtb	r2, r4
 1970 0198 E9B2     		uxtb	r1, r5
 1971 019a FFF7FEFF 		bl	drawHLine
 1972              	.LVL277:
ARM GAS  C:\Users\PC\AppData\Local\Temp\ccKVdNiW.s 			page 49


 726:GFX_Library.c ****         a   = x1 + sa / dy12;
 1973              		.loc 1 726 0
 1974 019e 0135     		adds	r5, r5, #1
 1975              	.LVL278:
 1976 01a0 2DB2     		sxth	r5, r5
 1977              	.LVL279:
 1978              	.L66:
 726:GFX_Library.c ****         a   = x1 + sa / dy12;
 1979              		.loc 1 726 0 is_stmt 0 discriminator 1
 1980 01a2 4D45     		cmp	r5, r9
 1981 01a4 DDDD     		ble	.L68
 1982              	.LVL280:
 1983              	.L51:
 737:GFX_Library.c ****     }
 738:GFX_Library.c **** }
 1984              		.loc 1 738 0 is_stmt 1
 1985 01a6 0BB0     		add	sp, sp, #44
 1986              		@ sp needed
 1987              	.LVL281:
 1988 01a8 3CBC     		pop	{r2, r3, r4, r5}
 1989 01aa 9046     		mov	r8, r2
 1990 01ac 9946     		mov	r9, r3
 1991 01ae A246     		mov	r10, r4
 1992 01b0 AB46     		mov	fp, r5
 1993 01b2 F0BD     		pop	{r4, r5, r6, r7, pc}
 1994              		.cfi_endproc
 1995              	.LFE43:
 1996              		.size	display_fillTriangle, .-display_fillTriangle
 1997              		.section	.text.display_print,"ax",%progbits
 1998              		.align	2
 1999              		.global	display_print
 2000              		.code	16
 2001              		.thumb_func
 2002              		.type	display_print, %function
 2003              	display_print:
 2004              	.LFB44:
 739:GFX_Library.c **** 
 740:GFX_Library.c **** /**************************************************************************/
 741:GFX_Library.c **** /*!
 742:GFX_Library.c ****     @brief  Print one byte/character of data
 743:GFX_Library.c ****     @param  c  The 8-bit ascii character to write
 744:GFX_Library.c **** */
 745:GFX_Library.c **** /**************************************************************************/
 746:GFX_Library.c **** void display_print(uint8_t c) {
 2005              		.loc 1 746 0
 2006              		.cfi_startproc
 2007              		@ args = 0, pretend = 0, frame = 0
 2008              		@ frame_needed = 0, uses_anonymous_args = 0
 2009              	.LVL282:
 2010 0000 F0B5     		push	{r4, r5, r6, r7, lr}
 2011              		.cfi_def_cfa_offset 20
 2012              		.cfi_offset 4, -20
 2013              		.cfi_offset 5, -16
 2014              		.cfi_offset 6, -12
 2015              		.cfi_offset 7, -8
 2016              		.cfi_offset 14, -4
 2017 0002 83B0     		sub	sp, sp, #12
ARM GAS  C:\Users\PC\AppData\Local\Temp\ccKVdNiW.s 			page 50


 2018              		.cfi_def_cfa_offset 32
 2019 0004 0700     		movs	r7, r0
 747:GFX_Library.c **** 
 748:GFX_Library.c ****   if (c == ' ' && cursor_x == 0 && wrap)
 2020              		.loc 1 748 0
 2021 0006 2028     		cmp	r0, #32
 2022 0008 09D1     		bne	.L74
 2023              		.loc 1 748 0 is_stmt 0 discriminator 1
 2024 000a 634B     		ldr	r3, .L89
 2025 000c 0022     		movs	r2, #0
 2026 000e 9B5E     		ldrsh	r3, [r3, r2]
 2027 0010 002B     		cmp	r3, #0
 2028 0012 04D1     		bne	.L74
 2029              		.loc 1 748 0 discriminator 2
 2030 0014 614B     		ldr	r3, .L89+4
 2031 0016 1B78     		ldrb	r3, [r3]
 2032 0018 002B     		cmp	r3, #0
 2033 001a 00D0     		beq	.LCB2218
 2034 001c BAE0     		b	.L73	@long jump
 2035              	.LCB2218:
 2036              	.L74:
 749:GFX_Library.c ****     return;
 750:GFX_Library.c ****   if(c == '\r') {
 2037              		.loc 1 750 0 is_stmt 1
 2038 001e 0D2F     		cmp	r7, #13
 2039 0020 03D1     		bne	.L76
 751:GFX_Library.c ****     cursor_x = 0;
 2040              		.loc 1 751 0
 2041 0022 0022     		movs	r2, #0
 2042 0024 5C4B     		ldr	r3, .L89
 2043 0026 1A80     		strh	r2, [r3]
 752:GFX_Library.c ****     return;
 2044              		.loc 1 752 0
 2045 0028 B4E0     		b	.L73
 2046              	.L76:
 753:GFX_Library.c ****   }
 754:GFX_Library.c ****   if(c == '\n') {
 2047              		.loc 1 754 0
 2048 002a 0A2F     		cmp	r7, #10
 2049 002c 5ED1     		bne	.L88
 755:GFX_Library.c ****     cursor_y += textsize * 8;
 2050              		.loc 1 755 0
 2051 002e 5A49     		ldr	r1, .L89
 2052 0030 5A4B     		ldr	r3, .L89+4
 2053 0032 5B78     		ldrb	r3, [r3, #1]
 2054 0034 DA00     		lsls	r2, r3, #3
 2055 0036 4B88     		ldrh	r3, [r1, #2]
 2056 0038 D318     		adds	r3, r2, r3
 2057 003a 4B80     		strh	r3, [r1, #2]
 756:GFX_Library.c ****     return;
 2058              		.loc 1 756 0
 2059 003c AAE0     		b	.L73
 2060              	.LVL283:
 2061              	.L84:
 2062              	.LBB14:
 2063              	.LBB15:
 757:GFX_Library.c ****   }
ARM GAS  C:\Users\PC\AppData\Local\Temp\ccKVdNiW.s 			page 51


 758:GFX_Library.c **** 
 759:GFX_Library.c ****   for(uint8_t i = 0; i < 5; i++ ) {
 760:GFX_Library.c ****     uint8_t line = font[c][i];
 2064              		.loc 1 760 0
 2065 003e BB00     		lsls	r3, r7, #2
 2066 0040 DB19     		adds	r3, r3, r7
 2067 0042 574A     		ldr	r2, .L89+8
 2068 0044 D318     		adds	r3, r2, r3
 2069 0046 9D5D     		ldrb	r5, [r3, r6]
 2070              	.LVL284:
 2071              	.LBB16:
 761:GFX_Library.c ****     for(uint8_t j = 0; j < 8; j++, line >>= 1) {
 2072              		.loc 1 761 0
 2073 0048 0024     		movs	r4, #0
 2074 004a 4AE0     		b	.L78
 2075              	.LVL285:
 2076              	.L83:
 762:GFX_Library.c ****       if(line & 1) {
 2077              		.loc 1 762 0
 2078 004c EB07     		lsls	r3, r5, #31
 2079 004e 20D5     		bpl	.L79
 763:GFX_Library.c ****         if(textsize == 1)
 2080              		.loc 1 763 0
 2081 0050 524B     		ldr	r3, .L89+4
 2082 0052 5A78     		ldrb	r2, [r3, #1]
 2083 0054 012A     		cmp	r2, #1
 2084 0056 0AD1     		bne	.L80
 764:GFX_Library.c ****           display_drawPixel(cursor_x + i, cursor_y + j, textcolor);
 2085              		.loc 1 764 0
 2086 0058 9A78     		ldrb	r2, [r3, #2]
 2087 005a 4F4B     		ldr	r3, .L89
 2088 005c 5988     		ldrh	r1, [r3, #2]
 2089 005e 6118     		adds	r1, r4, r1
 2090 0060 C9B2     		uxtb	r1, r1
 2091 0062 1888     		ldrh	r0, [r3]
 2092 0064 3018     		adds	r0, r6, r0
 2093 0066 C0B2     		uxtb	r0, r0
 2094 0068 FFF7FEFF 		bl	drawPixel
 2095              	.LVL286:
 2096 006c 36E0     		b	.L81
 2097              	.L80:
 765:GFX_Library.c ****         else
 766:GFX_Library.c ****           display_fillRect(cursor_x + i * textsize, cursor_y + j * textsize, textsize, textsize, te
 2098              		.loc 1 766 0
 2099 006e 4A48     		ldr	r0, .L89
 2100 0070 4188     		ldrh	r1, [r0, #2]
 2101 0072 1300     		movs	r3, r2
 2102 0074 6343     		muls	r3, r4
 2103 0076 C918     		adds	r1, r1, r3
 2104 0078 C9B2     		uxtb	r1, r1
 2105 007a 0088     		ldrh	r0, [r0]
 2106 007c 1300     		movs	r3, r2
 2107 007e 7343     		muls	r3, r6
 2108 0080 C018     		adds	r0, r0, r3
 2109 0082 C0B2     		uxtb	r0, r0
 2110 0084 454B     		ldr	r3, .L89+4
 2111 0086 9B78     		ldrb	r3, [r3, #2]
ARM GAS  C:\Users\PC\AppData\Local\Temp\ccKVdNiW.s 			page 52


 2112 0088 0093     		str	r3, [sp]
 2113 008a 1300     		movs	r3, r2
 2114 008c FFF7FEFF 		bl	fillRect
 2115              	.LVL287:
 2116 0090 24E0     		b	.L81
 2117              	.L79:
 767:GFX_Library.c ****       } 
 768:GFX_Library.c ****       else 
 769:GFX_Library.c ****         if(textbgcolor != textcolor) {
 2118              		.loc 1 769 0
 2119 0092 4249     		ldr	r1, .L89+4
 2120 0094 8B88     		ldrh	r3, [r1, #4]
 2121 0096 4A88     		ldrh	r2, [r1, #2]
 2122 0098 9342     		cmp	r3, r2
 2123 009a 1FD0     		beq	.L81
 770:GFX_Library.c ****           if(textsize == 1)
 2124              		.loc 1 770 0
 2125 009c 4A78     		ldrb	r2, [r1, #1]
 2126 009e 012A     		cmp	r2, #1
 2127 00a0 0AD1     		bne	.L82
 771:GFX_Library.c ****             display_drawPixel(cursor_x + i, cursor_y + j, textbgcolor);
 2128              		.loc 1 771 0
 2129 00a2 DAB2     		uxtb	r2, r3
 2130 00a4 3C48     		ldr	r0, .L89
 2131 00a6 4188     		ldrh	r1, [r0, #2]
 2132 00a8 6118     		adds	r1, r4, r1
 2133 00aa C9B2     		uxtb	r1, r1
 2134 00ac 0088     		ldrh	r0, [r0]
 2135 00ae 3018     		adds	r0, r6, r0
 2136 00b0 C0B2     		uxtb	r0, r0
 2137 00b2 FFF7FEFF 		bl	drawPixel
 2138              	.LVL288:
 2139 00b6 11E0     		b	.L81
 2140              	.L82:
 772:GFX_Library.c ****           else
 773:GFX_Library.c ****             display_fillRect(cursor_x + i * textsize, cursor_y + j * textsize, textsize, textsize, 
 2141              		.loc 1 773 0
 2142 00b8 3748     		ldr	r0, .L89
 2143 00ba 4188     		ldrh	r1, [r0, #2]
 2144 00bc 8C46     		mov	ip, r1
 2145 00be 1100     		movs	r1, r2
 2146 00c0 6143     		muls	r1, r4
 2147 00c2 6144     		add	r1, r1, ip
 2148 00c4 C9B2     		uxtb	r1, r1
 2149 00c6 0088     		ldrh	r0, [r0]
 2150 00c8 8446     		mov	ip, r0
 2151 00ca 1000     		movs	r0, r2
 2152 00cc 7043     		muls	r0, r6
 2153 00ce 6044     		add	r0, r0, ip
 2154 00d0 C0B2     		uxtb	r0, r0
 2155 00d2 DBB2     		uxtb	r3, r3
 2156 00d4 0093     		str	r3, [sp]
 2157 00d6 1300     		movs	r3, r2
 2158 00d8 FFF7FEFF 		bl	fillRect
 2159              	.LVL289:
 2160              	.L81:
 761:GFX_Library.c ****       if(line & 1) {
ARM GAS  C:\Users\PC\AppData\Local\Temp\ccKVdNiW.s 			page 53


 2161              		.loc 1 761 0 discriminator 2
 2162 00dc 0134     		adds	r4, r4, #1
 2163              	.LVL290:
 2164 00de E4B2     		uxtb	r4, r4
 2165              	.LVL291:
 2166 00e0 6D08     		lsrs	r5, r5, #1
 2167              	.LVL292:
 2168              	.L78:
 761:GFX_Library.c ****       if(line & 1) {
 2169              		.loc 1 761 0 is_stmt 0 discriminator 1
 2170 00e2 072C     		cmp	r4, #7
 2171 00e4 B2D9     		bls	.L83
 2172              	.LBE16:
 2173              	.LBE15:
 759:GFX_Library.c ****     uint8_t line = font[c][i];
 2174              		.loc 1 759 0 is_stmt 1 discriminator 2
 2175 00e6 0136     		adds	r6, r6, #1
 2176              	.LVL293:
 2177 00e8 F6B2     		uxtb	r6, r6
 2178              	.LVL294:
 2179 00ea 00E0     		b	.L77
 2180              	.LVL295:
 2181              	.L88:
 2182              	.LBE14:
 2183 00ec 0026     		movs	r6, #0
 2184              	.LVL296:
 2185              	.L77:
 2186              	.LBB17:
 759:GFX_Library.c ****     uint8_t line = font[c][i];
 2187              		.loc 1 759 0 is_stmt 0 discriminator 1
 2188 00ee 042E     		cmp	r6, #4
 2189 00f0 A5D9     		bls	.L84
 2190              	.LBE17:
 774:GFX_Library.c ****         }
 775:GFX_Library.c ****     }
 776:GFX_Library.c ****   }
 777:GFX_Library.c **** 
 778:GFX_Library.c ****   if(textbgcolor != textcolor) {  // If opaque, draw vertical line for last column
 2191              		.loc 1 778 0 is_stmt 1
 2192 00f2 2A4B     		ldr	r3, .L89+4
 2193 00f4 9C88     		ldrh	r4, [r3, #4]
 2194 00f6 5B88     		ldrh	r3, [r3, #2]
 2195 00f8 9C42     		cmp	r4, r3
 2196 00fa 1AD0     		beq	.L85
 779:GFX_Library.c ****     if(textsize == 1)  display_drawVLine(cursor_x + 5, cursor_y, 8, textbgcolor);
 2197              		.loc 1 779 0
 2198 00fc 274B     		ldr	r3, .L89+4
 2199 00fe 5A78     		ldrb	r2, [r3, #1]
 2200 0100 012A     		cmp	r2, #1
 2201 0102 09D1     		bne	.L86
 2202              		.loc 1 779 0 is_stmt 0 discriminator 1
 2203 0104 E3B2     		uxtb	r3, r4
 2204 0106 244A     		ldr	r2, .L89
 2205 0108 9178     		ldrb	r1, [r2, #2]
 2206 010a 1088     		ldrh	r0, [r2]
 2207 010c 0530     		adds	r0, r0, #5
 2208 010e C0B2     		uxtb	r0, r0
ARM GAS  C:\Users\PC\AppData\Local\Temp\ccKVdNiW.s 			page 54


 2209 0110 0822     		movs	r2, #8
 2210 0112 FFF7FEFF 		bl	drawVLine
 2211              	.LVL297:
 2212 0116 0CE0     		b	.L85
 2213              	.L86:
 780:GFX_Library.c ****     else               display_fillRect(cursor_x + 5 * textsize, cursor_y, textsize, 8 * textsize, 
 2214              		.loc 1 780 0 is_stmt 1
 2215 0118 D300     		lsls	r3, r2, #3
 2216 011a DBB2     		uxtb	r3, r3
 2217 011c 1E48     		ldr	r0, .L89
 2218 011e 8178     		ldrb	r1, [r0, #2]
 2219 0120 0588     		ldrh	r5, [r0]
 2220 0122 9000     		lsls	r0, r2, #2
 2221 0124 1018     		adds	r0, r2, r0
 2222 0126 2818     		adds	r0, r5, r0
 2223 0128 C0B2     		uxtb	r0, r0
 2224 012a E4B2     		uxtb	r4, r4
 2225 012c 0094     		str	r4, [sp]
 2226 012e FFF7FEFF 		bl	fillRect
 2227              	.LVL298:
 2228              	.L85:
 781:GFX_Library.c ****   }
 782:GFX_Library.c **** 
 783:GFX_Library.c ****   cursor_x += textsize * 6;
 2229              		.loc 1 783 0
 2230 0132 1A4B     		ldr	r3, .L89+4
 2231 0134 5B78     		ldrb	r3, [r3, #1]
 2232 0136 9CB2     		uxth	r4, r3
 2233 0138 6100     		lsls	r1, r4, #1
 2234 013a 6118     		adds	r1, r4, r1
 2235 013c 4800     		lsls	r0, r1, #1
 2236 013e 1649     		ldr	r1, .L89
 2237 0140 0A88     		ldrh	r2, [r1]
 2238 0142 8218     		adds	r2, r0, r2
 2239 0144 12B2     		sxth	r2, r2
 2240 0146 0A80     		strh	r2, [r1]
 784:GFX_Library.c **** 
 785:GFX_Library.c ****   if( cursor_x > ((uint16_t)display_width + textsize * 6) )
 2241              		.loc 1 785 0
 2242 0148 1649     		ldr	r1, .L89+12
 2243 014a 0E78     		ldrb	r6, [r1]
 2244              	.LVL299:
 2245 014c 3500     		movs	r5, r6
 2246 014e 5800     		lsls	r0, r3, #1
 2247 0150 C018     		adds	r0, r0, r3
 2248 0152 4100     		lsls	r1, r0, #1
 2249 0154 7118     		adds	r1, r6, r1
 2250 0156 8A42     		cmp	r2, r1
 2251 0158 01DD     		ble	.L87
 786:GFX_Library.c ****     cursor_x = display_width;
 2252              		.loc 1 786 0
 2253 015a 0F4A     		ldr	r2, .L89
 2254 015c 1680     		strh	r6, [r2]
 2255              	.L87:
 787:GFX_Library.c **** 
 788:GFX_Library.c ****   if (wrap && (cursor_x + (textsize * 5)) > display_width)
 2256              		.loc 1 788 0
ARM GAS  C:\Users\PC\AppData\Local\Temp\ccKVdNiW.s 			page 55


 2257 015e 0F4A     		ldr	r2, .L89+4
 2258 0160 1278     		ldrb	r2, [r2]
 2259 0162 002A     		cmp	r2, #0
 2260 0164 16D0     		beq	.L73
 2261              		.loc 1 788 0 is_stmt 0 discriminator 1
 2262 0166 9A00     		lsls	r2, r3, #2
 2263 0168 D218     		adds	r2, r2, r3
 2264 016a 0B49     		ldr	r1, .L89
 2265 016c 0020     		movs	r0, #0
 2266 016e 095E     		ldrsh	r1, [r1, r0]
 2267 0170 8A18     		adds	r2, r1, r2
 2268 0172 9542     		cmp	r5, r2
 2269 0174 0EDA     		bge	.L73
 789:GFX_Library.c ****   {
 790:GFX_Library.c ****     cursor_x = 0;
 2270              		.loc 1 790 0 is_stmt 1
 2271 0176 0849     		ldr	r1, .L89
 2272 0178 0022     		movs	r2, #0
 2273 017a 0A80     		strh	r2, [r1]
 791:GFX_Library.c ****     cursor_y += textsize * 8;
 2274              		.loc 1 791 0
 2275 017c E400     		lsls	r4, r4, #3
 2276 017e 4A88     		ldrh	r2, [r1, #2]
 2277 0180 A418     		adds	r4, r4, r2
 2278 0182 24B2     		sxth	r4, r4
 2279 0184 4C80     		strh	r4, [r1, #2]
 792:GFX_Library.c ****     if( cursor_y > ((uint16_t)display_height + textsize * 8) )
 2280              		.loc 1 792 0
 2281 0186 084A     		ldr	r2, .L89+16
 2282 0188 1278     		ldrb	r2, [r2]
 2283 018a DB00     		lsls	r3, r3, #3
 2284 018c D318     		adds	r3, r2, r3
 2285 018e 9C42     		cmp	r4, r3
 2286 0190 00DD     		ble	.L73
 793:GFX_Library.c ****       cursor_y = display_height;
 2287              		.loc 1 793 0
 2288 0192 4A80     		strh	r2, [r1, #2]
 2289              	.L73:
 794:GFX_Library.c ****   }
 795:GFX_Library.c **** }
 2290              		.loc 1 795 0
 2291 0194 03B0     		add	sp, sp, #12
 2292              		@ sp needed
 2293 0196 F0BD     		pop	{r4, r5, r6, r7, pc}
 2294              	.L90:
 2295              		.align	2
 2296              	.L89:
 2297 0198 00000000 		.word	.LANCHOR0
 2298 019c 00000000 		.word	.LANCHOR1
 2299 01a0 00000000 		.word	.LANCHOR2
 2300 01a4 00000000 		.word	_width
 2301 01a8 00000000 		.word	_height
 2302              		.cfi_endproc
 2303              	.LFE44:
 2304              		.size	display_print, .-display_print
 2305              		.section	.text.display_string,"ax",%progbits
 2306              		.align	2
ARM GAS  C:\Users\PC\AppData\Local\Temp\ccKVdNiW.s 			page 56


 2307              		.global	display_string
 2308              		.code	16
 2309              		.thumb_func
 2310              		.type	display_string, %function
 2311              	display_string:
 2312              	.LFB45:
 796:GFX_Library.c **** 
 797:GFX_Library.c **** void display_string(char *str) {
 2313              		.loc 1 797 0
 2314              		.cfi_startproc
 2315              		@ args = 0, pretend = 0, frame = 0
 2316              		@ frame_needed = 0, uses_anonymous_args = 0
 2317              	.LVL300:
 2318 0000 10B5     		push	{r4, lr}
 2319              		.cfi_def_cfa_offset 8
 2320              		.cfi_offset 4, -8
 2321              		.cfi_offset 14, -4
 2322 0002 0400     		movs	r4, r0
 798:GFX_Library.c ****     while(*str != 0) {
 2323              		.loc 1 798 0
 2324 0004 02E0     		b	.L92
 2325              	.LVL301:
 2326              	.L93:
 799:GFX_Library.c ****         display_print(*str);
 2327              		.loc 1 799 0
 2328 0006 FFF7FEFF 		bl	display_print
 2329              	.LVL302:
 800:GFX_Library.c ****         str++;
 2330              		.loc 1 800 0
 2331 000a 0134     		adds	r4, r4, #1
 2332              	.LVL303:
 2333              	.L92:
 798:GFX_Library.c ****     while(*str != 0) {
 2334              		.loc 1 798 0
 2335 000c 2078     		ldrb	r0, [r4]
 2336 000e 0028     		cmp	r0, #0
 2337 0010 F9D1     		bne	.L93
 801:GFX_Library.c ****     }
 802:GFX_Library.c **** }
 2338              		.loc 1 802 0
 2339              		@ sp needed
 2340              	.LVL304:
 2341 0012 10BD     		pop	{r4, pc}
 2342              		.cfi_endproc
 2343              	.LFE45:
 2344              		.size	display_string, .-display_string
 2345              		.section	.text.display_customChar,"ax",%progbits
 2346              		.align	2
 2347              		.global	display_customChar
 2348              		.code	16
 2349              		.thumb_func
 2350              		.type	display_customChar, %function
 2351              	display_customChar:
 2352              	.LFB46:
 803:GFX_Library.c **** 
 804:GFX_Library.c **** // print custom char (dimension: 7x5 or 8x5 pixel)
 805:GFX_Library.c **** void display_customChar(const uint8_t *c) {
ARM GAS  C:\Users\PC\AppData\Local\Temp\ccKVdNiW.s 			page 57


 2353              		.loc 1 805 0
 2354              		.cfi_startproc
 2355              		@ args = 0, pretend = 0, frame = 0
 2356              		@ frame_needed = 0, uses_anonymous_args = 0
 2357              	.LVL305:
 2358 0000 F0B5     		push	{r4, r5, r6, r7, lr}
 2359              		.cfi_def_cfa_offset 20
 2360              		.cfi_offset 4, -20
 2361              		.cfi_offset 5, -16
 2362              		.cfi_offset 6, -12
 2363              		.cfi_offset 7, -8
 2364              		.cfi_offset 14, -4
 2365 0002 4746     		mov	r7, r8
 2366 0004 80B4     		push	{r7}
 2367              		.cfi_def_cfa_offset 24
 2368              		.cfi_offset 8, -24
 2369 0006 82B0     		sub	sp, sp, #8
 2370              		.cfi_def_cfa_offset 32
 2371 0008 8046     		mov	r8, r0
 2372              	.LVL306:
 2373              	.LBB18:
 806:GFX_Library.c **** 
 807:GFX_Library.c ****   for(uint8_t i = 0; i < 5; i++ ) {
 2374              		.loc 1 807 0
 2375 000a 0026     		movs	r6, #0
 2376 000c 50E0     		b	.L95
 2377              	.LVL307:
 2378              	.L102:
 2379              	.LBB19:
 808:GFX_Library.c ****     uint8_t line = c[i];
 2380              		.loc 1 808 0
 2381 000e 4346     		mov	r3, r8
 2382 0010 9D5D     		ldrb	r5, [r3, r6]
 2383              	.LVL308:
 2384              	.LBB20:
 809:GFX_Library.c ****     for(uint8_t j = 0; j < 8; j++, line >>= 1) {
 2385              		.loc 1 809 0
 2386 0012 0024     		movs	r4, #0
 2387 0014 48E0     		b	.L96
 2388              	.LVL309:
 2389              	.L101:
 810:GFX_Library.c ****       if(line & 1) {
 2390              		.loc 1 810 0
 2391 0016 EB07     		lsls	r3, r5, #31
 2392 0018 20D5     		bpl	.L97
 811:GFX_Library.c ****         if(textsize == 1)
 2393              		.loc 1 811 0
 2394 001a 514B     		ldr	r3, .L107
 2395 001c 5A78     		ldrb	r2, [r3, #1]
 2396 001e 012A     		cmp	r2, #1
 2397 0020 0AD1     		bne	.L98
 812:GFX_Library.c ****           display_drawPixel(cursor_x + i, cursor_y + j, textcolor);
 2398              		.loc 1 812 0
 2399 0022 9A78     		ldrb	r2, [r3, #2]
 2400 0024 4F4B     		ldr	r3, .L107+4
 2401 0026 5988     		ldrh	r1, [r3, #2]
 2402 0028 6118     		adds	r1, r4, r1
ARM GAS  C:\Users\PC\AppData\Local\Temp\ccKVdNiW.s 			page 58


 2403 002a C9B2     		uxtb	r1, r1
 2404 002c 1888     		ldrh	r0, [r3]
 2405 002e 3018     		adds	r0, r6, r0
 2406 0030 C0B2     		uxtb	r0, r0
 2407 0032 FFF7FEFF 		bl	drawPixel
 2408              	.LVL310:
 2409 0036 34E0     		b	.L99
 2410              	.L98:
 813:GFX_Library.c ****         else
 814:GFX_Library.c ****           display_fillRect(cursor_x + i * textsize, cursor_y + j * textsize, textsize, textsize, te
 2411              		.loc 1 814 0
 2412 0038 4A48     		ldr	r0, .L107+4
 2413 003a 4188     		ldrh	r1, [r0, #2]
 2414 003c 1300     		movs	r3, r2
 2415 003e 6343     		muls	r3, r4
 2416 0040 C918     		adds	r1, r1, r3
 2417 0042 C9B2     		uxtb	r1, r1
 2418 0044 0088     		ldrh	r0, [r0]
 2419 0046 1300     		movs	r3, r2
 2420 0048 7343     		muls	r3, r6
 2421 004a C018     		adds	r0, r0, r3
 2422 004c C0B2     		uxtb	r0, r0
 2423 004e 444B     		ldr	r3, .L107
 2424 0050 9B78     		ldrb	r3, [r3, #2]
 2425 0052 0093     		str	r3, [sp]
 2426 0054 1300     		movs	r3, r2
 2427 0056 FFF7FEFF 		bl	fillRect
 2428              	.LVL311:
 2429 005a 22E0     		b	.L99
 2430              	.L97:
 815:GFX_Library.c ****       } 
 816:GFX_Library.c ****       else 
 817:GFX_Library.c ****         if(textbgcolor != textcolor) {
 2431              		.loc 1 817 0
 2432 005c 4049     		ldr	r1, .L107
 2433 005e 8B88     		ldrh	r3, [r1, #4]
 2434 0060 4A88     		ldrh	r2, [r1, #2]
 2435 0062 9342     		cmp	r3, r2
 2436 0064 1DD0     		beq	.L99
 818:GFX_Library.c ****           if(textsize == 1)
 2437              		.loc 1 818 0
 2438 0066 4A78     		ldrb	r2, [r1, #1]
 2439 0068 012A     		cmp	r2, #1
 2440 006a 0AD1     		bne	.L100
 819:GFX_Library.c ****             display_drawPixel(cursor_x + i, cursor_y + j, textbgcolor);
 2441              		.loc 1 819 0
 2442 006c DAB2     		uxtb	r2, r3
 2443 006e 3D48     		ldr	r0, .L107+4
 2444 0070 4188     		ldrh	r1, [r0, #2]
 2445 0072 6118     		adds	r1, r4, r1
 2446 0074 C9B2     		uxtb	r1, r1
 2447 0076 0088     		ldrh	r0, [r0]
 2448 0078 3018     		adds	r0, r6, r0
 2449 007a C0B2     		uxtb	r0, r0
 2450 007c FFF7FEFF 		bl	drawPixel
 2451              	.LVL312:
 2452 0080 0FE0     		b	.L99
ARM GAS  C:\Users\PC\AppData\Local\Temp\ccKVdNiW.s 			page 59


 2453              	.L100:
 820:GFX_Library.c ****           else
 821:GFX_Library.c ****             display_fillRect(cursor_x + i * textsize, cursor_y + j * textsize, textsize, textsize, 
 2454              		.loc 1 821 0
 2455 0082 3848     		ldr	r0, .L107+4
 2456 0084 4788     		ldrh	r7, [r0, #2]
 2457 0086 1100     		movs	r1, r2
 2458 0088 6143     		muls	r1, r4
 2459 008a 7918     		adds	r1, r7, r1
 2460 008c C9B2     		uxtb	r1, r1
 2461 008e 0788     		ldrh	r7, [r0]
 2462 0090 1000     		movs	r0, r2
 2463 0092 7043     		muls	r0, r6
 2464 0094 3818     		adds	r0, r7, r0
 2465 0096 C0B2     		uxtb	r0, r0
 2466 0098 DBB2     		uxtb	r3, r3
 2467 009a 0093     		str	r3, [sp]
 2468 009c 1300     		movs	r3, r2
 2469 009e FFF7FEFF 		bl	fillRect
 2470              	.LVL313:
 2471              	.L99:
 809:GFX_Library.c ****       if(line & 1) {
 2472              		.loc 1 809 0 discriminator 2
 2473 00a2 0134     		adds	r4, r4, #1
 2474              	.LVL314:
 2475 00a4 E4B2     		uxtb	r4, r4
 2476              	.LVL315:
 2477 00a6 6D08     		lsrs	r5, r5, #1
 2478              	.LVL316:
 2479              	.L96:
 809:GFX_Library.c ****       if(line & 1) {
 2480              		.loc 1 809 0 is_stmt 0 discriminator 1
 2481 00a8 072C     		cmp	r4, #7
 2482 00aa B4D9     		bls	.L101
 2483              	.LBE20:
 2484              	.LBE19:
 807:GFX_Library.c ****     uint8_t line = c[i];
 2485              		.loc 1 807 0 is_stmt 1 discriminator 2
 2486 00ac 0136     		adds	r6, r6, #1
 2487              	.LVL317:
 2488 00ae F6B2     		uxtb	r6, r6
 2489              	.LVL318:
 2490              	.L95:
 807:GFX_Library.c ****     uint8_t line = c[i];
 2491              		.loc 1 807 0 is_stmt 0 discriminator 1
 2492 00b0 042E     		cmp	r6, #4
 2493 00b2 ACD9     		bls	.L102
 2494              	.LBE18:
 822:GFX_Library.c ****         }
 823:GFX_Library.c ****     }
 824:GFX_Library.c ****   }
 825:GFX_Library.c **** 
 826:GFX_Library.c ****   if(textbgcolor != textcolor) {  // If opaque, draw vertical line for last column
 2495              		.loc 1 826 0 is_stmt 1
 2496 00b4 2A4B     		ldr	r3, .L107
 2497 00b6 9C88     		ldrh	r4, [r3, #4]
 2498 00b8 5B88     		ldrh	r3, [r3, #2]
ARM GAS  C:\Users\PC\AppData\Local\Temp\ccKVdNiW.s 			page 60


 2499 00ba 9C42     		cmp	r4, r3
 2500 00bc 1AD0     		beq	.L103
 827:GFX_Library.c ****     if(textsize == 1)  display_drawVLine(cursor_x + 5, cursor_y, 8, textbgcolor);
 2501              		.loc 1 827 0
 2502 00be 284B     		ldr	r3, .L107
 2503 00c0 5A78     		ldrb	r2, [r3, #1]
 2504 00c2 012A     		cmp	r2, #1
 2505 00c4 09D1     		bne	.L104
 2506              		.loc 1 827 0 is_stmt 0 discriminator 1
 2507 00c6 E3B2     		uxtb	r3, r4
 2508 00c8 264A     		ldr	r2, .L107+4
 2509 00ca 9178     		ldrb	r1, [r2, #2]
 2510 00cc 1088     		ldrh	r0, [r2]
 2511 00ce 0530     		adds	r0, r0, #5
 2512 00d0 C0B2     		uxtb	r0, r0
 2513 00d2 0822     		movs	r2, #8
 2514 00d4 FFF7FEFF 		bl	drawVLine
 2515              	.LVL319:
 2516 00d8 0CE0     		b	.L103
 2517              	.L104:
 828:GFX_Library.c ****     else               display_fillRect(cursor_x + 5 * textsize, cursor_y, textsize, 8 * textsize, 
 2518              		.loc 1 828 0 is_stmt 1
 2519 00da D300     		lsls	r3, r2, #3
 2520 00dc DBB2     		uxtb	r3, r3
 2521 00de 2148     		ldr	r0, .L107+4
 2522 00e0 8178     		ldrb	r1, [r0, #2]
 2523 00e2 0588     		ldrh	r5, [r0]
 2524 00e4 9000     		lsls	r0, r2, #2
 2525 00e6 1018     		adds	r0, r2, r0
 2526 00e8 2818     		adds	r0, r5, r0
 2527 00ea C0B2     		uxtb	r0, r0
 2528 00ec E4B2     		uxtb	r4, r4
 2529 00ee 0094     		str	r4, [sp]
 2530 00f0 FFF7FEFF 		bl	fillRect
 2531              	.LVL320:
 2532              	.L103:
 829:GFX_Library.c ****   }
 830:GFX_Library.c **** 
 831:GFX_Library.c ****   cursor_x += textsize * 6;
 2533              		.loc 1 831 0
 2534 00f4 1A4B     		ldr	r3, .L107
 2535 00f6 5B78     		ldrb	r3, [r3, #1]
 2536 00f8 9CB2     		uxth	r4, r3
 2537 00fa 6100     		lsls	r1, r4, #1
 2538 00fc 6118     		adds	r1, r4, r1
 2539 00fe 4800     		lsls	r0, r1, #1
 2540 0100 1849     		ldr	r1, .L107+4
 2541 0102 0A88     		ldrh	r2, [r1]
 2542 0104 8218     		adds	r2, r0, r2
 2543 0106 12B2     		sxth	r2, r2
 2544 0108 0A80     		strh	r2, [r1]
 832:GFX_Library.c **** 
 833:GFX_Library.c ****   if( cursor_x > ((uint16_t)display_width + textsize * 6) )
 2545              		.loc 1 833 0
 2546 010a 1749     		ldr	r1, .L107+8
 2547 010c 0E78     		ldrb	r6, [r1]
 2548              	.LVL321:
ARM GAS  C:\Users\PC\AppData\Local\Temp\ccKVdNiW.s 			page 61


 2549 010e 3500     		movs	r5, r6
 2550 0110 5800     		lsls	r0, r3, #1
 2551 0112 C018     		adds	r0, r0, r3
 2552 0114 4100     		lsls	r1, r0, #1
 2553 0116 7118     		adds	r1, r6, r1
 2554 0118 8A42     		cmp	r2, r1
 2555 011a 01DD     		ble	.L105
 834:GFX_Library.c ****     cursor_x = display_width;
 2556              		.loc 1 834 0
 2557 011c 114A     		ldr	r2, .L107+4
 2558 011e 1680     		strh	r6, [r2]
 2559              	.L105:
 835:GFX_Library.c **** 
 836:GFX_Library.c ****   if (wrap && (cursor_x + (textsize * 5)) > display_width)
 2560              		.loc 1 836 0
 2561 0120 0F4A     		ldr	r2, .L107
 2562 0122 1278     		ldrb	r2, [r2]
 2563 0124 002A     		cmp	r2, #0
 2564 0126 16D0     		beq	.L94
 2565              		.loc 1 836 0 is_stmt 0 discriminator 1
 2566 0128 9A00     		lsls	r2, r3, #2
 2567 012a D218     		adds	r2, r2, r3
 2568 012c 0D49     		ldr	r1, .L107+4
 2569 012e 0020     		movs	r0, #0
 2570 0130 095E     		ldrsh	r1, [r1, r0]
 2571 0132 8A18     		adds	r2, r1, r2
 2572 0134 9542     		cmp	r5, r2
 2573 0136 0EDA     		bge	.L94
 837:GFX_Library.c ****   {
 838:GFX_Library.c ****     cursor_x = 0;
 2574              		.loc 1 838 0 is_stmt 1
 2575 0138 0A49     		ldr	r1, .L107+4
 2576 013a 0022     		movs	r2, #0
 2577 013c 0A80     		strh	r2, [r1]
 839:GFX_Library.c ****     cursor_y += textsize * 8;
 2578              		.loc 1 839 0
 2579 013e E400     		lsls	r4, r4, #3
 2580 0140 4A88     		ldrh	r2, [r1, #2]
 2581 0142 A418     		adds	r4, r4, r2
 2582 0144 24B2     		sxth	r4, r4
 2583 0146 4C80     		strh	r4, [r1, #2]
 840:GFX_Library.c ****     if( cursor_y > ((uint16_t)display_height + textsize * 8) )
 2584              		.loc 1 840 0
 2585 0148 084A     		ldr	r2, .L107+12
 2586 014a 1278     		ldrb	r2, [r2]
 2587 014c DB00     		lsls	r3, r3, #3
 2588 014e D318     		adds	r3, r2, r3
 2589 0150 9C42     		cmp	r4, r3
 2590 0152 00DD     		ble	.L94
 841:GFX_Library.c ****       cursor_y = display_height;
 2591              		.loc 1 841 0
 2592 0154 4A80     		strh	r2, [r1, #2]
 2593              	.L94:
 842:GFX_Library.c ****   }
 843:GFX_Library.c **** }
 2594              		.loc 1 843 0
 2595 0156 02B0     		add	sp, sp, #8
ARM GAS  C:\Users\PC\AppData\Local\Temp\ccKVdNiW.s 			page 62


 2596              		@ sp needed
 2597              	.LVL322:
 2598 0158 04BC     		pop	{r2}
 2599 015a 9046     		mov	r8, r2
 2600 015c F0BD     		pop	{r4, r5, r6, r7, pc}
 2601              	.L108:
 2602 015e C046     		.align	2
 2603              	.L107:
 2604 0160 00000000 		.word	.LANCHOR1
 2605 0164 00000000 		.word	.LANCHOR0
 2606 0168 00000000 		.word	_width
 2607 016c 00000000 		.word	_height
 2608              		.cfi_endproc
 2609              	.LFE46:
 2610              		.size	display_customChar, .-display_customChar
 2611              		.section	.text.display_setCursor,"ax",%progbits
 2612              		.align	2
 2613              		.global	display_setCursor
 2614              		.code	16
 2615              		.thumb_func
 2616              		.type	display_setCursor, %function
 2617              	display_setCursor:
 2618              	.LFB48:
 844:GFX_Library.c **** 
 845:GFX_Library.c **** /**************************************************************************/
 846:GFX_Library.c **** /*!
 847:GFX_Library.c ****    @brief   Draw a single character
 848:GFX_Library.c ****     @param    x   Bottom left corner x coordinate
 849:GFX_Library.c ****     @param    y   Bottom left corner y coordinate
 850:GFX_Library.c ****     @param    c   The 8-bit font-indexed character (likely ascii)
 851:GFX_Library.c ****     @param    color 16-bit 5-6-5 Color to draw chraracter with
 852:GFX_Library.c ****     @param    bg 16-bit 5-6-5 Color to fill background with (if same as color, no background)
 853:GFX_Library.c ****     @param    size  Font magnification level, 1 is 'original' size
 854:GFX_Library.c **** */
 855:GFX_Library.c **** /**************************************************************************/
 856:GFX_Library.c **** void display_drawChar(uint16_t x, uint16_t y, uint8_t c, uint16_t color, uint16_t bg,
 857:GFX_Library.c ****      uint8_t size) {
 858:GFX_Library.c ****   uint16_t prev_x     = cursor_x,
 859:GFX_Library.c ****            prev_y     = cursor_y,
 860:GFX_Library.c ****            prev_color = textcolor,
 861:GFX_Library.c ****            prev_bg    = textbgcolor;
 862:GFX_Library.c ****   uint8_t  prev_size  = textsize;
 863:GFX_Library.c **** 
 864:GFX_Library.c ****   display_setCursor(x, y);
 865:GFX_Library.c ****   display_setTextSize(size);
 866:GFX_Library.c ****   display_setTextColor2(color, bg);
 867:GFX_Library.c ****   display_print(c);
 868:GFX_Library.c **** 
 869:GFX_Library.c ****   cursor_x    = prev_x;
 870:GFX_Library.c ****   cursor_y    = prev_y;
 871:GFX_Library.c ****   textcolor   = prev_color;
 872:GFX_Library.c ****   textbgcolor = prev_bg;
 873:GFX_Library.c ****   textsize    = prev_size;
 874:GFX_Library.c **** }
 875:GFX_Library.c **** 
 876:GFX_Library.c **** /**************************************************************************/
 877:GFX_Library.c **** /*!
ARM GAS  C:\Users\PC\AppData\Local\Temp\ccKVdNiW.s 			page 63


 878:GFX_Library.c ****     @brief  Set text cursor location
 879:GFX_Library.c ****     @param  x    X coordinate in pixels
 880:GFX_Library.c ****     @param  y    Y coordinate in pixels
 881:GFX_Library.c **** */
 882:GFX_Library.c **** /**************************************************************************/
 883:GFX_Library.c **** void display_setCursor(uint16_t x, uint16_t y) {
 2619              		.loc 1 883 0
 2620              		.cfi_startproc
 2621              		@ args = 0, pretend = 0, frame = 0
 2622              		@ frame_needed = 0, uses_anonymous_args = 0
 2623              		@ link register save eliminated.
 2624              	.LVL323:
 884:GFX_Library.c ****     cursor_x = x;
 2625              		.loc 1 884 0
 2626 0000 014B     		ldr	r3, .L110
 2627 0002 1880     		strh	r0, [r3]
 885:GFX_Library.c ****     cursor_y = y;
 2628              		.loc 1 885 0
 2629 0004 5980     		strh	r1, [r3, #2]
 886:GFX_Library.c **** }
 2630              		.loc 1 886 0
 2631              		@ sp needed
 2632 0006 7047     		bx	lr
 2633              	.L111:
 2634              		.align	2
 2635              	.L110:
 2636 0008 00000000 		.word	.LANCHOR0
 2637              		.cfi_endproc
 2638              	.LFE48:
 2639              		.size	display_setCursor, .-display_setCursor
 2640              		.section	.text.display_getCursorX,"ax",%progbits
 2641              		.align	2
 2642              		.global	display_getCursorX
 2643              		.code	16
 2644              		.thumb_func
 2645              		.type	display_getCursorX, %function
 2646              	display_getCursorX:
 2647              	.LFB49:
 887:GFX_Library.c **** 
 888:GFX_Library.c **** /**************************************************************************/
 889:GFX_Library.c **** /*!
 890:GFX_Library.c ****     @brief  Get text cursor X location
 891:GFX_Library.c ****     @returns    X coordinate in pixels
 892:GFX_Library.c **** */
 893:GFX_Library.c **** /**************************************************************************/
 894:GFX_Library.c **** uint16_t display_getCursorX(void) {
 2648              		.loc 1 894 0
 2649              		.cfi_startproc
 2650              		@ args = 0, pretend = 0, frame = 0
 2651              		@ frame_needed = 0, uses_anonymous_args = 0
 2652              		@ link register save eliminated.
 895:GFX_Library.c ****     return cursor_x;
 2653              		.loc 1 895 0
 2654 0000 014B     		ldr	r3, .L113
 2655 0002 1888     		ldrh	r0, [r3]
 896:GFX_Library.c **** }
 2656              		.loc 1 896 0
ARM GAS  C:\Users\PC\AppData\Local\Temp\ccKVdNiW.s 			page 64


 2657              		@ sp needed
 2658 0004 7047     		bx	lr
 2659              	.L114:
 2660 0006 C046     		.align	2
 2661              	.L113:
 2662 0008 00000000 		.word	.LANCHOR0
 2663              		.cfi_endproc
 2664              	.LFE49:
 2665              		.size	display_getCursorX, .-display_getCursorX
 2666              		.section	.text.display_getCursorY,"ax",%progbits
 2667              		.align	2
 2668              		.global	display_getCursorY
 2669              		.code	16
 2670              		.thumb_func
 2671              		.type	display_getCursorY, %function
 2672              	display_getCursorY:
 2673              	.LFB50:
 897:GFX_Library.c **** 
 898:GFX_Library.c **** /**************************************************************************/
 899:GFX_Library.c **** /*!
 900:GFX_Library.c ****     @brief      Get text cursor Y location
 901:GFX_Library.c ****     @returns    Y coordinate in pixels
 902:GFX_Library.c **** */
 903:GFX_Library.c **** /**************************************************************************/
 904:GFX_Library.c **** uint16_t display_getCursorY(void) {
 2674              		.loc 1 904 0
 2675              		.cfi_startproc
 2676              		@ args = 0, pretend = 0, frame = 0
 2677              		@ frame_needed = 0, uses_anonymous_args = 0
 2678              		@ link register save eliminated.
 905:GFX_Library.c ****     return cursor_y;
 2679              		.loc 1 905 0
 2680 0000 014B     		ldr	r3, .L116
 2681 0002 5888     		ldrh	r0, [r3, #2]
 906:GFX_Library.c **** }
 2682              		.loc 1 906 0
 2683              		@ sp needed
 2684 0004 7047     		bx	lr
 2685              	.L117:
 2686 0006 C046     		.align	2
 2687              	.L116:
 2688 0008 00000000 		.word	.LANCHOR0
 2689              		.cfi_endproc
 2690              	.LFE50:
 2691              		.size	display_getCursorY, .-display_getCursorY
 2692              		.section	.text.display_setTextSize,"ax",%progbits
 2693              		.align	2
 2694              		.global	display_setTextSize
 2695              		.code	16
 2696              		.thumb_func
 2697              		.type	display_setTextSize, %function
 2698              	display_setTextSize:
 2699              	.LFB51:
 907:GFX_Library.c **** 
 908:GFX_Library.c **** /**************************************************************************/
 909:GFX_Library.c **** /*!
 910:GFX_Library.c ****     @brief   Set text 'magnification' size. Each increase in s makes 1 pixel that much bigger.
ARM GAS  C:\Users\PC\AppData\Local\Temp\ccKVdNiW.s 			page 65


 911:GFX_Library.c ****     @param  s  Desired text size. 1 is default 6x8, 2 is 12x16, 3 is 18x24, etc
 912:GFX_Library.c **** */
 913:GFX_Library.c **** /**************************************************************************/
 914:GFX_Library.c **** void display_setTextSize(uint8_t s) {
 2700              		.loc 1 914 0
 2701              		.cfi_startproc
 2702              		@ args = 0, pretend = 0, frame = 0
 2703              		@ frame_needed = 0, uses_anonymous_args = 0
 2704              		@ link register save eliminated.
 2705              	.LVL324:
 915:GFX_Library.c ****     textsize = (s > 0) ? s : 1;
 2706              		.loc 1 915 0
 2707 0000 0028     		cmp	r0, #0
 2708 0002 00D1     		bne	.L119
 2709 0004 0130     		adds	r0, r0, #1
 2710              	.LVL325:
 2711              	.L119:
 2712              		.loc 1 915 0 is_stmt 0 discriminator 4
 2713 0006 014B     		ldr	r3, .L121
 2714 0008 5870     		strb	r0, [r3, #1]
 916:GFX_Library.c **** }
 2715              		.loc 1 916 0 is_stmt 1 discriminator 4
 2716              		@ sp needed
 2717 000a 7047     		bx	lr
 2718              	.L122:
 2719              		.align	2
 2720              	.L121:
 2721 000c 00000000 		.word	.LANCHOR1
 2722              		.cfi_endproc
 2723              	.LFE51:
 2724              		.size	display_setTextSize, .-display_setTextSize
 2725              		.section	.text.display_setTextColor2,"ax",%progbits
 2726              		.align	2
 2727              		.global	display_setTextColor2
 2728              		.code	16
 2729              		.thumb_func
 2730              		.type	display_setTextColor2, %function
 2731              	display_setTextColor2:
 2732              	.LFB52:
 917:GFX_Library.c **** 
 918:GFX_Library.c **** /**************************************************************************/
 919:GFX_Library.c **** /*!
 920:GFX_Library.c ****     @brief   Set text font color with custom background color
 921:GFX_Library.c ****     @param   c   16-bit 5-6-5 Color to draw text with
 922:GFX_Library.c ****     @param   b   16-bit 5-6-5 Color to draw background/fill with
 923:GFX_Library.c **** */
 924:GFX_Library.c **** /**************************************************************************/
 925:GFX_Library.c **** void display_setTextColor2(uint16_t c, uint16_t b) {
 2733              		.loc 1 925 0
 2734              		.cfi_startproc
 2735              		@ args = 0, pretend = 0, frame = 0
 2736              		@ frame_needed = 0, uses_anonymous_args = 0
 2737              		@ link register save eliminated.
 2738              	.LVL326:
 926:GFX_Library.c ****     textcolor   = c;
 2739              		.loc 1 926 0
 2740 0000 014B     		ldr	r3, .L124
ARM GAS  C:\Users\PC\AppData\Local\Temp\ccKVdNiW.s 			page 66


 2741 0002 5880     		strh	r0, [r3, #2]
 927:GFX_Library.c ****     textbgcolor = b;
 2742              		.loc 1 927 0
 2743 0004 9980     		strh	r1, [r3, #4]
 928:GFX_Library.c **** }
 2744              		.loc 1 928 0
 2745              		@ sp needed
 2746 0006 7047     		bx	lr
 2747              	.L125:
 2748              		.align	2
 2749              	.L124:
 2750 0008 00000000 		.word	.LANCHOR1
 2751              		.cfi_endproc
 2752              	.LFE52:
 2753              		.size	display_setTextColor2, .-display_setTextColor2
 2754              		.section	.text.display_drawChar,"ax",%progbits
 2755              		.align	2
 2756              		.global	display_drawChar
 2757              		.code	16
 2758              		.thumb_func
 2759              		.type	display_drawChar, %function
 2760              	display_drawChar:
 2761              	.LFB47:
 857:GFX_Library.c ****   uint16_t prev_x     = cursor_x,
 2762              		.loc 1 857 0
 2763              		.cfi_startproc
 2764              		@ args = 8, pretend = 0, frame = 16
 2765              		@ frame_needed = 0, uses_anonymous_args = 0
 2766              	.LVL327:
 2767 0000 F0B5     		push	{r4, r5, r6, r7, lr}
 2768              		.cfi_def_cfa_offset 20
 2769              		.cfi_offset 4, -20
 2770              		.cfi_offset 5, -16
 2771              		.cfi_offset 6, -12
 2772              		.cfi_offset 7, -8
 2773              		.cfi_offset 14, -4
 2774 0002 5F46     		mov	r7, fp
 2775 0004 5646     		mov	r6, r10
 2776 0006 4D46     		mov	r5, r9
 2777 0008 4446     		mov	r4, r8
 2778 000a F0B4     		push	{r4, r5, r6, r7}
 2779              		.cfi_def_cfa_offset 36
 2780              		.cfi_offset 8, -36
 2781              		.cfi_offset 9, -32
 2782              		.cfi_offset 10, -28
 2783              		.cfi_offset 11, -24
 2784 000c 85B0     		sub	sp, sp, #20
 2785              		.cfi_def_cfa_offset 56
 2786 000e 0192     		str	r2, [sp, #4]
 2787 0010 0293     		str	r3, [sp, #8]
 2788 0012 0EAB     		add	r3, sp, #56
 2789              	.LVL328:
 2790 0014 1C88     		ldrh	r4, [r3]
 2791 0016 0394     		str	r4, [sp, #12]
 2792 0018 0FAB     		add	r3, sp, #60
 2793              	.LVL329:
 2794 001a 1D78     		ldrb	r5, [r3]
ARM GAS  C:\Users\PC\AppData\Local\Temp\ccKVdNiW.s 			page 67


 2795 001c AB46     		mov	fp, r5
 858:GFX_Library.c ****            prev_y     = cursor_y,
 2796              		.loc 1 858 0
 2797 001e 134D     		ldr	r5, .L127
 2798 0020 0027     		movs	r7, #0
 2799 0022 EE5F     		ldrsh	r6, [r5, r7]
 2800 0024 B246     		mov	r10, r6
 2801              	.LVL330:
 859:GFX_Library.c ****            prev_color = textcolor,
 2802              		.loc 1 859 0
 2803 0026 0227     		movs	r7, #2
 2804 0028 EE5F     		ldrsh	r6, [r5, r7]
 2805 002a B146     		mov	r9, r6
 2806              	.LVL331:
 860:GFX_Library.c ****            prev_bg    = textbgcolor;
 2807              		.loc 1 860 0
 2808 002c 104C     		ldr	r4, .L127+4
 2809 002e 6688     		ldrh	r6, [r4, #2]
 2810 0030 B046     		mov	r8, r6
 2811              	.LVL332:
 861:GFX_Library.c ****   uint8_t  prev_size  = textsize;
 2812              		.loc 1 861 0
 2813 0032 A788     		ldrh	r7, [r4, #4]
 2814              	.LVL333:
 862:GFX_Library.c **** 
 2815              		.loc 1 862 0
 2816 0034 6678     		ldrb	r6, [r4, #1]
 2817              	.LVL334:
 864:GFX_Library.c ****   display_setTextSize(size);
 2818              		.loc 1 864 0
 2819 0036 FFF7FEFF 		bl	display_setCursor
 2820              	.LVL335:
 865:GFX_Library.c ****   display_setTextColor2(color, bg);
 2821              		.loc 1 865 0
 2822 003a 5846     		mov	r0, fp
 2823 003c FFF7FEFF 		bl	display_setTextSize
 2824              	.LVL336:
 866:GFX_Library.c ****   display_print(c);
 2825              		.loc 1 866 0
 2826 0040 0399     		ldr	r1, [sp, #12]
 2827 0042 0298     		ldr	r0, [sp, #8]
 2828 0044 FFF7FEFF 		bl	display_setTextColor2
 2829              	.LVL337:
 867:GFX_Library.c **** 
 2830              		.loc 1 867 0
 2831 0048 0198     		ldr	r0, [sp, #4]
 2832 004a FFF7FEFF 		bl	display_print
 2833              	.LVL338:
 869:GFX_Library.c ****   cursor_y    = prev_y;
 2834              		.loc 1 869 0
 2835 004e 5346     		mov	r3, r10
 2836 0050 2B80     		strh	r3, [r5]
 870:GFX_Library.c ****   textcolor   = prev_color;
 2837              		.loc 1 870 0
 2838 0052 4B46     		mov	r3, r9
 2839 0054 6B80     		strh	r3, [r5, #2]
 871:GFX_Library.c ****   textbgcolor = prev_bg;
ARM GAS  C:\Users\PC\AppData\Local\Temp\ccKVdNiW.s 			page 68


 2840              		.loc 1 871 0
 2841 0056 4346     		mov	r3, r8
 2842 0058 6380     		strh	r3, [r4, #2]
 872:GFX_Library.c ****   textsize    = prev_size;
 2843              		.loc 1 872 0
 2844 005a A780     		strh	r7, [r4, #4]
 873:GFX_Library.c **** }
 2845              		.loc 1 873 0
 2846 005c 6670     		strb	r6, [r4, #1]
 874:GFX_Library.c **** 
 2847              		.loc 1 874 0
 2848 005e 05B0     		add	sp, sp, #20
 2849              		@ sp needed
 2850              	.LVL339:
 2851              	.LVL340:
 2852              	.LVL341:
 2853              	.LVL342:
 2854              	.LVL343:
 2855 0060 3CBC     		pop	{r2, r3, r4, r5}
 2856 0062 9046     		mov	r8, r2
 2857 0064 9946     		mov	r9, r3
 2858 0066 A246     		mov	r10, r4
 2859 0068 AB46     		mov	fp, r5
 2860 006a F0BD     		pop	{r4, r5, r6, r7, pc}
 2861              	.L128:
 2862              		.align	2
 2863              	.L127:
 2864 006c 00000000 		.word	.LANCHOR0
 2865 0070 00000000 		.word	.LANCHOR1
 2866              		.cfi_endproc
 2867              	.LFE47:
 2868              		.size	display_drawChar, .-display_drawChar
 2869              		.section	.text.display_setTextColor,"ax",%progbits
 2870              		.align	2
 2871              		.global	display_setTextColor
 2872              		.code	16
 2873              		.thumb_func
 2874              		.type	display_setTextColor, %function
 2875              	display_setTextColor:
 2876              	.LFB53:
 929:GFX_Library.c **** 
 930:GFX_Library.c **** /**************************************************************************/
 931:GFX_Library.c **** /*!
 932:GFX_Library.c ****     @brief   Set text font color with transparant background
 933:GFX_Library.c ****     @param   c   16-bit 5-6-5 Color to draw text with
 934:GFX_Library.c **** */
 935:GFX_Library.c **** /**************************************************************************/
 936:GFX_Library.c **** void display_setTextColor(uint16_t c) {
 2877              		.loc 1 936 0
 2878              		.cfi_startproc
 2879              		@ args = 0, pretend = 0, frame = 0
 2880              		@ frame_needed = 0, uses_anonymous_args = 0
 2881              		@ link register save eliminated.
 2882              	.LVL344:
 937:GFX_Library.c ****   textcolor = textbgcolor = c;
 2883              		.loc 1 937 0
 2884 0000 014B     		ldr	r3, .L130
ARM GAS  C:\Users\PC\AppData\Local\Temp\ccKVdNiW.s 			page 69


 2885 0002 9880     		strh	r0, [r3, #4]
 2886 0004 5880     		strh	r0, [r3, #2]
 938:GFX_Library.c **** }
 2887              		.loc 1 938 0
 2888              		@ sp needed
 2889 0006 7047     		bx	lr
 2890              	.L131:
 2891              		.align	2
 2892              	.L130:
 2893 0008 00000000 		.word	.LANCHOR1
 2894              		.cfi_endproc
 2895              	.LFE53:
 2896              		.size	display_setTextColor, .-display_setTextColor
 2897              		.section	.text.display_setTextWrap,"ax",%progbits
 2898              		.align	2
 2899              		.global	display_setTextWrap
 2900              		.code	16
 2901              		.thumb_func
 2902              		.type	display_setTextWrap, %function
 2903              	display_setTextWrap:
 2904              	.LFB54:
 939:GFX_Library.c **** 
 940:GFX_Library.c **** /**************************************************************************/
 941:GFX_Library.c **** /*!
 942:GFX_Library.c ****     @brief      Whether text that is too long should 'wrap' around to the next line.
 943:GFX_Library.c ****     @param  w Set true for wrapping, false for clipping
 944:GFX_Library.c **** */
 945:GFX_Library.c **** /**************************************************************************/
 946:GFX_Library.c **** void display_setTextWrap(bool w) {
 2905              		.loc 1 946 0
 2906              		.cfi_startproc
 2907              		@ args = 0, pretend = 0, frame = 0
 2908              		@ frame_needed = 0, uses_anonymous_args = 0
 2909              		@ link register save eliminated.
 2910              	.LVL345:
 947:GFX_Library.c ****     wrap = w;
 2911              		.loc 1 947 0
 2912 0000 014B     		ldr	r3, .L133
 2913 0002 1870     		strb	r0, [r3]
 948:GFX_Library.c **** }
 2914              		.loc 1 948 0
 2915              		@ sp needed
 2916 0004 7047     		bx	lr
 2917              	.L134:
 2918 0006 C046     		.align	2
 2919              	.L133:
 2920 0008 00000000 		.word	.LANCHOR1
 2921              		.cfi_endproc
 2922              	.LFE54:
 2923              		.size	display_setTextWrap, .-display_setTextWrap
 2924              		.section	.text.display_getRotation,"ax",%progbits
 2925              		.align	2
 2926              		.global	display_getRotation
 2927              		.code	16
 2928              		.thumb_func
 2929              		.type	display_getRotation, %function
 2930              	display_getRotation:
ARM GAS  C:\Users\PC\AppData\Local\Temp\ccKVdNiW.s 			page 70


 2931              	.LFB55:
 949:GFX_Library.c **** 
 950:GFX_Library.c **** /**************************************************************************/
 951:GFX_Library.c **** /*!
 952:GFX_Library.c ****     @brief      Get rotation setting for display
 953:GFX_Library.c ****     @returns    0 thru 3 corresponding to 4 cardinal rotations
 954:GFX_Library.c **** */
 955:GFX_Library.c **** /**************************************************************************/
 956:GFX_Library.c **** uint8_t display_getRotation(void) {
 2932              		.loc 1 956 0
 2933              		.cfi_startproc
 2934              		@ args = 0, pretend = 0, frame = 0
 2935              		@ frame_needed = 0, uses_anonymous_args = 0
 2936              		@ link register save eliminated.
 957:GFX_Library.c ****     return rotation;
 2937              		.loc 1 957 0
 2938 0000 014B     		ldr	r3, .L136
 2939 0002 1878     		ldrb	r0, [r3]
 958:GFX_Library.c **** }
 2940              		.loc 1 958 0
 2941              		@ sp needed
 2942 0004 7047     		bx	lr
 2943              	.L137:
 2944 0006 C046     		.align	2
 2945              	.L136:
 2946 0008 00000000 		.word	rotation
 2947              		.cfi_endproc
 2948              	.LFE55:
 2949              		.size	display_getRotation, .-display_getRotation
 2950              		.section	.text.display_getWidth,"ax",%progbits
 2951              		.align	2
 2952              		.global	display_getWidth
 2953              		.code	16
 2954              		.thumb_func
 2955              		.type	display_getWidth, %function
 2956              	display_getWidth:
 2957              	.LFB56:
 959:GFX_Library.c **** 
 960:GFX_Library.c **** /**************************************************************************/
 961:GFX_Library.c **** /*!
 962:GFX_Library.c ****     @brief      Get width of the display, accounting for the current rotation
 963:GFX_Library.c ****     @returns    Width in pixels
 964:GFX_Library.c **** */
 965:GFX_Library.c **** /**************************************************************************/
 966:GFX_Library.c **** uint16_t display_getWidth(void) {
 2958              		.loc 1 966 0
 2959              		.cfi_startproc
 2960              		@ args = 0, pretend = 0, frame = 0
 2961              		@ frame_needed = 0, uses_anonymous_args = 0
 2962              		@ link register save eliminated.
 967:GFX_Library.c ****     return display_width;
 2963              		.loc 1 967 0
 2964 0000 014B     		ldr	r3, .L139
 2965 0002 1878     		ldrb	r0, [r3]
 968:GFX_Library.c **** }
 2966              		.loc 1 968 0
 2967              		@ sp needed
ARM GAS  C:\Users\PC\AppData\Local\Temp\ccKVdNiW.s 			page 71


 2968 0004 7047     		bx	lr
 2969              	.L140:
 2970 0006 C046     		.align	2
 2971              	.L139:
 2972 0008 00000000 		.word	_width
 2973              		.cfi_endproc
 2974              	.LFE56:
 2975              		.size	display_getWidth, .-display_getWidth
 2976              		.section	.text.display_getHeight,"ax",%progbits
 2977              		.align	2
 2978              		.global	display_getHeight
 2979              		.code	16
 2980              		.thumb_func
 2981              		.type	display_getHeight, %function
 2982              	display_getHeight:
 2983              	.LFB57:
 969:GFX_Library.c **** 
 970:GFX_Library.c **** /**************************************************************************/
 971:GFX_Library.c **** /*!
 972:GFX_Library.c ****     @brief      Get height of the display, accounting for the current rotation
 973:GFX_Library.c ****     @returns    Height in pixels
 974:GFX_Library.c **** */
 975:GFX_Library.c **** /**************************************************************************/
 976:GFX_Library.c **** uint16_t display_getHeight(void) {
 2984              		.loc 1 976 0
 2985              		.cfi_startproc
 2986              		@ args = 0, pretend = 0, frame = 0
 2987              		@ frame_needed = 0, uses_anonymous_args = 0
 2988              		@ link register save eliminated.
 977:GFX_Library.c ****     return display_height;
 2989              		.loc 1 977 0
 2990 0000 014B     		ldr	r3, .L142
 2991 0002 1878     		ldrb	r0, [r3]
 978:GFX_Library.c **** }
 2992              		.loc 1 978 0
 2993              		@ sp needed
 2994 0004 7047     		bx	lr
 2995              	.L143:
 2996 0006 C046     		.align	2
 2997              	.L142:
 2998 0008 00000000 		.word	_height
 2999              		.cfi_endproc
 3000              	.LFE57:
 3001              		.size	display_getHeight, .-display_getHeight
 3002              		.section	.text.display_color565,"ax",%progbits
 3003              		.align	2
 3004              		.global	display_color565
 3005              		.code	16
 3006              		.thumb_func
 3007              		.type	display_color565, %function
 3008              	display_color565:
 3009              	.LFB58:
 979:GFX_Library.c **** 
 980:GFX_Library.c **** /**************************************************************************/
 981:GFX_Library.c **** /*!
 982:GFX_Library.c ****     @brief   Given 8-bit red, green and blue values, return a 'packed'
 983:GFX_Library.c ****              16-bit color value in '565' RGB format (5 bits red, 6 bits
ARM GAS  C:\Users\PC\AppData\Local\Temp\ccKVdNiW.s 			page 72


 984:GFX_Library.c ****              green, 5 bits blue). This is just a mathematical operation,
 985:GFX_Library.c ****              no hardware is touched.
 986:GFX_Library.c ****     @param   red    8-bit red brightnesss (0 = off, 255 = max).
 987:GFX_Library.c ****     @param   green  8-bit green brightnesss (0 = off, 255 = max).
 988:GFX_Library.c ****     @param   blue   8-bit blue brightnesss (0 = off, 255 = max).
 989:GFX_Library.c ****     @return  'Packed' 16-bit color value (565 format).
 990:GFX_Library.c **** */
 991:GFX_Library.c **** /**************************************************************************/
 992:GFX_Library.c **** uint16_t display_color565(uint8_t red, uint8_t green, uint8_t blue) {
 3010              		.loc 1 992 0
 3011              		.cfi_startproc
 3012              		@ args = 0, pretend = 0, frame = 0
 3013              		@ frame_needed = 0, uses_anonymous_args = 0
 3014              		@ link register save eliminated.
 3015              	.LVL346:
 993:GFX_Library.c ****     return ((uint16_t)(red & 0xF8) << 8) | ((uint16_t)(green & 0xFC) << 3) | (blue >> 3);
 3016              		.loc 1 993 0
 3017 0000 C900     		lsls	r1, r1, #3
 3018              	.LVL347:
 3019 0002 C008     		lsrs	r0, r0, #3
 3020              	.LVL348:
 3021 0004 C002     		lsls	r0, r0, #11
 3022 0006 FC23     		movs	r3, #252
 3023 0008 DB00     		lsls	r3, r3, #3
 3024 000a 1940     		ands	r1, r3
 3025 000c 0143     		orrs	r1, r0
 3026 000e D008     		lsrs	r0, r2, #3
 3027 0010 0843     		orrs	r0, r1
 994:GFX_Library.c **** }
 3028              		.loc 1 994 0
 3029              		@ sp needed
 3030 0012 7047     		bx	lr
 3031              		.cfi_endproc
 3032              	.LFE58:
 3033              		.size	display_color565, .-display_color565
 3034              		.section	.text.display_drawBitmapV1,"ax",%progbits
 3035              		.align	2
 3036              		.global	display_drawBitmapV1
 3037              		.code	16
 3038              		.thumb_func
 3039              		.type	display_drawBitmapV1, %function
 3040              	display_drawBitmapV1:
 3041              	.LFB59:
 995:GFX_Library.c **** 
 996:GFX_Library.c **** /**************************************************************************/
 997:GFX_Library.c **** /*!
 998:GFX_Library.c ****    @brief     Draw a ROM-resident 1-bit image at the specified (x,y) position,
 999:GFX_Library.c ****               using the specified foreground color (unset bits are transparent).
1000:GFX_Library.c ****     @param    x   Top left corner x coordinate
1001:GFX_Library.c ****     @param    y   Top left corner y coordinate
1002:GFX_Library.c ****     @param    bitmap  byte array with monochrome bitmap
1003:GFX_Library.c ****     @param    w   Width of bitmap in pixels
1004:GFX_Library.c ****     @param    h   Hieght of bitmap in pixels
1005:GFX_Library.c ****     @param    color 16-bit 5-6-5 Color to draw with
1006:GFX_Library.c **** */
1007:GFX_Library.c **** /**************************************************************************/
1008:GFX_Library.c **** void display_drawBitmapV1(uint16_t x, uint16_t y, const uint8_t *bitmap, uint16_t w, uint16_t h,
ARM GAS  C:\Users\PC\AppData\Local\Temp\ccKVdNiW.s 			page 73


1009:GFX_Library.c ****      uint16_t color) {
 3042              		.loc 1 1009 0
 3043              		.cfi_startproc
 3044              		@ args = 8, pretend = 0, frame = 8
 3045              		@ frame_needed = 0, uses_anonymous_args = 0
 3046              	.LVL349:
 3047 0000 F0B5     		push	{r4, r5, r6, r7, lr}
 3048              		.cfi_def_cfa_offset 20
 3049              		.cfi_offset 4, -20
 3050              		.cfi_offset 5, -16
 3051              		.cfi_offset 6, -12
 3052              		.cfi_offset 7, -8
 3053              		.cfi_offset 14, -4
 3054 0002 5746     		mov	r7, r10
 3055 0004 4E46     		mov	r6, r9
 3056 0006 4546     		mov	r5, r8
 3057 0008 E0B4     		push	{r5, r6, r7}
 3058              		.cfi_def_cfa_offset 32
 3059              		.cfi_offset 8, -32
 3060              		.cfi_offset 9, -28
 3061              		.cfi_offset 10, -24
 3062 000a 82B0     		sub	sp, sp, #8
 3063              		.cfi_def_cfa_offset 40
 3064 000c 8246     		mov	r10, r0
 3065 000e 8946     		mov	r9, r1
 3066 0010 1700     		movs	r7, r2
 3067 0012 1D00     		movs	r5, r3
 3068 0014 0AAB     		add	r3, sp, #40
 3069              	.LVL350:
 3070 0016 1B88     		ldrh	r3, [r3]
 3071              	.LVL351:
 3072 0018 9846     		mov	r8, r3
 3073 001a 0BAB     		add	r3, sp, #44
 3074              	.LVL352:
 3075 001c 1B88     		ldrh	r3, [r3]
 3076              	.LVL353:
 3077 001e 0193     		str	r3, [sp, #4]
 3078              	.LVL354:
 3079              	.LBB21:
1010:GFX_Library.c ****   for( uint16_t i = 0; i < h/8; i++)
 3080              		.loc 1 1010 0
 3081 0020 0026     		movs	r6, #0
 3082 0022 1EE0     		b	.L146
 3083              	.LVL355:
 3084              	.L148:
 3085              	.LBB22:
1011:GFX_Library.c ****   {    
1012:GFX_Library.c ****     for( uint16_t j = 0; j < w * 8; j++)
1013:GFX_Library.c ****     {      
1014:GFX_Library.c ****       if( bitmap[j/8 + i*w] & (1 << (j % 8)) )
 3086              		.loc 1 1014 0
 3087 0024 E008     		lsrs	r0, r4, #3
 3088 0026 2B00     		movs	r3, r5
 3089 0028 7343     		muls	r3, r6
 3090 002a C318     		adds	r3, r0, r3
 3091 002c FB5C     		ldrb	r3, [r7, r3]
 3092 002e 0722     		movs	r2, #7
ARM GAS  C:\Users\PC\AppData\Local\Temp\ccKVdNiW.s 			page 74


 3093 0030 2240     		ands	r2, r4
 3094 0032 1341     		asrs	r3, r3, r2
 3095 0034 DB07     		lsls	r3, r3, #31
 3096 0036 0BD5     		bpl	.L147
1015:GFX_Library.c ****         display_drawPixel(x + j/8, y + i*8 + (j % 8), color);
 3097              		.loc 1 1015 0
 3098 0038 6B46     		mov	r3, sp
 3099 003a 1A79     		ldrb	r2, [r3, #4]
 3100 003c F100     		lsls	r1, r6, #3
 3101 003e 4944     		add	r1, r1, r9
 3102 0040 0723     		movs	r3, #7
 3103 0042 2340     		ands	r3, r4
 3104 0044 C918     		adds	r1, r1, r3
 3105 0046 C9B2     		uxtb	r1, r1
 3106 0048 5044     		add	r0, r0, r10
 3107 004a C0B2     		uxtb	r0, r0
 3108 004c FFF7FEFF 		bl	drawPixel
 3109              	.LVL356:
 3110              	.L147:
1012:GFX_Library.c ****     {      
 3111              		.loc 1 1012 0 discriminator 2
 3112 0050 0134     		adds	r4, r4, #1
 3113              	.LVL357:
 3114 0052 A4B2     		uxth	r4, r4
 3115              	.LVL358:
 3116 0054 00E0     		b	.L149
 3117              	.LVL359:
 3118              	.L150:
 3119              	.LBE22:
 3120 0056 0024     		movs	r4, #0
 3121              	.L149:
 3122              	.LVL360:
 3123              	.LBB23:
1012:GFX_Library.c ****     {      
 3124              		.loc 1 1012 0 is_stmt 0 discriminator 1
 3125 0058 EB00     		lsls	r3, r5, #3
 3126 005a 9C42     		cmp	r4, r3
 3127 005c E2DB     		blt	.L148
 3128              	.LBE23:
1010:GFX_Library.c ****   {    
 3129              		.loc 1 1010 0 is_stmt 1 discriminator 2
 3130 005e 0136     		adds	r6, r6, #1
 3131              	.LVL361:
 3132 0060 B6B2     		uxth	r6, r6
 3133              	.LVL362:
 3134              	.L146:
1010:GFX_Library.c ****   {    
 3135              		.loc 1 1010 0 is_stmt 0 discriminator 1
 3136 0062 4346     		mov	r3, r8
 3137 0064 DB08     		lsrs	r3, r3, #3
 3138 0066 9E42     		cmp	r6, r3
 3139 0068 F5D3     		bcc	.L150
 3140              	.LBE21:
1016:GFX_Library.c ****     }
1017:GFX_Library.c ****   }
1018:GFX_Library.c **** }
 3141              		.loc 1 1018 0 is_stmt 1
ARM GAS  C:\Users\PC\AppData\Local\Temp\ccKVdNiW.s 			page 75


 3142 006a 02B0     		add	sp, sp, #8
 3143              		@ sp needed
 3144              	.LVL363:
 3145              	.LVL364:
 3146 006c 1CBC     		pop	{r2, r3, r4}
 3147 006e 9046     		mov	r8, r2
 3148 0070 9946     		mov	r9, r3
 3149 0072 A246     		mov	r10, r4
 3150 0074 F0BD     		pop	{r4, r5, r6, r7, pc}
 3151              		.cfi_endproc
 3152              	.LFE59:
 3153              		.size	display_drawBitmapV1, .-display_drawBitmapV1
 3154 0076 C046     		.section	.text.display_drawBitmapV1_bg,"ax",%progbits
 3155              		.align	2
 3156              		.global	display_drawBitmapV1_bg
 3157              		.code	16
 3158              		.thumb_func
 3159              		.type	display_drawBitmapV1_bg, %function
 3160              	display_drawBitmapV1_bg:
 3161              	.LFB60:
1019:GFX_Library.c **** 
1020:GFX_Library.c **** /**************************************************************************/
1021:GFX_Library.c **** /*!
1022:GFX_Library.c ****    @brief     Draw a ROM-resident 1-bit image at the specified (x,y) position,
1023:GFX_Library.c ****               using the specified foreground (for set bits) and background (unset bits) colors.
1024:GFX_Library.c ****     @param    x   Top left corner x coordinate
1025:GFX_Library.c ****     @param    y   Top left corner y coordinate
1026:GFX_Library.c ****     @param    bitmap  byte array with monochrome bitmap
1027:GFX_Library.c ****     @param    w   Width of bitmap in pixels
1028:GFX_Library.c ****     @param    h   Hieght of bitmap in pixels
1029:GFX_Library.c ****     @param    color 16-bit 5-6-5 Color to draw pixels with
1030:GFX_Library.c ****     @param    bg 16-bit 5-6-5 Color to draw background with
1031:GFX_Library.c **** */
1032:GFX_Library.c **** /**************************************************************************/
1033:GFX_Library.c **** void display_drawBitmapV1_bg(uint16_t x, uint16_t y, const uint8_t *bitmap, uint16_t w, uint16_t h,
1034:GFX_Library.c ****      uint16_t color, uint16_t bg) {
 3162              		.loc 1 1034 0
 3163              		.cfi_startproc
 3164              		@ args = 12, pretend = 0, frame = 8
 3165              		@ frame_needed = 0, uses_anonymous_args = 0
 3166              	.LVL365:
 3167 0000 F0B5     		push	{r4, r5, r6, r7, lr}
 3168              		.cfi_def_cfa_offset 20
 3169              		.cfi_offset 4, -20
 3170              		.cfi_offset 5, -16
 3171              		.cfi_offset 6, -12
 3172              		.cfi_offset 7, -8
 3173              		.cfi_offset 14, -4
 3174 0002 5F46     		mov	r7, fp
 3175 0004 5646     		mov	r6, r10
 3176 0006 4D46     		mov	r5, r9
 3177 0008 E0B4     		push	{r5, r6, r7}
 3178              		.cfi_def_cfa_offset 32
 3179              		.cfi_offset 9, -32
 3180              		.cfi_offset 10, -28
 3181              		.cfi_offset 11, -24
 3182 000a 82B0     		sub	sp, sp, #8
ARM GAS  C:\Users\PC\AppData\Local\Temp\ccKVdNiW.s 			page 76


 3183              		.cfi_def_cfa_offset 40
 3184 000c 8246     		mov	r10, r0
 3185 000e 8946     		mov	r9, r1
 3186 0010 1700     		movs	r7, r2
 3187 0012 1E00     		movs	r6, r3
 3188 0014 0AAB     		add	r3, sp, #40
 3189              	.LVL366:
 3190 0016 1B88     		ldrh	r3, [r3]
 3191              	.LVL367:
 3192 0018 9B46     		mov	fp, r3
 3193 001a 0BAB     		add	r3, sp, #44
 3194              	.LVL368:
 3195 001c 1B88     		ldrh	r3, [r3]
 3196              	.LVL369:
 3197 001e 0093     		str	r3, [sp]
 3198 0020 0CAB     		add	r3, sp, #48
 3199              	.LVL370:
 3200 0022 1B88     		ldrh	r3, [r3]
 3201              	.LVL371:
 3202 0024 0193     		str	r3, [sp, #4]
 3203              	.LVL372:
 3204              	.LBB24:
1035:GFX_Library.c ****   for( uint16_t i = 0; i < h/8; i++)
 3205              		.loc 1 1035 0
 3206 0026 0025     		movs	r5, #0
 3207 0028 2BE0     		b	.L152
 3208              	.LVL373:
 3209              	.L155:
 3210              	.LBB25:
1036:GFX_Library.c ****   {    
1037:GFX_Library.c ****     for( uint16_t j = 0; j < w * 8; j++)
1038:GFX_Library.c ****     {      
1039:GFX_Library.c ****       if( bitmap[j/8 + i*w] & (1 << (j % 8)) )
 3211              		.loc 1 1039 0
 3212 002a E008     		lsrs	r0, r4, #3
 3213 002c 3300     		movs	r3, r6
 3214 002e 6B43     		muls	r3, r5
 3215 0030 C318     		adds	r3, r0, r3
 3216 0032 FB5C     		ldrb	r3, [r7, r3]
 3217 0034 0722     		movs	r2, #7
 3218 0036 2240     		ands	r2, r4
 3219 0038 1341     		asrs	r3, r3, r2
 3220 003a DB07     		lsls	r3, r3, #31
 3221 003c 0CD5     		bpl	.L153
1040:GFX_Library.c ****         display_drawPixel(x + j/8, y + i*8 + (j % 8), color);
 3222              		.loc 1 1040 0
 3223 003e 6B46     		mov	r3, sp
 3224 0040 1A78     		ldrb	r2, [r3]
 3225 0042 E900     		lsls	r1, r5, #3
 3226 0044 4944     		add	r1, r1, r9
 3227 0046 0723     		movs	r3, #7
 3228 0048 2340     		ands	r3, r4
 3229 004a C918     		adds	r1, r1, r3
 3230 004c C9B2     		uxtb	r1, r1
 3231 004e 5044     		add	r0, r0, r10
 3232 0050 C0B2     		uxtb	r0, r0
 3233 0052 FFF7FEFF 		bl	drawPixel
ARM GAS  C:\Users\PC\AppData\Local\Temp\ccKVdNiW.s 			page 77


 3234              	.LVL374:
 3235 0056 0BE0     		b	.L154
 3236              	.L153:
1041:GFX_Library.c ****       else
1042:GFX_Library.c ****         display_drawPixel(x + j/8, y + i*8 + (j % 8), bg);
 3237              		.loc 1 1042 0
 3238 0058 6B46     		mov	r3, sp
 3239 005a 1A79     		ldrb	r2, [r3, #4]
 3240 005c E900     		lsls	r1, r5, #3
 3241 005e 4944     		add	r1, r1, r9
 3242 0060 0723     		movs	r3, #7
 3243 0062 2340     		ands	r3, r4
 3244 0064 C918     		adds	r1, r1, r3
 3245 0066 C9B2     		uxtb	r1, r1
 3246 0068 5044     		add	r0, r0, r10
 3247 006a C0B2     		uxtb	r0, r0
 3248 006c FFF7FEFF 		bl	drawPixel
 3249              	.LVL375:
 3250              	.L154:
1037:GFX_Library.c ****     {      
 3251              		.loc 1 1037 0 discriminator 2
 3252 0070 0134     		adds	r4, r4, #1
 3253              	.LVL376:
 3254 0072 A4B2     		uxth	r4, r4
 3255              	.LVL377:
 3256 0074 00E0     		b	.L156
 3257              	.LVL378:
 3258              	.L157:
 3259              	.LBE25:
 3260 0076 0024     		movs	r4, #0
 3261              	.L156:
 3262              	.LVL379:
 3263              	.LBB26:
1037:GFX_Library.c ****     {      
 3264              		.loc 1 1037 0 is_stmt 0 discriminator 1
 3265 0078 F300     		lsls	r3, r6, #3
 3266 007a 9C42     		cmp	r4, r3
 3267 007c D5DB     		blt	.L155
 3268              	.LBE26:
1035:GFX_Library.c ****   {    
 3269              		.loc 1 1035 0 is_stmt 1 discriminator 2
 3270 007e 0135     		adds	r5, r5, #1
 3271              	.LVL380:
 3272 0080 ADB2     		uxth	r5, r5
 3273              	.LVL381:
 3274              	.L152:
1035:GFX_Library.c ****   {    
 3275              		.loc 1 1035 0 is_stmt 0 discriminator 1
 3276 0082 5B46     		mov	r3, fp
 3277 0084 DB08     		lsrs	r3, r3, #3
 3278 0086 9D42     		cmp	r5, r3
 3279 0088 F5D3     		bcc	.L157
 3280              	.LBE24:
1043:GFX_Library.c ****     }
1044:GFX_Library.c ****   }
1045:GFX_Library.c **** }
 3281              		.loc 1 1045 0 is_stmt 1
ARM GAS  C:\Users\PC\AppData\Local\Temp\ccKVdNiW.s 			page 78


 3282 008a 02B0     		add	sp, sp, #8
 3283              		@ sp needed
 3284              	.LVL382:
 3285              	.LVL383:
 3286 008c 1CBC     		pop	{r2, r3, r4}
 3287 008e 9146     		mov	r9, r2
 3288 0090 9A46     		mov	r10, r3
 3289 0092 A346     		mov	fp, r4
 3290 0094 F0BD     		pop	{r4, r5, r6, r7, pc}
 3291              		.cfi_endproc
 3292              	.LFE60:
 3293              		.size	display_drawBitmapV1_bg, .-display_drawBitmapV1_bg
 3294 0096 C046     		.section	.text.display_drawBitmapV2,"ax",%progbits
 3295              		.align	2
 3296              		.global	display_drawBitmapV2
 3297              		.code	16
 3298              		.thumb_func
 3299              		.type	display_drawBitmapV2, %function
 3300              	display_drawBitmapV2:
 3301              	.LFB61:
1046:GFX_Library.c **** 
1047:GFX_Library.c **** /**************************************************************************/
1048:GFX_Library.c **** /*!
1049:GFX_Library.c ****    @brief     Draw a ROM-resident 1-bit image at the specified (x,y) position,
1050:GFX_Library.c ****               using the specified foreground color (unset bits are transparent).
1051:GFX_Library.c ****     @param    x   Top left corner x coordinate
1052:GFX_Library.c ****     @param    y   Top left corner y coordinate
1053:GFX_Library.c ****     @param    bitmap  byte array with monochrome bitmap
1054:GFX_Library.c ****     @param    w   Width of bitmap in pixels
1055:GFX_Library.c ****     @param    h   Hieght of bitmap in pixels
1056:GFX_Library.c ****     @param    color 16-bit 5-6-5 Color to draw pixels with
1057:GFX_Library.c **** */
1058:GFX_Library.c **** /**************************************************************************/
1059:GFX_Library.c **** void display_drawBitmapV2(uint16_t x, uint16_t y, const uint8_t *bitmap, uint16_t w, uint16_t h,
1060:GFX_Library.c ****   uint16_t color) {
 3302              		.loc 1 1060 0
 3303              		.cfi_startproc
 3304              		@ args = 8, pretend = 0, frame = 16
 3305              		@ frame_needed = 0, uses_anonymous_args = 0
 3306              	.LVL384:
 3307 0000 F0B5     		push	{r4, r5, r6, r7, lr}
 3308              		.cfi_def_cfa_offset 20
 3309              		.cfi_offset 4, -20
 3310              		.cfi_offset 5, -16
 3311              		.cfi_offset 6, -12
 3312              		.cfi_offset 7, -8
 3313              		.cfi_offset 14, -4
 3314 0002 5F46     		mov	r7, fp
 3315 0004 5646     		mov	r6, r10
 3316 0006 4D46     		mov	r5, r9
 3317 0008 4446     		mov	r4, r8
 3318 000a F0B4     		push	{r4, r5, r6, r7}
 3319              		.cfi_def_cfa_offset 36
 3320              		.cfi_offset 8, -36
 3321              		.cfi_offset 9, -32
 3322              		.cfi_offset 10, -28
 3323              		.cfi_offset 11, -24
ARM GAS  C:\Users\PC\AppData\Local\Temp\ccKVdNiW.s 			page 79


 3324 000c 85B0     		sub	sp, sp, #20
 3325              		.cfi_def_cfa_offset 56
 3326 000e 8246     		mov	r10, r0
 3327 0010 0191     		str	r1, [sp, #4]
 3328 0012 9346     		mov	fp, r2
 3329 0014 0EAA     		add	r2, sp, #56
 3330              	.LVL385:
 3331 0016 1288     		ldrh	r2, [r2]
 3332              	.LVL386:
 3333 0018 0392     		str	r2, [sp, #12]
 3334 001a 0FAA     		add	r2, sp, #60
 3335              	.LVL387:
 3336 001c 1288     		ldrh	r2, [r2]
 3337              	.LVL388:
 3338 001e 0292     		str	r2, [sp, #8]
1061:GFX_Library.c **** 
1062:GFX_Library.c ****     int16_t byteWidth = (w + 7) / 8; // Bitmap scanline pad = whole byte
 3339              		.loc 1 1062 0
 3340 0020 1E00     		movs	r6, r3
 3341 0022 0733     		adds	r3, r3, #7
 3342              	.LVL389:
 3343 0024 DA17     		asrs	r2, r3, #31
 3344 0026 0721     		movs	r1, #7
 3345              	.LVL390:
 3346 0028 0A40     		ands	r2, r1
 3347 002a D318     		adds	r3, r2, r3
 3348 002c DB10     		asrs	r3, r3, #3
 3349 002e 9946     		mov	r9, r3
 3350              	.LVL391:
 3351              	.LBB27:
1063:GFX_Library.c ****     uint8_t _byte = 0;
1064:GFX_Library.c **** 
1065:GFX_Library.c ****     for(int16_t j=0; j<h; j++, y++) {
 3352              		.loc 1 1065 0
 3353 0030 0027     		movs	r7, #0
 3354              	.LBE27:
1063:GFX_Library.c ****     uint8_t _byte = 0;
 3355              		.loc 1 1063 0
 3356 0032 0025     		movs	r5, #0
 3357              	.LBB30:
 3358              		.loc 1 1065 0
 3359 0034 2BE0     		b	.L159
 3360              	.LVL392:
 3361              	.L163:
 3362              	.LBB28:
1066:GFX_Library.c ****         for(int16_t i=0; i<w; i++ ) {
1067:GFX_Library.c ****             if(i & 7) _byte <<= 1;
 3363              		.loc 1 1067 0
 3364 0036 84B2     		uxth	r4, r0
 3365 0038 6307     		lsls	r3, r4, #29
 3366 003a 02D0     		beq	.L160
 3367              		.loc 1 1067 0 is_stmt 0 discriminator 1
 3368 003c 6D00     		lsls	r5, r5, #1
 3369              	.LVL393:
 3370 003e EDB2     		uxtb	r5, r5
 3371              	.LVL394:
 3372 0040 09E0     		b	.L161
ARM GAS  C:\Users\PC\AppData\Local\Temp\ccKVdNiW.s 			page 80


 3373              	.L160:
1068:GFX_Library.c ****             else      _byte   = bitmap[j * byteWidth + i / 8];
 3374              		.loc 1 1068 0 is_stmt 1
 3375 0042 C317     		asrs	r3, r0, #31
 3376 0044 0722     		movs	r2, #7
 3377 0046 1340     		ands	r3, r2
 3378 0048 1B18     		adds	r3, r3, r0
 3379 004a DB10     		asrs	r3, r3, #3
 3380 004c 4246     		mov	r2, r8
 3381 004e 7A43     		muls	r2, r7
 3382 0050 D318     		adds	r3, r2, r3
 3383 0052 5A46     		mov	r2, fp
 3384 0054 D55C     		ldrb	r5, [r2, r3]
 3385              	.LVL395:
 3386              	.L161:
1069:GFX_Library.c ****             if(_byte & 0x80)
 3387              		.loc 1 1069 0
 3388 0056 6BB2     		sxtb	r3, r5
 3389 0058 002B     		cmp	r3, #0
 3390 005a 06DA     		bge	.L162
1070:GFX_Library.c ****               display_drawPixel(x+i, y, color);
 3391              		.loc 1 1070 0
 3392 005c 6B46     		mov	r3, sp
 3393 005e 1A7A     		ldrb	r2, [r3, #8]
 3394 0060 1979     		ldrb	r1, [r3, #4]
 3395 0062 5044     		add	r0, r0, r10
 3396              	.LVL396:
 3397 0064 C0B2     		uxtb	r0, r0
 3398 0066 FFF7FEFF 		bl	drawPixel
 3399              	.LVL397:
 3400              	.L162:
1066:GFX_Library.c ****             if(i & 7) _byte <<= 1;
 3401              		.loc 1 1066 0 discriminator 2
 3402 006a 0134     		adds	r4, r4, #1
 3403              	.LVL398:
 3404 006c 20B2     		sxth	r0, r4
 3405              	.LVL399:
 3406 006e 03E0     		b	.L164
 3407              	.LVL400:
 3408              	.L165:
 3409              	.LBE28:
 3410 0070 0020     		movs	r0, #0
 3411 0072 4B46     		mov	r3, r9
 3412 0074 B946     		mov	r9, r7
 3413              	.LVL401:
 3414 0076 1F00     		movs	r7, r3
 3415              	.LVL402:
 3416              	.L164:
 3417              	.LBB29:
1066:GFX_Library.c ****             if(i & 7) _byte <<= 1;
 3418              		.loc 1 1066 0 is_stmt 0 discriminator 1
 3419 0078 8642     		cmp	r6, r0
 3420 007a DCDC     		bgt	.L163
 3421 007c 3B00     		movs	r3, r7
 3422 007e 4F46     		mov	r7, r9
 3423              	.LVL403:
 3424 0080 9946     		mov	r9, r3
ARM GAS  C:\Users\PC\AppData\Local\Temp\ccKVdNiW.s 			page 81


 3425              	.LBE29:
1065:GFX_Library.c ****         for(int16_t i=0; i<w; i++ ) {
 3426              		.loc 1 1065 0 is_stmt 1 discriminator 2
 3427 0082 0137     		adds	r7, r7, #1
 3428 0084 3FB2     		sxth	r7, r7
 3429              	.LVL404:
 3430 0086 019B     		ldr	r3, [sp, #4]
 3431              	.LVL405:
 3432 0088 0133     		adds	r3, r3, #1
 3433 008a 9BB2     		uxth	r3, r3
 3434 008c 0193     		str	r3, [sp, #4]
 3435              	.LVL406:
 3436              	.L159:
1065:GFX_Library.c ****         for(int16_t i=0; i<w; i++ ) {
 3437              		.loc 1 1065 0 is_stmt 0 discriminator 1
 3438 008e B846     		mov	r8, r7
 3439 0090 039B     		ldr	r3, [sp, #12]
 3440 0092 9F42     		cmp	r7, r3
 3441 0094 ECDB     		blt	.L165
 3442              	.LBE30:
1071:GFX_Library.c ****         }
1072:GFX_Library.c ****     }
1073:GFX_Library.c **** }
 3443              		.loc 1 1073 0 is_stmt 1
 3444 0096 05B0     		add	sp, sp, #20
 3445              		@ sp needed
 3446              	.LVL407:
 3447              	.LVL408:
 3448              	.LVL409:
 3449              	.LVL410:
 3450 0098 3CBC     		pop	{r2, r3, r4, r5}
 3451 009a 9046     		mov	r8, r2
 3452 009c 9946     		mov	r9, r3
 3453 009e A246     		mov	r10, r4
 3454 00a0 AB46     		mov	fp, r5
 3455 00a2 F0BD     		pop	{r4, r5, r6, r7, pc}
 3456              		.cfi_endproc
 3457              	.LFE61:
 3458              		.size	display_drawBitmapV2, .-display_drawBitmapV2
 3459              		.section	.text.display_drawBitmapV2_bg,"ax",%progbits
 3460              		.align	2
 3461              		.global	display_drawBitmapV2_bg
 3462              		.code	16
 3463              		.thumb_func
 3464              		.type	display_drawBitmapV2_bg, %function
 3465              	display_drawBitmapV2_bg:
 3466              	.LFB62:
1074:GFX_Library.c **** 
1075:GFX_Library.c **** /**************************************************************************/
1076:GFX_Library.c **** /*!
1077:GFX_Library.c ****    @brief     Draw a ROM-resident 1-bit image at the specified (x,y) position,
1078:GFX_Library.c ****               using the specified foreground (for set bits) and background (unset bits) colors.
1079:GFX_Library.c ****     @param    x   Top left corner x coordinate
1080:GFX_Library.c ****     @param    y   Top left corner y coordinate
1081:GFX_Library.c ****     @param    bitmap  byte array with monochrome bitmap
1082:GFX_Library.c ****     @param    w   Width of bitmap in pixels
1083:GFX_Library.c ****     @param    h   Hieght of bitmap in pixels
ARM GAS  C:\Users\PC\AppData\Local\Temp\ccKVdNiW.s 			page 82


1084:GFX_Library.c ****     @param    color 16-bit 5-6-5 Color to draw pixels with
1085:GFX_Library.c ****     @param    bg 16-bit 5-6-5 Color to draw background with
1086:GFX_Library.c **** */
1087:GFX_Library.c **** /**************************************************************************/
1088:GFX_Library.c **** void display_drawBitmapV2_bg(uint16_t x, uint16_t y, const uint8_t *bitmap, uint16_t w, uint16_t h,
1089:GFX_Library.c ****   uint16_t color, uint16_t bg) {
 3467              		.loc 1 1089 0
 3468              		.cfi_startproc
 3469              		@ args = 12, pretend = 0, frame = 16
 3470              		@ frame_needed = 0, uses_anonymous_args = 0
 3471              	.LVL411:
 3472 0000 F0B5     		push	{r4, r5, r6, r7, lr}
 3473              		.cfi_def_cfa_offset 20
 3474              		.cfi_offset 4, -20
 3475              		.cfi_offset 5, -16
 3476              		.cfi_offset 6, -12
 3477              		.cfi_offset 7, -8
 3478              		.cfi_offset 14, -4
 3479 0002 5F46     		mov	r7, fp
 3480 0004 5646     		mov	r6, r10
 3481 0006 4D46     		mov	r5, r9
 3482 0008 4446     		mov	r4, r8
 3483 000a F0B4     		push	{r4, r5, r6, r7}
 3484              		.cfi_def_cfa_offset 36
 3485              		.cfi_offset 8, -36
 3486              		.cfi_offset 9, -32
 3487              		.cfi_offset 10, -28
 3488              		.cfi_offset 11, -24
 3489 000c 85B0     		sub	sp, sp, #20
 3490              		.cfi_def_cfa_offset 56
 3491 000e 0700     		movs	r7, r0
 3492 0010 0091     		str	r1, [sp]
 3493 0012 9346     		mov	fp, r2
 3494 0014 0EAA     		add	r2, sp, #56
 3495              	.LVL412:
 3496 0016 1288     		ldrh	r2, [r2]
 3497              	.LVL413:
 3498 0018 0392     		str	r2, [sp, #12]
 3499 001a 0FAA     		add	r2, sp, #60
 3500              	.LVL414:
 3501 001c 1288     		ldrh	r2, [r2]
 3502              	.LVL415:
 3503 001e 0292     		str	r2, [sp, #8]
 3504 0020 10AA     		add	r2, sp, #64
 3505              	.LVL416:
 3506 0022 1288     		ldrh	r2, [r2]
 3507              	.LVL417:
 3508 0024 0192     		str	r2, [sp, #4]
1090:GFX_Library.c **** 
1091:GFX_Library.c ****     int16_t byteWidth = (w + 7) / 8; // Bitmap scanline pad = whole byte
 3509              		.loc 1 1091 0
 3510 0026 1E00     		movs	r6, r3
 3511 0028 0733     		adds	r3, r3, #7
 3512              	.LVL418:
 3513 002a DA17     		asrs	r2, r3, #31
 3514 002c 0721     		movs	r1, #7
 3515              	.LVL419:
ARM GAS  C:\Users\PC\AppData\Local\Temp\ccKVdNiW.s 			page 83


 3516 002e 0A40     		ands	r2, r1
 3517 0030 D318     		adds	r3, r2, r3
 3518 0032 DB10     		asrs	r3, r3, #3
 3519 0034 9A46     		mov	r10, r3
 3520              	.LVL420:
 3521              	.LBB31:
1092:GFX_Library.c ****     uint8_t _byte = 0;
1093:GFX_Library.c **** 
1094:GFX_Library.c ****     for(int16_t j=0; j<h; j++, y++) {
 3522              		.loc 1 1094 0
 3523 0036 0023     		movs	r3, #0
 3524 0038 9846     		mov	r8, r3
 3525              	.LBE31:
1092:GFX_Library.c ****     uint8_t _byte = 0;
 3526              		.loc 1 1092 0
 3527 003a 0025     		movs	r5, #0
 3528              	.LBB34:
 3529              		.loc 1 1094 0
 3530 003c 30E0     		b	.L167
 3531              	.LVL421:
 3532              	.L172:
 3533              	.LBB32:
1095:GFX_Library.c ****         for(int16_t i=0; i<w; i++ ) {
1096:GFX_Library.c ****             if(i & 7) _byte <<= 1;
 3534              		.loc 1 1096 0
 3535 003e 84B2     		uxth	r4, r0
 3536 0040 6307     		lsls	r3, r4, #29
 3537 0042 02D0     		beq	.L168
 3538              		.loc 1 1096 0 is_stmt 0 discriminator 1
 3539 0044 6D00     		lsls	r5, r5, #1
 3540              	.LVL422:
 3541 0046 EDB2     		uxtb	r5, r5
 3542              	.LVL423:
 3543 0048 0AE0     		b	.L169
 3544              	.L168:
1097:GFX_Library.c ****             else      _byte   = bitmap[j * byteWidth + i / 8];
 3545              		.loc 1 1097 0 is_stmt 1
 3546 004a C317     		asrs	r3, r0, #31
 3547 004c 0722     		movs	r2, #7
 3548 004e 1340     		ands	r3, r2
 3549 0050 1B18     		adds	r3, r3, r0
 3550 0052 DB10     		asrs	r3, r3, #3
 3551 0054 4A46     		mov	r2, r9
 3552 0056 5146     		mov	r1, r10
 3553 0058 4A43     		muls	r2, r1
 3554 005a D318     		adds	r3, r2, r3
 3555 005c 5A46     		mov	r2, fp
 3556 005e D55C     		ldrb	r5, [r2, r3]
 3557              	.LVL424:
 3558              	.L169:
1098:GFX_Library.c ****             if(_byte & 0x80)
 3559              		.loc 1 1098 0
 3560 0060 6BB2     		sxtb	r3, r5
 3561 0062 002B     		cmp	r3, #0
 3562 0064 07DA     		bge	.L170
1099:GFX_Library.c ****               display_drawPixel(x+i, y, color);
 3563              		.loc 1 1099 0
ARM GAS  C:\Users\PC\AppData\Local\Temp\ccKVdNiW.s 			page 84


 3564 0066 6B46     		mov	r3, sp
 3565 0068 1A7A     		ldrb	r2, [r3, #8]
 3566 006a 1978     		ldrb	r1, [r3]
 3567 006c 3818     		adds	r0, r7, r0
 3568              	.LVL425:
 3569 006e C0B2     		uxtb	r0, r0
 3570 0070 FFF7FEFF 		bl	drawPixel
 3571              	.LVL426:
 3572 0074 06E0     		b	.L171
 3573              	.LVL427:
 3574              	.L170:
1100:GFX_Library.c ****             else
1101:GFX_Library.c ****               display_drawPixel(x+i, y, bg);
 3575              		.loc 1 1101 0
 3576 0076 6B46     		mov	r3, sp
 3577 0078 1A79     		ldrb	r2, [r3, #4]
 3578 007a 1978     		ldrb	r1, [r3]
 3579 007c 3818     		adds	r0, r7, r0
 3580              	.LVL428:
 3581 007e C0B2     		uxtb	r0, r0
 3582 0080 FFF7FEFF 		bl	drawPixel
 3583              	.LVL429:
 3584              	.L171:
1095:GFX_Library.c ****             if(i & 7) _byte <<= 1;
 3585              		.loc 1 1095 0 discriminator 2
 3586 0084 0134     		adds	r4, r4, #1
 3587              	.LVL430:
 3588 0086 20B2     		sxth	r0, r4
 3589              	.LVL431:
 3590 0088 00E0     		b	.L173
 3591              	.LVL432:
 3592              	.L174:
 3593              	.LBE32:
 3594 008a 0020     		movs	r0, #0
 3595              	.L173:
 3596              	.LVL433:
 3597              	.LBB33:
1095:GFX_Library.c ****             if(i & 7) _byte <<= 1;
 3598              		.loc 1 1095 0 is_stmt 0 discriminator 1
 3599 008c 8642     		cmp	r6, r0
 3600 008e D6DC     		bgt	.L172
 3601              	.LBE33:
1094:GFX_Library.c ****         for(int16_t i=0; i<w; i++ ) {
 3602              		.loc 1 1094 0 is_stmt 1 discriminator 2
 3603 0090 4346     		mov	r3, r8
 3604 0092 0133     		adds	r3, r3, #1
 3605 0094 1BB2     		sxth	r3, r3
 3606 0096 9846     		mov	r8, r3
 3607              	.LVL434:
 3608 0098 009B     		ldr	r3, [sp]
 3609 009a 0133     		adds	r3, r3, #1
 3610 009c 9BB2     		uxth	r3, r3
 3611 009e 0093     		str	r3, [sp]
 3612              	.LVL435:
 3613              	.L167:
1094:GFX_Library.c ****         for(int16_t i=0; i<w; i++ ) {
 3614              		.loc 1 1094 0 is_stmt 0 discriminator 1
ARM GAS  C:\Users\PC\AppData\Local\Temp\ccKVdNiW.s 			page 85


 3615 00a0 C146     		mov	r9, r8
 3616 00a2 039B     		ldr	r3, [sp, #12]
 3617 00a4 9845     		cmp	r8, r3
 3618 00a6 F0DB     		blt	.L174
 3619              	.LBE34:
1102:GFX_Library.c ****         }
1103:GFX_Library.c ****     }
1104:GFX_Library.c **** }
 3620              		.loc 1 1104 0 is_stmt 1
 3621 00a8 05B0     		add	sp, sp, #20
 3622              	.LVL436:
 3623              		@ sp needed
 3624              	.LVL437:
 3625              	.LVL438:
 3626              	.LVL439:
 3627              	.LVL440:
 3628 00aa 3CBC     		pop	{r2, r3, r4, r5}
 3629 00ac 9046     		mov	r8, r2
 3630 00ae 9946     		mov	r9, r3
 3631 00b0 A246     		mov	r10, r4
 3632 00b2 AB46     		mov	fp, r5
 3633 00b4 F0BD     		pop	{r4, r5, r6, r7, pc}
 3634              		.cfi_endproc
 3635              	.LFE62:
 3636              		.size	display_drawBitmapV2_bg, .-display_drawBitmapV2_bg
 3637              		.global	wrap
 3638              		.global	textsize
 3639              		.global	textbgcolor
 3640              		.global	textcolor
 3641              		.global	cursor_y
 3642              		.global	cursor_x
 3643              		.comm	_height,1,1
 3644              		.comm	_width,1,1
 3645              		.comm	rotation,1,1
 3646              		.comm	_vccstate,1,1
 3647 00b6 C046     		.section	.rodata
 3648              		.align	2
 3649              		.set	.LANCHOR2,. + 0
 3650              		.type	font, %object
 3651              		.size	font, 1280
 3652              	font:
 3653 0000 00       		.byte	0
 3654 0001 00       		.byte	0
 3655 0002 00       		.byte	0
 3656 0003 00       		.byte	0
 3657 0004 00       		.byte	0
 3658 0005 3E       		.byte	62
 3659 0006 5B       		.byte	91
 3660 0007 4F       		.byte	79
 3661 0008 5B       		.byte	91
 3662 0009 3E       		.byte	62
 3663 000a 3E       		.byte	62
 3664 000b 6B       		.byte	107
 3665 000c 4F       		.byte	79
 3666 000d 6B       		.byte	107
 3667 000e 3E       		.byte	62
 3668 000f 1C       		.byte	28
ARM GAS  C:\Users\PC\AppData\Local\Temp\ccKVdNiW.s 			page 86


 3669 0010 3E       		.byte	62
 3670 0011 7C       		.byte	124
 3671 0012 3E       		.byte	62
 3672 0013 1C       		.byte	28
 3673 0014 18       		.byte	24
 3674 0015 3C       		.byte	60
 3675 0016 7E       		.byte	126
 3676 0017 3C       		.byte	60
 3677 0018 18       		.byte	24
 3678 0019 1C       		.byte	28
 3679 001a 57       		.byte	87
 3680 001b 7D       		.byte	125
 3681 001c 57       		.byte	87
 3682 001d 1C       		.byte	28
 3683 001e 1C       		.byte	28
 3684 001f 5E       		.byte	94
 3685 0020 7F       		.byte	127
 3686 0021 5E       		.byte	94
 3687 0022 1C       		.byte	28
 3688 0023 00       		.byte	0
 3689 0024 18       		.byte	24
 3690 0025 3C       		.byte	60
 3691 0026 18       		.byte	24
 3692 0027 00       		.byte	0
 3693 0028 FF       		.byte	-1
 3694 0029 E7       		.byte	-25
 3695 002a C3       		.byte	-61
 3696 002b E7       		.byte	-25
 3697 002c FF       		.byte	-1
 3698 002d 00       		.byte	0
 3699 002e 18       		.byte	24
 3700 002f 24       		.byte	36
 3701 0030 18       		.byte	24
 3702 0031 00       		.byte	0
 3703 0032 FF       		.byte	-1
 3704 0033 E7       		.byte	-25
 3705 0034 DB       		.byte	-37
 3706 0035 E7       		.byte	-25
 3707 0036 FF       		.byte	-1
 3708 0037 30       		.byte	48
 3709 0038 48       		.byte	72
 3710 0039 3A       		.byte	58
 3711 003a 06       		.byte	6
 3712 003b 0E       		.byte	14
 3713 003c 26       		.byte	38
 3714 003d 29       		.byte	41
 3715 003e 79       		.byte	121
 3716 003f 29       		.byte	41
 3717 0040 26       		.byte	38
 3718 0041 40       		.byte	64
 3719 0042 7F       		.byte	127
 3720 0043 05       		.byte	5
 3721 0044 05       		.byte	5
 3722 0045 07       		.byte	7
 3723 0046 40       		.byte	64
 3724 0047 7F       		.byte	127
 3725 0048 05       		.byte	5
ARM GAS  C:\Users\PC\AppData\Local\Temp\ccKVdNiW.s 			page 87


 3726 0049 25       		.byte	37
 3727 004a 3F       		.byte	63
 3728 004b 5A       		.byte	90
 3729 004c 3C       		.byte	60
 3730 004d E7       		.byte	-25
 3731 004e 3C       		.byte	60
 3732 004f 5A       		.byte	90
 3733 0050 7F       		.byte	127
 3734 0051 3E       		.byte	62
 3735 0052 1C       		.byte	28
 3736 0053 1C       		.byte	28
 3737 0054 08       		.byte	8
 3738 0055 08       		.byte	8
 3739 0056 1C       		.byte	28
 3740 0057 1C       		.byte	28
 3741 0058 3E       		.byte	62
 3742 0059 7F       		.byte	127
 3743 005a 14       		.byte	20
 3744 005b 22       		.byte	34
 3745 005c 7F       		.byte	127
 3746 005d 22       		.byte	34
 3747 005e 14       		.byte	20
 3748 005f 5F       		.byte	95
 3749 0060 5F       		.byte	95
 3750 0061 00       		.byte	0
 3751 0062 5F       		.byte	95
 3752 0063 5F       		.byte	95
 3753 0064 06       		.byte	6
 3754 0065 09       		.byte	9
 3755 0066 7F       		.byte	127
 3756 0067 01       		.byte	1
 3757 0068 7F       		.byte	127
 3758 0069 00       		.byte	0
 3759 006a 66       		.byte	102
 3760 006b 89       		.byte	-119
 3761 006c 95       		.byte	-107
 3762 006d 6A       		.byte	106
 3763 006e 60       		.byte	96
 3764 006f 60       		.byte	96
 3765 0070 60       		.byte	96
 3766 0071 60       		.byte	96
 3767 0072 60       		.byte	96
 3768 0073 94       		.byte	-108
 3769 0074 A2       		.byte	-94
 3770 0075 FF       		.byte	-1
 3771 0076 A2       		.byte	-94
 3772 0077 94       		.byte	-108
 3773 0078 08       		.byte	8
 3774 0079 04       		.byte	4
 3775 007a 7E       		.byte	126
 3776 007b 04       		.byte	4
 3777 007c 08       		.byte	8
 3778 007d 10       		.byte	16
 3779 007e 20       		.byte	32
 3780 007f 7E       		.byte	126
 3781 0080 20       		.byte	32
 3782 0081 10       		.byte	16
ARM GAS  C:\Users\PC\AppData\Local\Temp\ccKVdNiW.s 			page 88


 3783 0082 08       		.byte	8
 3784 0083 08       		.byte	8
 3785 0084 2A       		.byte	42
 3786 0085 1C       		.byte	28
 3787 0086 08       		.byte	8
 3788 0087 08       		.byte	8
 3789 0088 1C       		.byte	28
 3790 0089 2A       		.byte	42
 3791 008a 08       		.byte	8
 3792 008b 08       		.byte	8
 3793 008c 1E       		.byte	30
 3794 008d 10       		.byte	16
 3795 008e 10       		.byte	16
 3796 008f 10       		.byte	16
 3797 0090 10       		.byte	16
 3798 0091 0C       		.byte	12
 3799 0092 1E       		.byte	30
 3800 0093 0C       		.byte	12
 3801 0094 1E       		.byte	30
 3802 0095 0C       		.byte	12
 3803 0096 30       		.byte	48
 3804 0097 38       		.byte	56
 3805 0098 3E       		.byte	62
 3806 0099 38       		.byte	56
 3807 009a 30       		.byte	48
 3808 009b 06       		.byte	6
 3809 009c 0E       		.byte	14
 3810 009d 3E       		.byte	62
 3811 009e 0E       		.byte	14
 3812 009f 06       		.byte	6
 3813 00a0 00       		.byte	0
 3814 00a1 00       		.byte	0
 3815 00a2 00       		.byte	0
 3816 00a3 00       		.byte	0
 3817 00a4 00       		.byte	0
 3818 00a5 00       		.byte	0
 3819 00a6 00       		.byte	0
 3820 00a7 5F       		.byte	95
 3821 00a8 00       		.byte	0
 3822 00a9 00       		.byte	0
 3823 00aa 00       		.byte	0
 3824 00ab 07       		.byte	7
 3825 00ac 00       		.byte	0
 3826 00ad 07       		.byte	7
 3827 00ae 00       		.byte	0
 3828 00af 14       		.byte	20
 3829 00b0 7F       		.byte	127
 3830 00b1 14       		.byte	20
 3831 00b2 7F       		.byte	127
 3832 00b3 14       		.byte	20
 3833 00b4 24       		.byte	36
 3834 00b5 2A       		.byte	42
 3835 00b6 7F       		.byte	127
 3836 00b7 2A       		.byte	42
 3837 00b8 12       		.byte	18
 3838 00b9 23       		.byte	35
 3839 00ba 13       		.byte	19
ARM GAS  C:\Users\PC\AppData\Local\Temp\ccKVdNiW.s 			page 89


 3840 00bb 08       		.byte	8
 3841 00bc 64       		.byte	100
 3842 00bd 62       		.byte	98
 3843 00be 36       		.byte	54
 3844 00bf 49       		.byte	73
 3845 00c0 56       		.byte	86
 3846 00c1 20       		.byte	32
 3847 00c2 50       		.byte	80
 3848 00c3 00       		.byte	0
 3849 00c4 08       		.byte	8
 3850 00c5 07       		.byte	7
 3851 00c6 03       		.byte	3
 3852 00c7 00       		.byte	0
 3853 00c8 00       		.byte	0
 3854 00c9 1C       		.byte	28
 3855 00ca 22       		.byte	34
 3856 00cb 41       		.byte	65
 3857 00cc 00       		.byte	0
 3858 00cd 00       		.byte	0
 3859 00ce 41       		.byte	65
 3860 00cf 22       		.byte	34
 3861 00d0 1C       		.byte	28
 3862 00d1 00       		.byte	0
 3863 00d2 2A       		.byte	42
 3864 00d3 1C       		.byte	28
 3865 00d4 7F       		.byte	127
 3866 00d5 1C       		.byte	28
 3867 00d6 2A       		.byte	42
 3868 00d7 08       		.byte	8
 3869 00d8 08       		.byte	8
 3870 00d9 3E       		.byte	62
 3871 00da 08       		.byte	8
 3872 00db 08       		.byte	8
 3873 00dc 00       		.byte	0
 3874 00dd 80       		.byte	-128
 3875 00de 70       		.byte	112
 3876 00df 30       		.byte	48
 3877 00e0 00       		.byte	0
 3878 00e1 08       		.byte	8
 3879 00e2 08       		.byte	8
 3880 00e3 08       		.byte	8
 3881 00e4 08       		.byte	8
 3882 00e5 08       		.byte	8
 3883 00e6 00       		.byte	0
 3884 00e7 00       		.byte	0
 3885 00e8 60       		.byte	96
 3886 00e9 60       		.byte	96
 3887 00ea 00       		.byte	0
 3888 00eb 20       		.byte	32
 3889 00ec 10       		.byte	16
 3890 00ed 08       		.byte	8
 3891 00ee 04       		.byte	4
 3892 00ef 02       		.byte	2
 3893 00f0 3E       		.byte	62
 3894 00f1 51       		.byte	81
 3895 00f2 49       		.byte	73
 3896 00f3 45       		.byte	69
ARM GAS  C:\Users\PC\AppData\Local\Temp\ccKVdNiW.s 			page 90


 3897 00f4 3E       		.byte	62
 3898 00f5 00       		.byte	0
 3899 00f6 42       		.byte	66
 3900 00f7 7F       		.byte	127
 3901 00f8 40       		.byte	64
 3902 00f9 00       		.byte	0
 3903 00fa 72       		.byte	114
 3904 00fb 49       		.byte	73
 3905 00fc 49       		.byte	73
 3906 00fd 49       		.byte	73
 3907 00fe 46       		.byte	70
 3908 00ff 21       		.byte	33
 3909 0100 41       		.byte	65
 3910 0101 49       		.byte	73
 3911 0102 4D       		.byte	77
 3912 0103 33       		.byte	51
 3913 0104 18       		.byte	24
 3914 0105 14       		.byte	20
 3915 0106 12       		.byte	18
 3916 0107 7F       		.byte	127
 3917 0108 10       		.byte	16
 3918 0109 27       		.byte	39
 3919 010a 45       		.byte	69
 3920 010b 45       		.byte	69
 3921 010c 45       		.byte	69
 3922 010d 39       		.byte	57
 3923 010e 3C       		.byte	60
 3924 010f 4A       		.byte	74
 3925 0110 49       		.byte	73
 3926 0111 49       		.byte	73
 3927 0112 31       		.byte	49
 3928 0113 41       		.byte	65
 3929 0114 21       		.byte	33
 3930 0115 11       		.byte	17
 3931 0116 09       		.byte	9
 3932 0117 07       		.byte	7
 3933 0118 36       		.byte	54
 3934 0119 49       		.byte	73
 3935 011a 49       		.byte	73
 3936 011b 49       		.byte	73
 3937 011c 36       		.byte	54
 3938 011d 46       		.byte	70
 3939 011e 49       		.byte	73
 3940 011f 49       		.byte	73
 3941 0120 29       		.byte	41
 3942 0121 1E       		.byte	30
 3943 0122 00       		.byte	0
 3944 0123 00       		.byte	0
 3945 0124 14       		.byte	20
 3946 0125 00       		.byte	0
 3947 0126 00       		.byte	0
 3948 0127 00       		.byte	0
 3949 0128 40       		.byte	64
 3950 0129 34       		.byte	52
 3951 012a 00       		.byte	0
 3952 012b 00       		.byte	0
 3953 012c 00       		.byte	0
ARM GAS  C:\Users\PC\AppData\Local\Temp\ccKVdNiW.s 			page 91


 3954 012d 08       		.byte	8
 3955 012e 14       		.byte	20
 3956 012f 22       		.byte	34
 3957 0130 41       		.byte	65
 3958 0131 14       		.byte	20
 3959 0132 14       		.byte	20
 3960 0133 14       		.byte	20
 3961 0134 14       		.byte	20
 3962 0135 14       		.byte	20
 3963 0136 00       		.byte	0
 3964 0137 41       		.byte	65
 3965 0138 22       		.byte	34
 3966 0139 14       		.byte	20
 3967 013a 08       		.byte	8
 3968 013b 02       		.byte	2
 3969 013c 01       		.byte	1
 3970 013d 59       		.byte	89
 3971 013e 09       		.byte	9
 3972 013f 06       		.byte	6
 3973 0140 3E       		.byte	62
 3974 0141 41       		.byte	65
 3975 0142 5D       		.byte	93
 3976 0143 59       		.byte	89
 3977 0144 4E       		.byte	78
 3978 0145 7C       		.byte	124
 3979 0146 12       		.byte	18
 3980 0147 11       		.byte	17
 3981 0148 12       		.byte	18
 3982 0149 7C       		.byte	124
 3983 014a 7F       		.byte	127
 3984 014b 49       		.byte	73
 3985 014c 49       		.byte	73
 3986 014d 49       		.byte	73
 3987 014e 36       		.byte	54
 3988 014f 3E       		.byte	62
 3989 0150 41       		.byte	65
 3990 0151 41       		.byte	65
 3991 0152 41       		.byte	65
 3992 0153 22       		.byte	34
 3993 0154 7F       		.byte	127
 3994 0155 41       		.byte	65
 3995 0156 41       		.byte	65
 3996 0157 41       		.byte	65
 3997 0158 3E       		.byte	62
 3998 0159 7F       		.byte	127
 3999 015a 49       		.byte	73
 4000 015b 49       		.byte	73
 4001 015c 49       		.byte	73
 4002 015d 41       		.byte	65
 4003 015e 7F       		.byte	127
 4004 015f 09       		.byte	9
 4005 0160 09       		.byte	9
 4006 0161 09       		.byte	9
 4007 0162 01       		.byte	1
 4008 0163 3E       		.byte	62
 4009 0164 41       		.byte	65
 4010 0165 41       		.byte	65
ARM GAS  C:\Users\PC\AppData\Local\Temp\ccKVdNiW.s 			page 92


 4011 0166 51       		.byte	81
 4012 0167 73       		.byte	115
 4013 0168 7F       		.byte	127
 4014 0169 08       		.byte	8
 4015 016a 08       		.byte	8
 4016 016b 08       		.byte	8
 4017 016c 7F       		.byte	127
 4018 016d 00       		.byte	0
 4019 016e 41       		.byte	65
 4020 016f 7F       		.byte	127
 4021 0170 41       		.byte	65
 4022 0171 00       		.byte	0
 4023 0172 20       		.byte	32
 4024 0173 40       		.byte	64
 4025 0174 41       		.byte	65
 4026 0175 3F       		.byte	63
 4027 0176 01       		.byte	1
 4028 0177 7F       		.byte	127
 4029 0178 08       		.byte	8
 4030 0179 14       		.byte	20
 4031 017a 22       		.byte	34
 4032 017b 41       		.byte	65
 4033 017c 7F       		.byte	127
 4034 017d 40       		.byte	64
 4035 017e 40       		.byte	64
 4036 017f 40       		.byte	64
 4037 0180 40       		.byte	64
 4038 0181 7F       		.byte	127
 4039 0182 02       		.byte	2
 4040 0183 1C       		.byte	28
 4041 0184 02       		.byte	2
 4042 0185 7F       		.byte	127
 4043 0186 7F       		.byte	127
 4044 0187 04       		.byte	4
 4045 0188 08       		.byte	8
 4046 0189 10       		.byte	16
 4047 018a 7F       		.byte	127
 4048 018b 3E       		.byte	62
 4049 018c 41       		.byte	65
 4050 018d 41       		.byte	65
 4051 018e 41       		.byte	65
 4052 018f 3E       		.byte	62
 4053 0190 7F       		.byte	127
 4054 0191 09       		.byte	9
 4055 0192 09       		.byte	9
 4056 0193 09       		.byte	9
 4057 0194 06       		.byte	6
 4058 0195 3E       		.byte	62
 4059 0196 41       		.byte	65
 4060 0197 51       		.byte	81
 4061 0198 21       		.byte	33
 4062 0199 5E       		.byte	94
 4063 019a 7F       		.byte	127
 4064 019b 09       		.byte	9
 4065 019c 19       		.byte	25
 4066 019d 29       		.byte	41
 4067 019e 46       		.byte	70
ARM GAS  C:\Users\PC\AppData\Local\Temp\ccKVdNiW.s 			page 93


 4068 019f 26       		.byte	38
 4069 01a0 49       		.byte	73
 4070 01a1 49       		.byte	73
 4071 01a2 49       		.byte	73
 4072 01a3 32       		.byte	50
 4073 01a4 03       		.byte	3
 4074 01a5 01       		.byte	1
 4075 01a6 7F       		.byte	127
 4076 01a7 01       		.byte	1
 4077 01a8 03       		.byte	3
 4078 01a9 3F       		.byte	63
 4079 01aa 40       		.byte	64
 4080 01ab 40       		.byte	64
 4081 01ac 40       		.byte	64
 4082 01ad 3F       		.byte	63
 4083 01ae 1F       		.byte	31
 4084 01af 20       		.byte	32
 4085 01b0 40       		.byte	64
 4086 01b1 20       		.byte	32
 4087 01b2 1F       		.byte	31
 4088 01b3 3F       		.byte	63
 4089 01b4 40       		.byte	64
 4090 01b5 38       		.byte	56
 4091 01b6 40       		.byte	64
 4092 01b7 3F       		.byte	63
 4093 01b8 63       		.byte	99
 4094 01b9 14       		.byte	20
 4095 01ba 08       		.byte	8
 4096 01bb 14       		.byte	20
 4097 01bc 63       		.byte	99
 4098 01bd 03       		.byte	3
 4099 01be 04       		.byte	4
 4100 01bf 78       		.byte	120
 4101 01c0 04       		.byte	4
 4102 01c1 03       		.byte	3
 4103 01c2 61       		.byte	97
 4104 01c3 59       		.byte	89
 4105 01c4 49       		.byte	73
 4106 01c5 4D       		.byte	77
 4107 01c6 43       		.byte	67
 4108 01c7 00       		.byte	0
 4109 01c8 7F       		.byte	127
 4110 01c9 41       		.byte	65
 4111 01ca 41       		.byte	65
 4112 01cb 41       		.byte	65
 4113 01cc 02       		.byte	2
 4114 01cd 04       		.byte	4
 4115 01ce 08       		.byte	8
 4116 01cf 10       		.byte	16
 4117 01d0 20       		.byte	32
 4118 01d1 00       		.byte	0
 4119 01d2 41       		.byte	65
 4120 01d3 41       		.byte	65
 4121 01d4 41       		.byte	65
 4122 01d5 7F       		.byte	127
 4123 01d6 04       		.byte	4
 4124 01d7 02       		.byte	2
ARM GAS  C:\Users\PC\AppData\Local\Temp\ccKVdNiW.s 			page 94


 4125 01d8 01       		.byte	1
 4126 01d9 02       		.byte	2
 4127 01da 04       		.byte	4
 4128 01db 40       		.byte	64
 4129 01dc 40       		.byte	64
 4130 01dd 40       		.byte	64
 4131 01de 40       		.byte	64
 4132 01df 40       		.byte	64
 4133 01e0 00       		.byte	0
 4134 01e1 03       		.byte	3
 4135 01e2 07       		.byte	7
 4136 01e3 08       		.byte	8
 4137 01e4 00       		.byte	0
 4138 01e5 20       		.byte	32
 4139 01e6 54       		.byte	84
 4140 01e7 54       		.byte	84
 4141 01e8 78       		.byte	120
 4142 01e9 40       		.byte	64
 4143 01ea 7F       		.byte	127
 4144 01eb 28       		.byte	40
 4145 01ec 44       		.byte	68
 4146 01ed 44       		.byte	68
 4147 01ee 38       		.byte	56
 4148 01ef 38       		.byte	56
 4149 01f0 44       		.byte	68
 4150 01f1 44       		.byte	68
 4151 01f2 44       		.byte	68
 4152 01f3 28       		.byte	40
 4153 01f4 38       		.byte	56
 4154 01f5 44       		.byte	68
 4155 01f6 44       		.byte	68
 4156 01f7 28       		.byte	40
 4157 01f8 7F       		.byte	127
 4158 01f9 38       		.byte	56
 4159 01fa 54       		.byte	84
 4160 01fb 54       		.byte	84
 4161 01fc 54       		.byte	84
 4162 01fd 18       		.byte	24
 4163 01fe 00       		.byte	0
 4164 01ff 08       		.byte	8
 4165 0200 7E       		.byte	126
 4166 0201 09       		.byte	9
 4167 0202 02       		.byte	2
 4168 0203 18       		.byte	24
 4169 0204 A4       		.byte	-92
 4170 0205 A4       		.byte	-92
 4171 0206 9C       		.byte	-100
 4172 0207 78       		.byte	120
 4173 0208 7F       		.byte	127
 4174 0209 08       		.byte	8
 4175 020a 04       		.byte	4
 4176 020b 04       		.byte	4
 4177 020c 78       		.byte	120
 4178 020d 00       		.byte	0
 4179 020e 44       		.byte	68
 4180 020f 7D       		.byte	125
 4181 0210 40       		.byte	64
ARM GAS  C:\Users\PC\AppData\Local\Temp\ccKVdNiW.s 			page 95


 4182 0211 00       		.byte	0
 4183 0212 20       		.byte	32
 4184 0213 40       		.byte	64
 4185 0214 40       		.byte	64
 4186 0215 3D       		.byte	61
 4187 0216 00       		.byte	0
 4188 0217 7F       		.byte	127
 4189 0218 10       		.byte	16
 4190 0219 28       		.byte	40
 4191 021a 44       		.byte	68
 4192 021b 00       		.byte	0
 4193 021c 00       		.byte	0
 4194 021d 41       		.byte	65
 4195 021e 7F       		.byte	127
 4196 021f 40       		.byte	64
 4197 0220 00       		.byte	0
 4198 0221 7C       		.byte	124
 4199 0222 04       		.byte	4
 4200 0223 78       		.byte	120
 4201 0224 04       		.byte	4
 4202 0225 78       		.byte	120
 4203 0226 7C       		.byte	124
 4204 0227 08       		.byte	8
 4205 0228 04       		.byte	4
 4206 0229 04       		.byte	4
 4207 022a 78       		.byte	120
 4208 022b 38       		.byte	56
 4209 022c 44       		.byte	68
 4210 022d 44       		.byte	68
 4211 022e 44       		.byte	68
 4212 022f 38       		.byte	56
 4213 0230 FC       		.byte	-4
 4214 0231 18       		.byte	24
 4215 0232 24       		.byte	36
 4216 0233 24       		.byte	36
 4217 0234 18       		.byte	24
 4218 0235 18       		.byte	24
 4219 0236 24       		.byte	36
 4220 0237 24       		.byte	36
 4221 0238 18       		.byte	24
 4222 0239 FC       		.byte	-4
 4223 023a 7C       		.byte	124
 4224 023b 08       		.byte	8
 4225 023c 04       		.byte	4
 4226 023d 04       		.byte	4
 4227 023e 08       		.byte	8
 4228 023f 48       		.byte	72
 4229 0240 54       		.byte	84
 4230 0241 54       		.byte	84
 4231 0242 54       		.byte	84
 4232 0243 24       		.byte	36
 4233 0244 04       		.byte	4
 4234 0245 04       		.byte	4
 4235 0246 3F       		.byte	63
 4236 0247 44       		.byte	68
 4237 0248 24       		.byte	36
 4238 0249 3C       		.byte	60
ARM GAS  C:\Users\PC\AppData\Local\Temp\ccKVdNiW.s 			page 96


 4239 024a 40       		.byte	64
 4240 024b 40       		.byte	64
 4241 024c 20       		.byte	32
 4242 024d 7C       		.byte	124
 4243 024e 1C       		.byte	28
 4244 024f 20       		.byte	32
 4245 0250 40       		.byte	64
 4246 0251 20       		.byte	32
 4247 0252 1C       		.byte	28
 4248 0253 3C       		.byte	60
 4249 0254 40       		.byte	64
 4250 0255 30       		.byte	48
 4251 0256 40       		.byte	64
 4252 0257 3C       		.byte	60
 4253 0258 44       		.byte	68
 4254 0259 28       		.byte	40
 4255 025a 10       		.byte	16
 4256 025b 28       		.byte	40
 4257 025c 44       		.byte	68
 4258 025d 4C       		.byte	76
 4259 025e 90       		.byte	-112
 4260 025f 90       		.byte	-112
 4261 0260 90       		.byte	-112
 4262 0261 7C       		.byte	124
 4263 0262 44       		.byte	68
 4264 0263 64       		.byte	100
 4265 0264 54       		.byte	84
 4266 0265 4C       		.byte	76
 4267 0266 44       		.byte	68
 4268 0267 00       		.byte	0
 4269 0268 08       		.byte	8
 4270 0269 36       		.byte	54
 4271 026a 41       		.byte	65
 4272 026b 00       		.byte	0
 4273 026c 00       		.byte	0
 4274 026d 00       		.byte	0
 4275 026e 77       		.byte	119
 4276 026f 00       		.byte	0
 4277 0270 00       		.byte	0
 4278 0271 00       		.byte	0
 4279 0272 41       		.byte	65
 4280 0273 36       		.byte	54
 4281 0274 08       		.byte	8
 4282 0275 00       		.byte	0
 4283 0276 02       		.byte	2
 4284 0277 01       		.byte	1
 4285 0278 02       		.byte	2
 4286 0279 04       		.byte	4
 4287 027a 02       		.byte	2
 4288 027b 3C       		.byte	60
 4289 027c 26       		.byte	38
 4290 027d 23       		.byte	35
 4291 027e 26       		.byte	38
 4292 027f 3C       		.byte	60
 4293 0280 1E       		.byte	30
 4294 0281 A1       		.byte	-95
 4295 0282 A1       		.byte	-95
ARM GAS  C:\Users\PC\AppData\Local\Temp\ccKVdNiW.s 			page 97


 4296 0283 61       		.byte	97
 4297 0284 12       		.byte	18
 4298 0285 3A       		.byte	58
 4299 0286 40       		.byte	64
 4300 0287 40       		.byte	64
 4301 0288 20       		.byte	32
 4302 0289 7A       		.byte	122
 4303 028a 38       		.byte	56
 4304 028b 54       		.byte	84
 4305 028c 54       		.byte	84
 4306 028d 55       		.byte	85
 4307 028e 59       		.byte	89
 4308 028f 21       		.byte	33
 4309 0290 55       		.byte	85
 4310 0291 55       		.byte	85
 4311 0292 79       		.byte	121
 4312 0293 41       		.byte	65
 4313 0294 22       		.byte	34
 4314 0295 54       		.byte	84
 4315 0296 54       		.byte	84
 4316 0297 78       		.byte	120
 4317 0298 42       		.byte	66
 4318 0299 21       		.byte	33
 4319 029a 55       		.byte	85
 4320 029b 54       		.byte	84
 4321 029c 78       		.byte	120
 4322 029d 40       		.byte	64
 4323 029e 20       		.byte	32
 4324 029f 54       		.byte	84
 4325 02a0 55       		.byte	85
 4326 02a1 79       		.byte	121
 4327 02a2 40       		.byte	64
 4328 02a3 0C       		.byte	12
 4329 02a4 1E       		.byte	30
 4330 02a5 52       		.byte	82
 4331 02a6 72       		.byte	114
 4332 02a7 12       		.byte	18
 4333 02a8 39       		.byte	57
 4334 02a9 55       		.byte	85
 4335 02aa 55       		.byte	85
 4336 02ab 55       		.byte	85
 4337 02ac 59       		.byte	89
 4338 02ad 39       		.byte	57
 4339 02ae 54       		.byte	84
 4340 02af 54       		.byte	84
 4341 02b0 54       		.byte	84
 4342 02b1 59       		.byte	89
 4343 02b2 39       		.byte	57
 4344 02b3 55       		.byte	85
 4345 02b4 54       		.byte	84
 4346 02b5 54       		.byte	84
 4347 02b6 58       		.byte	88
 4348 02b7 00       		.byte	0
 4349 02b8 00       		.byte	0
 4350 02b9 45       		.byte	69
 4351 02ba 7C       		.byte	124
 4352 02bb 41       		.byte	65
ARM GAS  C:\Users\PC\AppData\Local\Temp\ccKVdNiW.s 			page 98


 4353 02bc 00       		.byte	0
 4354 02bd 02       		.byte	2
 4355 02be 45       		.byte	69
 4356 02bf 7D       		.byte	125
 4357 02c0 42       		.byte	66
 4358 02c1 00       		.byte	0
 4359 02c2 01       		.byte	1
 4360 02c3 45       		.byte	69
 4361 02c4 7C       		.byte	124
 4362 02c5 40       		.byte	64
 4363 02c6 7D       		.byte	125
 4364 02c7 12       		.byte	18
 4365 02c8 11       		.byte	17
 4366 02c9 12       		.byte	18
 4367 02ca 7D       		.byte	125
 4368 02cb F0       		.byte	-16
 4369 02cc 28       		.byte	40
 4370 02cd 25       		.byte	37
 4371 02ce 28       		.byte	40
 4372 02cf F0       		.byte	-16
 4373 02d0 7C       		.byte	124
 4374 02d1 54       		.byte	84
 4375 02d2 55       		.byte	85
 4376 02d3 45       		.byte	69
 4377 02d4 00       		.byte	0
 4378 02d5 20       		.byte	32
 4379 02d6 54       		.byte	84
 4380 02d7 54       		.byte	84
 4381 02d8 7C       		.byte	124
 4382 02d9 54       		.byte	84
 4383 02da 7C       		.byte	124
 4384 02db 0A       		.byte	10
 4385 02dc 09       		.byte	9
 4386 02dd 7F       		.byte	127
 4387 02de 49       		.byte	73
 4388 02df 32       		.byte	50
 4389 02e0 49       		.byte	73
 4390 02e1 49       		.byte	73
 4391 02e2 49       		.byte	73
 4392 02e3 32       		.byte	50
 4393 02e4 3A       		.byte	58
 4394 02e5 44       		.byte	68
 4395 02e6 44       		.byte	68
 4396 02e7 44       		.byte	68
 4397 02e8 3A       		.byte	58
 4398 02e9 32       		.byte	50
 4399 02ea 4A       		.byte	74
 4400 02eb 48       		.byte	72
 4401 02ec 48       		.byte	72
 4402 02ed 30       		.byte	48
 4403 02ee 3A       		.byte	58
 4404 02ef 41       		.byte	65
 4405 02f0 41       		.byte	65
 4406 02f1 21       		.byte	33
 4407 02f2 7A       		.byte	122
 4408 02f3 3A       		.byte	58
 4409 02f4 42       		.byte	66
ARM GAS  C:\Users\PC\AppData\Local\Temp\ccKVdNiW.s 			page 99


 4410 02f5 40       		.byte	64
 4411 02f6 20       		.byte	32
 4412 02f7 78       		.byte	120
 4413 02f8 00       		.byte	0
 4414 02f9 9D       		.byte	-99
 4415 02fa A0       		.byte	-96
 4416 02fb A0       		.byte	-96
 4417 02fc 7D       		.byte	125
 4418 02fd 3D       		.byte	61
 4419 02fe 42       		.byte	66
 4420 02ff 42       		.byte	66
 4421 0300 42       		.byte	66
 4422 0301 3D       		.byte	61
 4423 0302 3D       		.byte	61
 4424 0303 40       		.byte	64
 4425 0304 40       		.byte	64
 4426 0305 40       		.byte	64
 4427 0306 3D       		.byte	61
 4428 0307 3C       		.byte	60
 4429 0308 24       		.byte	36
 4430 0309 FF       		.byte	-1
 4431 030a 24       		.byte	36
 4432 030b 24       		.byte	36
 4433 030c 48       		.byte	72
 4434 030d 7E       		.byte	126
 4435 030e 49       		.byte	73
 4436 030f 43       		.byte	67
 4437 0310 66       		.byte	102
 4438 0311 2B       		.byte	43
 4439 0312 2F       		.byte	47
 4440 0313 FC       		.byte	-4
 4441 0314 2F       		.byte	47
 4442 0315 2B       		.byte	43
 4443 0316 FF       		.byte	-1
 4444 0317 09       		.byte	9
 4445 0318 29       		.byte	41
 4446 0319 F6       		.byte	-10
 4447 031a 20       		.byte	32
 4448 031b C0       		.byte	-64
 4449 031c 88       		.byte	-120
 4450 031d 7E       		.byte	126
 4451 031e 09       		.byte	9
 4452 031f 03       		.byte	3
 4453 0320 20       		.byte	32
 4454 0321 54       		.byte	84
 4455 0322 54       		.byte	84
 4456 0323 79       		.byte	121
 4457 0324 41       		.byte	65
 4458 0325 00       		.byte	0
 4459 0326 00       		.byte	0
 4460 0327 44       		.byte	68
 4461 0328 7D       		.byte	125
 4462 0329 41       		.byte	65
 4463 032a 30       		.byte	48
 4464 032b 48       		.byte	72
 4465 032c 48       		.byte	72
 4466 032d 4A       		.byte	74
ARM GAS  C:\Users\PC\AppData\Local\Temp\ccKVdNiW.s 			page 100


 4467 032e 32       		.byte	50
 4468 032f 38       		.byte	56
 4469 0330 40       		.byte	64
 4470 0331 40       		.byte	64
 4471 0332 22       		.byte	34
 4472 0333 7A       		.byte	122
 4473 0334 00       		.byte	0
 4474 0335 7A       		.byte	122
 4475 0336 0A       		.byte	10
 4476 0337 0A       		.byte	10
 4477 0338 72       		.byte	114
 4478 0339 7D       		.byte	125
 4479 033a 0D       		.byte	13
 4480 033b 19       		.byte	25
 4481 033c 31       		.byte	49
 4482 033d 7D       		.byte	125
 4483 033e 26       		.byte	38
 4484 033f 29       		.byte	41
 4485 0340 29       		.byte	41
 4486 0341 2F       		.byte	47
 4487 0342 28       		.byte	40
 4488 0343 26       		.byte	38
 4489 0344 29       		.byte	41
 4490 0345 29       		.byte	41
 4491 0346 29       		.byte	41
 4492 0347 26       		.byte	38
 4493 0348 30       		.byte	48
 4494 0349 48       		.byte	72
 4495 034a 4D       		.byte	77
 4496 034b 40       		.byte	64
 4497 034c 20       		.byte	32
 4498 034d 38       		.byte	56
 4499 034e 08       		.byte	8
 4500 034f 08       		.byte	8
 4501 0350 08       		.byte	8
 4502 0351 08       		.byte	8
 4503 0352 08       		.byte	8
 4504 0353 08       		.byte	8
 4505 0354 08       		.byte	8
 4506 0355 08       		.byte	8
 4507 0356 38       		.byte	56
 4508 0357 2F       		.byte	47
 4509 0358 10       		.byte	16
 4510 0359 C8       		.byte	-56
 4511 035a AC       		.byte	-84
 4512 035b BA       		.byte	-70
 4513 035c 2F       		.byte	47
 4514 035d 10       		.byte	16
 4515 035e 28       		.byte	40
 4516 035f 34       		.byte	52
 4517 0360 FA       		.byte	-6
 4518 0361 00       		.byte	0
 4519 0362 00       		.byte	0
 4520 0363 7B       		.byte	123
 4521 0364 00       		.byte	0
 4522 0365 00       		.byte	0
 4523 0366 08       		.byte	8
ARM GAS  C:\Users\PC\AppData\Local\Temp\ccKVdNiW.s 			page 101


 4524 0367 14       		.byte	20
 4525 0368 2A       		.byte	42
 4526 0369 14       		.byte	20
 4527 036a 22       		.byte	34
 4528 036b 22       		.byte	34
 4529 036c 14       		.byte	20
 4530 036d 2A       		.byte	42
 4531 036e 14       		.byte	20
 4532 036f 08       		.byte	8
 4533 0370 55       		.byte	85
 4534 0371 00       		.byte	0
 4535 0372 55       		.byte	85
 4536 0373 00       		.byte	0
 4537 0374 55       		.byte	85
 4538 0375 AA       		.byte	-86
 4539 0376 55       		.byte	85
 4540 0377 AA       		.byte	-86
 4541 0378 55       		.byte	85
 4542 0379 AA       		.byte	-86
 4543 037a FF       		.byte	-1
 4544 037b 55       		.byte	85
 4545 037c FF       		.byte	-1
 4546 037d 55       		.byte	85
 4547 037e FF       		.byte	-1
 4548 037f 00       		.byte	0
 4549 0380 00       		.byte	0
 4550 0381 00       		.byte	0
 4551 0382 FF       		.byte	-1
 4552 0383 00       		.byte	0
 4553 0384 10       		.byte	16
 4554 0385 10       		.byte	16
 4555 0386 10       		.byte	16
 4556 0387 FF       		.byte	-1
 4557 0388 00       		.byte	0
 4558 0389 14       		.byte	20
 4559 038a 14       		.byte	20
 4560 038b 14       		.byte	20
 4561 038c FF       		.byte	-1
 4562 038d 00       		.byte	0
 4563 038e 10       		.byte	16
 4564 038f 10       		.byte	16
 4565 0390 FF       		.byte	-1
 4566 0391 00       		.byte	0
 4567 0392 FF       		.byte	-1
 4568 0393 10       		.byte	16
 4569 0394 10       		.byte	16
 4570 0395 F0       		.byte	-16
 4571 0396 10       		.byte	16
 4572 0397 F0       		.byte	-16
 4573 0398 14       		.byte	20
 4574 0399 14       		.byte	20
 4575 039a 14       		.byte	20
 4576 039b FC       		.byte	-4
 4577 039c 00       		.byte	0
 4578 039d 14       		.byte	20
 4579 039e 14       		.byte	20
 4580 039f F7       		.byte	-9
ARM GAS  C:\Users\PC\AppData\Local\Temp\ccKVdNiW.s 			page 102


 4581 03a0 00       		.byte	0
 4582 03a1 FF       		.byte	-1
 4583 03a2 00       		.byte	0
 4584 03a3 00       		.byte	0
 4585 03a4 FF       		.byte	-1
 4586 03a5 00       		.byte	0
 4587 03a6 FF       		.byte	-1
 4588 03a7 14       		.byte	20
 4589 03a8 14       		.byte	20
 4590 03a9 F4       		.byte	-12
 4591 03aa 04       		.byte	4
 4592 03ab FC       		.byte	-4
 4593 03ac 14       		.byte	20
 4594 03ad 14       		.byte	20
 4595 03ae 17       		.byte	23
 4596 03af 10       		.byte	16
 4597 03b0 1F       		.byte	31
 4598 03b1 10       		.byte	16
 4599 03b2 10       		.byte	16
 4600 03b3 1F       		.byte	31
 4601 03b4 10       		.byte	16
 4602 03b5 1F       		.byte	31
 4603 03b6 14       		.byte	20
 4604 03b7 14       		.byte	20
 4605 03b8 14       		.byte	20
 4606 03b9 1F       		.byte	31
 4607 03ba 00       		.byte	0
 4608 03bb 10       		.byte	16
 4609 03bc 10       		.byte	16
 4610 03bd 10       		.byte	16
 4611 03be F0       		.byte	-16
 4612 03bf 00       		.byte	0
 4613 03c0 00       		.byte	0
 4614 03c1 00       		.byte	0
 4615 03c2 00       		.byte	0
 4616 03c3 1F       		.byte	31
 4617 03c4 10       		.byte	16
 4618 03c5 10       		.byte	16
 4619 03c6 10       		.byte	16
 4620 03c7 10       		.byte	16
 4621 03c8 1F       		.byte	31
 4622 03c9 10       		.byte	16
 4623 03ca 10       		.byte	16
 4624 03cb 10       		.byte	16
 4625 03cc 10       		.byte	16
 4626 03cd F0       		.byte	-16
 4627 03ce 10       		.byte	16
 4628 03cf 00       		.byte	0
 4629 03d0 00       		.byte	0
 4630 03d1 00       		.byte	0
 4631 03d2 FF       		.byte	-1
 4632 03d3 10       		.byte	16
 4633 03d4 10       		.byte	16
 4634 03d5 10       		.byte	16
 4635 03d6 10       		.byte	16
 4636 03d7 10       		.byte	16
 4637 03d8 10       		.byte	16
ARM GAS  C:\Users\PC\AppData\Local\Temp\ccKVdNiW.s 			page 103


 4638 03d9 10       		.byte	16
 4639 03da 10       		.byte	16
 4640 03db 10       		.byte	16
 4641 03dc FF       		.byte	-1
 4642 03dd 10       		.byte	16
 4643 03de 00       		.byte	0
 4644 03df 00       		.byte	0
 4645 03e0 00       		.byte	0
 4646 03e1 FF       		.byte	-1
 4647 03e2 14       		.byte	20
 4648 03e3 00       		.byte	0
 4649 03e4 00       		.byte	0
 4650 03e5 FF       		.byte	-1
 4651 03e6 00       		.byte	0
 4652 03e7 FF       		.byte	-1
 4653 03e8 00       		.byte	0
 4654 03e9 00       		.byte	0
 4655 03ea 1F       		.byte	31
 4656 03eb 10       		.byte	16
 4657 03ec 17       		.byte	23
 4658 03ed 00       		.byte	0
 4659 03ee 00       		.byte	0
 4660 03ef FC       		.byte	-4
 4661 03f0 04       		.byte	4
 4662 03f1 F4       		.byte	-12
 4663 03f2 14       		.byte	20
 4664 03f3 14       		.byte	20
 4665 03f4 17       		.byte	23
 4666 03f5 10       		.byte	16
 4667 03f6 17       		.byte	23
 4668 03f7 14       		.byte	20
 4669 03f8 14       		.byte	20
 4670 03f9 F4       		.byte	-12
 4671 03fa 04       		.byte	4
 4672 03fb F4       		.byte	-12
 4673 03fc 00       		.byte	0
 4674 03fd 00       		.byte	0
 4675 03fe FF       		.byte	-1
 4676 03ff 00       		.byte	0
 4677 0400 F7       		.byte	-9
 4678 0401 14       		.byte	20
 4679 0402 14       		.byte	20
 4680 0403 14       		.byte	20
 4681 0404 14       		.byte	20
 4682 0405 14       		.byte	20
 4683 0406 14       		.byte	20
 4684 0407 14       		.byte	20
 4685 0408 F7       		.byte	-9
 4686 0409 00       		.byte	0
 4687 040a F7       		.byte	-9
 4688 040b 14       		.byte	20
 4689 040c 14       		.byte	20
 4690 040d 14       		.byte	20
 4691 040e 17       		.byte	23
 4692 040f 14       		.byte	20
 4693 0410 10       		.byte	16
 4694 0411 10       		.byte	16
ARM GAS  C:\Users\PC\AppData\Local\Temp\ccKVdNiW.s 			page 104


 4695 0412 1F       		.byte	31
 4696 0413 10       		.byte	16
 4697 0414 1F       		.byte	31
 4698 0415 14       		.byte	20
 4699 0416 14       		.byte	20
 4700 0417 14       		.byte	20
 4701 0418 F4       		.byte	-12
 4702 0419 14       		.byte	20
 4703 041a 10       		.byte	16
 4704 041b 10       		.byte	16
 4705 041c F0       		.byte	-16
 4706 041d 10       		.byte	16
 4707 041e F0       		.byte	-16
 4708 041f 00       		.byte	0
 4709 0420 00       		.byte	0
 4710 0421 1F       		.byte	31
 4711 0422 10       		.byte	16
 4712 0423 1F       		.byte	31
 4713 0424 00       		.byte	0
 4714 0425 00       		.byte	0
 4715 0426 00       		.byte	0
 4716 0427 1F       		.byte	31
 4717 0428 14       		.byte	20
 4718 0429 00       		.byte	0
 4719 042a 00       		.byte	0
 4720 042b 00       		.byte	0
 4721 042c FC       		.byte	-4
 4722 042d 14       		.byte	20
 4723 042e 00       		.byte	0
 4724 042f 00       		.byte	0
 4725 0430 F0       		.byte	-16
 4726 0431 10       		.byte	16
 4727 0432 F0       		.byte	-16
 4728 0433 10       		.byte	16
 4729 0434 10       		.byte	16
 4730 0435 FF       		.byte	-1
 4731 0436 10       		.byte	16
 4732 0437 FF       		.byte	-1
 4733 0438 14       		.byte	20
 4734 0439 14       		.byte	20
 4735 043a 14       		.byte	20
 4736 043b FF       		.byte	-1
 4737 043c 14       		.byte	20
 4738 043d 10       		.byte	16
 4739 043e 10       		.byte	16
 4740 043f 10       		.byte	16
 4741 0440 1F       		.byte	31
 4742 0441 00       		.byte	0
 4743 0442 00       		.byte	0
 4744 0443 00       		.byte	0
 4745 0444 00       		.byte	0
 4746 0445 F0       		.byte	-16
 4747 0446 10       		.byte	16
 4748 0447 FF       		.byte	-1
 4749 0448 FF       		.byte	-1
 4750 0449 FF       		.byte	-1
 4751 044a FF       		.byte	-1
ARM GAS  C:\Users\PC\AppData\Local\Temp\ccKVdNiW.s 			page 105


 4752 044b FF       		.byte	-1
 4753 044c F0       		.byte	-16
 4754 044d F0       		.byte	-16
 4755 044e F0       		.byte	-16
 4756 044f F0       		.byte	-16
 4757 0450 F0       		.byte	-16
 4758 0451 FF       		.byte	-1
 4759 0452 FF       		.byte	-1
 4760 0453 FF       		.byte	-1
 4761 0454 00       		.byte	0
 4762 0455 00       		.byte	0
 4763 0456 00       		.byte	0
 4764 0457 00       		.byte	0
 4765 0458 00       		.byte	0
 4766 0459 FF       		.byte	-1
 4767 045a FF       		.byte	-1
 4768 045b 0F       		.byte	15
 4769 045c 0F       		.byte	15
 4770 045d 0F       		.byte	15
 4771 045e 0F       		.byte	15
 4772 045f 0F       		.byte	15
 4773 0460 38       		.byte	56
 4774 0461 44       		.byte	68
 4775 0462 44       		.byte	68
 4776 0463 38       		.byte	56
 4777 0464 44       		.byte	68
 4778 0465 FC       		.byte	-4
 4779 0466 4A       		.byte	74
 4780 0467 4A       		.byte	74
 4781 0468 4A       		.byte	74
 4782 0469 34       		.byte	52
 4783 046a 7E       		.byte	126
 4784 046b 02       		.byte	2
 4785 046c 02       		.byte	2
 4786 046d 06       		.byte	6
 4787 046e 06       		.byte	6
 4788 046f 02       		.byte	2
 4789 0470 7E       		.byte	126
 4790 0471 02       		.byte	2
 4791 0472 7E       		.byte	126
 4792 0473 02       		.byte	2
 4793 0474 63       		.byte	99
 4794 0475 55       		.byte	85
 4795 0476 49       		.byte	73
 4796 0477 41       		.byte	65
 4797 0478 63       		.byte	99
 4798 0479 38       		.byte	56
 4799 047a 44       		.byte	68
 4800 047b 44       		.byte	68
 4801 047c 3C       		.byte	60
 4802 047d 04       		.byte	4
 4803 047e 40       		.byte	64
 4804 047f 7E       		.byte	126
 4805 0480 20       		.byte	32
 4806 0481 1E       		.byte	30
 4807 0482 20       		.byte	32
 4808 0483 06       		.byte	6
ARM GAS  C:\Users\PC\AppData\Local\Temp\ccKVdNiW.s 			page 106


 4809 0484 02       		.byte	2
 4810 0485 7E       		.byte	126
 4811 0486 02       		.byte	2
 4812 0487 02       		.byte	2
 4813 0488 99       		.byte	-103
 4814 0489 A5       		.byte	-91
 4815 048a E7       		.byte	-25
 4816 048b A5       		.byte	-91
 4817 048c 99       		.byte	-103
 4818 048d 1C       		.byte	28
 4819 048e 2A       		.byte	42
 4820 048f 49       		.byte	73
 4821 0490 2A       		.byte	42
 4822 0491 1C       		.byte	28
 4823 0492 4C       		.byte	76
 4824 0493 72       		.byte	114
 4825 0494 01       		.byte	1
 4826 0495 72       		.byte	114
 4827 0496 4C       		.byte	76
 4828 0497 30       		.byte	48
 4829 0498 4A       		.byte	74
 4830 0499 4D       		.byte	77
 4831 049a 4D       		.byte	77
 4832 049b 30       		.byte	48
 4833 049c 30       		.byte	48
 4834 049d 48       		.byte	72
 4835 049e 78       		.byte	120
 4836 049f 48       		.byte	72
 4837 04a0 30       		.byte	48
 4838 04a1 BC       		.byte	-68
 4839 04a2 62       		.byte	98
 4840 04a3 5A       		.byte	90
 4841 04a4 46       		.byte	70
 4842 04a5 3D       		.byte	61
 4843 04a6 3E       		.byte	62
 4844 04a7 49       		.byte	73
 4845 04a8 49       		.byte	73
 4846 04a9 49       		.byte	73
 4847 04aa 00       		.byte	0
 4848 04ab 7E       		.byte	126
 4849 04ac 01       		.byte	1
 4850 04ad 01       		.byte	1
 4851 04ae 01       		.byte	1
 4852 04af 7E       		.byte	126
 4853 04b0 2A       		.byte	42
 4854 04b1 2A       		.byte	42
 4855 04b2 2A       		.byte	42
 4856 04b3 2A       		.byte	42
 4857 04b4 2A       		.byte	42
 4858 04b5 44       		.byte	68
 4859 04b6 44       		.byte	68
 4860 04b7 5F       		.byte	95
 4861 04b8 44       		.byte	68
 4862 04b9 44       		.byte	68
 4863 04ba 40       		.byte	64
 4864 04bb 51       		.byte	81
 4865 04bc 4A       		.byte	74
ARM GAS  C:\Users\PC\AppData\Local\Temp\ccKVdNiW.s 			page 107


 4866 04bd 44       		.byte	68
 4867 04be 40       		.byte	64
 4868 04bf 40       		.byte	64
 4869 04c0 44       		.byte	68
 4870 04c1 4A       		.byte	74
 4871 04c2 51       		.byte	81
 4872 04c3 40       		.byte	64
 4873 04c4 00       		.byte	0
 4874 04c5 00       		.byte	0
 4875 04c6 FF       		.byte	-1
 4876 04c7 01       		.byte	1
 4877 04c8 03       		.byte	3
 4878 04c9 E0       		.byte	-32
 4879 04ca 80       		.byte	-128
 4880 04cb FF       		.byte	-1
 4881 04cc 00       		.byte	0
 4882 04cd 00       		.byte	0
 4883 04ce 08       		.byte	8
 4884 04cf 08       		.byte	8
 4885 04d0 6B       		.byte	107
 4886 04d1 6B       		.byte	107
 4887 04d2 08       		.byte	8
 4888 04d3 36       		.byte	54
 4889 04d4 12       		.byte	18
 4890 04d5 36       		.byte	54
 4891 04d6 24       		.byte	36
 4892 04d7 36       		.byte	54
 4893 04d8 06       		.byte	6
 4894 04d9 0F       		.byte	15
 4895 04da 09       		.byte	9
 4896 04db 0F       		.byte	15
 4897 04dc 06       		.byte	6
 4898 04dd 00       		.byte	0
 4899 04de 00       		.byte	0
 4900 04df 18       		.byte	24
 4901 04e0 18       		.byte	24
 4902 04e1 00       		.byte	0
 4903 04e2 00       		.byte	0
 4904 04e3 00       		.byte	0
 4905 04e4 10       		.byte	16
 4906 04e5 10       		.byte	16
 4907 04e6 00       		.byte	0
 4908 04e7 30       		.byte	48
 4909 04e8 40       		.byte	64
 4910 04e9 FF       		.byte	-1
 4911 04ea 01       		.byte	1
 4912 04eb 01       		.byte	1
 4913 04ec 00       		.byte	0
 4914 04ed 1F       		.byte	31
 4915 04ee 01       		.byte	1
 4916 04ef 01       		.byte	1
 4917 04f0 1E       		.byte	30
 4918 04f1 00       		.byte	0
 4919 04f2 19       		.byte	25
 4920 04f3 1D       		.byte	29
 4921 04f4 17       		.byte	23
 4922 04f5 12       		.byte	18
ARM GAS  C:\Users\PC\AppData\Local\Temp\ccKVdNiW.s 			page 108


 4923 04f6 00       		.byte	0
 4924 04f7 3C       		.byte	60
 4925 04f8 3C       		.byte	60
 4926 04f9 3C       		.byte	60
 4927 04fa 3C       		.byte	60
 4928 04fb 00       		.byte	0
 4929 04fc 00       		.byte	0
 4930 04fd 00       		.byte	0
 4931 04fe 00       		.byte	0
 4932 04ff 00       		.byte	0
 4933              		.data
 4934              		.align	1
 4935              		.set	.LANCHOR1,. + 0
 4936              		.type	wrap, %object
 4937              		.size	wrap, 1
 4938              	wrap:
 4939 0000 01       		.byte	1
 4940              		.type	textsize, %object
 4941              		.size	textsize, 1
 4942              	textsize:
 4943 0001 01       		.byte	1
 4944              		.type	textcolor, %object
 4945              		.size	textcolor, 2
 4946              	textcolor:
 4947 0002 FFFF     		.short	-1
 4948              		.type	textbgcolor, %object
 4949              		.size	textbgcolor, 2
 4950              	textbgcolor:
 4951 0004 FFFF     		.short	-1
 4952              		.bss
 4953              		.align	1
 4954              		.set	.LANCHOR0,. + 0
 4955              		.type	cursor_x, %object
 4956              		.size	cursor_x, 2
 4957              	cursor_x:
 4958 0000 0000     		.space	2
 4959              		.type	cursor_y, %object
 4960              		.size	cursor_y, 2
 4961              	cursor_y:
 4962 0002 0000     		.space	2
 4963              		.text
 4964              	.Letext0:
 4965              		.file 2 "c:\\program files (x86)\\cypress\\psoc creator\\4.4\\psoc creator\\import\\gnu\\arm\\5.4.
 4966              		.file 3 "c:\\program files (x86)\\cypress\\psoc creator\\4.4\\psoc creator\\import\\gnu\\arm\\5.4.
 4967              		.file 4 "ssd1306.h"
 4968              		.file 5 "<built-in>"
 4969              		.section	.debug_info,"",%progbits
 4970              	.Ldebug_info0:
 4971 0000 E7190000 		.4byte	0x19e7
 4972 0004 0400     		.2byte	0x4
 4973 0006 00000000 		.4byte	.Ldebug_abbrev0
 4974 000a 04       		.byte	0x4
 4975 000b 01       		.uleb128 0x1
 4976 000c 27010000 		.4byte	.LASF96
 4977 0010 0C       		.byte	0xc
 4978 0011 5F050000 		.4byte	.LASF97
 4979 0015 A7000000 		.4byte	.LASF98
ARM GAS  C:\Users\PC\AppData\Local\Temp\ccKVdNiW.s 			page 109


 4980 0019 A8000000 		.4byte	.Ldebug_ranges0+0xa8
 4981 001d 00000000 		.4byte	0
 4982 0021 00000000 		.4byte	.Ldebug_line0
 4983 0025 02       		.uleb128 0x2
 4984 0026 01       		.byte	0x1
 4985 0027 06       		.byte	0x6
 4986 0028 EE040000 		.4byte	.LASF0
 4987 002c 03       		.uleb128 0x3
 4988 002d 2D040000 		.4byte	.LASF2
 4989 0031 02       		.byte	0x2
 4990 0032 1D       		.byte	0x1d
 4991 0033 37000000 		.4byte	0x37
 4992 0037 02       		.uleb128 0x2
 4993 0038 01       		.byte	0x1
 4994 0039 08       		.byte	0x8
 4995 003a 7E040000 		.4byte	.LASF1
 4996 003e 03       		.uleb128 0x3
 4997 003f DA020000 		.4byte	.LASF3
 4998 0043 02       		.byte	0x2
 4999 0044 29       		.byte	0x29
 5000 0045 49000000 		.4byte	0x49
 5001 0049 02       		.uleb128 0x2
 5002 004a 02       		.byte	0x2
 5003 004b 05       		.byte	0x5
 5004 004c 9A030000 		.4byte	.LASF4
 5005 0050 03       		.uleb128 0x3
 5006 0051 06020000 		.4byte	.LASF5
 5007 0055 02       		.byte	0x2
 5008 0056 2B       		.byte	0x2b
 5009 0057 5B000000 		.4byte	0x5b
 5010 005b 02       		.uleb128 0x2
 5011 005c 02       		.byte	0x2
 5012 005d 07       		.byte	0x7
 5013 005e 00050000 		.4byte	.LASF6
 5014 0062 03       		.uleb128 0x3
 5015 0063 33000000 		.4byte	.LASF7
 5016 0067 02       		.byte	0x2
 5017 0068 3F       		.byte	0x3f
 5018 0069 6D000000 		.4byte	0x6d
 5019 006d 02       		.uleb128 0x2
 5020 006e 04       		.byte	0x4
 5021 006f 05       		.byte	0x5
 5022 0070 CF030000 		.4byte	.LASF8
 5023 0074 02       		.uleb128 0x2
 5024 0075 04       		.byte	0x4
 5025 0076 07       		.byte	0x7
 5026 0077 5F040000 		.4byte	.LASF9
 5027 007b 02       		.uleb128 0x2
 5028 007c 08       		.byte	0x8
 5029 007d 05       		.byte	0x5
 5030 007e BD020000 		.4byte	.LASF10
 5031 0082 02       		.uleb128 0x2
 5032 0083 08       		.byte	0x8
 5033 0084 07       		.byte	0x7
 5034 0085 E7010000 		.4byte	.LASF11
 5035 0089 04       		.uleb128 0x4
 5036 008a 04       		.byte	0x4
ARM GAS  C:\Users\PC\AppData\Local\Temp\ccKVdNiW.s 			page 110


 5037 008b 05       		.byte	0x5
 5038 008c 696E7400 		.ascii	"int\000"
 5039 0090 02       		.uleb128 0x2
 5040 0091 04       		.byte	0x4
 5041 0092 07       		.byte	0x7
 5042 0093 20000000 		.4byte	.LASF12
 5043 0097 03       		.uleb128 0x3
 5044 0098 A8020000 		.4byte	.LASF13
 5045 009c 03       		.byte	0x3
 5046 009d 18       		.byte	0x18
 5047 009e 2C000000 		.4byte	0x2c
 5048 00a2 03       		.uleb128 0x3
 5049 00a3 D4010000 		.4byte	.LASF14
 5050 00a7 03       		.byte	0x3
 5051 00a8 20       		.byte	0x20
 5052 00a9 3E000000 		.4byte	0x3e
 5053 00ad 03       		.uleb128 0x3
 5054 00ae 78030000 		.4byte	.LASF15
 5055 00b2 03       		.byte	0x3
 5056 00b3 24       		.byte	0x24
 5057 00b4 50000000 		.4byte	0x50
 5058 00b8 03       		.uleb128 0x3
 5059 00b9 71040000 		.4byte	.LASF16
 5060 00bd 03       		.byte	0x3
 5061 00be 2C       		.byte	0x2c
 5062 00bf 62000000 		.4byte	0x62
 5063 00c3 02       		.uleb128 0x2
 5064 00c4 04       		.byte	0x4
 5065 00c5 04       		.byte	0x4
 5066 00c6 21010000 		.4byte	.LASF17
 5067 00ca 02       		.uleb128 0x2
 5068 00cb 08       		.byte	0x8
 5069 00cc 04       		.byte	0x4
 5070 00cd 13050000 		.4byte	.LASF18
 5071 00d1 02       		.uleb128 0x2
 5072 00d2 01       		.byte	0x1
 5073 00d3 08       		.byte	0x8
 5074 00d4 99020000 		.4byte	.LASF19
 5075 00d8 02       		.uleb128 0x2
 5076 00d9 08       		.byte	0x8
 5077 00da 04       		.byte	0x4
 5078 00db 6C030000 		.4byte	.LASF20
 5079 00df 02       		.uleb128 0x2
 5080 00e0 04       		.byte	0x4
 5081 00e1 07       		.byte	0x7
 5082 00e2 56040000 		.4byte	.LASF21
 5083 00e6 05       		.uleb128 0x5
 5084 00e7 04       		.byte	0x4
 5085 00e8 D1000000 		.4byte	0xd1
 5086 00ec 06       		.uleb128 0x6
 5087 00ed 24050000 		.4byte	.LASF26
 5088 00f1 01       		.byte	0x1
 5089 00f2 6501     		.2byte	0x165
 5090 00f4 00000000 		.4byte	.LFB33
 5091 00f8 C8000000 		.4byte	.LFE33-.LFB33
 5092 00fc 01       		.uleb128 0x1
 5093 00fd 9C       		.byte	0x9c
ARM GAS  C:\Users\PC\AppData\Local\Temp\ccKVdNiW.s 			page 111


 5094 00fe 4D020000 		.4byte	0x24d
 5095 0102 07       		.uleb128 0x7
 5096 0103 783000   		.ascii	"x0\000"
 5097 0106 01       		.byte	0x1
 5098 0107 6501     		.2byte	0x165
 5099 0109 AD000000 		.4byte	0xad
 5100 010d 00000000 		.4byte	.LLST0
 5101 0111 07       		.uleb128 0x7
 5102 0112 793000   		.ascii	"y0\000"
 5103 0115 01       		.byte	0x1
 5104 0116 6501     		.2byte	0x165
 5105 0118 AD000000 		.4byte	0xad
 5106 011c 34000000 		.4byte	.LLST1
 5107 0120 07       		.uleb128 0x7
 5108 0121 783100   		.ascii	"x1\000"
 5109 0124 01       		.byte	0x1
 5110 0125 6501     		.2byte	0x165
 5111 0127 AD000000 		.4byte	0xad
 5112 012b 76000000 		.4byte	.LLST2
 5113 012f 07       		.uleb128 0x7
 5114 0130 793100   		.ascii	"y1\000"
 5115 0133 01       		.byte	0x1
 5116 0134 6501     		.2byte	0x165
 5117 0136 AD000000 		.4byte	0xad
 5118 013a A2000000 		.4byte	.LLST3
 5119 013e 08       		.uleb128 0x8
 5120 013f FD030000 		.4byte	.LASF22
 5121 0143 01       		.byte	0x1
 5122 0144 6501     		.2byte	0x165
 5123 0146 AD000000 		.4byte	0xad
 5124 014a E4000000 		.4byte	.LLST4
 5125 014e 09       		.uleb128 0x9
 5126 014f B7020000 		.4byte	.LASF23
 5127 0153 01       		.byte	0x1
 5128 0154 6601     		.2byte	0x166
 5129 0156 4D020000 		.4byte	0x24d
 5130 015a 10010000 		.4byte	.LLST5
 5131 015e 0A       		.uleb128 0xa
 5132 015f 61627300 		.ascii	"abs\000"
 5133 0163 05       		.byte	0x5
 5134 0164 00       		.byte	0
 5135 0165 89000000 		.4byte	0x89
 5136 0169 6F010000 		.4byte	0x16f
 5137 016d 0B       		.uleb128 0xb
 5138 016e 00       		.byte	0
 5139 016f 0C       		.uleb128 0xc
 5140 0170 647800   		.ascii	"dx\000"
 5141 0173 01       		.byte	0x1
 5142 0174 7101     		.2byte	0x171
 5143 0176 A2000000 		.4byte	0xa2
 5144 017a 38010000 		.4byte	.LLST6
 5145 017e 0C       		.uleb128 0xc
 5146 017f 647900   		.ascii	"dy\000"
 5147 0182 01       		.byte	0x1
 5148 0183 7101     		.2byte	0x171
 5149 0185 A2000000 		.4byte	0xa2
 5150 0189 56010000 		.4byte	.LLST7
ARM GAS  C:\Users\PC\AppData\Local\Temp\ccKVdNiW.s 			page 112


 5151 018d 0C       		.uleb128 0xc
 5152 018e 65727200 		.ascii	"err\000"
 5153 0192 01       		.byte	0x1
 5154 0193 7501     		.2byte	0x175
 5155 0195 A2000000 		.4byte	0xa2
 5156 0199 69010000 		.4byte	.LLST8
 5157 019d 0D       		.uleb128 0xd
 5158 019e 37040000 		.4byte	.LASF24
 5159 01a2 01       		.byte	0x1
 5160 01a3 7601     		.2byte	0x176
 5161 01a5 A2000000 		.4byte	0xa2
 5162 01a9 02       		.uleb128 0x2
 5163 01aa 91       		.byte	0x91
 5164 01ab 54       		.sleb128 -44
 5165 01ac 0E       		.uleb128 0xe
 5166 01ad 38000000 		.4byte	.LBB2
 5167 01b1 04000000 		.4byte	.LBE2-.LBB2
 5168 01b5 C4010000 		.4byte	0x1c4
 5169 01b9 0F       		.uleb128 0xf
 5170 01ba 7400     		.ascii	"t\000"
 5171 01bc 01       		.byte	0x1
 5172 01bd 6901     		.2byte	0x169
 5173 01bf A2000000 		.4byte	0xa2
 5174 01c3 00       		.byte	0
 5175 01c4 0E       		.uleb128 0xe
 5176 01c5 3C000000 		.4byte	.LBB3
 5177 01c9 04000000 		.4byte	.LBE3-.LBB3
 5178 01cd DC010000 		.4byte	0x1dc
 5179 01d1 0F       		.uleb128 0xf
 5180 01d2 7400     		.ascii	"t\000"
 5181 01d4 01       		.byte	0x1
 5182 01d5 6801     		.2byte	0x168
 5183 01d7 A2000000 		.4byte	0xa2
 5184 01db 00       		.byte	0
 5185 01dc 0E       		.uleb128 0xe
 5186 01dd 46000000 		.4byte	.LBB4
 5187 01e1 04000000 		.4byte	.LBE4-.LBB4
 5188 01e5 F4010000 		.4byte	0x1f4
 5189 01e9 0F       		.uleb128 0xf
 5190 01ea 7400     		.ascii	"t\000"
 5191 01ec 01       		.byte	0x1
 5192 01ed 6E01     		.2byte	0x16e
 5193 01ef A2000000 		.4byte	0xa2
 5194 01f3 00       		.byte	0
 5195 01f4 0E       		.uleb128 0xe
 5196 01f5 4C000000 		.4byte	.LBB5
 5197 01f9 04000000 		.4byte	.LBE5-.LBB5
 5198 01fd 0C020000 		.4byte	0x20c
 5199 0201 0F       		.uleb128 0xf
 5200 0202 7400     		.ascii	"t\000"
 5201 0204 01       		.byte	0x1
 5202 0205 6D01     		.2byte	0x16d
 5203 0207 A2000000 		.4byte	0xa2
 5204 020b 00       		.byte	0
 5205 020c 10       		.uleb128 0x10
 5206 020d 8C000000 		.4byte	.LVL20
 5207 0211 B2190000 		.4byte	0x19b2
ARM GAS  C:\Users\PC\AppData\Local\Temp\ccKVdNiW.s 			page 113


 5208 0215 2E020000 		.4byte	0x22e
 5209 0219 11       		.uleb128 0x11
 5210 021a 01       		.uleb128 0x1
 5211 021b 50       		.byte	0x50
 5212 021c 02       		.uleb128 0x2
 5213 021d 76       		.byte	0x76
 5214 021e 00       		.sleb128 0
 5215 021f 11       		.uleb128 0x11
 5216 0220 01       		.uleb128 0x1
 5217 0221 51       		.byte	0x51
 5218 0222 02       		.uleb128 0x2
 5219 0223 75       		.byte	0x75
 5220 0224 00       		.sleb128 0
 5221 0225 11       		.uleb128 0x11
 5222 0226 01       		.uleb128 0x1
 5223 0227 52       		.byte	0x52
 5224 0228 04       		.uleb128 0x4
 5225 0229 7D       		.byte	0x7d
 5226 022a 00       		.sleb128 0
 5227 022b 94       		.byte	0x94
 5228 022c 01       		.byte	0x1
 5229 022d 00       		.byte	0
 5230 022e 12       		.uleb128 0x12
 5231 022f 9A000000 		.4byte	.LVL21
 5232 0233 B2190000 		.4byte	0x19b2
 5233 0237 11       		.uleb128 0x11
 5234 0238 01       		.uleb128 0x1
 5235 0239 50       		.byte	0x50
 5236 023a 02       		.uleb128 0x2
 5237 023b 75       		.byte	0x75
 5238 023c 00       		.sleb128 0
 5239 023d 11       		.uleb128 0x11
 5240 023e 01       		.uleb128 0x1
 5241 023f 51       		.byte	0x51
 5242 0240 02       		.uleb128 0x2
 5243 0241 76       		.byte	0x76
 5244 0242 00       		.sleb128 0
 5245 0243 11       		.uleb128 0x11
 5246 0244 01       		.uleb128 0x1
 5247 0245 52       		.byte	0x52
 5248 0246 04       		.uleb128 0x4
 5249 0247 7D       		.byte	0x7d
 5250 0248 00       		.sleb128 0
 5251 0249 94       		.byte	0x94
 5252 024a 01       		.byte	0x1
 5253 024b 00       		.byte	0
 5254 024c 00       		.byte	0
 5255 024d 02       		.uleb128 0x2
 5256 024e 01       		.byte	0x1
 5257 024f 02       		.byte	0x2
 5258 0250 3B020000 		.4byte	.LASF25
 5259 0254 06       		.uleb128 0x6
 5260 0255 2E050000 		.4byte	.LASF27
 5261 0259 01       		.byte	0x1
 5262 025a 9601     		.2byte	0x196
 5263 025c 00000000 		.4byte	.LFB34
 5264 0260 54000000 		.4byte	.LFE34-.LFB34
ARM GAS  C:\Users\PC\AppData\Local\Temp\ccKVdNiW.s 			page 114


 5265 0264 01       		.uleb128 0x1
 5266 0265 9C       		.byte	0x9c
 5267 0266 20030000 		.4byte	0x320
 5268 026a 07       		.uleb128 0x7
 5269 026b 783000   		.ascii	"x0\000"
 5270 026e 01       		.byte	0x1
 5271 026f 9601     		.2byte	0x196
 5272 0271 AD000000 		.4byte	0xad
 5273 0275 87010000 		.4byte	.LLST9
 5274 0279 07       		.uleb128 0x7
 5275 027a 793000   		.ascii	"y0\000"
 5276 027d 01       		.byte	0x1
 5277 027e 9601     		.2byte	0x196
 5278 0280 AD000000 		.4byte	0xad
 5279 0284 E5010000 		.4byte	.LLST10
 5280 0288 07       		.uleb128 0x7
 5281 0289 783100   		.ascii	"x1\000"
 5282 028c 01       		.byte	0x1
 5283 028d 9601     		.2byte	0x196
 5284 028f AD000000 		.4byte	0xad
 5285 0293 43020000 		.4byte	.LLST11
 5286 0297 07       		.uleb128 0x7
 5287 0298 793100   		.ascii	"y1\000"
 5288 029b 01       		.byte	0x1
 5289 029c 9601     		.2byte	0x196
 5290 029e AD000000 		.4byte	0xad
 5291 02a2 88020000 		.4byte	.LLST12
 5292 02a6 08       		.uleb128 0x8
 5293 02a7 FD030000 		.4byte	.LASF22
 5294 02ab 01       		.byte	0x1
 5295 02ac 9601     		.2byte	0x196
 5296 02ae AD000000 		.4byte	0xad
 5297 02b2 D8020000 		.4byte	.LLST13
 5298 02b6 0E       		.uleb128 0xe
 5299 02b7 12000000 		.4byte	.LBB6
 5300 02bb 04000000 		.4byte	.LBE6-.LBB6
 5301 02bf CE020000 		.4byte	0x2ce
 5302 02c3 0F       		.uleb128 0xf
 5303 02c4 7400     		.ascii	"t\000"
 5304 02c6 01       		.byte	0x1
 5305 02c7 9901     		.2byte	0x199
 5306 02c9 A2000000 		.4byte	0xa2
 5307 02cd 00       		.byte	0
 5308 02ce 0E       		.uleb128 0xe
 5309 02cf 34000000 		.4byte	.LBB7
 5310 02d3 04000000 		.4byte	.LBE7-.LBB7
 5311 02d7 E6020000 		.4byte	0x2e6
 5312 02db 0F       		.uleb128 0xf
 5313 02dc 7400     		.ascii	"t\000"
 5314 02de 01       		.byte	0x1
 5315 02df 9C01     		.2byte	0x19c
 5316 02e1 A2000000 		.4byte	0xa2
 5317 02e5 00       		.byte	0
 5318 02e6 10       		.uleb128 0x10
 5319 02e7 28000000 		.4byte	.LVL45
 5320 02eb BD190000 		.4byte	0x19bd
 5321 02ef FA020000 		.4byte	0x2fa
ARM GAS  C:\Users\PC\AppData\Local\Temp\ccKVdNiW.s 			page 115


 5322 02f3 11       		.uleb128 0x11
 5323 02f4 01       		.uleb128 0x1
 5324 02f5 53       		.byte	0x53
 5325 02f6 02       		.uleb128 0x2
 5326 02f7 74       		.byte	0x74
 5327 02f8 00       		.sleb128 0
 5328 02f9 00       		.byte	0
 5329 02fa 10       		.uleb128 0x10
 5330 02fb 48000000 		.4byte	.LVL53
 5331 02ff C8190000 		.4byte	0x19c8
 5332 0303 0E030000 		.4byte	0x30e
 5333 0307 11       		.uleb128 0x11
 5334 0308 01       		.uleb128 0x1
 5335 0309 53       		.byte	0x53
 5336 030a 02       		.uleb128 0x2
 5337 030b 74       		.byte	0x74
 5338 030c 00       		.sleb128 0
 5339 030d 00       		.byte	0
 5340 030e 12       		.uleb128 0x12
 5341 030f 50000000 		.4byte	.LVL55
 5342 0313 EC000000 		.4byte	0xec
 5343 0317 11       		.uleb128 0x11
 5344 0318 02       		.uleb128 0x2
 5345 0319 7D       		.byte	0x7d
 5346 031a 00       		.sleb128 0
 5347 031b 02       		.uleb128 0x2
 5348 031c 74       		.byte	0x74
 5349 031d 00       		.sleb128 0
 5350 031e 00       		.byte	0
 5351 031f 00       		.byte	0
 5352 0320 06       		.uleb128 0x6
 5353 0321 EA030000 		.4byte	.LASF28
 5354 0325 01       		.byte	0x1
 5355 0326 AC01     		.2byte	0x1ac
 5356 0328 00000000 		.4byte	.LFB35
 5357 032c 48010000 		.4byte	.LFE35-.LFB35
 5358 0330 01       		.uleb128 0x1
 5359 0331 9C       		.byte	0x9c
 5360 0332 53050000 		.4byte	0x553
 5361 0336 07       		.uleb128 0x7
 5362 0337 783000   		.ascii	"x0\000"
 5363 033a 01       		.byte	0x1
 5364 033b AC01     		.2byte	0x1ac
 5365 033d AD000000 		.4byte	0xad
 5366 0341 04030000 		.4byte	.LLST14
 5367 0345 07       		.uleb128 0x7
 5368 0346 793000   		.ascii	"y0\000"
 5369 0349 01       		.byte	0x1
 5370 034a AC01     		.2byte	0x1ac
 5371 034c AD000000 		.4byte	0xad
 5372 0350 25030000 		.4byte	.LLST15
 5373 0354 07       		.uleb128 0x7
 5374 0355 7200     		.ascii	"r\000"
 5375 0357 01       		.byte	0x1
 5376 0358 AC01     		.2byte	0x1ac
 5377 035a AD000000 		.4byte	0xad
 5378 035e 46030000 		.4byte	.LLST16
ARM GAS  C:\Users\PC\AppData\Local\Temp\ccKVdNiW.s 			page 116


 5379 0362 08       		.uleb128 0x8
 5380 0363 FD030000 		.4byte	.LASF22
 5381 0367 01       		.byte	0x1
 5382 0368 AC01     		.2byte	0x1ac
 5383 036a AD000000 		.4byte	0xad
 5384 036e 73030000 		.4byte	.LLST17
 5385 0372 0C       		.uleb128 0xc
 5386 0373 6600     		.ascii	"f\000"
 5387 0375 01       		.byte	0x1
 5388 0376 AD01     		.2byte	0x1ad
 5389 0378 A2000000 		.4byte	0xa2
 5390 037c 94030000 		.4byte	.LLST18
 5391 0380 09       		.uleb128 0x9
 5392 0381 E2040000 		.4byte	.LASF29
 5393 0385 01       		.byte	0x1
 5394 0386 AE01     		.2byte	0x1ae
 5395 0388 A2000000 		.4byte	0xa2
 5396 038c B2030000 		.4byte	.LLST19
 5397 0390 0D       		.uleb128 0xd
 5398 0391 E8040000 		.4byte	.LASF30
 5399 0395 01       		.byte	0x1
 5400 0396 AF01     		.2byte	0x1af
 5401 0398 A2000000 		.4byte	0xa2
 5402 039c 02       		.uleb128 0x2
 5403 039d 91       		.byte	0x91
 5404 039e 54       		.sleb128 -44
 5405 039f 0C       		.uleb128 0xc
 5406 03a0 7800     		.ascii	"x\000"
 5407 03a2 01       		.byte	0x1
 5408 03a3 B001     		.2byte	0x1b0
 5409 03a5 A2000000 		.4byte	0xa2
 5410 03a9 D2030000 		.4byte	.LLST20
 5411 03ad 13       		.uleb128 0x13
 5412 03ae 7900     		.ascii	"y\000"
 5413 03b0 01       		.byte	0x1
 5414 03b1 B101     		.2byte	0x1b1
 5415 03b3 A2000000 		.4byte	0xa2
 5416 03b7 02       		.uleb128 0x2
 5417 03b8 91       		.byte	0x91
 5418 03b9 48       		.sleb128 -56
 5419 03ba 10       		.uleb128 0x10
 5420 03bb 3C000000 		.4byte	.LVL64
 5421 03bf B2190000 		.4byte	0x19b2
 5422 03c3 DD030000 		.4byte	0x3dd
 5423 03c7 11       		.uleb128 0x11
 5424 03c8 01       		.uleb128 0x1
 5425 03c9 50       		.byte	0x50
 5426 03ca 02       		.uleb128 0x2
 5427 03cb 7A       		.byte	0x7a
 5428 03cc 00       		.sleb128 0
 5429 03cd 11       		.uleb128 0x11
 5430 03ce 01       		.uleb128 0x1
 5431 03cf 51       		.byte	0x51
 5432 03d0 05       		.uleb128 0x5
 5433 03d1 7B       		.byte	0x7b
 5434 03d2 00       		.sleb128 0
 5435 03d3 75       		.byte	0x75
ARM GAS  C:\Users\PC\AppData\Local\Temp\ccKVdNiW.s 			page 117


 5436 03d4 00       		.sleb128 0
 5437 03d5 22       		.byte	0x22
 5438 03d6 11       		.uleb128 0x11
 5439 03d7 01       		.uleb128 0x1
 5440 03d8 52       		.byte	0x52
 5441 03d9 02       		.uleb128 0x2
 5442 03da 76       		.byte	0x76
 5443 03db 00       		.sleb128 0
 5444 03dc 00       		.byte	0
 5445 03dd 10       		.uleb128 0x10
 5446 03de 4A000000 		.4byte	.LVL65
 5447 03e2 B2190000 		.4byte	0x19b2
 5448 03e6 00040000 		.4byte	0x400
 5449 03ea 11       		.uleb128 0x11
 5450 03eb 01       		.uleb128 0x1
 5451 03ec 50       		.byte	0x50
 5452 03ed 02       		.uleb128 0x2
 5453 03ee 7A       		.byte	0x7a
 5454 03ef 00       		.sleb128 0
 5455 03f0 11       		.uleb128 0x11
 5456 03f1 01       		.uleb128 0x1
 5457 03f2 51       		.byte	0x51
 5458 03f3 05       		.uleb128 0x5
 5459 03f4 7B       		.byte	0x7b
 5460 03f5 00       		.sleb128 0
 5461 03f6 75       		.byte	0x75
 5462 03f7 00       		.sleb128 0
 5463 03f8 1C       		.byte	0x1c
 5464 03f9 11       		.uleb128 0x11
 5465 03fa 01       		.uleb128 0x1
 5466 03fb 52       		.byte	0x52
 5467 03fc 02       		.uleb128 0x2
 5468 03fd 76       		.byte	0x76
 5469 03fe 00       		.sleb128 0
 5470 03ff 00       		.byte	0
 5471 0400 10       		.uleb128 0x10
 5472 0401 58000000 		.4byte	.LVL66
 5473 0405 B2190000 		.4byte	0x19b2
 5474 0409 23040000 		.4byte	0x423
 5475 040d 11       		.uleb128 0x11
 5476 040e 01       		.uleb128 0x1
 5477 040f 50       		.byte	0x50
 5478 0410 05       		.uleb128 0x5
 5479 0411 7A       		.byte	0x7a
 5480 0412 00       		.sleb128 0
 5481 0413 75       		.byte	0x75
 5482 0414 00       		.sleb128 0
 5483 0415 22       		.byte	0x22
 5484 0416 11       		.uleb128 0x11
 5485 0417 01       		.uleb128 0x1
 5486 0418 51       		.byte	0x51
 5487 0419 02       		.uleb128 0x2
 5488 041a 7B       		.byte	0x7b
 5489 041b 00       		.sleb128 0
 5490 041c 11       		.uleb128 0x11
 5491 041d 01       		.uleb128 0x1
 5492 041e 52       		.byte	0x52
ARM GAS  C:\Users\PC\AppData\Local\Temp\ccKVdNiW.s 			page 118


 5493 041f 02       		.uleb128 0x2
 5494 0420 76       		.byte	0x76
 5495 0421 00       		.sleb128 0
 5496 0422 00       		.byte	0
 5497 0423 10       		.uleb128 0x10
 5498 0424 66000000 		.4byte	.LVL67
 5499 0428 B2190000 		.4byte	0x19b2
 5500 042c 46040000 		.4byte	0x446
 5501 0430 11       		.uleb128 0x11
 5502 0431 01       		.uleb128 0x1
 5503 0432 50       		.byte	0x50
 5504 0433 05       		.uleb128 0x5
 5505 0434 7A       		.byte	0x7a
 5506 0435 00       		.sleb128 0
 5507 0436 75       		.byte	0x75
 5508 0437 00       		.sleb128 0
 5509 0438 1C       		.byte	0x1c
 5510 0439 11       		.uleb128 0x11
 5511 043a 01       		.uleb128 0x1
 5512 043b 51       		.byte	0x51
 5513 043c 02       		.uleb128 0x2
 5514 043d 7B       		.byte	0x7b
 5515 043e 00       		.sleb128 0
 5516 043f 11       		.uleb128 0x11
 5517 0440 01       		.uleb128 0x1
 5518 0441 52       		.byte	0x52
 5519 0442 02       		.uleb128 0x2
 5520 0443 76       		.byte	0x76
 5521 0444 00       		.sleb128 0
 5522 0445 00       		.byte	0
 5523 0446 10       		.uleb128 0x10
 5524 0447 C8000000 		.4byte	.LVL75
 5525 044b B2190000 		.4byte	0x19b2
 5526 044f 6A040000 		.4byte	0x46a
 5527 0453 11       		.uleb128 0x11
 5528 0454 01       		.uleb128 0x1
 5529 0455 50       		.byte	0x50
 5530 0456 04       		.uleb128 0x4
 5531 0457 91       		.byte	0x91
 5532 0458 50       		.sleb128 -48
 5533 0459 94       		.byte	0x94
 5534 045a 01       		.byte	0x1
 5535 045b 11       		.uleb128 0x11
 5536 045c 01       		.uleb128 0x1
 5537 045d 51       		.byte	0x51
 5538 045e 02       		.uleb128 0x2
 5539 045f 77       		.byte	0x77
 5540 0460 00       		.sleb128 0
 5541 0461 11       		.uleb128 0x11
 5542 0462 01       		.uleb128 0x1
 5543 0463 52       		.byte	0x52
 5544 0464 04       		.uleb128 0x4
 5545 0465 91       		.byte	0x91
 5546 0466 44       		.sleb128 -60
 5547 0467 94       		.byte	0x94
 5548 0468 01       		.byte	0x1
 5549 0469 00       		.byte	0
ARM GAS  C:\Users\PC\AppData\Local\Temp\ccKVdNiW.s 			page 119


 5550 046a 10       		.uleb128 0x10
 5551 046b D8000000 		.4byte	.LVL76
 5552 046f B2190000 		.4byte	0x19b2
 5553 0473 8C040000 		.4byte	0x48c
 5554 0477 11       		.uleb128 0x11
 5555 0478 01       		.uleb128 0x1
 5556 0479 50       		.byte	0x50
 5557 047a 02       		.uleb128 0x2
 5558 047b 74       		.byte	0x74
 5559 047c 00       		.sleb128 0
 5560 047d 11       		.uleb128 0x11
 5561 047e 01       		.uleb128 0x1
 5562 047f 51       		.byte	0x51
 5563 0480 02       		.uleb128 0x2
 5564 0481 77       		.byte	0x77
 5565 0482 00       		.sleb128 0
 5566 0483 11       		.uleb128 0x11
 5567 0484 01       		.uleb128 0x1
 5568 0485 52       		.byte	0x52
 5569 0486 04       		.uleb128 0x4
 5570 0487 91       		.byte	0x91
 5571 0488 44       		.sleb128 -60
 5572 0489 94       		.byte	0x94
 5573 048a 01       		.byte	0x1
 5574 048b 00       		.byte	0
 5575 048c 10       		.uleb128 0x10
 5576 048d E8000000 		.4byte	.LVL77
 5577 0491 B2190000 		.4byte	0x19b2
 5578 0495 B0040000 		.4byte	0x4b0
 5579 0499 11       		.uleb128 0x11
 5580 049a 01       		.uleb128 0x1
 5581 049b 50       		.byte	0x50
 5582 049c 04       		.uleb128 0x4
 5583 049d 91       		.byte	0x91
 5584 049e 50       		.sleb128 -48
 5585 049f 94       		.byte	0x94
 5586 04a0 01       		.byte	0x1
 5587 04a1 11       		.uleb128 0x11
 5588 04a2 01       		.uleb128 0x1
 5589 04a3 51       		.byte	0x51
 5590 04a4 02       		.uleb128 0x2
 5591 04a5 77       		.byte	0x77
 5592 04a6 00       		.sleb128 0
 5593 04a7 11       		.uleb128 0x11
 5594 04a8 01       		.uleb128 0x1
 5595 04a9 52       		.byte	0x52
 5596 04aa 04       		.uleb128 0x4
 5597 04ab 91       		.byte	0x91
 5598 04ac 44       		.sleb128 -60
 5599 04ad 94       		.byte	0x94
 5600 04ae 01       		.byte	0x1
 5601 04af 00       		.byte	0
 5602 04b0 10       		.uleb128 0x10
 5603 04b1 F2000000 		.4byte	.LVL78
 5604 04b5 B2190000 		.4byte	0x19b2
 5605 04b9 D2040000 		.4byte	0x4d2
 5606 04bd 11       		.uleb128 0x11
ARM GAS  C:\Users\PC\AppData\Local\Temp\ccKVdNiW.s 			page 120


 5607 04be 01       		.uleb128 0x1
 5608 04bf 50       		.byte	0x50
 5609 04c0 02       		.uleb128 0x2
 5610 04c1 74       		.byte	0x74
 5611 04c2 00       		.sleb128 0
 5612 04c3 11       		.uleb128 0x11
 5613 04c4 01       		.uleb128 0x1
 5614 04c5 51       		.byte	0x51
 5615 04c6 02       		.uleb128 0x2
 5616 04c7 77       		.byte	0x77
 5617 04c8 00       		.sleb128 0
 5618 04c9 11       		.uleb128 0x11
 5619 04ca 01       		.uleb128 0x1
 5620 04cb 52       		.byte	0x52
 5621 04cc 04       		.uleb128 0x4
 5622 04cd 91       		.byte	0x91
 5623 04ce 44       		.sleb128 -60
 5624 04cf 94       		.byte	0x94
 5625 04d0 01       		.byte	0x1
 5626 04d1 00       		.byte	0
 5627 04d2 10       		.uleb128 0x10
 5628 04d3 08010000 		.4byte	.LVL79
 5629 04d7 B2190000 		.4byte	0x19b2
 5630 04db F4040000 		.4byte	0x4f4
 5631 04df 11       		.uleb128 0x11
 5632 04e0 01       		.uleb128 0x1
 5633 04e1 50       		.byte	0x50
 5634 04e2 02       		.uleb128 0x2
 5635 04e3 77       		.byte	0x77
 5636 04e4 00       		.sleb128 0
 5637 04e5 11       		.uleb128 0x11
 5638 04e6 01       		.uleb128 0x1
 5639 04e7 51       		.byte	0x51
 5640 04e8 02       		.uleb128 0x2
 5641 04e9 74       		.byte	0x74
 5642 04ea 00       		.sleb128 0
 5643 04eb 11       		.uleb128 0x11
 5644 04ec 01       		.uleb128 0x1
 5645 04ed 52       		.byte	0x52
 5646 04ee 04       		.uleb128 0x4
 5647 04ef 91       		.byte	0x91
 5648 04f0 44       		.sleb128 -60
 5649 04f1 94       		.byte	0x94
 5650 04f2 01       		.byte	0x1
 5651 04f3 00       		.byte	0
 5652 04f4 10       		.uleb128 0x10
 5653 04f5 18010000 		.4byte	.LVL80
 5654 04f9 B2190000 		.4byte	0x19b2
 5655 04fd 16050000 		.4byte	0x516
 5656 0501 11       		.uleb128 0x11
 5657 0502 01       		.uleb128 0x1
 5658 0503 50       		.byte	0x50
 5659 0504 02       		.uleb128 0x2
 5660 0505 76       		.byte	0x76
 5661 0506 00       		.sleb128 0
 5662 0507 11       		.uleb128 0x11
 5663 0508 01       		.uleb128 0x1
ARM GAS  C:\Users\PC\AppData\Local\Temp\ccKVdNiW.s 			page 121


 5664 0509 51       		.byte	0x51
 5665 050a 02       		.uleb128 0x2
 5666 050b 74       		.byte	0x74
 5667 050c 00       		.sleb128 0
 5668 050d 11       		.uleb128 0x11
 5669 050e 01       		.uleb128 0x1
 5670 050f 52       		.byte	0x52
 5671 0510 04       		.uleb128 0x4
 5672 0511 91       		.byte	0x91
 5673 0512 44       		.sleb128 -60
 5674 0513 94       		.byte	0x94
 5675 0514 01       		.byte	0x1
 5676 0515 00       		.byte	0
 5677 0516 10       		.uleb128 0x10
 5678 0517 2A010000 		.4byte	.LVL81
 5679 051b B2190000 		.4byte	0x19b2
 5680 051f 36050000 		.4byte	0x536
 5681 0523 11       		.uleb128 0x11
 5682 0524 01       		.uleb128 0x1
 5683 0525 50       		.byte	0x50
 5684 0526 02       		.uleb128 0x2
 5685 0527 77       		.byte	0x77
 5686 0528 00       		.sleb128 0
 5687 0529 11       		.uleb128 0x11
 5688 052a 01       		.uleb128 0x1
 5689 052b 51       		.byte	0x51
 5690 052c 02       		.uleb128 0x2
 5691 052d 75       		.byte	0x75
 5692 052e 00       		.sleb128 0
 5693 052f 11       		.uleb128 0x11
 5694 0530 01       		.uleb128 0x1
 5695 0531 52       		.byte	0x52
 5696 0532 02       		.uleb128 0x2
 5697 0533 74       		.byte	0x74
 5698 0534 00       		.sleb128 0
 5699 0535 00       		.byte	0
 5700 0536 12       		.uleb128 0x12
 5701 0537 34010000 		.4byte	.LVL82
 5702 053b B2190000 		.4byte	0x19b2
 5703 053f 11       		.uleb128 0x11
 5704 0540 01       		.uleb128 0x1
 5705 0541 50       		.byte	0x50
 5706 0542 02       		.uleb128 0x2
 5707 0543 76       		.byte	0x76
 5708 0544 00       		.sleb128 0
 5709 0545 11       		.uleb128 0x11
 5710 0546 01       		.uleb128 0x1
 5711 0547 51       		.byte	0x51
 5712 0548 02       		.uleb128 0x2
 5713 0549 75       		.byte	0x75
 5714 054a 00       		.sleb128 0
 5715 054b 11       		.uleb128 0x11
 5716 054c 01       		.uleb128 0x1
 5717 054d 52       		.byte	0x52
 5718 054e 02       		.uleb128 0x2
 5719 054f 74       		.byte	0x74
 5720 0550 00       		.sleb128 0
ARM GAS  C:\Users\PC\AppData\Local\Temp\ccKVdNiW.s 			page 122


 5721 0551 00       		.byte	0
 5722 0552 00       		.byte	0
 5723 0553 06       		.uleb128 0x6
 5724 0554 84000000 		.4byte	.LASF31
 5725 0558 01       		.byte	0x1
 5726 0559 D701     		.2byte	0x1d7
 5727 055b 00000000 		.4byte	.LFB36
 5728 055f 88010000 		.4byte	.LFE36-.LFB36
 5729 0563 01       		.uleb128 0x1
 5730 0564 9C       		.byte	0x9c
 5731 0565 4F070000 		.4byte	0x74f
 5732 0569 07       		.uleb128 0x7
 5733 056a 783000   		.ascii	"x0\000"
 5734 056d 01       		.byte	0x1
 5735 056e D701     		.2byte	0x1d7
 5736 0570 AD000000 		.4byte	0xad
 5737 0574 F1030000 		.4byte	.LLST21
 5738 0578 07       		.uleb128 0x7
 5739 0579 793000   		.ascii	"y0\000"
 5740 057c 01       		.byte	0x1
 5741 057d D701     		.2byte	0x1d7
 5742 057f AD000000 		.4byte	0xad
 5743 0583 12040000 		.4byte	.LLST22
 5744 0587 07       		.uleb128 0x7
 5745 0588 7200     		.ascii	"r\000"
 5746 058a 01       		.byte	0x1
 5747 058b D701     		.2byte	0x1d7
 5748 058d AD000000 		.4byte	0xad
 5749 0591 33040000 		.4byte	.LLST23
 5750 0595 08       		.uleb128 0x8
 5751 0596 B0040000 		.4byte	.LASF32
 5752 059a 01       		.byte	0x1
 5753 059b D701     		.2byte	0x1d7
 5754 059d 97000000 		.4byte	0x97
 5755 05a1 54040000 		.4byte	.LLST24
 5756 05a5 08       		.uleb128 0x8
 5757 05a6 FD030000 		.4byte	.LASF22
 5758 05aa 01       		.byte	0x1
 5759 05ab D701     		.2byte	0x1d7
 5760 05ad AD000000 		.4byte	0xad
 5761 05b1 75040000 		.4byte	.LLST25
 5762 05b5 0C       		.uleb128 0xc
 5763 05b6 6600     		.ascii	"f\000"
 5764 05b8 01       		.byte	0x1
 5765 05b9 D801     		.2byte	0x1d8
 5766 05bb A2000000 		.4byte	0xa2
 5767 05bf A1040000 		.4byte	.LLST26
 5768 05c3 09       		.uleb128 0x9
 5769 05c4 E2040000 		.4byte	.LASF29
 5770 05c8 01       		.byte	0x1
 5771 05c9 D901     		.2byte	0x1d9
 5772 05cb A2000000 		.4byte	0xa2
 5773 05cf CA040000 		.4byte	.LLST27
 5774 05d3 09       		.uleb128 0x9
 5775 05d4 E8040000 		.4byte	.LASF30
 5776 05d8 01       		.byte	0x1
 5777 05d9 DA01     		.2byte	0x1da
ARM GAS  C:\Users\PC\AppData\Local\Temp\ccKVdNiW.s 			page 123


 5778 05db A2000000 		.4byte	0xa2
 5779 05df E9040000 		.4byte	.LLST28
 5780 05e3 0C       		.uleb128 0xc
 5781 05e4 7800     		.ascii	"x\000"
 5782 05e6 01       		.byte	0x1
 5783 05e7 DB01     		.2byte	0x1db
 5784 05e9 A2000000 		.4byte	0xa2
 5785 05ed FC040000 		.4byte	.LLST29
 5786 05f1 0C       		.uleb128 0xc
 5787 05f2 7900     		.ascii	"y\000"
 5788 05f4 01       		.byte	0x1
 5789 05f5 DC01     		.2byte	0x1dc
 5790 05f7 A2000000 		.4byte	0xa2
 5791 05fb 26050000 		.4byte	.LLST30
 5792 05ff 10       		.uleb128 0x10
 5793 0600 98000000 		.4byte	.LVL102
 5794 0604 B2190000 		.4byte	0x19b2
 5795 0608 29060000 		.4byte	0x629
 5796 060c 11       		.uleb128 0x11
 5797 060d 01       		.uleb128 0x1
 5798 060e 50       		.byte	0x50
 5799 060f 05       		.uleb128 0x5
 5800 0610 7A       		.byte	0x7a
 5801 0611 00       		.sleb128 0
 5802 0612 75       		.byte	0x75
 5803 0613 00       		.sleb128 0
 5804 0614 22       		.byte	0x22
 5805 0615 11       		.uleb128 0x11
 5806 0616 01       		.uleb128 0x1
 5807 0617 51       		.byte	0x51
 5808 0618 07       		.uleb128 0x7
 5809 0619 91       		.byte	0x91
 5810 061a 4C       		.sleb128 -52
 5811 061b 06       		.byte	0x6
 5812 061c 91       		.byte	0x91
 5813 061d 50       		.sleb128 -48
 5814 061e 06       		.byte	0x6
 5815 061f 22       		.byte	0x22
 5816 0620 11       		.uleb128 0x11
 5817 0621 01       		.uleb128 0x1
 5818 0622 52       		.byte	0x52
 5819 0623 04       		.uleb128 0x4
 5820 0624 91       		.byte	0x91
 5821 0625 54       		.sleb128 -44
 5822 0626 94       		.byte	0x94
 5823 0627 01       		.byte	0x1
 5824 0628 00       		.byte	0
 5825 0629 10       		.uleb128 0x10
 5826 062a AA000000 		.4byte	.LVL103
 5827 062e B2190000 		.4byte	0x19b2
 5828 0632 54060000 		.4byte	0x654
 5829 0636 11       		.uleb128 0x11
 5830 0637 01       		.uleb128 0x1
 5831 0638 50       		.byte	0x50
 5832 0639 02       		.uleb128 0x2
 5833 063a 75       		.byte	0x75
 5834 063b 00       		.sleb128 0
ARM GAS  C:\Users\PC\AppData\Local\Temp\ccKVdNiW.s 			page 124


 5835 063c 11       		.uleb128 0x11
 5836 063d 01       		.uleb128 0x1
 5837 063e 51       		.byte	0x51
 5838 063f 0B       		.uleb128 0xb
 5839 0640 7D       		.byte	0x7d
 5840 0641 04       		.sleb128 4
 5841 0642 94       		.byte	0x94
 5842 0643 01       		.byte	0x1
 5843 0644 08       		.byte	0x8
 5844 0645 FF       		.byte	0xff
 5845 0646 1A       		.byte	0x1a
 5846 0647 91       		.byte	0x91
 5847 0648 4C       		.sleb128 -52
 5848 0649 06       		.byte	0x6
 5849 064a 22       		.byte	0x22
 5850 064b 11       		.uleb128 0x11
 5851 064c 01       		.uleb128 0x1
 5852 064d 52       		.byte	0x52
 5853 064e 04       		.uleb128 0x4
 5854 064f 91       		.byte	0x91
 5855 0650 54       		.sleb128 -44
 5856 0651 94       		.byte	0x94
 5857 0652 01       		.byte	0x1
 5858 0653 00       		.byte	0
 5859 0654 10       		.uleb128 0x10
 5860 0655 DA000000 		.4byte	.LVL104
 5861 0659 B2190000 		.4byte	0x19b2
 5862 065d 7E060000 		.4byte	0x67e
 5863 0661 11       		.uleb128 0x11
 5864 0662 01       		.uleb128 0x1
 5865 0663 50       		.byte	0x50
 5866 0664 05       		.uleb128 0x5
 5867 0665 7A       		.byte	0x7a
 5868 0666 00       		.sleb128 0
 5869 0667 75       		.byte	0x75
 5870 0668 00       		.sleb128 0
 5871 0669 22       		.byte	0x22
 5872 066a 11       		.uleb128 0x11
 5873 066b 01       		.uleb128 0x1
 5874 066c 51       		.byte	0x51
 5875 066d 07       		.uleb128 0x7
 5876 066e 91       		.byte	0x91
 5877 066f 4C       		.sleb128 -52
 5878 0670 06       		.byte	0x6
 5879 0671 91       		.byte	0x91
 5880 0672 50       		.sleb128 -48
 5881 0673 06       		.byte	0x6
 5882 0674 1C       		.byte	0x1c
 5883 0675 11       		.uleb128 0x11
 5884 0676 01       		.uleb128 0x1
 5885 0677 52       		.byte	0x52
 5886 0678 04       		.uleb128 0x4
 5887 0679 91       		.byte	0x91
 5888 067a 54       		.sleb128 -44
 5889 067b 94       		.byte	0x94
 5890 067c 01       		.byte	0x1
 5891 067d 00       		.byte	0
ARM GAS  C:\Users\PC\AppData\Local\Temp\ccKVdNiW.s 			page 125


 5892 067e 10       		.uleb128 0x10
 5893 067f EC000000 		.4byte	.LVL105
 5894 0683 B2190000 		.4byte	0x19b2
 5895 0687 A9060000 		.4byte	0x6a9
 5896 068b 11       		.uleb128 0x11
 5897 068c 01       		.uleb128 0x1
 5898 068d 50       		.byte	0x50
 5899 068e 02       		.uleb128 0x2
 5900 068f 75       		.byte	0x75
 5901 0690 00       		.sleb128 0
 5902 0691 11       		.uleb128 0x11
 5903 0692 01       		.uleb128 0x1
 5904 0693 51       		.byte	0x51
 5905 0694 0B       		.uleb128 0xb
 5906 0695 91       		.byte	0x91
 5907 0696 4C       		.sleb128 -52
 5908 0697 06       		.byte	0x6
 5909 0698 7D       		.byte	0x7d
 5910 0699 04       		.sleb128 4
 5911 069a 94       		.byte	0x94
 5912 069b 01       		.byte	0x1
 5913 069c 08       		.byte	0x8
 5914 069d FF       		.byte	0xff
 5915 069e 1A       		.byte	0x1a
 5916 069f 1C       		.byte	0x1c
 5917 06a0 11       		.uleb128 0x11
 5918 06a1 01       		.uleb128 0x1
 5919 06a2 52       		.byte	0x52
 5920 06a3 04       		.uleb128 0x4
 5921 06a4 91       		.byte	0x91
 5922 06a5 54       		.sleb128 -44
 5923 06a6 94       		.byte	0x94
 5924 06a7 01       		.byte	0x1
 5925 06a8 00       		.byte	0
 5926 06a9 10       		.uleb128 0x10
 5927 06aa 1A010000 		.4byte	.LVL106
 5928 06ae B2190000 		.4byte	0x19b2
 5929 06b2 D3060000 		.4byte	0x6d3
 5930 06b6 11       		.uleb128 0x11
 5931 06b7 01       		.uleb128 0x1
 5932 06b8 50       		.byte	0x50
 5933 06b9 05       		.uleb128 0x5
 5934 06ba 7A       		.byte	0x7a
 5935 06bb 00       		.sleb128 0
 5936 06bc 75       		.byte	0x75
 5937 06bd 00       		.sleb128 0
 5938 06be 1C       		.byte	0x1c
 5939 06bf 11       		.uleb128 0x11
 5940 06c0 01       		.uleb128 0x1
 5941 06c1 51       		.byte	0x51
 5942 06c2 07       		.uleb128 0x7
 5943 06c3 91       		.byte	0x91
 5944 06c4 4C       		.sleb128 -52
 5945 06c5 06       		.byte	0x6
 5946 06c6 91       		.byte	0x91
 5947 06c7 50       		.sleb128 -48
 5948 06c8 06       		.byte	0x6
ARM GAS  C:\Users\PC\AppData\Local\Temp\ccKVdNiW.s 			page 126


 5949 06c9 22       		.byte	0x22
 5950 06ca 11       		.uleb128 0x11
 5951 06cb 01       		.uleb128 0x1
 5952 06cc 52       		.byte	0x52
 5953 06cd 04       		.uleb128 0x4
 5954 06ce 91       		.byte	0x91
 5955 06cf 54       		.sleb128 -44
 5956 06d0 94       		.byte	0x94
 5957 06d1 01       		.byte	0x1
 5958 06d2 00       		.byte	0
 5959 06d3 10       		.uleb128 0x10
 5960 06d4 2E010000 		.4byte	.LVL107
 5961 06d8 B2190000 		.4byte	0x19b2
 5962 06dc FF060000 		.4byte	0x6ff
 5963 06e0 11       		.uleb128 0x11
 5964 06e1 01       		.uleb128 0x1
 5965 06e2 50       		.byte	0x50
 5966 06e3 05       		.uleb128 0x5
 5967 06e4 7A       		.byte	0x7a
 5968 06e5 00       		.sleb128 0
 5969 06e6 75       		.byte	0x75
 5970 06e7 00       		.sleb128 0
 5971 06e8 1C       		.byte	0x1c
 5972 06e9 11       		.uleb128 0x11
 5973 06ea 01       		.uleb128 0x1
 5974 06eb 51       		.byte	0x51
 5975 06ec 09       		.uleb128 0x9
 5976 06ed 78       		.byte	0x78
 5977 06ee 00       		.sleb128 0
 5978 06ef 08       		.byte	0x8
 5979 06f0 FF       		.byte	0xff
 5980 06f1 1A       		.byte	0x1a
 5981 06f2 91       		.byte	0x91
 5982 06f3 4C       		.sleb128 -52
 5983 06f4 06       		.byte	0x6
 5984 06f5 22       		.byte	0x22
 5985 06f6 11       		.uleb128 0x11
 5986 06f7 01       		.uleb128 0x1
 5987 06f8 52       		.byte	0x52
 5988 06f9 04       		.uleb128 0x4
 5989 06fa 91       		.byte	0x91
 5990 06fb 54       		.sleb128 -44
 5991 06fc 94       		.byte	0x94
 5992 06fd 01       		.byte	0x1
 5993 06fe 00       		.byte	0
 5994 06ff 10       		.uleb128 0x10
 5995 0700 60010000 		.4byte	.LVL108
 5996 0704 B2190000 		.4byte	0x19b2
 5997 0708 2A070000 		.4byte	0x72a
 5998 070c 11       		.uleb128 0x11
 5999 070d 01       		.uleb128 0x1
 6000 070e 50       		.byte	0x50
 6001 070f 07       		.uleb128 0x7
 6002 0710 75       		.byte	0x75
 6003 0711 00       		.sleb128 0
 6004 0712 91       		.byte	0x91
 6005 0713 BC7F     		.sleb128 -68
ARM GAS  C:\Users\PC\AppData\Local\Temp\ccKVdNiW.s 			page 127


 6006 0715 06       		.byte	0x6
 6007 0716 1C       		.byte	0x1c
 6008 0717 11       		.uleb128 0x11
 6009 0718 01       		.uleb128 0x1
 6010 0719 51       		.byte	0x51
 6011 071a 06       		.uleb128 0x6
 6012 071b 91       		.byte	0x91
 6013 071c 4C       		.sleb128 -52
 6014 071d 06       		.byte	0x6
 6015 071e 7A       		.byte	0x7a
 6016 071f 00       		.sleb128 0
 6017 0720 1C       		.byte	0x1c
 6018 0721 11       		.uleb128 0x11
 6019 0722 01       		.uleb128 0x1
 6020 0723 52       		.byte	0x52
 6021 0724 04       		.uleb128 0x4
 6022 0725 91       		.byte	0x91
 6023 0726 50       		.sleb128 -48
 6024 0727 94       		.byte	0x94
 6025 0728 01       		.byte	0x1
 6026 0729 00       		.byte	0
 6027 072a 12       		.uleb128 0x12
 6028 072b 74010000 		.4byte	.LVL109
 6029 072f B2190000 		.4byte	0x19b2
 6030 0733 11       		.uleb128 0x11
 6031 0734 01       		.uleb128 0x1
 6032 0735 50       		.byte	0x50
 6033 0736 02       		.uleb128 0x2
 6034 0737 75       		.byte	0x75
 6035 0738 00       		.sleb128 0
 6036 0739 11       		.uleb128 0x11
 6037 073a 01       		.uleb128 0x1
 6038 073b 51       		.byte	0x51
 6039 073c 08       		.uleb128 0x8
 6040 073d 91       		.byte	0x91
 6041 073e 4C       		.sleb128 -52
 6042 073f 06       		.byte	0x6
 6043 0740 91       		.byte	0x91
 6044 0741 BC7F     		.sleb128 -68
 6045 0743 06       		.byte	0x6
 6046 0744 1C       		.byte	0x1c
 6047 0745 11       		.uleb128 0x11
 6048 0746 01       		.uleb128 0x1
 6049 0747 52       		.byte	0x52
 6050 0748 04       		.uleb128 0x4
 6051 0749 91       		.byte	0x91
 6052 074a 50       		.sleb128 -48
 6053 074b 94       		.byte	0x94
 6054 074c 01       		.byte	0x1
 6055 074d 00       		.byte	0
 6056 074e 00       		.byte	0
 6057 074f 06       		.uleb128 0x6
 6058 0750 15030000 		.4byte	.LASF33
 6059 0754 01       		.byte	0x1
 6060 0755 1402     		.2byte	0x214
 6061 0757 00000000 		.4byte	.LFB38
 6062 075b 3C010000 		.4byte	.LFE38-.LFB38
ARM GAS  C:\Users\PC\AppData\Local\Temp\ccKVdNiW.s 			page 128


 6063 075f 01       		.uleb128 0x1
 6064 0760 9C       		.byte	0x9c
 6065 0761 F6080000 		.4byte	0x8f6
 6066 0765 07       		.uleb128 0x7
 6067 0766 783000   		.ascii	"x0\000"
 6068 0769 01       		.byte	0x1
 6069 076a 1402     		.2byte	0x214
 6070 076c AD000000 		.4byte	0xad
 6071 0770 39050000 		.4byte	.LLST31
 6072 0774 07       		.uleb128 0x7
 6073 0775 793000   		.ascii	"y0\000"
 6074 0778 01       		.byte	0x1
 6075 0779 1402     		.2byte	0x214
 6076 077b AD000000 		.4byte	0xad
 6077 077f 5A050000 		.4byte	.LLST32
 6078 0783 07       		.uleb128 0x7
 6079 0784 7200     		.ascii	"r\000"
 6080 0786 01       		.byte	0x1
 6081 0787 1402     		.2byte	0x214
 6082 0789 AD000000 		.4byte	0xad
 6083 078d 7B050000 		.4byte	.LLST33
 6084 0791 08       		.uleb128 0x8
 6085 0792 FE010000 		.4byte	.LASF34
 6086 0796 01       		.byte	0x1
 6087 0797 1402     		.2byte	0x214
 6088 0799 97000000 		.4byte	0x97
 6089 079d 9C050000 		.4byte	.LLST34
 6090 07a1 08       		.uleb128 0x8
 6091 07a2 FA040000 		.4byte	.LASF35
 6092 07a6 01       		.byte	0x1
 6093 07a7 1402     		.2byte	0x214
 6094 07a9 AD000000 		.4byte	0xad
 6095 07ad BD050000 		.4byte	.LLST35
 6096 07b1 08       		.uleb128 0x8
 6097 07b2 FD030000 		.4byte	.LASF22
 6098 07b6 01       		.byte	0x1
 6099 07b7 1402     		.2byte	0x214
 6100 07b9 AD000000 		.4byte	0xad
 6101 07bd 00060000 		.4byte	.LLST36
 6102 07c1 0C       		.uleb128 0xc
 6103 07c2 6600     		.ascii	"f\000"
 6104 07c4 01       		.byte	0x1
 6105 07c5 1502     		.2byte	0x215
 6106 07c7 A2000000 		.4byte	0xa2
 6107 07cb 38060000 		.4byte	.LLST37
 6108 07cf 09       		.uleb128 0x9
 6109 07d0 E2040000 		.4byte	.LASF29
 6110 07d4 01       		.byte	0x1
 6111 07d5 1602     		.2byte	0x216
 6112 07d7 A2000000 		.4byte	0xa2
 6113 07db 6C060000 		.4byte	.LLST38
 6114 07df 09       		.uleb128 0x9
 6115 07e0 E8040000 		.4byte	.LASF30
 6116 07e4 01       		.byte	0x1
 6117 07e5 1702     		.2byte	0x217
 6118 07e7 A2000000 		.4byte	0xa2
 6119 07eb 8B060000 		.4byte	.LLST39
ARM GAS  C:\Users\PC\AppData\Local\Temp\ccKVdNiW.s 			page 129


 6120 07ef 0C       		.uleb128 0xc
 6121 07f0 7800     		.ascii	"x\000"
 6122 07f2 01       		.byte	0x1
 6123 07f3 1802     		.2byte	0x218
 6124 07f5 A2000000 		.4byte	0xa2
 6125 07f9 9E060000 		.4byte	.LLST40
 6126 07fd 0C       		.uleb128 0xc
 6127 07fe 7900     		.ascii	"y\000"
 6128 0800 01       		.byte	0x1
 6129 0801 1902     		.2byte	0x219
 6130 0803 A2000000 		.4byte	0xa2
 6131 0807 D3060000 		.4byte	.LLST41
 6132 080b 0C       		.uleb128 0xc
 6133 080c 707800   		.ascii	"px\000"
 6134 080f 01       		.byte	0x1
 6135 0810 1A02     		.2byte	0x21a
 6136 0812 A2000000 		.4byte	0xa2
 6137 0816 F1060000 		.4byte	.LLST42
 6138 081a 0C       		.uleb128 0xc
 6139 081b 707900   		.ascii	"py\000"
 6140 081e 01       		.byte	0x1
 6141 081f 1B02     		.2byte	0x21b
 6142 0821 A2000000 		.4byte	0xa2
 6143 0825 26070000 		.4byte	.LLST43
 6144 0829 10       		.uleb128 0x10
 6145 082a 9A000000 		.4byte	.LVL135
 6146 082e BD190000 		.4byte	0x19bd
 6147 0832 65080000 		.4byte	0x865
 6148 0836 11       		.uleb128 0x11
 6149 0837 01       		.uleb128 0x1
 6150 0838 50       		.byte	0x50
 6151 0839 06       		.uleb128 0x6
 6152 083a 91       		.byte	0x91
 6153 083b 44       		.sleb128 -60
 6154 083c 06       		.byte	0x6
 6155 083d 78       		.byte	0x78
 6156 083e 00       		.sleb128 0
 6157 083f 22       		.byte	0x22
 6158 0840 11       		.uleb128 0x11
 6159 0841 01       		.uleb128 0x1
 6160 0842 51       		.byte	0x51
 6161 0843 09       		.uleb128 0x9
 6162 0844 91       		.byte	0x91
 6163 0845 48       		.sleb128 -56
 6164 0846 06       		.byte	0x6
 6165 0847 76       		.byte	0x76
 6166 0848 00       		.sleb128 0
 6167 0849 08       		.byte	0x8
 6168 084a FF       		.byte	0xff
 6169 084b 1A       		.byte	0x1a
 6170 084c 1C       		.byte	0x1c
 6171 084d 11       		.uleb128 0x11
 6172 084e 01       		.uleb128 0x1
 6173 084f 52       		.byte	0x52
 6174 0850 0B       		.uleb128 0xb
 6175 0851 76       		.byte	0x76
 6176 0852 00       		.sleb128 0
ARM GAS  C:\Users\PC\AppData\Local\Temp\ccKVdNiW.s 			page 130


 6177 0853 08       		.byte	0x8
 6178 0854 FF       		.byte	0xff
 6179 0855 1A       		.byte	0x1a
 6180 0856 31       		.byte	0x31
 6181 0857 24       		.byte	0x24
 6182 0858 91       		.byte	0x91
 6183 0859 50       		.sleb128 -48
 6184 085a 06       		.byte	0x6
 6185 085b 22       		.byte	0x22
 6186 085c 11       		.uleb128 0x11
 6187 085d 01       		.uleb128 0x1
 6188 085e 53       		.byte	0x53
 6189 085f 04       		.uleb128 0x4
 6190 0860 7D       		.byte	0x7d
 6191 0861 0C       		.sleb128 12
 6192 0862 94       		.byte	0x94
 6193 0863 01       		.byte	0x1
 6194 0864 00       		.byte	0
 6195 0865 10       		.uleb128 0x10
 6196 0866 C6000000 		.4byte	.LVL136
 6197 086a BD190000 		.4byte	0x19bd
 6198 086e A1080000 		.4byte	0x8a1
 6199 0872 11       		.uleb128 0x11
 6200 0873 01       		.uleb128 0x1
 6201 0874 50       		.byte	0x50
 6202 0875 06       		.uleb128 0x6
 6203 0876 91       		.byte	0x91
 6204 0877 44       		.sleb128 -60
 6205 0878 06       		.byte	0x6
 6206 0879 78       		.byte	0x78
 6207 087a 00       		.sleb128 0
 6208 087b 1C       		.byte	0x1c
 6209 087c 11       		.uleb128 0x11
 6210 087d 01       		.uleb128 0x1
 6211 087e 51       		.byte	0x51
 6212 087f 09       		.uleb128 0x9
 6213 0880 91       		.byte	0x91
 6214 0881 48       		.sleb128 -56
 6215 0882 06       		.byte	0x6
 6216 0883 76       		.byte	0x76
 6217 0884 00       		.sleb128 0
 6218 0885 08       		.byte	0x8
 6219 0886 FF       		.byte	0xff
 6220 0887 1A       		.byte	0x1a
 6221 0888 1C       		.byte	0x1c
 6222 0889 11       		.uleb128 0x11
 6223 088a 01       		.uleb128 0x1
 6224 088b 52       		.byte	0x52
 6225 088c 0B       		.uleb128 0xb
 6226 088d 76       		.byte	0x76
 6227 088e 00       		.sleb128 0
 6228 088f 08       		.byte	0x8
 6229 0890 FF       		.byte	0xff
 6230 0891 1A       		.byte	0x1a
 6231 0892 31       		.byte	0x31
 6232 0893 24       		.byte	0x24
 6233 0894 91       		.byte	0x91
ARM GAS  C:\Users\PC\AppData\Local\Temp\ccKVdNiW.s 			page 131


 6234 0895 50       		.sleb128 -48
 6235 0896 06       		.byte	0x6
 6236 0897 22       		.byte	0x22
 6237 0898 11       		.uleb128 0x11
 6238 0899 01       		.uleb128 0x1
 6239 089a 53       		.byte	0x53
 6240 089b 04       		.uleb128 0x4
 6241 089c 91       		.byte	0x91
 6242 089d 54       		.sleb128 -44
 6243 089e 94       		.byte	0x94
 6244 089f 01       		.byte	0x1
 6245 08a0 00       		.byte	0
 6246 08a1 10       		.uleb128 0x10
 6247 08a2 FA000000 		.4byte	.LVL137
 6248 08a6 BD190000 		.4byte	0x19bd
 6249 08aa D9080000 		.4byte	0x8d9
 6250 08ae 11       		.uleb128 0x11
 6251 08af 01       		.uleb128 0x1
 6252 08b0 50       		.byte	0x50
 6253 08b1 02       		.uleb128 0x2
 6254 08b2 78       		.byte	0x78
 6255 08b3 00       		.sleb128 0
 6256 08b4 11       		.uleb128 0x11
 6257 08b5 01       		.uleb128 0x1
 6258 08b6 51       		.byte	0x51
 6259 08b7 09       		.uleb128 0x9
 6260 08b8 91       		.byte	0x91
 6261 08b9 48       		.sleb128 -56
 6262 08ba 06       		.byte	0x6
 6263 08bb 77       		.byte	0x77
 6264 08bc 00       		.sleb128 0
 6265 08bd 08       		.byte	0x8
 6266 08be FF       		.byte	0xff
 6267 08bf 1A       		.byte	0x1a
 6268 08c0 1C       		.byte	0x1c
 6269 08c1 11       		.uleb128 0x11
 6270 08c2 01       		.uleb128 0x1
 6271 08c3 52       		.byte	0x52
 6272 08c4 0B       		.uleb128 0xb
 6273 08c5 77       		.byte	0x77
 6274 08c6 00       		.sleb128 0
 6275 08c7 08       		.byte	0x8
 6276 08c8 FF       		.byte	0xff
 6277 08c9 1A       		.byte	0x1a
 6278 08ca 31       		.byte	0x31
 6279 08cb 24       		.byte	0x24
 6280 08cc 91       		.byte	0x91
 6281 08cd 50       		.sleb128 -48
 6282 08ce 06       		.byte	0x6
 6283 08cf 22       		.byte	0x22
 6284 08d0 11       		.uleb128 0x11
 6285 08d1 01       		.uleb128 0x1
 6286 08d2 53       		.byte	0x53
 6287 08d3 04       		.uleb128 0x4
 6288 08d4 7D       		.byte	0x7d
 6289 08d5 0C       		.sleb128 12
 6290 08d6 94       		.byte	0x94
ARM GAS  C:\Users\PC\AppData\Local\Temp\ccKVdNiW.s 			page 132


 6291 08d7 01       		.byte	0x1
 6292 08d8 00       		.byte	0
 6293 08d9 12       		.uleb128 0x12
 6294 08da 22010000 		.4byte	.LVL139
 6295 08de BD190000 		.4byte	0x19bd
 6296 08e2 11       		.uleb128 0x11
 6297 08e3 01       		.uleb128 0x1
 6298 08e4 50       		.byte	0x50
 6299 08e5 06       		.uleb128 0x6
 6300 08e6 91       		.byte	0x91
 6301 08e7 44       		.sleb128 -60
 6302 08e8 06       		.byte	0x6
 6303 08e9 77       		.byte	0x77
 6304 08ea 00       		.sleb128 0
 6305 08eb 1C       		.byte	0x1c
 6306 08ec 11       		.uleb128 0x11
 6307 08ed 01       		.uleb128 0x1
 6308 08ee 53       		.byte	0x53
 6309 08ef 04       		.uleb128 0x4
 6310 08f0 7D       		.byte	0x7d
 6311 08f1 0C       		.sleb128 12
 6312 08f2 94       		.byte	0x94
 6313 08f3 01       		.byte	0x1
 6314 08f4 00       		.byte	0
 6315 08f5 00       		.byte	0
 6316 08f6 06       		.uleb128 0x6
 6317 08f7 86020000 		.4byte	.LASF36
 6318 08fb 01       		.byte	0x1
 6319 08fc 0302     		.2byte	0x203
 6320 08fe 00000000 		.4byte	.LFB37
 6321 0902 36000000 		.4byte	.LFE37-.LFB37
 6322 0906 01       		.uleb128 0x1
 6323 0907 9C       		.byte	0x9c
 6324 0908 AE090000 		.4byte	0x9ae
 6325 090c 07       		.uleb128 0x7
 6326 090d 783000   		.ascii	"x0\000"
 6327 0910 01       		.byte	0x1
 6328 0911 0302     		.2byte	0x203
 6329 0913 AD000000 		.4byte	0xad
 6330 0917 69070000 		.4byte	.LLST44
 6331 091b 07       		.uleb128 0x7
 6332 091c 793000   		.ascii	"y0\000"
 6333 091f 01       		.byte	0x1
 6334 0920 0302     		.2byte	0x203
 6335 0922 AD000000 		.4byte	0xad
 6336 0926 8A070000 		.4byte	.LLST45
 6337 092a 07       		.uleb128 0x7
 6338 092b 7200     		.ascii	"r\000"
 6339 092d 01       		.byte	0x1
 6340 092e 0302     		.2byte	0x203
 6341 0930 AD000000 		.4byte	0xad
 6342 0934 AB070000 		.4byte	.LLST46
 6343 0938 08       		.uleb128 0x8
 6344 0939 FD030000 		.4byte	.LASF22
 6345 093d 01       		.byte	0x1
 6346 093e 0302     		.2byte	0x203
 6347 0940 AD000000 		.4byte	0xad
ARM GAS  C:\Users\PC\AppData\Local\Temp\ccKVdNiW.s 			page 133


 6348 0944 CC070000 		.4byte	.LLST47
 6349 0948 10       		.uleb128 0x10
 6350 0949 20000000 		.4byte	.LVL155
 6351 094d BD190000 		.4byte	0x19bd
 6352 0951 7F090000 		.4byte	0x97f
 6353 0955 11       		.uleb128 0x11
 6354 0956 01       		.uleb128 0x1
 6355 0957 50       		.byte	0x50
 6356 0958 03       		.uleb128 0x3
 6357 0959 F3       		.byte	0xf3
 6358 095a 01       		.uleb128 0x1
 6359 095b 50       		.byte	0x50
 6360 095c 11       		.uleb128 0x11
 6361 095d 01       		.uleb128 0x1
 6362 095e 51       		.byte	0x51
 6363 095f 09       		.uleb128 0x9
 6364 0960 75       		.byte	0x75
 6365 0961 00       		.sleb128 0
 6366 0962 F3       		.byte	0xf3
 6367 0963 01       		.uleb128 0x1
 6368 0964 52       		.byte	0x52
 6369 0965 08       		.byte	0x8
 6370 0966 FF       		.byte	0xff
 6371 0967 1A       		.byte	0x1a
 6372 0968 1C       		.byte	0x1c
 6373 0969 11       		.uleb128 0x11
 6374 096a 01       		.uleb128 0x1
 6375 096b 52       		.byte	0x52
 6376 096c 0A       		.uleb128 0xa
 6377 096d F3       		.byte	0xf3
 6378 096e 01       		.uleb128 0x1
 6379 096f 52       		.byte	0x52
 6380 0970 08       		.byte	0x8
 6381 0971 FF       		.byte	0xff
 6382 0972 1A       		.byte	0x1a
 6383 0973 31       		.byte	0x31
 6384 0974 24       		.byte	0x24
 6385 0975 23       		.byte	0x23
 6386 0976 01       		.uleb128 0x1
 6387 0977 11       		.uleb128 0x11
 6388 0978 01       		.uleb128 0x1
 6389 0979 53       		.byte	0x53
 6390 097a 03       		.uleb128 0x3
 6391 097b F3       		.byte	0xf3
 6392 097c 01       		.uleb128 0x1
 6393 097d 53       		.byte	0x53
 6394 097e 00       		.byte	0
 6395 097f 12       		.uleb128 0x12
 6396 0980 32000000 		.4byte	.LVL156
 6397 0984 4F070000 		.4byte	0x74f
 6398 0988 11       		.uleb128 0x11
 6399 0989 01       		.uleb128 0x1
 6400 098a 50       		.byte	0x50
 6401 098b 02       		.uleb128 0x2
 6402 098c 74       		.byte	0x74
 6403 098d 00       		.sleb128 0
 6404 098e 11       		.uleb128 0x11
ARM GAS  C:\Users\PC\AppData\Local\Temp\ccKVdNiW.s 			page 134


 6405 098f 01       		.uleb128 0x1
 6406 0990 51       		.byte	0x51
 6407 0991 02       		.uleb128 0x2
 6408 0992 75       		.byte	0x75
 6409 0993 00       		.sleb128 0
 6410 0994 11       		.uleb128 0x11
 6411 0995 01       		.uleb128 0x1
 6412 0996 52       		.byte	0x52
 6413 0997 02       		.uleb128 0x2
 6414 0998 76       		.byte	0x76
 6415 0999 00       		.sleb128 0
 6416 099a 11       		.uleb128 0x11
 6417 099b 01       		.uleb128 0x1
 6418 099c 53       		.byte	0x53
 6419 099d 01       		.uleb128 0x1
 6420 099e 33       		.byte	0x33
 6421 099f 11       		.uleb128 0x11
 6422 09a0 02       		.uleb128 0x2
 6423 09a1 7D       		.byte	0x7d
 6424 09a2 00       		.sleb128 0
 6425 09a3 01       		.uleb128 0x1
 6426 09a4 30       		.byte	0x30
 6427 09a5 11       		.uleb128 0x11
 6428 09a6 02       		.uleb128 0x2
 6429 09a7 7D       		.byte	0x7d
 6430 09a8 04       		.sleb128 4
 6431 09a9 02       		.uleb128 0x2
 6432 09aa 77       		.byte	0x77
 6433 09ab 00       		.sleb128 0
 6434 09ac 00       		.byte	0
 6435 09ad 00       		.byte	0
 6436 09ae 06       		.uleb128 0x6
 6437 09af 73000000 		.4byte	.LASF37
 6438 09b3 01       		.byte	0x1
 6439 09b4 4102     		.2byte	0x241
 6440 09b6 00000000 		.4byte	.LFB39
 6441 09ba 4E000000 		.4byte	.LFE39-.LFB39
 6442 09be 01       		.uleb128 0x1
 6443 09bf 9C       		.byte	0x9c
 6444 09c0 AE0A0000 		.4byte	0xaae
 6445 09c4 07       		.uleb128 0x7
 6446 09c5 7800     		.ascii	"x\000"
 6447 09c7 01       		.byte	0x1
 6448 09c8 4102     		.2byte	0x241
 6449 09ca AD000000 		.4byte	0xad
 6450 09ce ED070000 		.4byte	.LLST48
 6451 09d2 07       		.uleb128 0x7
 6452 09d3 7900     		.ascii	"y\000"
 6453 09d5 01       		.byte	0x1
 6454 09d6 4102     		.2byte	0x241
 6455 09d8 AD000000 		.4byte	0xad
 6456 09dc 0E080000 		.4byte	.LLST49
 6457 09e0 07       		.uleb128 0x7
 6458 09e1 7700     		.ascii	"w\000"
 6459 09e3 01       		.byte	0x1
 6460 09e4 4102     		.2byte	0x241
 6461 09e6 AD000000 		.4byte	0xad
ARM GAS  C:\Users\PC\AppData\Local\Temp\ccKVdNiW.s 			page 135


 6462 09ea 2F080000 		.4byte	.LLST50
 6463 09ee 07       		.uleb128 0x7
 6464 09ef 6800     		.ascii	"h\000"
 6465 09f1 01       		.byte	0x1
 6466 09f2 4102     		.2byte	0x241
 6467 09f4 AD000000 		.4byte	0xad
 6468 09f8 50080000 		.4byte	.LLST51
 6469 09fc 08       		.uleb128 0x8
 6470 09fd FD030000 		.4byte	.LASF22
 6471 0a01 01       		.byte	0x1
 6472 0a02 4102     		.2byte	0x241
 6473 0a04 AD000000 		.4byte	0xad
 6474 0a08 71080000 		.4byte	.LLST52
 6475 0a0c 10       		.uleb128 0x10
 6476 0a0d 1C000000 		.4byte	.LVL163
 6477 0a11 C8190000 		.4byte	0x19c8
 6478 0a15 340A0000 		.4byte	0xa34
 6479 0a19 11       		.uleb128 0x11
 6480 0a1a 01       		.uleb128 0x1
 6481 0a1b 50       		.byte	0x50
 6482 0a1c 02       		.uleb128 0x2
 6483 0a1d 75       		.byte	0x75
 6484 0a1e 00       		.sleb128 0
 6485 0a1f 11       		.uleb128 0x11
 6486 0a20 01       		.uleb128 0x1
 6487 0a21 51       		.byte	0x51
 6488 0a22 02       		.uleb128 0x2
 6489 0a23 74       		.byte	0x74
 6490 0a24 00       		.sleb128 0
 6491 0a25 11       		.uleb128 0x11
 6492 0a26 01       		.uleb128 0x1
 6493 0a27 52       		.byte	0x52
 6494 0a28 02       		.uleb128 0x2
 6495 0a29 77       		.byte	0x77
 6496 0a2a 00       		.sleb128 0
 6497 0a2b 11       		.uleb128 0x11
 6498 0a2c 01       		.uleb128 0x1
 6499 0a2d 53       		.byte	0x53
 6500 0a2e 04       		.uleb128 0x4
 6501 0a2f 91       		.byte	0x91
 6502 0a30 64       		.sleb128 -28
 6503 0a31 94       		.byte	0x94
 6504 0a32 01       		.byte	0x1
 6505 0a33 00       		.byte	0
 6506 0a34 10       		.uleb128 0x10
 6507 0a35 2E000000 		.4byte	.LVL164
 6508 0a39 C8190000 		.4byte	0x19c8
 6509 0a3d 610A0000 		.4byte	0xa61
 6510 0a41 11       		.uleb128 0x11
 6511 0a42 01       		.uleb128 0x1
 6512 0a43 50       		.byte	0x50
 6513 0a44 02       		.uleb128 0x2
 6514 0a45 75       		.byte	0x75
 6515 0a46 00       		.sleb128 0
 6516 0a47 11       		.uleb128 0x11
 6517 0a48 01       		.uleb128 0x1
 6518 0a49 51       		.byte	0x51
ARM GAS  C:\Users\PC\AppData\Local\Temp\ccKVdNiW.s 			page 136


 6519 0a4a 07       		.uleb128 0x7
 6520 0a4b 74       		.byte	0x74
 6521 0a4c 00       		.sleb128 0
 6522 0a4d 76       		.byte	0x76
 6523 0a4e 00       		.sleb128 0
 6524 0a4f 22       		.byte	0x22
 6525 0a50 31       		.byte	0x31
 6526 0a51 1C       		.byte	0x1c
 6527 0a52 11       		.uleb128 0x11
 6528 0a53 01       		.uleb128 0x1
 6529 0a54 52       		.byte	0x52
 6530 0a55 02       		.uleb128 0x2
 6531 0a56 77       		.byte	0x77
 6532 0a57 00       		.sleb128 0
 6533 0a58 11       		.uleb128 0x11
 6534 0a59 01       		.uleb128 0x1
 6535 0a5a 53       		.byte	0x53
 6536 0a5b 04       		.uleb128 0x4
 6537 0a5c 91       		.byte	0x91
 6538 0a5d 64       		.sleb128 -28
 6539 0a5e 94       		.byte	0x94
 6540 0a5f 01       		.byte	0x1
 6541 0a60 00       		.byte	0
 6542 0a61 10       		.uleb128 0x10
 6543 0a62 3A000000 		.4byte	.LVL165
 6544 0a66 BD190000 		.4byte	0x19bd
 6545 0a6a 890A0000 		.4byte	0xa89
 6546 0a6e 11       		.uleb128 0x11
 6547 0a6f 01       		.uleb128 0x1
 6548 0a70 50       		.byte	0x50
 6549 0a71 02       		.uleb128 0x2
 6550 0a72 75       		.byte	0x75
 6551 0a73 00       		.sleb128 0
 6552 0a74 11       		.uleb128 0x11
 6553 0a75 01       		.uleb128 0x1
 6554 0a76 51       		.byte	0x51
 6555 0a77 02       		.uleb128 0x2
 6556 0a78 74       		.byte	0x74
 6557 0a79 00       		.sleb128 0
 6558 0a7a 11       		.uleb128 0x11
 6559 0a7b 01       		.uleb128 0x1
 6560 0a7c 52       		.byte	0x52
 6561 0a7d 02       		.uleb128 0x2
 6562 0a7e 76       		.byte	0x76
 6563 0a7f 00       		.sleb128 0
 6564 0a80 11       		.uleb128 0x11
 6565 0a81 01       		.uleb128 0x1
 6566 0a82 53       		.byte	0x53
 6567 0a83 04       		.uleb128 0x4
 6568 0a84 91       		.byte	0x91
 6569 0a85 64       		.sleb128 -28
 6570 0a86 94       		.byte	0x94
 6571 0a87 01       		.byte	0x1
 6572 0a88 00       		.byte	0
 6573 0a89 12       		.uleb128 0x12
 6574 0a8a 4A000000 		.4byte	.LVL166
 6575 0a8e BD190000 		.4byte	0x19bd
ARM GAS  C:\Users\PC\AppData\Local\Temp\ccKVdNiW.s 			page 137


 6576 0a92 11       		.uleb128 0x11
 6577 0a93 01       		.uleb128 0x1
 6578 0a94 50       		.byte	0x50
 6579 0a95 02       		.uleb128 0x2
 6580 0a96 75       		.byte	0x75
 6581 0a97 00       		.sleb128 0
 6582 0a98 11       		.uleb128 0x11
 6583 0a99 01       		.uleb128 0x1
 6584 0a9a 51       		.byte	0x51
 6585 0a9b 02       		.uleb128 0x2
 6586 0a9c 74       		.byte	0x74
 6587 0a9d 00       		.sleb128 0
 6588 0a9e 11       		.uleb128 0x11
 6589 0a9f 01       		.uleb128 0x1
 6590 0aa0 52       		.byte	0x52
 6591 0aa1 02       		.uleb128 0x2
 6592 0aa2 76       		.byte	0x76
 6593 0aa3 00       		.sleb128 0
 6594 0aa4 11       		.uleb128 0x11
 6595 0aa5 01       		.uleb128 0x1
 6596 0aa6 53       		.byte	0x53
 6597 0aa7 04       		.uleb128 0x4
 6598 0aa8 91       		.byte	0x91
 6599 0aa9 64       		.sleb128 -28
 6600 0aaa 94       		.byte	0x94
 6601 0aab 01       		.byte	0x1
 6602 0aac 00       		.byte	0
 6603 0aad 00       		.byte	0
 6604 0aae 06       		.uleb128 0x6
 6605 0aaf 11020000 		.4byte	.LASF38
 6606 0ab3 01       		.byte	0x1
 6607 0ab4 5302     		.2byte	0x253
 6608 0ab6 00000000 		.4byte	.LFB40
 6609 0aba 1E010000 		.4byte	.LFE40-.LFB40
 6610 0abe 01       		.uleb128 0x1
 6611 0abf 9C       		.byte	0x9c
 6612 0ac0 8D0C0000 		.4byte	0xc8d
 6613 0ac4 07       		.uleb128 0x7
 6614 0ac5 7800     		.ascii	"x\000"
 6615 0ac7 01       		.byte	0x1
 6616 0ac8 5302     		.2byte	0x253
 6617 0aca AD000000 		.4byte	0xad
 6618 0ace 9D080000 		.4byte	.LLST53
 6619 0ad2 07       		.uleb128 0x7
 6620 0ad3 7900     		.ascii	"y\000"
 6621 0ad5 01       		.byte	0x1
 6622 0ad6 5302     		.2byte	0x253
 6623 0ad8 AD000000 		.4byte	0xad
 6624 0adc BE080000 		.4byte	.LLST54
 6625 0ae0 07       		.uleb128 0x7
 6626 0ae1 7700     		.ascii	"w\000"
 6627 0ae3 01       		.byte	0x1
 6628 0ae4 5302     		.2byte	0x253
 6629 0ae6 AD000000 		.4byte	0xad
 6630 0aea DF080000 		.4byte	.LLST55
 6631 0aee 07       		.uleb128 0x7
 6632 0aef 6800     		.ascii	"h\000"
ARM GAS  C:\Users\PC\AppData\Local\Temp\ccKVdNiW.s 			page 138


 6633 0af1 01       		.byte	0x1
 6634 0af2 5302     		.2byte	0x253
 6635 0af4 AD000000 		.4byte	0xad
 6636 0af8 00090000 		.4byte	.LLST56
 6637 0afc 07       		.uleb128 0x7
 6638 0afd 7200     		.ascii	"r\000"
 6639 0aff 01       		.byte	0x1
 6640 0b00 5302     		.2byte	0x253
 6641 0b02 AD000000 		.4byte	0xad
 6642 0b06 21090000 		.4byte	.LLST57
 6643 0b0a 08       		.uleb128 0x8
 6644 0b0b FD030000 		.4byte	.LASF22
 6645 0b0f 01       		.byte	0x1
 6646 0b10 5302     		.2byte	0x253
 6647 0b12 AD000000 		.4byte	0xad
 6648 0b16 58090000 		.4byte	.LLST58
 6649 0b1a 09       		.uleb128 0x9
 6650 0b1b 4B040000 		.4byte	.LASF39
 6651 0b1f 01       		.byte	0x1
 6652 0b20 5402     		.2byte	0x254
 6653 0b22 A2000000 		.4byte	0xa2
 6654 0b26 90090000 		.4byte	.LLST59
 6655 0b2a 10       		.uleb128 0x10
 6656 0b2b 6E000000 		.4byte	.LVL176
 6657 0b2f C8190000 		.4byte	0x19c8
 6658 0b33 570B0000 		.4byte	0xb57
 6659 0b37 11       		.uleb128 0x11
 6660 0b38 01       		.uleb128 0x1
 6661 0b39 50       		.byte	0x50
 6662 0b3a 04       		.uleb128 0x4
 6663 0b3b 91       		.byte	0x91
 6664 0b3c 50       		.sleb128 -48
 6665 0b3d 94       		.byte	0x94
 6666 0b3e 01       		.byte	0x1
 6667 0b3f 11       		.uleb128 0x11
 6668 0b40 01       		.uleb128 0x1
 6669 0b41 51       		.byte	0x51
 6670 0b42 02       		.uleb128 0x2
 6671 0b43 77       		.byte	0x77
 6672 0b44 00       		.sleb128 0
 6673 0b45 11       		.uleb128 0x11
 6674 0b46 01       		.uleb128 0x1
 6675 0b47 52       		.byte	0x52
 6676 0b48 04       		.uleb128 0x4
 6677 0b49 91       		.byte	0x91
 6678 0b4a 54       		.sleb128 -44
 6679 0b4b 94       		.byte	0x94
 6680 0b4c 01       		.byte	0x1
 6681 0b4d 11       		.uleb128 0x11
 6682 0b4e 01       		.uleb128 0x1
 6683 0b4f 53       		.byte	0x53
 6684 0b50 05       		.uleb128 0x5
 6685 0b51 91       		.byte	0x91
 6686 0b52 BC7F     		.sleb128 -68
 6687 0b54 94       		.byte	0x94
 6688 0b55 01       		.byte	0x1
 6689 0b56 00       		.byte	0
ARM GAS  C:\Users\PC\AppData\Local\Temp\ccKVdNiW.s 			page 139


 6690 0b57 10       		.uleb128 0x10
 6691 0b58 82000000 		.4byte	.LVL177
 6692 0b5c C8190000 		.4byte	0x19c8
 6693 0b60 890B0000 		.4byte	0xb89
 6694 0b64 11       		.uleb128 0x11
 6695 0b65 01       		.uleb128 0x1
 6696 0b66 50       		.byte	0x50
 6697 0b67 04       		.uleb128 0x4
 6698 0b68 91       		.byte	0x91
 6699 0b69 50       		.sleb128 -48
 6700 0b6a 94       		.byte	0x94
 6701 0b6b 01       		.byte	0x1
 6702 0b6c 11       		.uleb128 0x11
 6703 0b6d 01       		.uleb128 0x1
 6704 0b6e 51       		.byte	0x51
 6705 0b6f 07       		.uleb128 0x7
 6706 0b70 74       		.byte	0x74
 6707 0b71 00       		.sleb128 0
 6708 0b72 77       		.byte	0x77
 6709 0b73 00       		.sleb128 0
 6710 0b74 22       		.byte	0x22
 6711 0b75 31       		.byte	0x31
 6712 0b76 1C       		.byte	0x1c
 6713 0b77 11       		.uleb128 0x11
 6714 0b78 01       		.uleb128 0x1
 6715 0b79 52       		.byte	0x52
 6716 0b7a 04       		.uleb128 0x4
 6717 0b7b 91       		.byte	0x91
 6718 0b7c 54       		.sleb128 -44
 6719 0b7d 94       		.byte	0x94
 6720 0b7e 01       		.byte	0x1
 6721 0b7f 11       		.uleb128 0x11
 6722 0b80 01       		.uleb128 0x1
 6723 0b81 53       		.byte	0x53
 6724 0b82 05       		.uleb128 0x5
 6725 0b83 91       		.byte	0x91
 6726 0b84 BC7F     		.sleb128 -68
 6727 0b86 94       		.byte	0x94
 6728 0b87 01       		.byte	0x1
 6729 0b88 00       		.byte	0
 6730 0b89 10       		.uleb128 0x10
 6731 0b8a 98000000 		.4byte	.LVL178
 6732 0b8e BD190000 		.4byte	0x19bd
 6733 0b92 B20B0000 		.4byte	0xbb2
 6734 0b96 11       		.uleb128 0x11
 6735 0b97 01       		.uleb128 0x1
 6736 0b98 50       		.byte	0x50
 6737 0b99 02       		.uleb128 0x2
 6738 0b9a 75       		.byte	0x75
 6739 0b9b 00       		.sleb128 0
 6740 0b9c 11       		.uleb128 0x11
 6741 0b9d 01       		.uleb128 0x1
 6742 0b9e 51       		.byte	0x51
 6743 0b9f 02       		.uleb128 0x2
 6744 0ba0 77       		.byte	0x77
 6745 0ba1 00       		.sleb128 0
 6746 0ba2 11       		.uleb128 0x11
ARM GAS  C:\Users\PC\AppData\Local\Temp\ccKVdNiW.s 			page 140


 6747 0ba3 01       		.uleb128 0x1
 6748 0ba4 52       		.byte	0x52
 6749 0ba5 02       		.uleb128 0x2
 6750 0ba6 74       		.byte	0x74
 6751 0ba7 00       		.sleb128 0
 6752 0ba8 11       		.uleb128 0x11
 6753 0ba9 01       		.uleb128 0x1
 6754 0baa 53       		.byte	0x53
 6755 0bab 05       		.uleb128 0x5
 6756 0bac 91       		.byte	0x91
 6757 0bad BC7F     		.sleb128 -68
 6758 0baf 94       		.byte	0x94
 6759 0bb0 01       		.byte	0x1
 6760 0bb1 00       		.byte	0
 6761 0bb2 10       		.uleb128 0x10
 6762 0bb3 AA000000 		.4byte	.LVL179
 6763 0bb7 BD190000 		.4byte	0x19bd
 6764 0bbb E00B0000 		.4byte	0xbe0
 6765 0bbf 11       		.uleb128 0x11
 6766 0bc0 01       		.uleb128 0x1
 6767 0bc1 50       		.byte	0x50
 6768 0bc2 07       		.uleb128 0x7
 6769 0bc3 75       		.byte	0x75
 6770 0bc4 00       		.sleb128 0
 6771 0bc5 79       		.byte	0x79
 6772 0bc6 00       		.sleb128 0
 6773 0bc7 22       		.byte	0x22
 6774 0bc8 31       		.byte	0x31
 6775 0bc9 1C       		.byte	0x1c
 6776 0bca 11       		.uleb128 0x11
 6777 0bcb 01       		.uleb128 0x1
 6778 0bcc 51       		.byte	0x51
 6779 0bcd 02       		.uleb128 0x2
 6780 0bce 77       		.byte	0x77
 6781 0bcf 00       		.sleb128 0
 6782 0bd0 11       		.uleb128 0x11
 6783 0bd1 01       		.uleb128 0x1
 6784 0bd2 52       		.byte	0x52
 6785 0bd3 02       		.uleb128 0x2
 6786 0bd4 74       		.byte	0x74
 6787 0bd5 00       		.sleb128 0
 6788 0bd6 11       		.uleb128 0x11
 6789 0bd7 01       		.uleb128 0x1
 6790 0bd8 53       		.byte	0x53
 6791 0bd9 05       		.uleb128 0x5
 6792 0bda 91       		.byte	0x91
 6793 0bdb BC7F     		.sleb128 -68
 6794 0bdd 94       		.byte	0x94
 6795 0bde 01       		.byte	0x1
 6796 0bdf 00       		.byte	0
 6797 0be0 10       		.uleb128 0x10
 6798 0be1 C6000000 		.4byte	.LVL180
 6799 0be5 53050000 		.4byte	0x553
 6800 0be9 0C0C0000 		.4byte	0xc0c
 6801 0bed 11       		.uleb128 0x11
 6802 0bee 01       		.uleb128 0x1
 6803 0bef 50       		.byte	0x50
ARM GAS  C:\Users\PC\AppData\Local\Temp\ccKVdNiW.s 			page 141


 6804 0bf0 02       		.uleb128 0x2
 6805 0bf1 77       		.byte	0x77
 6806 0bf2 00       		.sleb128 0
 6807 0bf3 11       		.uleb128 0x11
 6808 0bf4 01       		.uleb128 0x1
 6809 0bf5 51       		.byte	0x51
 6810 0bf6 02       		.uleb128 0x2
 6811 0bf7 74       		.byte	0x74
 6812 0bf8 00       		.sleb128 0
 6813 0bf9 11       		.uleb128 0x11
 6814 0bfa 01       		.uleb128 0x1
 6815 0bfb 52       		.byte	0x52
 6816 0bfc 02       		.uleb128 0x2
 6817 0bfd 76       		.byte	0x76
 6818 0bfe 00       		.sleb128 0
 6819 0bff 11       		.uleb128 0x11
 6820 0c00 01       		.uleb128 0x1
 6821 0c01 53       		.byte	0x53
 6822 0c02 01       		.uleb128 0x1
 6823 0c03 31       		.byte	0x31
 6824 0c04 11       		.uleb128 0x11
 6825 0c05 02       		.uleb128 0x2
 6826 0c06 7D       		.byte	0x7d
 6827 0c07 00       		.sleb128 0
 6828 0c08 02       		.uleb128 0x2
 6829 0c09 78       		.byte	0x78
 6830 0c0a 00       		.sleb128 0
 6831 0c0b 00       		.byte	0
 6832 0c0c 10       		.uleb128 0x10
 6833 0c0d E2000000 		.4byte	.LVL181
 6834 0c11 53050000 		.4byte	0x553
 6835 0c15 380C0000 		.4byte	0xc38
 6836 0c19 11       		.uleb128 0x11
 6837 0c1a 01       		.uleb128 0x1
 6838 0c1b 50       		.byte	0x50
 6839 0c1c 02       		.uleb128 0x2
 6840 0c1d 75       		.byte	0x75
 6841 0c1e 00       		.sleb128 0
 6842 0c1f 11       		.uleb128 0x11
 6843 0c20 01       		.uleb128 0x1
 6844 0c21 51       		.byte	0x51
 6845 0c22 02       		.uleb128 0x2
 6846 0c23 74       		.byte	0x74
 6847 0c24 00       		.sleb128 0
 6848 0c25 11       		.uleb128 0x11
 6849 0c26 01       		.uleb128 0x1
 6850 0c27 52       		.byte	0x52
 6851 0c28 02       		.uleb128 0x2
 6852 0c29 76       		.byte	0x76
 6853 0c2a 00       		.sleb128 0
 6854 0c2b 11       		.uleb128 0x11
 6855 0c2c 01       		.uleb128 0x1
 6856 0c2d 53       		.byte	0x53
 6857 0c2e 01       		.uleb128 0x1
 6858 0c2f 32       		.byte	0x32
 6859 0c30 11       		.uleb128 0x11
 6860 0c31 02       		.uleb128 0x2
ARM GAS  C:\Users\PC\AppData\Local\Temp\ccKVdNiW.s 			page 142


 6861 0c32 7D       		.byte	0x7d
 6862 0c33 00       		.sleb128 0
 6863 0c34 02       		.uleb128 0x2
 6864 0c35 78       		.byte	0x78
 6865 0c36 00       		.sleb128 0
 6866 0c37 00       		.byte	0
 6867 0c38 10       		.uleb128 0x10
 6868 0c39 00010000 		.4byte	.LVL182
 6869 0c3d 53050000 		.4byte	0x553
 6870 0c41 640C0000 		.4byte	0xc64
 6871 0c45 11       		.uleb128 0x11
 6872 0c46 01       		.uleb128 0x1
 6873 0c47 50       		.byte	0x50
 6874 0c48 02       		.uleb128 0x2
 6875 0c49 75       		.byte	0x75
 6876 0c4a 00       		.sleb128 0
 6877 0c4b 11       		.uleb128 0x11
 6878 0c4c 01       		.uleb128 0x1
 6879 0c4d 51       		.byte	0x51
 6880 0c4e 02       		.uleb128 0x2
 6881 0c4f 74       		.byte	0x74
 6882 0c50 00       		.sleb128 0
 6883 0c51 11       		.uleb128 0x11
 6884 0c52 01       		.uleb128 0x1
 6885 0c53 52       		.byte	0x52
 6886 0c54 02       		.uleb128 0x2
 6887 0c55 76       		.byte	0x76
 6888 0c56 00       		.sleb128 0
 6889 0c57 11       		.uleb128 0x11
 6890 0c58 01       		.uleb128 0x1
 6891 0c59 53       		.byte	0x53
 6892 0c5a 01       		.uleb128 0x1
 6893 0c5b 34       		.byte	0x34
 6894 0c5c 11       		.uleb128 0x11
 6895 0c5d 02       		.uleb128 0x2
 6896 0c5e 7D       		.byte	0x7d
 6897 0c5f 00       		.sleb128 0
 6898 0c60 02       		.uleb128 0x2
 6899 0c61 78       		.byte	0x78
 6900 0c62 00       		.sleb128 0
 6901 0c63 00       		.byte	0
 6902 0c64 12       		.uleb128 0x12
 6903 0c65 10010000 		.4byte	.LVL183
 6904 0c69 53050000 		.4byte	0x553
 6905 0c6d 11       		.uleb128 0x11
 6906 0c6e 01       		.uleb128 0x1
 6907 0c6f 50       		.byte	0x50
 6908 0c70 02       		.uleb128 0x2
 6909 0c71 77       		.byte	0x77
 6910 0c72 00       		.sleb128 0
 6911 0c73 11       		.uleb128 0x11
 6912 0c74 01       		.uleb128 0x1
 6913 0c75 51       		.byte	0x51
 6914 0c76 02       		.uleb128 0x2
 6915 0c77 74       		.byte	0x74
 6916 0c78 00       		.sleb128 0
 6917 0c79 11       		.uleb128 0x11
ARM GAS  C:\Users\PC\AppData\Local\Temp\ccKVdNiW.s 			page 143


 6918 0c7a 01       		.uleb128 0x1
 6919 0c7b 52       		.byte	0x52
 6920 0c7c 02       		.uleb128 0x2
 6921 0c7d 76       		.byte	0x76
 6922 0c7e 00       		.sleb128 0
 6923 0c7f 11       		.uleb128 0x11
 6924 0c80 01       		.uleb128 0x1
 6925 0c81 53       		.byte	0x53
 6926 0c82 01       		.uleb128 0x1
 6927 0c83 38       		.byte	0x38
 6928 0c84 11       		.uleb128 0x11
 6929 0c85 02       		.uleb128 0x2
 6930 0c86 7D       		.byte	0x7d
 6931 0c87 00       		.sleb128 0
 6932 0c88 02       		.uleb128 0x2
 6933 0c89 78       		.byte	0x78
 6934 0c8a 00       		.sleb128 0
 6935 0c8b 00       		.byte	0
 6936 0c8c 00       		.byte	0
 6937 0c8d 06       		.uleb128 0x6
 6938 0c8e B9030000 		.4byte	.LASF40
 6939 0c92 01       		.byte	0x1
 6940 0c93 6D02     		.2byte	0x26d
 6941 0c95 00000000 		.4byte	.LFB41
 6942 0c99 8A000000 		.4byte	.LFE41-.LFB41
 6943 0c9d 01       		.uleb128 0x1
 6944 0c9e 9C       		.byte	0x9c
 6945 0c9f B70D0000 		.4byte	0xdb7
 6946 0ca3 07       		.uleb128 0x7
 6947 0ca4 7800     		.ascii	"x\000"
 6948 0ca6 01       		.byte	0x1
 6949 0ca7 6D02     		.2byte	0x26d
 6950 0ca9 AD000000 		.4byte	0xad
 6951 0cad A3090000 		.4byte	.LLST60
 6952 0cb1 07       		.uleb128 0x7
 6953 0cb2 7900     		.ascii	"y\000"
 6954 0cb4 01       		.byte	0x1
 6955 0cb5 6D02     		.2byte	0x26d
 6956 0cb7 AD000000 		.4byte	0xad
 6957 0cbb C4090000 		.4byte	.LLST61
 6958 0cbf 07       		.uleb128 0x7
 6959 0cc0 7700     		.ascii	"w\000"
 6960 0cc2 01       		.byte	0x1
 6961 0cc3 6D02     		.2byte	0x26d
 6962 0cc5 AD000000 		.4byte	0xad
 6963 0cc9 E5090000 		.4byte	.LLST62
 6964 0ccd 07       		.uleb128 0x7
 6965 0cce 6800     		.ascii	"h\000"
 6966 0cd0 01       		.byte	0x1
 6967 0cd1 6E02     		.2byte	0x26e
 6968 0cd3 AD000000 		.4byte	0xad
 6969 0cd7 060A0000 		.4byte	.LLST63
 6970 0cdb 07       		.uleb128 0x7
 6971 0cdc 7200     		.ascii	"r\000"
 6972 0cde 01       		.byte	0x1
 6973 0cdf 6E02     		.2byte	0x26e
 6974 0ce1 AD000000 		.4byte	0xad
ARM GAS  C:\Users\PC\AppData\Local\Temp\ccKVdNiW.s 			page 144


 6975 0ce5 270A0000 		.4byte	.LLST64
 6976 0ce9 08       		.uleb128 0x8
 6977 0cea FD030000 		.4byte	.LASF22
 6978 0cee 01       		.byte	0x1
 6979 0cef 6E02     		.2byte	0x26e
 6980 0cf1 AD000000 		.4byte	0xad
 6981 0cf5 5E0A0000 		.4byte	.LLST65
 6982 0cf9 09       		.uleb128 0x9
 6983 0cfa 4B040000 		.4byte	.LASF39
 6984 0cfe 01       		.byte	0x1
 6985 0cff 6F02     		.2byte	0x26f
 6986 0d01 A2000000 		.4byte	0xa2
 6987 0d05 960A0000 		.4byte	.LLST66
 6988 0d09 14       		.uleb128 0x14
 6989 0d0a 81030000 		.4byte	.LASF41
 6990 0d0e 01       		.byte	0x1
 6991 0d0f 7202     		.2byte	0x272
 6992 0d11 89000000 		.4byte	0x89
 6993 0d15 1B0D0000 		.4byte	0xd1b
 6994 0d19 0B       		.uleb128 0xb
 6995 0d1a 00       		.byte	0
 6996 0d1b 10       		.uleb128 0x10
 6997 0d1c 48000000 		.4byte	.LVL195
 6998 0d20 D3190000 		.4byte	0x19d3
 6999 0d24 4E0D0000 		.4byte	0xd4e
 7000 0d28 11       		.uleb128 0x11
 7001 0d29 01       		.uleb128 0x1
 7002 0d2a 50       		.byte	0x50
 7003 0d2b 03       		.uleb128 0x3
 7004 0d2c 91       		.byte	0x91
 7005 0d2d 5C       		.sleb128 -36
 7006 0d2e 06       		.byte	0x6
 7007 0d2f 11       		.uleb128 0x11
 7008 0d30 01       		.uleb128 0x1
 7009 0d31 51       		.byte	0x51
 7010 0d32 02       		.uleb128 0x2
 7011 0d33 76       		.byte	0x76
 7012 0d34 00       		.sleb128 0
 7013 0d35 11       		.uleb128 0x11
 7014 0d36 01       		.uleb128 0x1
 7015 0d37 52       		.byte	0x52
 7016 0d38 07       		.uleb128 0x7
 7017 0d39 75       		.byte	0x75
 7018 0d3a 00       		.sleb128 0
 7019 0d3b 77       		.byte	0x77
 7020 0d3c 00       		.sleb128 0
 7021 0d3d 31       		.byte	0x31
 7022 0d3e 24       		.byte	0x24
 7023 0d3f 1C       		.byte	0x1c
 7024 0d40 11       		.uleb128 0x11
 7025 0d41 01       		.uleb128 0x1
 7026 0d42 53       		.byte	0x53
 7027 0d43 02       		.uleb128 0x2
 7028 0d44 74       		.byte	0x74
 7029 0d45 00       		.sleb128 0
 7030 0d46 11       		.uleb128 0x11
 7031 0d47 02       		.uleb128 0x2
ARM GAS  C:\Users\PC\AppData\Local\Temp\ccKVdNiW.s 			page 145


 7032 0d48 7D       		.byte	0x7d
 7033 0d49 00       		.sleb128 0
 7034 0d4a 02       		.uleb128 0x2
 7035 0d4b 7A       		.byte	0x7a
 7036 0d4c 00       		.sleb128 0
 7037 0d4d 00       		.byte	0
 7038 0d4e 10       		.uleb128 0x10
 7039 0d4f 6C000000 		.4byte	.LVL196
 7040 0d53 4F070000 		.4byte	0x74f
 7041 0d57 850D0000 		.4byte	0xd85
 7042 0d5b 11       		.uleb128 0x11
 7043 0d5c 01       		.uleb128 0x1
 7044 0d5d 50       		.byte	0x50
 7045 0d5e 06       		.uleb128 0x6
 7046 0d5f 77       		.byte	0x77
 7047 0d60 00       		.sleb128 0
 7048 0d61 20       		.byte	0x20
 7049 0d62 75       		.byte	0x75
 7050 0d63 00       		.sleb128 0
 7051 0d64 22       		.byte	0x22
 7052 0d65 11       		.uleb128 0x11
 7053 0d66 01       		.uleb128 0x1
 7054 0d67 51       		.byte	0x51
 7055 0d68 02       		.uleb128 0x2
 7056 0d69 76       		.byte	0x76
 7057 0d6a 00       		.sleb128 0
 7058 0d6b 11       		.uleb128 0x11
 7059 0d6c 01       		.uleb128 0x1
 7060 0d6d 52       		.byte	0x52
 7061 0d6e 02       		.uleb128 0x2
 7062 0d6f 77       		.byte	0x77
 7063 0d70 00       		.sleb128 0
 7064 0d71 11       		.uleb128 0x11
 7065 0d72 01       		.uleb128 0x1
 7066 0d73 53       		.byte	0x53
 7067 0d74 01       		.uleb128 0x1
 7068 0d75 31       		.byte	0x31
 7069 0d76 11       		.uleb128 0x11
 7070 0d77 02       		.uleb128 0x2
 7071 0d78 7D       		.byte	0x7d
 7072 0d79 00       		.sleb128 0
 7073 0d7a 02       		.uleb128 0x2
 7074 0d7b 74       		.byte	0x74
 7075 0d7c 00       		.sleb128 0
 7076 0d7d 11       		.uleb128 0x11
 7077 0d7e 02       		.uleb128 0x2
 7078 0d7f 7D       		.byte	0x7d
 7079 0d80 04       		.sleb128 4
 7080 0d81 02       		.uleb128 0x2
 7081 0d82 7A       		.byte	0x7a
 7082 0d83 00       		.sleb128 0
 7083 0d84 00       		.byte	0
 7084 0d85 12       		.uleb128 0x12
 7085 0d86 80000000 		.4byte	.LVL197
 7086 0d8a 4F070000 		.4byte	0x74f
 7087 0d8e 11       		.uleb128 0x11
 7088 0d8f 01       		.uleb128 0x1
ARM GAS  C:\Users\PC\AppData\Local\Temp\ccKVdNiW.s 			page 146


 7089 0d90 50       		.byte	0x50
 7090 0d91 04       		.uleb128 0x4
 7091 0d92 7D       		.byte	0x7d
 7092 0d93 0C       		.sleb128 12
 7093 0d94 94       		.byte	0x94
 7094 0d95 02       		.byte	0x2
 7095 0d96 11       		.uleb128 0x11
 7096 0d97 01       		.uleb128 0x1
 7097 0d98 51       		.byte	0x51
 7098 0d99 02       		.uleb128 0x2
 7099 0d9a 76       		.byte	0x76
 7100 0d9b 00       		.sleb128 0
 7101 0d9c 11       		.uleb128 0x11
 7102 0d9d 01       		.uleb128 0x1
 7103 0d9e 52       		.byte	0x52
 7104 0d9f 02       		.uleb128 0x2
 7105 0da0 77       		.byte	0x77
 7106 0da1 00       		.sleb128 0
 7107 0da2 11       		.uleb128 0x11
 7108 0da3 01       		.uleb128 0x1
 7109 0da4 53       		.byte	0x53
 7110 0da5 01       		.uleb128 0x1
 7111 0da6 32       		.byte	0x32
 7112 0da7 11       		.uleb128 0x11
 7113 0da8 02       		.uleb128 0x2
 7114 0da9 7D       		.byte	0x7d
 7115 0daa 00       		.sleb128 0
 7116 0dab 02       		.uleb128 0x2
 7117 0dac 74       		.byte	0x74
 7118 0dad 00       		.sleb128 0
 7119 0dae 11       		.uleb128 0x11
 7120 0daf 02       		.uleb128 0x2
 7121 0db0 7D       		.byte	0x7d
 7122 0db1 04       		.sleb128 4
 7123 0db2 02       		.uleb128 0x2
 7124 0db3 7A       		.byte	0x7a
 7125 0db4 00       		.sleb128 0
 7126 0db5 00       		.byte	0
 7127 0db6 00       		.byte	0
 7128 0db7 06       		.uleb128 0x6
 7129 0db8 A4030000 		.4byte	.LASF42
 7130 0dbc 01       		.byte	0x1
 7131 0dbd 8502     		.2byte	0x285
 7132 0dbf 00000000 		.4byte	.LFB42
 7133 0dc3 40000000 		.4byte	.LFE42-.LFB42
 7134 0dc7 01       		.uleb128 0x1
 7135 0dc8 9C       		.byte	0x9c
 7136 0dc9 C70E0000 		.4byte	0xec7
 7137 0dcd 07       		.uleb128 0x7
 7138 0dce 783000   		.ascii	"x0\000"
 7139 0dd1 01       		.byte	0x1
 7140 0dd2 8502     		.2byte	0x285
 7141 0dd4 AD000000 		.4byte	0xad
 7142 0dd8 B40A0000 		.4byte	.LLST67
 7143 0ddc 07       		.uleb128 0x7
 7144 0ddd 793000   		.ascii	"y0\000"
 7145 0de0 01       		.byte	0x1
ARM GAS  C:\Users\PC\AppData\Local\Temp\ccKVdNiW.s 			page 147


 7146 0de1 8502     		.2byte	0x285
 7147 0de3 AD000000 		.4byte	0xad
 7148 0de7 D50A0000 		.4byte	.LLST68
 7149 0deb 07       		.uleb128 0x7
 7150 0dec 783100   		.ascii	"x1\000"
 7151 0def 01       		.byte	0x1
 7152 0df0 8502     		.2byte	0x285
 7153 0df2 AD000000 		.4byte	0xad
 7154 0df6 F60A0000 		.4byte	.LLST69
 7155 0dfa 07       		.uleb128 0x7
 7156 0dfb 793100   		.ascii	"y1\000"
 7157 0dfe 01       		.byte	0x1
 7158 0dff 8502     		.2byte	0x285
 7159 0e01 AD000000 		.4byte	0xad
 7160 0e05 170B0000 		.4byte	.LLST70
 7161 0e09 07       		.uleb128 0x7
 7162 0e0a 783200   		.ascii	"x2\000"
 7163 0e0d 01       		.byte	0x1
 7164 0e0e 8602     		.2byte	0x286
 7165 0e10 AD000000 		.4byte	0xad
 7166 0e14 380B0000 		.4byte	.LLST71
 7167 0e18 07       		.uleb128 0x7
 7168 0e19 793200   		.ascii	"y2\000"
 7169 0e1c 01       		.byte	0x1
 7170 0e1d 8602     		.2byte	0x286
 7171 0e1f AD000000 		.4byte	0xad
 7172 0e23 640B0000 		.4byte	.LLST72
 7173 0e27 08       		.uleb128 0x8
 7174 0e28 FD030000 		.4byte	.LASF22
 7175 0e2c 01       		.byte	0x1
 7176 0e2d 8602     		.2byte	0x286
 7177 0e2f AD000000 		.4byte	0xad
 7178 0e33 9C0B0000 		.4byte	.LLST73
 7179 0e37 10       		.uleb128 0x10
 7180 0e38 20000000 		.4byte	.LVL204
 7181 0e3c 54020000 		.4byte	0x254
 7182 0e40 6A0E0000 		.4byte	0xe6a
 7183 0e44 11       		.uleb128 0x11
 7184 0e45 01       		.uleb128 0x1
 7185 0e46 50       		.byte	0x50
 7186 0e47 04       		.uleb128 0x4
 7187 0e48 91       		.byte	0x91
 7188 0e49 5C       		.sleb128 -36
 7189 0e4a 94       		.byte	0x94
 7190 0e4b 02       		.byte	0x2
 7191 0e4c 11       		.uleb128 0x11
 7192 0e4d 01       		.uleb128 0x1
 7193 0e4e 51       		.byte	0x51
 7194 0e4f 04       		.uleb128 0x4
 7195 0e50 91       		.byte	0x91
 7196 0e51 60       		.sleb128 -32
 7197 0e52 94       		.byte	0x94
 7198 0e53 02       		.byte	0x2
 7199 0e54 11       		.uleb128 0x11
 7200 0e55 01       		.uleb128 0x1
 7201 0e56 52       		.byte	0x52
 7202 0e57 04       		.uleb128 0x4
ARM GAS  C:\Users\PC\AppData\Local\Temp\ccKVdNiW.s 			page 148


 7203 0e58 91       		.byte	0x91
 7204 0e59 64       		.sleb128 -28
 7205 0e5a 94       		.byte	0x94
 7206 0e5b 02       		.byte	0x2
 7207 0e5c 11       		.uleb128 0x11
 7208 0e5d 01       		.uleb128 0x1
 7209 0e5e 53       		.byte	0x53
 7210 0e5f 02       		.uleb128 0x2
 7211 0e60 77       		.byte	0x77
 7212 0e61 00       		.sleb128 0
 7213 0e62 11       		.uleb128 0x11
 7214 0e63 02       		.uleb128 0x2
 7215 0e64 7D       		.byte	0x7d
 7216 0e65 00       		.sleb128 0
 7217 0e66 02       		.uleb128 0x2
 7218 0e67 76       		.byte	0x76
 7219 0e68 00       		.sleb128 0
 7220 0e69 00       		.byte	0
 7221 0e6a 10       		.uleb128 0x10
 7222 0e6b 2E000000 		.4byte	.LVL205
 7223 0e6f 54020000 		.4byte	0x254
 7224 0e73 990E0000 		.4byte	0xe99
 7225 0e77 11       		.uleb128 0x11
 7226 0e78 01       		.uleb128 0x1
 7227 0e79 50       		.byte	0x50
 7228 0e7a 04       		.uleb128 0x4
 7229 0e7b 91       		.byte	0x91
 7230 0e7c 64       		.sleb128 -28
 7231 0e7d 94       		.byte	0x94
 7232 0e7e 02       		.byte	0x2
 7233 0e7f 11       		.uleb128 0x11
 7234 0e80 01       		.uleb128 0x1
 7235 0e81 51       		.byte	0x51
 7236 0e82 02       		.uleb128 0x2
 7237 0e83 77       		.byte	0x77
 7238 0e84 00       		.sleb128 0
 7239 0e85 11       		.uleb128 0x11
 7240 0e86 01       		.uleb128 0x1
 7241 0e87 52       		.byte	0x52
 7242 0e88 02       		.uleb128 0x2
 7243 0e89 74       		.byte	0x74
 7244 0e8a 00       		.sleb128 0
 7245 0e8b 11       		.uleb128 0x11
 7246 0e8c 01       		.uleb128 0x1
 7247 0e8d 53       		.byte	0x53
 7248 0e8e 02       		.uleb128 0x2
 7249 0e8f 75       		.byte	0x75
 7250 0e90 00       		.sleb128 0
 7251 0e91 11       		.uleb128 0x11
 7252 0e92 02       		.uleb128 0x2
 7253 0e93 7D       		.byte	0x7d
 7254 0e94 00       		.sleb128 0
 7255 0e95 02       		.uleb128 0x2
 7256 0e96 76       		.byte	0x76
 7257 0e97 00       		.sleb128 0
 7258 0e98 00       		.byte	0
 7259 0e99 12       		.uleb128 0x12
ARM GAS  C:\Users\PC\AppData\Local\Temp\ccKVdNiW.s 			page 149


 7260 0e9a 3C000000 		.4byte	.LVL206
 7261 0e9e 54020000 		.4byte	0x254
 7262 0ea2 11       		.uleb128 0x11
 7263 0ea3 01       		.uleb128 0x1
 7264 0ea4 50       		.byte	0x50
 7265 0ea5 02       		.uleb128 0x2
 7266 0ea6 74       		.byte	0x74
 7267 0ea7 00       		.sleb128 0
 7268 0ea8 11       		.uleb128 0x11
 7269 0ea9 01       		.uleb128 0x1
 7270 0eaa 51       		.byte	0x51
 7271 0eab 02       		.uleb128 0x2
 7272 0eac 75       		.byte	0x75
 7273 0ead 00       		.sleb128 0
 7274 0eae 11       		.uleb128 0x11
 7275 0eaf 01       		.uleb128 0x1
 7276 0eb0 52       		.byte	0x52
 7277 0eb1 04       		.uleb128 0x4
 7278 0eb2 91       		.byte	0x91
 7279 0eb3 5C       		.sleb128 -36
 7280 0eb4 94       		.byte	0x94
 7281 0eb5 02       		.byte	0x2
 7282 0eb6 11       		.uleb128 0x11
 7283 0eb7 01       		.uleb128 0x1
 7284 0eb8 53       		.byte	0x53
 7285 0eb9 04       		.uleb128 0x4
 7286 0eba 91       		.byte	0x91
 7287 0ebb 60       		.sleb128 -32
 7288 0ebc 94       		.byte	0x94
 7289 0ebd 02       		.byte	0x2
 7290 0ebe 11       		.uleb128 0x11
 7291 0ebf 02       		.uleb128 0x2
 7292 0ec0 7D       		.byte	0x7d
 7293 0ec1 00       		.sleb128 0
 7294 0ec2 02       		.uleb128 0x2
 7295 0ec3 76       		.byte	0x76
 7296 0ec4 00       		.sleb128 0
 7297 0ec5 00       		.byte	0
 7298 0ec6 00       		.byte	0
 7299 0ec7 15       		.uleb128 0x15
 7300 0ec8 4B020000 		.4byte	.LASF43
 7301 0ecc 01       		.byte	0x1
 7302 0ecd 9802     		.2byte	0x298
 7303 0ecf 00000000 		.4byte	.LFB43
 7304 0ed3 B4010000 		.4byte	.LFE43-.LFB43
 7305 0ed7 01       		.uleb128 0x1
 7306 0ed8 9C       		.byte	0x9c
 7307 0ed9 F7100000 		.4byte	0x10f7
 7308 0edd 07       		.uleb128 0x7
 7309 0ede 783000   		.ascii	"x0\000"
 7310 0ee1 01       		.byte	0x1
 7311 0ee2 9802     		.2byte	0x298
 7312 0ee4 AD000000 		.4byte	0xad
 7313 0ee8 E00B0000 		.4byte	.LLST74
 7314 0eec 07       		.uleb128 0x7
 7315 0eed 793000   		.ascii	"y0\000"
 7316 0ef0 01       		.byte	0x1
ARM GAS  C:\Users\PC\AppData\Local\Temp\ccKVdNiW.s 			page 150


 7317 0ef1 9802     		.2byte	0x298
 7318 0ef3 AD000000 		.4byte	0xad
 7319 0ef7 380C0000 		.4byte	.LLST75
 7320 0efb 07       		.uleb128 0x7
 7321 0efc 783100   		.ascii	"x1\000"
 7322 0eff 01       		.byte	0x1
 7323 0f00 9802     		.2byte	0x298
 7324 0f02 AD000000 		.4byte	0xad
 7325 0f06 630C0000 		.4byte	.LLST76
 7326 0f0a 07       		.uleb128 0x7
 7327 0f0b 793100   		.ascii	"y1\000"
 7328 0f0e 01       		.byte	0x1
 7329 0f0f 9802     		.2byte	0x298
 7330 0f11 AD000000 		.4byte	0xad
 7331 0f15 900C0000 		.4byte	.LLST77
 7332 0f19 07       		.uleb128 0x7
 7333 0f1a 783200   		.ascii	"x2\000"
 7334 0f1d 01       		.byte	0x1
 7335 0f1e 9902     		.2byte	0x299
 7336 0f20 AD000000 		.4byte	0xad
 7337 0f24 D50C0000 		.4byte	.LLST78
 7338 0f28 07       		.uleb128 0x7
 7339 0f29 793200   		.ascii	"y2\000"
 7340 0f2c 01       		.byte	0x1
 7341 0f2d 9902     		.2byte	0x299
 7342 0f2f AD000000 		.4byte	0xad
 7343 0f33 0C0D0000 		.4byte	.LLST79
 7344 0f37 08       		.uleb128 0x8
 7345 0f38 FD030000 		.4byte	.LASF22
 7346 0f3c 01       		.byte	0x1
 7347 0f3d 9902     		.2byte	0x299
 7348 0f3f AD000000 		.4byte	0xad
 7349 0f43 4F0D0000 		.4byte	.LLST80
 7350 0f47 0C       		.uleb128 0xc
 7351 0f48 6100     		.ascii	"a\000"
 7352 0f4a 01       		.byte	0x1
 7353 0f4b 9A02     		.2byte	0x29a
 7354 0f4d A2000000 		.4byte	0xa2
 7355 0f51 930D0000 		.4byte	.LLST81
 7356 0f55 0C       		.uleb128 0xc
 7357 0f56 6200     		.ascii	"b\000"
 7358 0f58 01       		.byte	0x1
 7359 0f59 9A02     		.2byte	0x29a
 7360 0f5b A2000000 		.4byte	0xa2
 7361 0f5f 090E0000 		.4byte	.LLST82
 7362 0f63 0C       		.uleb128 0xc
 7363 0f64 7900     		.ascii	"y\000"
 7364 0f66 01       		.byte	0x1
 7365 0f67 9A02     		.2byte	0x29a
 7366 0f69 A2000000 		.4byte	0xa2
 7367 0f6d 760E0000 		.4byte	.LLST83
 7368 0f71 09       		.uleb128 0x9
 7369 0f72 07000000 		.4byte	.LASF44
 7370 0f76 01       		.byte	0x1
 7371 0f77 9A02     		.2byte	0x29a
 7372 0f79 A2000000 		.4byte	0xa2
 7373 0f7d 9F0E0000 		.4byte	.LLST84
ARM GAS  C:\Users\PC\AppData\Local\Temp\ccKVdNiW.s 			page 151


 7374 0f81 09       		.uleb128 0x9
 7375 0f82 16000000 		.4byte	.LASF45
 7376 0f86 01       		.byte	0x1
 7377 0f87 B202     		.2byte	0x2b2
 7378 0f89 A2000000 		.4byte	0xa2
 7379 0f8d BD0E0000 		.4byte	.LLST85
 7380 0f91 09       		.uleb128 0x9
 7381 0f92 9E020000 		.4byte	.LASF46
 7382 0f96 01       		.byte	0x1
 7383 0f97 B302     		.2byte	0x2b3
 7384 0f99 A2000000 		.4byte	0xa2
 7385 0f9d D10E0000 		.4byte	.LLST86
 7386 0fa1 09       		.uleb128 0x9
 7387 0fa2 1B000000 		.4byte	.LASF47
 7388 0fa6 01       		.byte	0x1
 7389 0fa7 B402     		.2byte	0x2b4
 7390 0fa9 A2000000 		.4byte	0xa2
 7391 0fad E50E0000 		.4byte	.LLST87
 7392 0fb1 09       		.uleb128 0x9
 7393 0fb2 A3020000 		.4byte	.LASF48
 7394 0fb6 01       		.byte	0x1
 7395 0fb7 B502     		.2byte	0x2b5
 7396 0fb9 A2000000 		.4byte	0xa2
 7397 0fbd 030F0000 		.4byte	.LLST88
 7398 0fc1 09       		.uleb128 0x9
 7399 0fc2 5A000000 		.4byte	.LASF49
 7400 0fc6 01       		.byte	0x1
 7401 0fc7 B602     		.2byte	0x2b6
 7402 0fc9 A2000000 		.4byte	0xa2
 7403 0fcd 180F0000 		.4byte	.LLST89
 7404 0fd1 09       		.uleb128 0x9
 7405 0fd2 CB020000 		.4byte	.LASF50
 7406 0fd6 01       		.byte	0x1
 7407 0fd7 B702     		.2byte	0x2b7
 7408 0fd9 A2000000 		.4byte	0xa2
 7409 0fdd 2C0F0000 		.4byte	.LLST90
 7410 0fe1 0C       		.uleb128 0xc
 7411 0fe2 736100   		.ascii	"sa\000"
 7412 0fe5 01       		.byte	0x1
 7413 0fe6 B902     		.2byte	0x2b9
 7414 0fe8 B8000000 		.4byte	0xb8
 7415 0fec 400F0000 		.4byte	.LLST91
 7416 0ff0 0C       		.uleb128 0xc
 7417 0ff1 736200   		.ascii	"sb\000"
 7418 0ff4 01       		.byte	0x1
 7419 0ff5 BA02     		.2byte	0x2ba
 7420 0ff7 B8000000 		.4byte	0xb8
 7421 0ffb 6A0F0000 		.4byte	.LLST92
 7422 0fff 0E       		.uleb128 0xe
 7423 1000 2E000000 		.4byte	.LBB8
 7424 1004 04000000 		.4byte	.LBE8-.LBB8
 7425 1008 17100000 		.4byte	0x1017
 7426 100c 0F       		.uleb128 0xf
 7427 100d 7400     		.ascii	"t\000"
 7428 100f 01       		.byte	0x1
 7429 1010 9E02     		.2byte	0x29e
 7430 1012 A2000000 		.4byte	0xa2
ARM GAS  C:\Users\PC\AppData\Local\Temp\ccKVdNiW.s 			page 152


 7431 1016 00       		.byte	0
 7432 1017 0E       		.uleb128 0xe
 7433 1018 34000000 		.4byte	.LBB9
 7434 101c 04000000 		.4byte	.LBE9-.LBB9
 7435 1020 2F100000 		.4byte	0x102f
 7436 1024 0F       		.uleb128 0xf
 7437 1025 7400     		.ascii	"t\000"
 7438 1027 01       		.byte	0x1
 7439 1028 9E02     		.2byte	0x29e
 7440 102a A2000000 		.4byte	0xa2
 7441 102e 00       		.byte	0
 7442 102f 0E       		.uleb128 0xe
 7443 1030 3E000000 		.4byte	.LBB10
 7444 1034 06000000 		.4byte	.LBE10-.LBB10
 7445 1038 47100000 		.4byte	0x1047
 7446 103c 0F       		.uleb128 0xf
 7447 103d 7400     		.ascii	"t\000"
 7448 103f 01       		.byte	0x1
 7449 1040 A102     		.2byte	0x2a1
 7450 1042 A2000000 		.4byte	0xa2
 7451 1046 00       		.byte	0
 7452 1047 0E       		.uleb128 0xe
 7453 1048 46000000 		.4byte	.LBB11
 7454 104c 04000000 		.4byte	.LBE11-.LBB11
 7455 1050 5F100000 		.4byte	0x105f
 7456 1054 0F       		.uleb128 0xf
 7457 1055 7400     		.ascii	"t\000"
 7458 1057 01       		.byte	0x1
 7459 1058 A102     		.2byte	0x2a1
 7460 105a A2000000 		.4byte	0xa2
 7461 105e 00       		.byte	0
 7462 105f 0E       		.uleb128 0xe
 7463 1060 52000000 		.4byte	.LBB12
 7464 1064 04000000 		.4byte	.LBE12-.LBB12
 7465 1068 77100000 		.4byte	0x1077
 7466 106c 0F       		.uleb128 0xf
 7467 106d 7400     		.ascii	"t\000"
 7468 106f 01       		.byte	0x1
 7469 1070 A402     		.2byte	0x2a4
 7470 1072 A2000000 		.4byte	0xa2
 7471 1076 00       		.byte	0
 7472 1077 0E       		.uleb128 0xe
 7473 1078 58000000 		.4byte	.LBB13
 7474 107c 04000000 		.4byte	.LBE13-.LBB13
 7475 1080 8F100000 		.4byte	0x108f
 7476 1084 0F       		.uleb128 0xf
 7477 1085 7400     		.ascii	"t\000"
 7478 1087 01       		.byte	0x1
 7479 1088 A402     		.2byte	0x2a4
 7480 108a A2000000 		.4byte	0xa2
 7481 108e 00       		.byte	0
 7482 108f 10       		.uleb128 0x10
 7483 1090 A4000000 		.4byte	.LVL232
 7484 1094 C8190000 		.4byte	0x19c8
 7485 1098 B6100000 		.4byte	0x10b6
 7486 109c 11       		.uleb128 0x11
 7487 109d 01       		.uleb128 0x1
ARM GAS  C:\Users\PC\AppData\Local\Temp\ccKVdNiW.s 			page 153


 7488 109e 51       		.byte	0x51
 7489 109f 07       		.uleb128 0x7
 7490 10a0 7D       		.byte	0x7d
 7491 10a1 00       		.sleb128 0
 7492 10a2 74       		.byte	0x74
 7493 10a3 00       		.sleb128 0
 7494 10a4 22       		.byte	0x22
 7495 10a5 94       		.byte	0x94
 7496 10a6 01       		.byte	0x1
 7497 10a7 11       		.uleb128 0x11
 7498 10a8 01       		.uleb128 0x1
 7499 10a9 52       		.byte	0x52
 7500 10aa 02       		.uleb128 0x2
 7501 10ab 76       		.byte	0x76
 7502 10ac 00       		.sleb128 0
 7503 10ad 11       		.uleb128 0x11
 7504 10ae 01       		.uleb128 0x1
 7505 10af 53       		.byte	0x53
 7506 10b0 04       		.uleb128 0x4
 7507 10b1 7D       		.byte	0x7d
 7508 10b2 04       		.sleb128 4
 7509 10b3 94       		.byte	0x94
 7510 10b4 01       		.byte	0x1
 7511 10b5 00       		.byte	0
 7512 10b6 10       		.uleb128 0x10
 7513 10b7 3A010000 		.4byte	.LVL257
 7514 10bb C8190000 		.4byte	0x19c8
 7515 10bf D8100000 		.4byte	0x10d8
 7516 10c3 11       		.uleb128 0x11
 7517 10c4 01       		.uleb128 0x1
 7518 10c5 51       		.byte	0x51
 7519 10c6 02       		.uleb128 0x2
 7520 10c7 75       		.byte	0x75
 7521 10c8 00       		.sleb128 0
 7522 10c9 11       		.uleb128 0x11
 7523 10ca 01       		.uleb128 0x1
 7524 10cb 52       		.byte	0x52
 7525 10cc 02       		.uleb128 0x2
 7526 10cd 74       		.byte	0x74
 7527 10ce 00       		.sleb128 0
 7528 10cf 11       		.uleb128 0x11
 7529 10d0 01       		.uleb128 0x1
 7530 10d1 53       		.byte	0x53
 7531 10d2 04       		.uleb128 0x4
 7532 10d3 7D       		.byte	0x7d
 7533 10d4 04       		.sleb128 4
 7534 10d5 94       		.byte	0x94
 7535 10d6 01       		.byte	0x1
 7536 10d7 00       		.byte	0
 7537 10d8 12       		.uleb128 0x12
 7538 10d9 9E010000 		.4byte	.LVL277
 7539 10dd C8190000 		.4byte	0x19c8
 7540 10e1 11       		.uleb128 0x11
 7541 10e2 01       		.uleb128 0x1
 7542 10e3 51       		.byte	0x51
 7543 10e4 02       		.uleb128 0x2
 7544 10e5 75       		.byte	0x75
ARM GAS  C:\Users\PC\AppData\Local\Temp\ccKVdNiW.s 			page 154


 7545 10e6 00       		.sleb128 0
 7546 10e7 11       		.uleb128 0x11
 7547 10e8 01       		.uleb128 0x1
 7548 10e9 52       		.byte	0x52
 7549 10ea 02       		.uleb128 0x2
 7550 10eb 74       		.byte	0x74
 7551 10ec 00       		.sleb128 0
 7552 10ed 11       		.uleb128 0x11
 7553 10ee 01       		.uleb128 0x1
 7554 10ef 53       		.byte	0x53
 7555 10f0 04       		.uleb128 0x4
 7556 10f1 7D       		.byte	0x7d
 7557 10f2 04       		.sleb128 4
 7558 10f3 94       		.byte	0x94
 7559 10f4 01       		.byte	0x1
 7560 10f5 00       		.byte	0
 7561 10f6 00       		.byte	0
 7562 10f7 06       		.uleb128 0x6
 7563 10f8 13010000 		.4byte	.LASF51
 7564 10fc 01       		.byte	0x1
 7565 10fd EA02     		.2byte	0x2ea
 7566 10ff 00000000 		.4byte	.LFB44
 7567 1103 AC010000 		.4byte	.LFE44-.LFB44
 7568 1107 01       		.uleb128 0x1
 7569 1108 9C       		.byte	0x9c
 7570 1109 B4110000 		.4byte	0x11b4
 7571 110d 07       		.uleb128 0x7
 7572 110e 6300     		.ascii	"c\000"
 7573 1110 01       		.byte	0x1
 7574 1111 EA02     		.2byte	0x2ea
 7575 1113 97000000 		.4byte	0x97
 7576 1117 AA0F0000 		.4byte	.LLST93
 7577 111b 16       		.uleb128 0x16
 7578 111c 00000000 		.4byte	.Ldebug_ranges0+0
 7579 1120 89110000 		.4byte	0x1189
 7580 1124 0C       		.uleb128 0xc
 7581 1125 6900     		.ascii	"i\000"
 7582 1127 01       		.byte	0x1
 7583 1128 F702     		.2byte	0x2f7
 7584 112a 97000000 		.4byte	0x97
 7585 112e E40F0000 		.4byte	.LLST94
 7586 1132 17       		.uleb128 0x17
 7587 1133 3E000000 		.4byte	.LBB15
 7588 1137 A8000000 		.4byte	.LBE15-.LBB15
 7589 113b 09       		.uleb128 0x9
 7590 113c 9A040000 		.4byte	.LASF52
 7591 1140 01       		.byte	0x1
 7592 1141 F802     		.2byte	0x2f8
 7593 1143 97000000 		.4byte	0x97
 7594 1147 0D100000 		.4byte	.LLST95
 7595 114b 17       		.uleb128 0x17
 7596 114c 48000000 		.4byte	.LBB16
 7597 1150 9E000000 		.4byte	.LBE16-.LBB16
 7598 1154 0C       		.uleb128 0xc
 7599 1155 6A00     		.ascii	"j\000"
 7600 1157 01       		.byte	0x1
 7601 1158 F902     		.2byte	0x2f9
ARM GAS  C:\Users\PC\AppData\Local\Temp\ccKVdNiW.s 			page 155


 7602 115a 97000000 		.4byte	0x97
 7603 115e 20100000 		.4byte	.LLST96
 7604 1162 18       		.uleb128 0x18
 7605 1163 6C000000 		.4byte	.LVL286
 7606 1167 B2190000 		.4byte	0x19b2
 7607 116b 18       		.uleb128 0x18
 7608 116c 90000000 		.4byte	.LVL287
 7609 1170 DF190000 		.4byte	0x19df
 7610 1174 18       		.uleb128 0x18
 7611 1175 B6000000 		.4byte	.LVL288
 7612 1179 B2190000 		.4byte	0x19b2
 7613 117d 18       		.uleb128 0x18
 7614 117e DC000000 		.4byte	.LVL289
 7615 1182 DF190000 		.4byte	0x19df
 7616 1186 00       		.byte	0
 7617 1187 00       		.byte	0
 7618 1188 00       		.byte	0
 7619 1189 10       		.uleb128 0x10
 7620 118a 16010000 		.4byte	.LVL297
 7621 118e BD190000 		.4byte	0x19bd
 7622 1192 A2110000 		.4byte	0x11a2
 7623 1196 11       		.uleb128 0x11
 7624 1197 01       		.uleb128 0x1
 7625 1198 52       		.byte	0x52
 7626 1199 01       		.uleb128 0x1
 7627 119a 38       		.byte	0x38
 7628 119b 11       		.uleb128 0x11
 7629 119c 01       		.uleb128 0x1
 7630 119d 53       		.byte	0x53
 7631 119e 02       		.uleb128 0x2
 7632 119f 74       		.byte	0x74
 7633 11a0 00       		.sleb128 0
 7634 11a1 00       		.byte	0
 7635 11a2 12       		.uleb128 0x12
 7636 11a3 32010000 		.4byte	.LVL298
 7637 11a7 DF190000 		.4byte	0x19df
 7638 11ab 11       		.uleb128 0x11
 7639 11ac 02       		.uleb128 0x2
 7640 11ad 7D       		.byte	0x7d
 7641 11ae 00       		.sleb128 0
 7642 11af 02       		.uleb128 0x2
 7643 11b0 74       		.byte	0x74
 7644 11b1 00       		.sleb128 0
 7645 11b2 00       		.byte	0
 7646 11b3 00       		.byte	0
 7647 11b4 06       		.uleb128 0x6
 7648 11b5 57030000 		.4byte	.LASF53
 7649 11b9 01       		.byte	0x1
 7650 11ba 1D03     		.2byte	0x31d
 7651 11bc 00000000 		.4byte	.LFB45
 7652 11c0 14000000 		.4byte	.LFE45-.LFB45
 7653 11c4 01       		.uleb128 0x1
 7654 11c5 9C       		.byte	0x9c
 7655 11c6 E4110000 		.4byte	0x11e4
 7656 11ca 07       		.uleb128 0x7
 7657 11cb 73747200 		.ascii	"str\000"
 7658 11cf 01       		.byte	0x1
ARM GAS  C:\Users\PC\AppData\Local\Temp\ccKVdNiW.s 			page 156


 7659 11d0 1D03     		.2byte	0x31d
 7660 11d2 E6000000 		.4byte	0xe6
 7661 11d6 4A100000 		.4byte	.LLST97
 7662 11da 18       		.uleb128 0x18
 7663 11db 0A000000 		.4byte	.LVL302
 7664 11df F7100000 		.4byte	0x10f7
 7665 11e3 00       		.byte	0
 7666 11e4 06       		.uleb128 0x6
 7667 11e5 44030000 		.4byte	.LASF54
 7668 11e9 01       		.byte	0x1
 7669 11ea 2503     		.2byte	0x325
 7670 11ec 00000000 		.4byte	.LFB46
 7671 11f0 70010000 		.4byte	.LFE46-.LFB46
 7672 11f4 01       		.uleb128 0x1
 7673 11f5 9C       		.byte	0x9c
 7674 11f6 A5120000 		.4byte	0x12a5
 7675 11fa 07       		.uleb128 0x7
 7676 11fb 6300     		.ascii	"c\000"
 7677 11fd 01       		.byte	0x1
 7678 11fe 2503     		.2byte	0x325
 7679 1200 A5120000 		.4byte	0x12a5
 7680 1204 68100000 		.4byte	.LLST98
 7681 1208 0E       		.uleb128 0xe
 7682 1209 0A000000 		.4byte	.LBB18
 7683 120d AA000000 		.4byte	.LBE18-.LBB18
 7684 1211 7A120000 		.4byte	0x127a
 7685 1215 0C       		.uleb128 0xc
 7686 1216 6900     		.ascii	"i\000"
 7687 1218 01       		.byte	0x1
 7688 1219 2703     		.2byte	0x327
 7689 121b 97000000 		.4byte	0x97
 7690 121f 94100000 		.4byte	.LLST99
 7691 1223 17       		.uleb128 0x17
 7692 1224 0E000000 		.4byte	.LBB19
 7693 1228 9E000000 		.4byte	.LBE19-.LBB19
 7694 122c 09       		.uleb128 0x9
 7695 122d 9A040000 		.4byte	.LASF52
 7696 1231 01       		.byte	0x1
 7697 1232 2803     		.2byte	0x328
 7698 1234 97000000 		.4byte	0x97
 7699 1238 BE100000 		.4byte	.LLST100
 7700 123c 17       		.uleb128 0x17
 7701 123d 12000000 		.4byte	.LBB20
 7702 1241 9A000000 		.4byte	.LBE20-.LBB20
 7703 1245 0C       		.uleb128 0xc
 7704 1246 6A00     		.ascii	"j\000"
 7705 1248 01       		.byte	0x1
 7706 1249 2903     		.2byte	0x329
 7707 124b 97000000 		.4byte	0x97
 7708 124f D1100000 		.4byte	.LLST101
 7709 1253 18       		.uleb128 0x18
 7710 1254 36000000 		.4byte	.LVL310
 7711 1258 B2190000 		.4byte	0x19b2
 7712 125c 18       		.uleb128 0x18
 7713 125d 5A000000 		.4byte	.LVL311
 7714 1261 DF190000 		.4byte	0x19df
 7715 1265 18       		.uleb128 0x18
ARM GAS  C:\Users\PC\AppData\Local\Temp\ccKVdNiW.s 			page 157


 7716 1266 80000000 		.4byte	.LVL312
 7717 126a B2190000 		.4byte	0x19b2
 7718 126e 18       		.uleb128 0x18
 7719 126f A2000000 		.4byte	.LVL313
 7720 1273 DF190000 		.4byte	0x19df
 7721 1277 00       		.byte	0
 7722 1278 00       		.byte	0
 7723 1279 00       		.byte	0
 7724 127a 10       		.uleb128 0x10
 7725 127b D8000000 		.4byte	.LVL319
 7726 127f BD190000 		.4byte	0x19bd
 7727 1283 93120000 		.4byte	0x1293
 7728 1287 11       		.uleb128 0x11
 7729 1288 01       		.uleb128 0x1
 7730 1289 52       		.byte	0x52
 7731 128a 01       		.uleb128 0x1
 7732 128b 38       		.byte	0x38
 7733 128c 11       		.uleb128 0x11
 7734 128d 01       		.uleb128 0x1
 7735 128e 53       		.byte	0x53
 7736 128f 02       		.uleb128 0x2
 7737 1290 74       		.byte	0x74
 7738 1291 00       		.sleb128 0
 7739 1292 00       		.byte	0
 7740 1293 12       		.uleb128 0x12
 7741 1294 F4000000 		.4byte	.LVL320
 7742 1298 DF190000 		.4byte	0x19df
 7743 129c 11       		.uleb128 0x11
 7744 129d 02       		.uleb128 0x2
 7745 129e 7D       		.byte	0x7d
 7746 129f 00       		.sleb128 0
 7747 12a0 02       		.uleb128 0x2
 7748 12a1 74       		.byte	0x74
 7749 12a2 00       		.sleb128 0
 7750 12a3 00       		.byte	0
 7751 12a4 00       		.byte	0
 7752 12a5 05       		.uleb128 0x5
 7753 12a6 04       		.byte	0x4
 7754 12a7 AB120000 		.4byte	0x12ab
 7755 12ab 19       		.uleb128 0x19
 7756 12ac 97000000 		.4byte	0x97
 7757 12b0 06       		.uleb128 0x6
 7758 12b1 D0040000 		.4byte	.LASF55
 7759 12b5 01       		.byte	0x1
 7760 12b6 7303     		.2byte	0x373
 7761 12b8 00000000 		.4byte	.LFB48
 7762 12bc 0C000000 		.4byte	.LFE48-.LFB48
 7763 12c0 01       		.uleb128 0x1
 7764 12c1 9C       		.byte	0x9c
 7765 12c2 DF120000 		.4byte	0x12df
 7766 12c6 1A       		.uleb128 0x1a
 7767 12c7 7800     		.ascii	"x\000"
 7768 12c9 01       		.byte	0x1
 7769 12ca 7303     		.2byte	0x373
 7770 12cc AD000000 		.4byte	0xad
 7771 12d0 01       		.uleb128 0x1
 7772 12d1 50       		.byte	0x50
ARM GAS  C:\Users\PC\AppData\Local\Temp\ccKVdNiW.s 			page 158


 7773 12d2 1A       		.uleb128 0x1a
 7774 12d3 7900     		.ascii	"y\000"
 7775 12d5 01       		.byte	0x1
 7776 12d6 7303     		.2byte	0x373
 7777 12d8 AD000000 		.4byte	0xad
 7778 12dc 01       		.uleb128 0x1
 7779 12dd 51       		.byte	0x51
 7780 12de 00       		.byte	0
 7781 12df 1B       		.uleb128 0x1b
 7782 12e0 60020000 		.4byte	.LASF56
 7783 12e4 01       		.byte	0x1
 7784 12e5 7E03     		.2byte	0x37e
 7785 12e7 AD000000 		.4byte	0xad
 7786 12eb 00000000 		.4byte	.LFB49
 7787 12ef 0C000000 		.4byte	.LFE49-.LFB49
 7788 12f3 01       		.uleb128 0x1
 7789 12f4 9C       		.byte	0x9c
 7790 12f5 1B       		.uleb128 0x1b
 7791 12f6 73020000 		.4byte	.LASF57
 7792 12fa 01       		.byte	0x1
 7793 12fb 8803     		.2byte	0x388
 7794 12fd AD000000 		.4byte	0xad
 7795 1301 00000000 		.4byte	.LFB50
 7796 1305 0C000000 		.4byte	.LFE50-.LFB50
 7797 1309 01       		.uleb128 0x1
 7798 130a 9C       		.byte	0x9c
 7799 130b 06       		.uleb128 0x6
 7800 130c 03040000 		.4byte	.LASF58
 7801 1310 01       		.byte	0x1
 7802 1311 9203     		.2byte	0x392
 7803 1313 00000000 		.4byte	.LFB51
 7804 1317 10000000 		.4byte	.LFE51-.LFB51
 7805 131b 01       		.uleb128 0x1
 7806 131c 9C       		.byte	0x9c
 7807 131d 30130000 		.4byte	0x1330
 7808 1321 07       		.uleb128 0x7
 7809 1322 7300     		.ascii	"s\000"
 7810 1324 01       		.byte	0x1
 7811 1325 9203     		.2byte	0x392
 7812 1327 97000000 		.4byte	0x97
 7813 132b FB100000 		.4byte	.LLST102
 7814 132f 00       		.byte	0
 7815 1330 06       		.uleb128 0x6
 7816 1331 17040000 		.4byte	.LASF59
 7817 1335 01       		.byte	0x1
 7818 1336 9D03     		.2byte	0x39d
 7819 1338 00000000 		.4byte	.LFB52
 7820 133c 0C000000 		.4byte	.LFE52-.LFB52
 7821 1340 01       		.uleb128 0x1
 7822 1341 9C       		.byte	0x9c
 7823 1342 5F130000 		.4byte	0x135f
 7824 1346 1A       		.uleb128 0x1a
 7825 1347 6300     		.ascii	"c\000"
 7826 1349 01       		.byte	0x1
 7827 134a 9D03     		.2byte	0x39d
 7828 134c AD000000 		.4byte	0xad
 7829 1350 01       		.uleb128 0x1
ARM GAS  C:\Users\PC\AppData\Local\Temp\ccKVdNiW.s 			page 159


 7830 1351 50       		.byte	0x50
 7831 1352 1A       		.uleb128 0x1a
 7832 1353 6200     		.ascii	"b\000"
 7833 1355 01       		.byte	0x1
 7834 1356 9D03     		.2byte	0x39d
 7835 1358 AD000000 		.4byte	0xad
 7836 135c 01       		.uleb128 0x1
 7837 135d 51       		.byte	0x51
 7838 135e 00       		.byte	0
 7839 135f 06       		.uleb128 0x6
 7840 1360 E4020000 		.4byte	.LASF60
 7841 1364 01       		.byte	0x1
 7842 1365 5803     		.2byte	0x358
 7843 1367 00000000 		.4byte	.LFB47
 7844 136b 74000000 		.4byte	.LFE47-.LFB47
 7845 136f 01       		.uleb128 0x1
 7846 1370 9C       		.byte	0x9c
 7847 1371 6C140000 		.4byte	0x146c
 7848 1375 07       		.uleb128 0x7
 7849 1376 7800     		.ascii	"x\000"
 7850 1378 01       		.byte	0x1
 7851 1379 5803     		.2byte	0x358
 7852 137b AD000000 		.4byte	0xad
 7853 137f 1C110000 		.4byte	.LLST103
 7854 1383 07       		.uleb128 0x7
 7855 1384 7900     		.ascii	"y\000"
 7856 1386 01       		.byte	0x1
 7857 1387 5803     		.2byte	0x358
 7858 1389 AD000000 		.4byte	0xad
 7859 138d 3D110000 		.4byte	.LLST104
 7860 1391 07       		.uleb128 0x7
 7861 1392 6300     		.ascii	"c\000"
 7862 1394 01       		.byte	0x1
 7863 1395 5803     		.2byte	0x358
 7864 1397 97000000 		.4byte	0x97
 7865 139b 5E110000 		.4byte	.LLST105
 7866 139f 08       		.uleb128 0x8
 7867 13a0 FD030000 		.4byte	.LASF22
 7868 13a4 01       		.byte	0x1
 7869 13a5 5803     		.2byte	0x358
 7870 13a7 AD000000 		.4byte	0xad
 7871 13ab 7F110000 		.4byte	.LLST106
 7872 13af 07       		.uleb128 0x7
 7873 13b0 626700   		.ascii	"bg\000"
 7874 13b3 01       		.byte	0x1
 7875 13b4 5803     		.2byte	0x358
 7876 13b6 AD000000 		.4byte	0xad
 7877 13ba A0110000 		.4byte	.LLST107
 7878 13be 08       		.uleb128 0x8
 7879 13bf 3F030000 		.4byte	.LASF61
 7880 13c3 01       		.byte	0x1
 7881 13c4 5903     		.2byte	0x359
 7882 13c6 97000000 		.4byte	0x97
 7883 13ca CC110000 		.4byte	.LLST108
 7884 13ce 09       		.uleb128 0x9
 7885 13cf 00000000 		.4byte	.LASF62
 7886 13d3 01       		.byte	0x1
ARM GAS  C:\Users\PC\AppData\Local\Temp\ccKVdNiW.s 			page 160


 7887 13d4 5A03     		.2byte	0x35a
 7888 13d6 AD000000 		.4byte	0xad
 7889 13da 04120000 		.4byte	.LLST109
 7890 13de 09       		.uleb128 0x9
 7891 13df 93040000 		.4byte	.LASF63
 7892 13e3 01       		.byte	0x1
 7893 13e4 5B03     		.2byte	0x35b
 7894 13e6 AD000000 		.4byte	0xad
 7895 13ea 26120000 		.4byte	.LLST110
 7896 13ee 09       		.uleb128 0x9
 7897 13ef DC010000 		.4byte	.LASF64
 7898 13f3 01       		.byte	0x1
 7899 13f4 5C03     		.2byte	0x35c
 7900 13f6 AD000000 		.4byte	0xad
 7901 13fa 48120000 		.4byte	.LLST111
 7902 13fe 09       		.uleb128 0x9
 7903 13ff 92030000 		.4byte	.LASF65
 7904 1403 01       		.byte	0x1
 7905 1404 5D03     		.2byte	0x35d
 7906 1406 AD000000 		.4byte	0xad
 7907 140a 66120000 		.4byte	.LLST112
 7908 140e 09       		.uleb128 0x9
 7909 140f 41020000 		.4byte	.LASF66
 7910 1413 01       		.byte	0x1
 7911 1414 5E03     		.2byte	0x35e
 7912 1416 97000000 		.4byte	0x97
 7913 141a 88120000 		.4byte	.LLST113
 7914 141e 18       		.uleb128 0x18
 7915 141f 3A000000 		.4byte	.LVL335
 7916 1423 B0120000 		.4byte	0x12b0
 7917 1427 10       		.uleb128 0x10
 7918 1428 40000000 		.4byte	.LVL336
 7919 142c 0B130000 		.4byte	0x130b
 7920 1430 3B140000 		.4byte	0x143b
 7921 1434 11       		.uleb128 0x11
 7922 1435 01       		.uleb128 0x1
 7923 1436 50       		.byte	0x50
 7924 1437 02       		.uleb128 0x2
 7925 1438 7B       		.byte	0x7b
 7926 1439 00       		.sleb128 0
 7927 143a 00       		.byte	0
 7928 143b 10       		.uleb128 0x10
 7929 143c 48000000 		.4byte	.LVL337
 7930 1440 30130000 		.4byte	0x1330
 7931 1444 59140000 		.4byte	0x1459
 7932 1448 11       		.uleb128 0x11
 7933 1449 01       		.uleb128 0x1
 7934 144a 50       		.byte	0x50
 7935 144b 04       		.uleb128 0x4
 7936 144c 91       		.byte	0x91
 7937 144d 50       		.sleb128 -48
 7938 144e 94       		.byte	0x94
 7939 144f 02       		.byte	0x2
 7940 1450 11       		.uleb128 0x11
 7941 1451 01       		.uleb128 0x1
 7942 1452 51       		.byte	0x51
 7943 1453 04       		.uleb128 0x4
ARM GAS  C:\Users\PC\AppData\Local\Temp\ccKVdNiW.s 			page 161


 7944 1454 91       		.byte	0x91
 7945 1455 54       		.sleb128 -44
 7946 1456 94       		.byte	0x94
 7947 1457 02       		.byte	0x2
 7948 1458 00       		.byte	0
 7949 1459 12       		.uleb128 0x12
 7950 145a 4E000000 		.4byte	.LVL338
 7951 145e F7100000 		.4byte	0x10f7
 7952 1462 11       		.uleb128 0x11
 7953 1463 01       		.uleb128 0x1
 7954 1464 50       		.byte	0x50
 7955 1465 04       		.uleb128 0x4
 7956 1466 91       		.byte	0x91
 7957 1467 4C       		.sleb128 -52
 7958 1468 94       		.byte	0x94
 7959 1469 01       		.byte	0x1
 7960 146a 00       		.byte	0
 7961 146b 00       		.byte	0
 7962 146c 06       		.uleb128 0x6
 7963 146d BB040000 		.4byte	.LASF67
 7964 1471 01       		.byte	0x1
 7965 1472 A803     		.2byte	0x3a8
 7966 1474 00000000 		.4byte	.LFB53
 7967 1478 0C000000 		.4byte	.LFE53-.LFB53
 7968 147c 01       		.uleb128 0x1
 7969 147d 9C       		.byte	0x9c
 7970 147e 8F140000 		.4byte	0x148f
 7971 1482 1A       		.uleb128 0x1a
 7972 1483 6300     		.ascii	"c\000"
 7973 1485 01       		.byte	0x1
 7974 1486 A803     		.2byte	0x3a8
 7975 1488 AD000000 		.4byte	0xad
 7976 148c 01       		.uleb128 0x1
 7977 148d 50       		.byte	0x50
 7978 148e 00       		.byte	0
 7979 148f 06       		.uleb128 0x6
 7980 1490 4B050000 		.4byte	.LASF68
 7981 1494 01       		.byte	0x1
 7982 1495 B203     		.2byte	0x3b2
 7983 1497 00000000 		.4byte	.LFB54
 7984 149b 0C000000 		.4byte	.LFE54-.LFB54
 7985 149f 01       		.uleb128 0x1
 7986 14a0 9C       		.byte	0x9c
 7987 14a1 B2140000 		.4byte	0x14b2
 7988 14a5 1A       		.uleb128 0x1a
 7989 14a6 7700     		.ascii	"w\000"
 7990 14a8 01       		.byte	0x1
 7991 14a9 B203     		.2byte	0x3b2
 7992 14ab 4D020000 		.4byte	0x24d
 7993 14af 01       		.uleb128 0x1
 7994 14b0 50       		.byte	0x50
 7995 14b1 00       		.byte	0
 7996 14b2 1B       		.uleb128 0x1b
 7997 14b3 5F000000 		.4byte	.LASF69
 7998 14b7 01       		.byte	0x1
 7999 14b8 BC03     		.2byte	0x3bc
 8000 14ba 97000000 		.4byte	0x97
ARM GAS  C:\Users\PC\AppData\Local\Temp\ccKVdNiW.s 			page 162


 8001 14be 00000000 		.4byte	.LFB55
 8002 14c2 0C000000 		.4byte	.LFE55-.LFB55
 8003 14c6 01       		.uleb128 0x1
 8004 14c7 9C       		.byte	0x9c
 8005 14c8 1B       		.uleb128 0x1b
 8006 14c9 2E030000 		.4byte	.LASF70
 8007 14cd 01       		.byte	0x1
 8008 14ce C603     		.2byte	0x3c6
 8009 14d0 AD000000 		.4byte	0xad
 8010 14d4 00000000 		.4byte	.LFB56
 8011 14d8 0C000000 		.4byte	.LFE56-.LFB56
 8012 14dc 01       		.uleb128 0x1
 8013 14dd 9C       		.byte	0x9c
 8014 14de 1B       		.uleb128 0x1b
 8015 14df D8030000 		.4byte	.LASF71
 8016 14e3 01       		.byte	0x1
 8017 14e4 D003     		.2byte	0x3d0
 8018 14e6 AD000000 		.4byte	0xad
 8019 14ea 00000000 		.4byte	.LFB57
 8020 14ee 0C000000 		.4byte	.LFE57-.LFB57
 8021 14f2 01       		.uleb128 0x1
 8022 14f3 9C       		.byte	0x9c
 8023 14f4 1C       		.uleb128 0x1c
 8024 14f5 9F040000 		.4byte	.LASF99
 8025 14f9 01       		.byte	0x1
 8026 14fa E003     		.2byte	0x3e0
 8027 14fc AD000000 		.4byte	0xad
 8028 1500 00000000 		.4byte	.LFB58
 8029 1504 14000000 		.4byte	.LFE58-.LFB58
 8030 1508 01       		.uleb128 0x1
 8031 1509 9C       		.byte	0x9c
 8032 150a 3D150000 		.4byte	0x153d
 8033 150e 07       		.uleb128 0x7
 8034 150f 72656400 		.ascii	"red\000"
 8035 1513 01       		.byte	0x1
 8036 1514 E003     		.2byte	0x3e0
 8037 1516 97000000 		.4byte	0x97
 8038 151a AA120000 		.4byte	.LLST114
 8039 151e 08       		.uleb128 0x8
 8040 151f 66030000 		.4byte	.LASF72
 8041 1523 01       		.byte	0x1
 8042 1524 E003     		.2byte	0x3e0
 8043 1526 97000000 		.4byte	0x97
 8044 152a CB120000 		.4byte	.LLST115
 8045 152e 1D       		.uleb128 0x1d
 8046 152f 3D000000 		.4byte	.LASF73
 8047 1533 01       		.byte	0x1
 8048 1534 E003     		.2byte	0x3e0
 8049 1536 97000000 		.4byte	0x97
 8050 153a 01       		.uleb128 0x1
 8051 153b 52       		.byte	0x52
 8052 153c 00       		.byte	0
 8053 153d 06       		.uleb128 0x6
 8054 153e E0000000 		.4byte	.LASF74
 8055 1542 01       		.byte	0x1
 8056 1543 F003     		.2byte	0x3f0
 8057 1545 00000000 		.4byte	.LFB59
ARM GAS  C:\Users\PC\AppData\Local\Temp\ccKVdNiW.s 			page 163


 8058 1549 76000000 		.4byte	.LFE59-.LFB59
 8059 154d 01       		.uleb128 0x1
 8060 154e 9C       		.byte	0x9c
 8061 154f 05160000 		.4byte	0x1605
 8062 1553 07       		.uleb128 0x7
 8063 1554 7800     		.ascii	"x\000"
 8064 1556 01       		.byte	0x1
 8065 1557 F003     		.2byte	0x3f0
 8066 1559 AD000000 		.4byte	0xad
 8067 155d EC120000 		.4byte	.LLST116
 8068 1561 07       		.uleb128 0x7
 8069 1562 7900     		.ascii	"y\000"
 8070 1564 01       		.byte	0x1
 8071 1565 F003     		.2byte	0x3f0
 8072 1567 AD000000 		.4byte	0xad
 8073 156b 0D130000 		.4byte	.LLST117
 8074 156f 08       		.uleb128 0x8
 8075 1570 8C040000 		.4byte	.LASF75
 8076 1574 01       		.byte	0x1
 8077 1575 F003     		.2byte	0x3f0
 8078 1577 A5120000 		.4byte	0x12a5
 8079 157b 2E130000 		.4byte	.LLST118
 8080 157f 07       		.uleb128 0x7
 8081 1580 7700     		.ascii	"w\000"
 8082 1582 01       		.byte	0x1
 8083 1583 F003     		.2byte	0x3f0
 8084 1585 AD000000 		.4byte	0xad
 8085 1589 5A130000 		.4byte	.LLST119
 8086 158d 07       		.uleb128 0x7
 8087 158e 6800     		.ascii	"h\000"
 8088 1590 01       		.byte	0x1
 8089 1591 F003     		.2byte	0x3f0
 8090 1593 AD000000 		.4byte	0xad
 8091 1597 7B130000 		.4byte	.LLST120
 8092 159b 08       		.uleb128 0x8
 8093 159c FD030000 		.4byte	.LASF22
 8094 15a0 01       		.byte	0x1
 8095 15a1 F103     		.2byte	0x3f1
 8096 15a3 AD000000 		.4byte	0xad
 8097 15a7 A7130000 		.4byte	.LLST121
 8098 15ab 17       		.uleb128 0x17
 8099 15ac 20000000 		.4byte	.LBB21
 8100 15b0 4A000000 		.4byte	.LBE21-.LBB21
 8101 15b4 0C       		.uleb128 0xc
 8102 15b5 6900     		.ascii	"i\000"
 8103 15b7 01       		.byte	0x1
 8104 15b8 F203     		.2byte	0x3f2
 8105 15ba AD000000 		.4byte	0xad
 8106 15be EB130000 		.4byte	.LLST122
 8107 15c2 1E       		.uleb128 0x1e
 8108 15c3 18000000 		.4byte	.Ldebug_ranges0+0x18
 8109 15c7 0C       		.uleb128 0xc
 8110 15c8 6A00     		.ascii	"j\000"
 8111 15ca 01       		.byte	0x1
 8112 15cb F403     		.2byte	0x3f4
 8113 15cd AD000000 		.4byte	0xad
 8114 15d1 15140000 		.4byte	.LLST123
ARM GAS  C:\Users\PC\AppData\Local\Temp\ccKVdNiW.s 			page 164


 8115 15d5 12       		.uleb128 0x12
 8116 15d6 50000000 		.4byte	.LVL356
 8117 15da B2190000 		.4byte	0x19b2
 8118 15de 11       		.uleb128 0x11
 8119 15df 01       		.uleb128 0x1
 8120 15e0 50       		.byte	0x50
 8121 15e1 07       		.uleb128 0x7
 8122 15e2 74       		.byte	0x74
 8123 15e3 00       		.sleb128 0
 8124 15e4 33       		.byte	0x33
 8125 15e5 25       		.byte	0x25
 8126 15e6 7A       		.byte	0x7a
 8127 15e7 00       		.sleb128 0
 8128 15e8 22       		.byte	0x22
 8129 15e9 11       		.uleb128 0x11
 8130 15ea 01       		.uleb128 0x1
 8131 15eb 51       		.byte	0x51
 8132 15ec 0C       		.uleb128 0xc
 8133 15ed 74       		.byte	0x74
 8134 15ee 00       		.sleb128 0
 8135 15ef 37       		.byte	0x37
 8136 15f0 1A       		.byte	0x1a
 8137 15f1 76       		.byte	0x76
 8138 15f2 00       		.sleb128 0
 8139 15f3 33       		.byte	0x33
 8140 15f4 24       		.byte	0x24
 8141 15f5 22       		.byte	0x22
 8142 15f6 79       		.byte	0x79
 8143 15f7 00       		.sleb128 0
 8144 15f8 22       		.byte	0x22
 8145 15f9 11       		.uleb128 0x11
 8146 15fa 01       		.uleb128 0x1
 8147 15fb 52       		.byte	0x52
 8148 15fc 04       		.uleb128 0x4
 8149 15fd 7D       		.byte	0x7d
 8150 15fe 04       		.sleb128 4
 8151 15ff 94       		.byte	0x94
 8152 1600 01       		.byte	0x1
 8153 1601 00       		.byte	0
 8154 1602 00       		.byte	0
 8155 1603 00       		.byte	0
 8156 1604 00       		.byte	0
 8157 1605 06       		.uleb128 0x6
 8158 1606 FD020000 		.4byte	.LASF76
 8159 160a 01       		.byte	0x1
 8160 160b 0904     		.2byte	0x409
 8161 160d 00000000 		.4byte	.LFB60
 8162 1611 96000000 		.4byte	.LFE60-.LFB60
 8163 1615 01       		.uleb128 0x1
 8164 1616 9C       		.byte	0x9c
 8165 1617 0D170000 		.4byte	0x170d
 8166 161b 07       		.uleb128 0x7
 8167 161c 7800     		.ascii	"x\000"
 8168 161e 01       		.byte	0x1
 8169 161f 0904     		.2byte	0x409
 8170 1621 AD000000 		.4byte	0xad
 8171 1625 3E140000 		.4byte	.LLST124
ARM GAS  C:\Users\PC\AppData\Local\Temp\ccKVdNiW.s 			page 165


 8172 1629 07       		.uleb128 0x7
 8173 162a 7900     		.ascii	"y\000"
 8174 162c 01       		.byte	0x1
 8175 162d 0904     		.2byte	0x409
 8176 162f AD000000 		.4byte	0xad
 8177 1633 5F140000 		.4byte	.LLST125
 8178 1637 08       		.uleb128 0x8
 8179 1638 8C040000 		.4byte	.LASF75
 8180 163c 01       		.byte	0x1
 8181 163d 0904     		.2byte	0x409
 8182 163f A5120000 		.4byte	0x12a5
 8183 1643 80140000 		.4byte	.LLST126
 8184 1647 07       		.uleb128 0x7
 8185 1648 7700     		.ascii	"w\000"
 8186 164a 01       		.byte	0x1
 8187 164b 0904     		.2byte	0x409
 8188 164d AD000000 		.4byte	0xad
 8189 1651 AC140000 		.4byte	.LLST127
 8190 1655 07       		.uleb128 0x7
 8191 1656 6800     		.ascii	"h\000"
 8192 1658 01       		.byte	0x1
 8193 1659 0904     		.2byte	0x409
 8194 165b AD000000 		.4byte	0xad
 8195 165f CD140000 		.4byte	.LLST128
 8196 1663 08       		.uleb128 0x8
 8197 1664 FD030000 		.4byte	.LASF22
 8198 1668 01       		.byte	0x1
 8199 1669 0A04     		.2byte	0x40a
 8200 166b AD000000 		.4byte	0xad
 8201 166f F9140000 		.4byte	.LLST129
 8202 1673 07       		.uleb128 0x7
 8203 1674 626700   		.ascii	"bg\000"
 8204 1677 01       		.byte	0x1
 8205 1678 0A04     		.2byte	0x40a
 8206 167a AD000000 		.4byte	0xad
 8207 167e 3D150000 		.4byte	.LLST130
 8208 1682 17       		.uleb128 0x17
 8209 1683 26000000 		.4byte	.LBB24
 8210 1687 64000000 		.4byte	.LBE24-.LBB24
 8211 168b 0C       		.uleb128 0xc
 8212 168c 6900     		.ascii	"i\000"
 8213 168e 01       		.byte	0x1
 8214 168f 0B04     		.2byte	0x40b
 8215 1691 AD000000 		.4byte	0xad
 8216 1695 81150000 		.4byte	.LLST131
 8217 1699 1E       		.uleb128 0x1e
 8218 169a 30000000 		.4byte	.Ldebug_ranges0+0x30
 8219 169e 0C       		.uleb128 0xc
 8220 169f 6A00     		.ascii	"j\000"
 8221 16a1 01       		.byte	0x1
 8222 16a2 0D04     		.2byte	0x40d
 8223 16a4 AD000000 		.4byte	0xad
 8224 16a8 AB150000 		.4byte	.LLST132
 8225 16ac 10       		.uleb128 0x10
 8226 16ad 56000000 		.4byte	.LVL374
 8227 16b1 B2190000 		.4byte	0x19b2
 8228 16b5 DD160000 		.4byte	0x16dd
ARM GAS  C:\Users\PC\AppData\Local\Temp\ccKVdNiW.s 			page 166


 8229 16b9 11       		.uleb128 0x11
 8230 16ba 01       		.uleb128 0x1
 8231 16bb 50       		.byte	0x50
 8232 16bc 07       		.uleb128 0x7
 8233 16bd 74       		.byte	0x74
 8234 16be 00       		.sleb128 0
 8235 16bf 33       		.byte	0x33
 8236 16c0 25       		.byte	0x25
 8237 16c1 7A       		.byte	0x7a
 8238 16c2 00       		.sleb128 0
 8239 16c3 22       		.byte	0x22
 8240 16c4 11       		.uleb128 0x11
 8241 16c5 01       		.uleb128 0x1
 8242 16c6 51       		.byte	0x51
 8243 16c7 0C       		.uleb128 0xc
 8244 16c8 74       		.byte	0x74
 8245 16c9 00       		.sleb128 0
 8246 16ca 37       		.byte	0x37
 8247 16cb 1A       		.byte	0x1a
 8248 16cc 75       		.byte	0x75
 8249 16cd 00       		.sleb128 0
 8250 16ce 33       		.byte	0x33
 8251 16cf 24       		.byte	0x24
 8252 16d0 22       		.byte	0x22
 8253 16d1 79       		.byte	0x79
 8254 16d2 00       		.sleb128 0
 8255 16d3 22       		.byte	0x22
 8256 16d4 11       		.uleb128 0x11
 8257 16d5 01       		.uleb128 0x1
 8258 16d6 52       		.byte	0x52
 8259 16d7 04       		.uleb128 0x4
 8260 16d8 7D       		.byte	0x7d
 8261 16d9 00       		.sleb128 0
 8262 16da 94       		.byte	0x94
 8263 16db 01       		.byte	0x1
 8264 16dc 00       		.byte	0
 8265 16dd 12       		.uleb128 0x12
 8266 16de 70000000 		.4byte	.LVL375
 8267 16e2 B2190000 		.4byte	0x19b2
 8268 16e6 11       		.uleb128 0x11
 8269 16e7 01       		.uleb128 0x1
 8270 16e8 50       		.byte	0x50
 8271 16e9 07       		.uleb128 0x7
 8272 16ea 74       		.byte	0x74
 8273 16eb 00       		.sleb128 0
 8274 16ec 33       		.byte	0x33
 8275 16ed 25       		.byte	0x25
 8276 16ee 7A       		.byte	0x7a
 8277 16ef 00       		.sleb128 0
 8278 16f0 22       		.byte	0x22
 8279 16f1 11       		.uleb128 0x11
 8280 16f2 01       		.uleb128 0x1
 8281 16f3 51       		.byte	0x51
 8282 16f4 0C       		.uleb128 0xc
 8283 16f5 74       		.byte	0x74
 8284 16f6 00       		.sleb128 0
 8285 16f7 37       		.byte	0x37
ARM GAS  C:\Users\PC\AppData\Local\Temp\ccKVdNiW.s 			page 167


 8286 16f8 1A       		.byte	0x1a
 8287 16f9 75       		.byte	0x75
 8288 16fa 00       		.sleb128 0
 8289 16fb 33       		.byte	0x33
 8290 16fc 24       		.byte	0x24
 8291 16fd 22       		.byte	0x22
 8292 16fe 79       		.byte	0x79
 8293 16ff 00       		.sleb128 0
 8294 1700 22       		.byte	0x22
 8295 1701 11       		.uleb128 0x11
 8296 1702 01       		.uleb128 0x1
 8297 1703 52       		.byte	0x52
 8298 1704 04       		.uleb128 0x4
 8299 1705 7D       		.byte	0x7d
 8300 1706 04       		.sleb128 4
 8301 1707 94       		.byte	0x94
 8302 1708 01       		.byte	0x1
 8303 1709 00       		.byte	0
 8304 170a 00       		.byte	0
 8305 170b 00       		.byte	0
 8306 170c 00       		.byte	0
 8307 170d 06       		.uleb128 0x6
 8308 170e F5000000 		.4byte	.LASF77
 8309 1712 01       		.byte	0x1
 8310 1713 2304     		.2byte	0x423
 8311 1715 00000000 		.4byte	.LFB61
 8312 1719 A4000000 		.4byte	.LFE61-.LFB61
 8313 171d 01       		.uleb128 0x1
 8314 171e 9C       		.byte	0x9c
 8315 171f DE170000 		.4byte	0x17de
 8316 1723 07       		.uleb128 0x7
 8317 1724 7800     		.ascii	"x\000"
 8318 1726 01       		.byte	0x1
 8319 1727 2304     		.2byte	0x423
 8320 1729 AD000000 		.4byte	0xad
 8321 172d D4150000 		.4byte	.LLST133
 8322 1731 07       		.uleb128 0x7
 8323 1732 7900     		.ascii	"y\000"
 8324 1734 01       		.byte	0x1
 8325 1735 2304     		.2byte	0x423
 8326 1737 AD000000 		.4byte	0xad
 8327 173b F5150000 		.4byte	.LLST134
 8328 173f 08       		.uleb128 0x8
 8329 1740 8C040000 		.4byte	.LASF75
 8330 1744 01       		.byte	0x1
 8331 1745 2304     		.2byte	0x423
 8332 1747 A5120000 		.4byte	0x12a5
 8333 174b 22160000 		.4byte	.LLST135
 8334 174f 07       		.uleb128 0x7
 8335 1750 7700     		.ascii	"w\000"
 8336 1752 01       		.byte	0x1
 8337 1753 2304     		.2byte	0x423
 8338 1755 AD000000 		.4byte	0xad
 8339 1759 4E160000 		.4byte	.LLST136
 8340 175d 07       		.uleb128 0x7
 8341 175e 6800     		.ascii	"h\000"
 8342 1760 01       		.byte	0x1
ARM GAS  C:\Users\PC\AppData\Local\Temp\ccKVdNiW.s 			page 168


 8343 1761 2304     		.2byte	0x423
 8344 1763 AD000000 		.4byte	0xad
 8345 1767 6F160000 		.4byte	.LLST137
 8346 176b 08       		.uleb128 0x8
 8347 176c FD030000 		.4byte	.LASF22
 8348 1770 01       		.byte	0x1
 8349 1771 2404     		.2byte	0x424
 8350 1773 AD000000 		.4byte	0xad
 8351 1777 9B160000 		.4byte	.LLST138
 8352 177b 09       		.uleb128 0x9
 8353 177c D0020000 		.4byte	.LASF78
 8354 1780 01       		.byte	0x1
 8355 1781 2604     		.2byte	0x426
 8356 1783 A2000000 		.4byte	0xa2
 8357 1787 DF160000 		.4byte	.LLST139
 8358 178b 09       		.uleb128 0x9
 8359 178c 2D000000 		.4byte	.LASF79
 8360 1790 01       		.byte	0x1
 8361 1791 2704     		.2byte	0x427
 8362 1793 97000000 		.4byte	0x97
 8363 1797 34170000 		.4byte	.LLST140
 8364 179b 1E       		.uleb128 0x1e
 8365 179c 48000000 		.4byte	.Ldebug_ranges0+0x48
 8366 17a0 0C       		.uleb128 0xc
 8367 17a1 6A00     		.ascii	"j\000"
 8368 17a3 01       		.byte	0x1
 8369 17a4 2904     		.2byte	0x429
 8370 17a6 A2000000 		.4byte	0xa2
 8371 17aa 5E170000 		.4byte	.LLST141
 8372 17ae 1E       		.uleb128 0x1e
 8373 17af 60000000 		.4byte	.Ldebug_ranges0+0x60
 8374 17b3 0C       		.uleb128 0xc
 8375 17b4 6900     		.ascii	"i\000"
 8376 17b6 01       		.byte	0x1
 8377 17b7 2A04     		.2byte	0x42a
 8378 17b9 A2000000 		.4byte	0xa2
 8379 17bd 88170000 		.4byte	.LLST142
 8380 17c1 12       		.uleb128 0x12
 8381 17c2 6A000000 		.4byte	.LVL397
 8382 17c6 B2190000 		.4byte	0x19b2
 8383 17ca 11       		.uleb128 0x11
 8384 17cb 01       		.uleb128 0x1
 8385 17cc 51       		.byte	0x51
 8386 17cd 04       		.uleb128 0x4
 8387 17ce 7D       		.byte	0x7d
 8388 17cf 04       		.sleb128 4
 8389 17d0 94       		.byte	0x94
 8390 17d1 01       		.byte	0x1
 8391 17d2 11       		.uleb128 0x11
 8392 17d3 01       		.uleb128 0x1
 8393 17d4 52       		.byte	0x52
 8394 17d5 04       		.uleb128 0x4
 8395 17d6 7D       		.byte	0x7d
 8396 17d7 08       		.sleb128 8
 8397 17d8 94       		.byte	0x94
 8398 17d9 01       		.byte	0x1
 8399 17da 00       		.byte	0
ARM GAS  C:\Users\PC\AppData\Local\Temp\ccKVdNiW.s 			page 169


 8400 17db 00       		.byte	0
 8401 17dc 00       		.byte	0
 8402 17dd 00       		.byte	0
 8403 17de 06       		.uleb128 0x6
 8404 17df 42000000 		.4byte	.LASF80
 8405 17e3 01       		.byte	0x1
 8406 17e4 4004     		.2byte	0x440
 8407 17e6 00000000 		.4byte	.LFB62
 8408 17ea B6000000 		.4byte	.LFE62-.LFB62
 8409 17ee 01       		.uleb128 0x1
 8410 17ef 9C       		.byte	0x9c
 8411 17f0 DC180000 		.4byte	0x18dc
 8412 17f4 07       		.uleb128 0x7
 8413 17f5 7800     		.ascii	"x\000"
 8414 17f7 01       		.byte	0x1
 8415 17f8 4004     		.2byte	0x440
 8416 17fa AD000000 		.4byte	0xad
 8417 17fe C9170000 		.4byte	.LLST143
 8418 1802 07       		.uleb128 0x7
 8419 1803 7900     		.ascii	"y\000"
 8420 1805 01       		.byte	0x1
 8421 1806 4004     		.2byte	0x440
 8422 1808 AD000000 		.4byte	0xad
 8423 180c EA170000 		.4byte	.LLST144
 8424 1810 08       		.uleb128 0x8
 8425 1811 8C040000 		.4byte	.LASF75
 8426 1815 01       		.byte	0x1
 8427 1816 4004     		.2byte	0x440
 8428 1818 A5120000 		.4byte	0x12a5
 8429 181c 23180000 		.4byte	.LLST145
 8430 1820 07       		.uleb128 0x7
 8431 1821 7700     		.ascii	"w\000"
 8432 1823 01       		.byte	0x1
 8433 1824 4004     		.2byte	0x440
 8434 1826 AD000000 		.4byte	0xad
 8435 182a 4F180000 		.4byte	.LLST146
 8436 182e 07       		.uleb128 0x7
 8437 182f 6800     		.ascii	"h\000"
 8438 1831 01       		.byte	0x1
 8439 1832 4004     		.2byte	0x440
 8440 1834 AD000000 		.4byte	0xad
 8441 1838 70180000 		.4byte	.LLST147
 8442 183c 08       		.uleb128 0x8
 8443 183d FD030000 		.4byte	.LASF22
 8444 1841 01       		.byte	0x1
 8445 1842 4104     		.2byte	0x441
 8446 1844 AD000000 		.4byte	0xad
 8447 1848 9C180000 		.4byte	.LLST148
 8448 184c 07       		.uleb128 0x7
 8449 184d 626700   		.ascii	"bg\000"
 8450 1850 01       		.byte	0x1
 8451 1851 4104     		.2byte	0x441
 8452 1853 AD000000 		.4byte	0xad
 8453 1857 E0180000 		.4byte	.LLST149
 8454 185b 09       		.uleb128 0x9
 8455 185c D0020000 		.4byte	.LASF78
 8456 1860 01       		.byte	0x1
ARM GAS  C:\Users\PC\AppData\Local\Temp\ccKVdNiW.s 			page 170


 8457 1861 4304     		.2byte	0x443
 8458 1863 A2000000 		.4byte	0xa2
 8459 1867 24190000 		.4byte	.LLST150
 8460 186b 09       		.uleb128 0x9
 8461 186c 2D000000 		.4byte	.LASF79
 8462 1870 01       		.byte	0x1
 8463 1871 4404     		.2byte	0x444
 8464 1873 97000000 		.4byte	0x97
 8465 1877 37190000 		.4byte	.LLST151
 8466 187b 1E       		.uleb128 0x1e
 8467 187c 78000000 		.4byte	.Ldebug_ranges0+0x78
 8468 1880 0C       		.uleb128 0xc
 8469 1881 6A00     		.ascii	"j\000"
 8470 1883 01       		.byte	0x1
 8471 1884 4604     		.2byte	0x446
 8472 1886 A2000000 		.4byte	0xa2
 8473 188a 61190000 		.4byte	.LLST152
 8474 188e 1E       		.uleb128 0x1e
 8475 188f 90000000 		.4byte	.Ldebug_ranges0+0x90
 8476 1893 0C       		.uleb128 0xc
 8477 1894 6900     		.ascii	"i\000"
 8478 1896 01       		.byte	0x1
 8479 1897 4704     		.2byte	0x447
 8480 1899 A2000000 		.4byte	0xa2
 8481 189d 80190000 		.4byte	.LLST153
 8482 18a1 10       		.uleb128 0x10
 8483 18a2 74000000 		.4byte	.LVL426
 8484 18a6 B2190000 		.4byte	0x19b2
 8485 18aa BF180000 		.4byte	0x18bf
 8486 18ae 11       		.uleb128 0x11
 8487 18af 01       		.uleb128 0x1
 8488 18b0 51       		.byte	0x51
 8489 18b1 04       		.uleb128 0x4
 8490 18b2 7D       		.byte	0x7d
 8491 18b3 00       		.sleb128 0
 8492 18b4 94       		.byte	0x94
 8493 18b5 01       		.byte	0x1
 8494 18b6 11       		.uleb128 0x11
 8495 18b7 01       		.uleb128 0x1
 8496 18b8 52       		.byte	0x52
 8497 18b9 04       		.uleb128 0x4
 8498 18ba 7D       		.byte	0x7d
 8499 18bb 08       		.sleb128 8
 8500 18bc 94       		.byte	0x94
 8501 18bd 01       		.byte	0x1
 8502 18be 00       		.byte	0
 8503 18bf 12       		.uleb128 0x12
 8504 18c0 84000000 		.4byte	.LVL429
 8505 18c4 B2190000 		.4byte	0x19b2
 8506 18c8 11       		.uleb128 0x11
 8507 18c9 01       		.uleb128 0x1
 8508 18ca 51       		.byte	0x51
 8509 18cb 04       		.uleb128 0x4
 8510 18cc 7D       		.byte	0x7d
 8511 18cd 00       		.sleb128 0
 8512 18ce 94       		.byte	0x94
 8513 18cf 01       		.byte	0x1
ARM GAS  C:\Users\PC\AppData\Local\Temp\ccKVdNiW.s 			page 171


 8514 18d0 11       		.uleb128 0x11
 8515 18d1 01       		.uleb128 0x1
 8516 18d2 52       		.byte	0x52
 8517 18d3 04       		.uleb128 0x4
 8518 18d4 7D       		.byte	0x7d
 8519 18d5 04       		.sleb128 4
 8520 18d6 94       		.byte	0x94
 8521 18d7 01       		.byte	0x1
 8522 18d8 00       		.byte	0
 8523 18d9 00       		.byte	0
 8524 18da 00       		.byte	0
 8525 18db 00       		.byte	0
 8526 18dc 1F       		.uleb128 0x1f
 8527 18dd AB120000 		.4byte	0x12ab
 8528 18e1 F2180000 		.4byte	0x18f2
 8529 18e5 20       		.uleb128 0x20
 8530 18e6 DF000000 		.4byte	0xdf
 8531 18ea FF       		.byte	0xff
 8532 18eb 20       		.uleb128 0x20
 8533 18ec DF000000 		.4byte	0xdf
 8534 18f0 04       		.byte	0x4
 8535 18f1 00       		.byte	0
 8536 18f2 21       		.uleb128 0x21
 8537 18f3 3D040000 		.4byte	.LASF81
 8538 18f7 01       		.byte	0x1
 8539 18f8 57       		.byte	0x57
 8540 18f9 03190000 		.4byte	0x1903
 8541 18fd 05       		.uleb128 0x5
 8542 18fe 03       		.byte	0x3
 8543 18ff 00000000 		.4byte	font
 8544 1903 19       		.uleb128 0x19
 8545 1904 DC180000 		.4byte	0x18dc
 8546 1908 22       		.uleb128 0x22
 8547 1909 27020000 		.4byte	.LASF82
 8548 190d 04       		.byte	0x4
 8549 190e 67       		.byte	0x67
 8550 190f 97000000 		.4byte	0x97
 8551 1913 05       		.uleb128 0x5
 8552 1914 03       		.byte	0x3
 8553 1915 00000000 		.4byte	_vccstate
 8554 1919 22       		.uleb128 0x22
 8555 191a 0A010000 		.4byte	.LASF83
 8556 191e 04       		.byte	0x4
 8557 191f 67       		.byte	0x67
 8558 1920 97000000 		.4byte	0x97
 8559 1924 05       		.uleb128 0x5
 8560 1925 03       		.byte	0x3
 8561 1926 00000000 		.4byte	rotation
 8562 192a 22       		.uleb128 0x22
 8563 192b B0020000 		.4byte	.LASF84
 8564 192f 04       		.byte	0x4
 8565 1930 6B       		.byte	0x6b
 8566 1931 97000000 		.4byte	0x97
 8567 1935 05       		.uleb128 0x5
 8568 1936 03       		.byte	0x3
 8569 1937 00000000 		.4byte	_width
 8570 193b 22       		.uleb128 0x22
ARM GAS  C:\Users\PC\AppData\Local\Temp\ccKVdNiW.s 			page 172


 8571 193c F5020000 		.4byte	.LASF85
 8572 1940 04       		.byte	0x4
 8573 1941 6B       		.byte	0x6b
 8574 1942 97000000 		.4byte	0x97
 8575 1946 05       		.uleb128 0x5
 8576 1947 03       		.byte	0x3
 8577 1948 00000000 		.4byte	_height
 8578 194c 22       		.uleb128 0x22
 8579 194d B9010000 		.4byte	.LASF86
 8580 1951 01       		.byte	0x1
 8581 1952 4B       		.byte	0x4b
 8582 1953 A2000000 		.4byte	0xa2
 8583 1957 05       		.uleb128 0x5
 8584 1958 03       		.byte	0x3
 8585 1959 00000000 		.4byte	cursor_x
 8586 195d 22       		.uleb128 0x22
 8587 195e C2010000 		.4byte	.LASF87
 8588 1962 01       		.byte	0x1
 8589 1963 4C       		.byte	0x4c
 8590 1964 A2000000 		.4byte	0xa2
 8591 1968 05       		.uleb128 0x5
 8592 1969 03       		.byte	0x3
 8593 196a 00000000 		.4byte	cursor_y
 8594 196e 22       		.uleb128 0x22
 8595 196f 1A050000 		.4byte	.LASF88
 8596 1973 01       		.byte	0x1
 8597 1974 4E       		.byte	0x4e
 8598 1975 AD000000 		.4byte	0xad
 8599 1979 05       		.uleb128 0x5
 8600 197a 03       		.byte	0x3
 8601 197b 00000000 		.4byte	textcolor
 8602 197f 22       		.uleb128 0x22
 8603 1980 3F050000 		.4byte	.LASF89
 8604 1984 01       		.byte	0x1
 8605 1985 4F       		.byte	0x4f
 8606 1986 AD000000 		.4byte	0xad
 8607 198a 05       		.uleb128 0x5
 8608 198b 03       		.byte	0x3
 8609 198c 00000000 		.4byte	textbgcolor
 8610 1990 22       		.uleb128 0x22
 8611 1991 CB010000 		.4byte	.LASF90
 8612 1995 01       		.byte	0x1
 8613 1996 51       		.byte	0x51
 8614 1997 97000000 		.4byte	0x97
 8615 199b 05       		.uleb128 0x5
 8616 199c 03       		.byte	0x3
 8617 199d 00000000 		.4byte	textsize
 8618 19a1 22       		.uleb128 0x22
 8619 19a2 79040000 		.4byte	.LASF91
 8620 19a6 01       		.byte	0x1
 8621 19a7 53       		.byte	0x53
 8622 19a8 4D020000 		.4byte	0x24d
 8623 19ac 05       		.uleb128 0x5
 8624 19ad 03       		.byte	0x3
 8625 19ae 00000000 		.4byte	wrap
 8626 19b2 23       		.uleb128 0x23
 8627 19b3 31020000 		.4byte	.LASF92
ARM GAS  C:\Users\PC\AppData\Local\Temp\ccKVdNiW.s 			page 173


 8628 19b7 31020000 		.4byte	.LASF92
 8629 19bb 04       		.byte	0x4
 8630 19bc 71       		.byte	0x71
 8631 19bd 23       		.uleb128 0x23
 8632 19be 9D000000 		.4byte	.LASF93
 8633 19c2 9D000000 		.4byte	.LASF93
 8634 19c6 04       		.byte	0x4
 8635 19c7 73       		.byte	0x73
 8636 19c8 23       		.uleb128 0x23
 8637 19c9 0C000000 		.4byte	.LASF94
 8638 19cd 0C000000 		.4byte	.LASF94
 8639 19d1 04       		.byte	0x4
 8640 19d2 72       		.byte	0x72
 8641 19d3 24       		.uleb128 0x24
 8642 19d4 81030000 		.4byte	.LASF41
 8643 19d8 81030000 		.4byte	.LASF41
 8644 19dc 01       		.byte	0x1
 8645 19dd 7202     		.2byte	0x272
 8646 19df 23       		.uleb128 0x23
 8647 19e0 42040000 		.4byte	.LASF95
 8648 19e4 42040000 		.4byte	.LASF95
 8649 19e8 04       		.byte	0x4
 8650 19e9 74       		.byte	0x74
 8651 19ea 00       		.byte	0
 8652              		.section	.debug_abbrev,"",%progbits
 8653              	.Ldebug_abbrev0:
 8654 0000 01       		.uleb128 0x1
 8655 0001 11       		.uleb128 0x11
 8656 0002 01       		.byte	0x1
 8657 0003 25       		.uleb128 0x25
 8658 0004 0E       		.uleb128 0xe
 8659 0005 13       		.uleb128 0x13
 8660 0006 0B       		.uleb128 0xb
 8661 0007 03       		.uleb128 0x3
 8662 0008 0E       		.uleb128 0xe
 8663 0009 1B       		.uleb128 0x1b
 8664 000a 0E       		.uleb128 0xe
 8665 000b 55       		.uleb128 0x55
 8666 000c 17       		.uleb128 0x17
 8667 000d 11       		.uleb128 0x11
 8668 000e 01       		.uleb128 0x1
 8669 000f 10       		.uleb128 0x10
 8670 0010 17       		.uleb128 0x17
 8671 0011 00       		.byte	0
 8672 0012 00       		.byte	0
 8673 0013 02       		.uleb128 0x2
 8674 0014 24       		.uleb128 0x24
 8675 0015 00       		.byte	0
 8676 0016 0B       		.uleb128 0xb
 8677 0017 0B       		.uleb128 0xb
 8678 0018 3E       		.uleb128 0x3e
 8679 0019 0B       		.uleb128 0xb
 8680 001a 03       		.uleb128 0x3
 8681 001b 0E       		.uleb128 0xe
 8682 001c 00       		.byte	0
 8683 001d 00       		.byte	0
 8684 001e 03       		.uleb128 0x3
ARM GAS  C:\Users\PC\AppData\Local\Temp\ccKVdNiW.s 			page 174


 8685 001f 16       		.uleb128 0x16
 8686 0020 00       		.byte	0
 8687 0021 03       		.uleb128 0x3
 8688 0022 0E       		.uleb128 0xe
 8689 0023 3A       		.uleb128 0x3a
 8690 0024 0B       		.uleb128 0xb
 8691 0025 3B       		.uleb128 0x3b
 8692 0026 0B       		.uleb128 0xb
 8693 0027 49       		.uleb128 0x49
 8694 0028 13       		.uleb128 0x13
 8695 0029 00       		.byte	0
 8696 002a 00       		.byte	0
 8697 002b 04       		.uleb128 0x4
 8698 002c 24       		.uleb128 0x24
 8699 002d 00       		.byte	0
 8700 002e 0B       		.uleb128 0xb
 8701 002f 0B       		.uleb128 0xb
 8702 0030 3E       		.uleb128 0x3e
 8703 0031 0B       		.uleb128 0xb
 8704 0032 03       		.uleb128 0x3
 8705 0033 08       		.uleb128 0x8
 8706 0034 00       		.byte	0
 8707 0035 00       		.byte	0
 8708 0036 05       		.uleb128 0x5
 8709 0037 0F       		.uleb128 0xf
 8710 0038 00       		.byte	0
 8711 0039 0B       		.uleb128 0xb
 8712 003a 0B       		.uleb128 0xb
 8713 003b 49       		.uleb128 0x49
 8714 003c 13       		.uleb128 0x13
 8715 003d 00       		.byte	0
 8716 003e 00       		.byte	0
 8717 003f 06       		.uleb128 0x6
 8718 0040 2E       		.uleb128 0x2e
 8719 0041 01       		.byte	0x1
 8720 0042 3F       		.uleb128 0x3f
 8721 0043 19       		.uleb128 0x19
 8722 0044 03       		.uleb128 0x3
 8723 0045 0E       		.uleb128 0xe
 8724 0046 3A       		.uleb128 0x3a
 8725 0047 0B       		.uleb128 0xb
 8726 0048 3B       		.uleb128 0x3b
 8727 0049 05       		.uleb128 0x5
 8728 004a 27       		.uleb128 0x27
 8729 004b 19       		.uleb128 0x19
 8730 004c 11       		.uleb128 0x11
 8731 004d 01       		.uleb128 0x1
 8732 004e 12       		.uleb128 0x12
 8733 004f 06       		.uleb128 0x6
 8734 0050 40       		.uleb128 0x40
 8735 0051 18       		.uleb128 0x18
 8736 0052 9742     		.uleb128 0x2117
 8737 0054 19       		.uleb128 0x19
 8738 0055 01       		.uleb128 0x1
 8739 0056 13       		.uleb128 0x13
 8740 0057 00       		.byte	0
 8741 0058 00       		.byte	0
ARM GAS  C:\Users\PC\AppData\Local\Temp\ccKVdNiW.s 			page 175


 8742 0059 07       		.uleb128 0x7
 8743 005a 05       		.uleb128 0x5
 8744 005b 00       		.byte	0
 8745 005c 03       		.uleb128 0x3
 8746 005d 08       		.uleb128 0x8
 8747 005e 3A       		.uleb128 0x3a
 8748 005f 0B       		.uleb128 0xb
 8749 0060 3B       		.uleb128 0x3b
 8750 0061 05       		.uleb128 0x5
 8751 0062 49       		.uleb128 0x49
 8752 0063 13       		.uleb128 0x13
 8753 0064 02       		.uleb128 0x2
 8754 0065 17       		.uleb128 0x17
 8755 0066 00       		.byte	0
 8756 0067 00       		.byte	0
 8757 0068 08       		.uleb128 0x8
 8758 0069 05       		.uleb128 0x5
 8759 006a 00       		.byte	0
 8760 006b 03       		.uleb128 0x3
 8761 006c 0E       		.uleb128 0xe
 8762 006d 3A       		.uleb128 0x3a
 8763 006e 0B       		.uleb128 0xb
 8764 006f 3B       		.uleb128 0x3b
 8765 0070 05       		.uleb128 0x5
 8766 0071 49       		.uleb128 0x49
 8767 0072 13       		.uleb128 0x13
 8768 0073 02       		.uleb128 0x2
 8769 0074 17       		.uleb128 0x17
 8770 0075 00       		.byte	0
 8771 0076 00       		.byte	0
 8772 0077 09       		.uleb128 0x9
 8773 0078 34       		.uleb128 0x34
 8774 0079 00       		.byte	0
 8775 007a 03       		.uleb128 0x3
 8776 007b 0E       		.uleb128 0xe
 8777 007c 3A       		.uleb128 0x3a
 8778 007d 0B       		.uleb128 0xb
 8779 007e 3B       		.uleb128 0x3b
 8780 007f 05       		.uleb128 0x5
 8781 0080 49       		.uleb128 0x49
 8782 0081 13       		.uleb128 0x13
 8783 0082 02       		.uleb128 0x2
 8784 0083 17       		.uleb128 0x17
 8785 0084 00       		.byte	0
 8786 0085 00       		.byte	0
 8787 0086 0A       		.uleb128 0xa
 8788 0087 2E       		.uleb128 0x2e
 8789 0088 01       		.byte	0x1
 8790 0089 3F       		.uleb128 0x3f
 8791 008a 19       		.uleb128 0x19
 8792 008b 03       		.uleb128 0x3
 8793 008c 08       		.uleb128 0x8
 8794 008d 3A       		.uleb128 0x3a
 8795 008e 0B       		.uleb128 0xb
 8796 008f 3B       		.uleb128 0x3b
 8797 0090 0B       		.uleb128 0xb
 8798 0091 49       		.uleb128 0x49
ARM GAS  C:\Users\PC\AppData\Local\Temp\ccKVdNiW.s 			page 176


 8799 0092 13       		.uleb128 0x13
 8800 0093 3C       		.uleb128 0x3c
 8801 0094 19       		.uleb128 0x19
 8802 0095 01       		.uleb128 0x1
 8803 0096 13       		.uleb128 0x13
 8804 0097 00       		.byte	0
 8805 0098 00       		.byte	0
 8806 0099 0B       		.uleb128 0xb
 8807 009a 18       		.uleb128 0x18
 8808 009b 00       		.byte	0
 8809 009c 00       		.byte	0
 8810 009d 00       		.byte	0
 8811 009e 0C       		.uleb128 0xc
 8812 009f 34       		.uleb128 0x34
 8813 00a0 00       		.byte	0
 8814 00a1 03       		.uleb128 0x3
 8815 00a2 08       		.uleb128 0x8
 8816 00a3 3A       		.uleb128 0x3a
 8817 00a4 0B       		.uleb128 0xb
 8818 00a5 3B       		.uleb128 0x3b
 8819 00a6 05       		.uleb128 0x5
 8820 00a7 49       		.uleb128 0x49
 8821 00a8 13       		.uleb128 0x13
 8822 00a9 02       		.uleb128 0x2
 8823 00aa 17       		.uleb128 0x17
 8824 00ab 00       		.byte	0
 8825 00ac 00       		.byte	0
 8826 00ad 0D       		.uleb128 0xd
 8827 00ae 34       		.uleb128 0x34
 8828 00af 00       		.byte	0
 8829 00b0 03       		.uleb128 0x3
 8830 00b1 0E       		.uleb128 0xe
 8831 00b2 3A       		.uleb128 0x3a
 8832 00b3 0B       		.uleb128 0xb
 8833 00b4 3B       		.uleb128 0x3b
 8834 00b5 05       		.uleb128 0x5
 8835 00b6 49       		.uleb128 0x49
 8836 00b7 13       		.uleb128 0x13
 8837 00b8 02       		.uleb128 0x2
 8838 00b9 18       		.uleb128 0x18
 8839 00ba 00       		.byte	0
 8840 00bb 00       		.byte	0
 8841 00bc 0E       		.uleb128 0xe
 8842 00bd 0B       		.uleb128 0xb
 8843 00be 01       		.byte	0x1
 8844 00bf 11       		.uleb128 0x11
 8845 00c0 01       		.uleb128 0x1
 8846 00c1 12       		.uleb128 0x12
 8847 00c2 06       		.uleb128 0x6
 8848 00c3 01       		.uleb128 0x1
 8849 00c4 13       		.uleb128 0x13
 8850 00c5 00       		.byte	0
 8851 00c6 00       		.byte	0
 8852 00c7 0F       		.uleb128 0xf
 8853 00c8 34       		.uleb128 0x34
 8854 00c9 00       		.byte	0
 8855 00ca 03       		.uleb128 0x3
ARM GAS  C:\Users\PC\AppData\Local\Temp\ccKVdNiW.s 			page 177


 8856 00cb 08       		.uleb128 0x8
 8857 00cc 3A       		.uleb128 0x3a
 8858 00cd 0B       		.uleb128 0xb
 8859 00ce 3B       		.uleb128 0x3b
 8860 00cf 05       		.uleb128 0x5
 8861 00d0 49       		.uleb128 0x49
 8862 00d1 13       		.uleb128 0x13
 8863 00d2 00       		.byte	0
 8864 00d3 00       		.byte	0
 8865 00d4 10       		.uleb128 0x10
 8866 00d5 898201   		.uleb128 0x4109
 8867 00d8 01       		.byte	0x1
 8868 00d9 11       		.uleb128 0x11
 8869 00da 01       		.uleb128 0x1
 8870 00db 31       		.uleb128 0x31
 8871 00dc 13       		.uleb128 0x13
 8872 00dd 01       		.uleb128 0x1
 8873 00de 13       		.uleb128 0x13
 8874 00df 00       		.byte	0
 8875 00e0 00       		.byte	0
 8876 00e1 11       		.uleb128 0x11
 8877 00e2 8A8201   		.uleb128 0x410a
 8878 00e5 00       		.byte	0
 8879 00e6 02       		.uleb128 0x2
 8880 00e7 18       		.uleb128 0x18
 8881 00e8 9142     		.uleb128 0x2111
 8882 00ea 18       		.uleb128 0x18
 8883 00eb 00       		.byte	0
 8884 00ec 00       		.byte	0
 8885 00ed 12       		.uleb128 0x12
 8886 00ee 898201   		.uleb128 0x4109
 8887 00f1 01       		.byte	0x1
 8888 00f2 11       		.uleb128 0x11
 8889 00f3 01       		.uleb128 0x1
 8890 00f4 31       		.uleb128 0x31
 8891 00f5 13       		.uleb128 0x13
 8892 00f6 00       		.byte	0
 8893 00f7 00       		.byte	0
 8894 00f8 13       		.uleb128 0x13
 8895 00f9 34       		.uleb128 0x34
 8896 00fa 00       		.byte	0
 8897 00fb 03       		.uleb128 0x3
 8898 00fc 08       		.uleb128 0x8
 8899 00fd 3A       		.uleb128 0x3a
 8900 00fe 0B       		.uleb128 0xb
 8901 00ff 3B       		.uleb128 0x3b
 8902 0100 05       		.uleb128 0x5
 8903 0101 49       		.uleb128 0x49
 8904 0102 13       		.uleb128 0x13
 8905 0103 02       		.uleb128 0x2
 8906 0104 18       		.uleb128 0x18
 8907 0105 00       		.byte	0
 8908 0106 00       		.byte	0
 8909 0107 14       		.uleb128 0x14
 8910 0108 2E       		.uleb128 0x2e
 8911 0109 01       		.byte	0x1
 8912 010a 3F       		.uleb128 0x3f
ARM GAS  C:\Users\PC\AppData\Local\Temp\ccKVdNiW.s 			page 178


 8913 010b 19       		.uleb128 0x19
 8914 010c 03       		.uleb128 0x3
 8915 010d 0E       		.uleb128 0xe
 8916 010e 3A       		.uleb128 0x3a
 8917 010f 0B       		.uleb128 0xb
 8918 0110 3B       		.uleb128 0x3b
 8919 0111 05       		.uleb128 0x5
 8920 0112 49       		.uleb128 0x49
 8921 0113 13       		.uleb128 0x13
 8922 0114 3C       		.uleb128 0x3c
 8923 0115 19       		.uleb128 0x19
 8924 0116 01       		.uleb128 0x1
 8925 0117 13       		.uleb128 0x13
 8926 0118 00       		.byte	0
 8927 0119 00       		.byte	0
 8928 011a 15       		.uleb128 0x15
 8929 011b 2E       		.uleb128 0x2e
 8930 011c 01       		.byte	0x1
 8931 011d 3F       		.uleb128 0x3f
 8932 011e 19       		.uleb128 0x19
 8933 011f 03       		.uleb128 0x3
 8934 0120 0E       		.uleb128 0xe
 8935 0121 3A       		.uleb128 0x3a
 8936 0122 0B       		.uleb128 0xb
 8937 0123 3B       		.uleb128 0x3b
 8938 0124 05       		.uleb128 0x5
 8939 0125 27       		.uleb128 0x27
 8940 0126 19       		.uleb128 0x19
 8941 0127 11       		.uleb128 0x11
 8942 0128 01       		.uleb128 0x1
 8943 0129 12       		.uleb128 0x12
 8944 012a 06       		.uleb128 0x6
 8945 012b 40       		.uleb128 0x40
 8946 012c 18       		.uleb128 0x18
 8947 012d 9642     		.uleb128 0x2116
 8948 012f 19       		.uleb128 0x19
 8949 0130 01       		.uleb128 0x1
 8950 0131 13       		.uleb128 0x13
 8951 0132 00       		.byte	0
 8952 0133 00       		.byte	0
 8953 0134 16       		.uleb128 0x16
 8954 0135 0B       		.uleb128 0xb
 8955 0136 01       		.byte	0x1
 8956 0137 55       		.uleb128 0x55
 8957 0138 17       		.uleb128 0x17
 8958 0139 01       		.uleb128 0x1
 8959 013a 13       		.uleb128 0x13
 8960 013b 00       		.byte	0
 8961 013c 00       		.byte	0
 8962 013d 17       		.uleb128 0x17
 8963 013e 0B       		.uleb128 0xb
 8964 013f 01       		.byte	0x1
 8965 0140 11       		.uleb128 0x11
 8966 0141 01       		.uleb128 0x1
 8967 0142 12       		.uleb128 0x12
 8968 0143 06       		.uleb128 0x6
 8969 0144 00       		.byte	0
ARM GAS  C:\Users\PC\AppData\Local\Temp\ccKVdNiW.s 			page 179


 8970 0145 00       		.byte	0
 8971 0146 18       		.uleb128 0x18
 8972 0147 898201   		.uleb128 0x4109
 8973 014a 00       		.byte	0
 8974 014b 11       		.uleb128 0x11
 8975 014c 01       		.uleb128 0x1
 8976 014d 31       		.uleb128 0x31
 8977 014e 13       		.uleb128 0x13
 8978 014f 00       		.byte	0
 8979 0150 00       		.byte	0
 8980 0151 19       		.uleb128 0x19
 8981 0152 26       		.uleb128 0x26
 8982 0153 00       		.byte	0
 8983 0154 49       		.uleb128 0x49
 8984 0155 13       		.uleb128 0x13
 8985 0156 00       		.byte	0
 8986 0157 00       		.byte	0
 8987 0158 1A       		.uleb128 0x1a
 8988 0159 05       		.uleb128 0x5
 8989 015a 00       		.byte	0
 8990 015b 03       		.uleb128 0x3
 8991 015c 08       		.uleb128 0x8
 8992 015d 3A       		.uleb128 0x3a
 8993 015e 0B       		.uleb128 0xb
 8994 015f 3B       		.uleb128 0x3b
 8995 0160 05       		.uleb128 0x5
 8996 0161 49       		.uleb128 0x49
 8997 0162 13       		.uleb128 0x13
 8998 0163 02       		.uleb128 0x2
 8999 0164 18       		.uleb128 0x18
 9000 0165 00       		.byte	0
 9001 0166 00       		.byte	0
 9002 0167 1B       		.uleb128 0x1b
 9003 0168 2E       		.uleb128 0x2e
 9004 0169 00       		.byte	0
 9005 016a 3F       		.uleb128 0x3f
 9006 016b 19       		.uleb128 0x19
 9007 016c 03       		.uleb128 0x3
 9008 016d 0E       		.uleb128 0xe
 9009 016e 3A       		.uleb128 0x3a
 9010 016f 0B       		.uleb128 0xb
 9011 0170 3B       		.uleb128 0x3b
 9012 0171 05       		.uleb128 0x5
 9013 0172 27       		.uleb128 0x27
 9014 0173 19       		.uleb128 0x19
 9015 0174 49       		.uleb128 0x49
 9016 0175 13       		.uleb128 0x13
 9017 0176 11       		.uleb128 0x11
 9018 0177 01       		.uleb128 0x1
 9019 0178 12       		.uleb128 0x12
 9020 0179 06       		.uleb128 0x6
 9021 017a 40       		.uleb128 0x40
 9022 017b 18       		.uleb128 0x18
 9023 017c 9742     		.uleb128 0x2117
 9024 017e 19       		.uleb128 0x19
 9025 017f 00       		.byte	0
 9026 0180 00       		.byte	0
ARM GAS  C:\Users\PC\AppData\Local\Temp\ccKVdNiW.s 			page 180


 9027 0181 1C       		.uleb128 0x1c
 9028 0182 2E       		.uleb128 0x2e
 9029 0183 01       		.byte	0x1
 9030 0184 3F       		.uleb128 0x3f
 9031 0185 19       		.uleb128 0x19
 9032 0186 03       		.uleb128 0x3
 9033 0187 0E       		.uleb128 0xe
 9034 0188 3A       		.uleb128 0x3a
 9035 0189 0B       		.uleb128 0xb
 9036 018a 3B       		.uleb128 0x3b
 9037 018b 05       		.uleb128 0x5
 9038 018c 27       		.uleb128 0x27
 9039 018d 19       		.uleb128 0x19
 9040 018e 49       		.uleb128 0x49
 9041 018f 13       		.uleb128 0x13
 9042 0190 11       		.uleb128 0x11
 9043 0191 01       		.uleb128 0x1
 9044 0192 12       		.uleb128 0x12
 9045 0193 06       		.uleb128 0x6
 9046 0194 40       		.uleb128 0x40
 9047 0195 18       		.uleb128 0x18
 9048 0196 9742     		.uleb128 0x2117
 9049 0198 19       		.uleb128 0x19
 9050 0199 01       		.uleb128 0x1
 9051 019a 13       		.uleb128 0x13
 9052 019b 00       		.byte	0
 9053 019c 00       		.byte	0
 9054 019d 1D       		.uleb128 0x1d
 9055 019e 05       		.uleb128 0x5
 9056 019f 00       		.byte	0
 9057 01a0 03       		.uleb128 0x3
 9058 01a1 0E       		.uleb128 0xe
 9059 01a2 3A       		.uleb128 0x3a
 9060 01a3 0B       		.uleb128 0xb
 9061 01a4 3B       		.uleb128 0x3b
 9062 01a5 05       		.uleb128 0x5
 9063 01a6 49       		.uleb128 0x49
 9064 01a7 13       		.uleb128 0x13
 9065 01a8 02       		.uleb128 0x2
 9066 01a9 18       		.uleb128 0x18
 9067 01aa 00       		.byte	0
 9068 01ab 00       		.byte	0
 9069 01ac 1E       		.uleb128 0x1e
 9070 01ad 0B       		.uleb128 0xb
 9071 01ae 01       		.byte	0x1
 9072 01af 55       		.uleb128 0x55
 9073 01b0 17       		.uleb128 0x17
 9074 01b1 00       		.byte	0
 9075 01b2 00       		.byte	0
 9076 01b3 1F       		.uleb128 0x1f
 9077 01b4 01       		.uleb128 0x1
 9078 01b5 01       		.byte	0x1
 9079 01b6 49       		.uleb128 0x49
 9080 01b7 13       		.uleb128 0x13
 9081 01b8 01       		.uleb128 0x1
 9082 01b9 13       		.uleb128 0x13
 9083 01ba 00       		.byte	0
ARM GAS  C:\Users\PC\AppData\Local\Temp\ccKVdNiW.s 			page 181


 9084 01bb 00       		.byte	0
 9085 01bc 20       		.uleb128 0x20
 9086 01bd 21       		.uleb128 0x21
 9087 01be 00       		.byte	0
 9088 01bf 49       		.uleb128 0x49
 9089 01c0 13       		.uleb128 0x13
 9090 01c1 2F       		.uleb128 0x2f
 9091 01c2 0B       		.uleb128 0xb
 9092 01c3 00       		.byte	0
 9093 01c4 00       		.byte	0
 9094 01c5 21       		.uleb128 0x21
 9095 01c6 34       		.uleb128 0x34
 9096 01c7 00       		.byte	0
 9097 01c8 03       		.uleb128 0x3
 9098 01c9 0E       		.uleb128 0xe
 9099 01ca 3A       		.uleb128 0x3a
 9100 01cb 0B       		.uleb128 0xb
 9101 01cc 3B       		.uleb128 0x3b
 9102 01cd 0B       		.uleb128 0xb
 9103 01ce 49       		.uleb128 0x49
 9104 01cf 13       		.uleb128 0x13
 9105 01d0 02       		.uleb128 0x2
 9106 01d1 18       		.uleb128 0x18
 9107 01d2 00       		.byte	0
 9108 01d3 00       		.byte	0
 9109 01d4 22       		.uleb128 0x22
 9110 01d5 34       		.uleb128 0x34
 9111 01d6 00       		.byte	0
 9112 01d7 03       		.uleb128 0x3
 9113 01d8 0E       		.uleb128 0xe
 9114 01d9 3A       		.uleb128 0x3a
 9115 01da 0B       		.uleb128 0xb
 9116 01db 3B       		.uleb128 0x3b
 9117 01dc 0B       		.uleb128 0xb
 9118 01dd 49       		.uleb128 0x49
 9119 01de 13       		.uleb128 0x13
 9120 01df 3F       		.uleb128 0x3f
 9121 01e0 19       		.uleb128 0x19
 9122 01e1 02       		.uleb128 0x2
 9123 01e2 18       		.uleb128 0x18
 9124 01e3 00       		.byte	0
 9125 01e4 00       		.byte	0
 9126 01e5 23       		.uleb128 0x23
 9127 01e6 2E       		.uleb128 0x2e
 9128 01e7 00       		.byte	0
 9129 01e8 3F       		.uleb128 0x3f
 9130 01e9 19       		.uleb128 0x19
 9131 01ea 3C       		.uleb128 0x3c
 9132 01eb 19       		.uleb128 0x19
 9133 01ec 6E       		.uleb128 0x6e
 9134 01ed 0E       		.uleb128 0xe
 9135 01ee 03       		.uleb128 0x3
 9136 01ef 0E       		.uleb128 0xe
 9137 01f0 3A       		.uleb128 0x3a
 9138 01f1 0B       		.uleb128 0xb
 9139 01f2 3B       		.uleb128 0x3b
 9140 01f3 0B       		.uleb128 0xb
ARM GAS  C:\Users\PC\AppData\Local\Temp\ccKVdNiW.s 			page 182


 9141 01f4 00       		.byte	0
 9142 01f5 00       		.byte	0
 9143 01f6 24       		.uleb128 0x24
 9144 01f7 2E       		.uleb128 0x2e
 9145 01f8 00       		.byte	0
 9146 01f9 3F       		.uleb128 0x3f
 9147 01fa 19       		.uleb128 0x19
 9148 01fb 3C       		.uleb128 0x3c
 9149 01fc 19       		.uleb128 0x19
 9150 01fd 6E       		.uleb128 0x6e
 9151 01fe 0E       		.uleb128 0xe
 9152 01ff 03       		.uleb128 0x3
 9153 0200 0E       		.uleb128 0xe
 9154 0201 3A       		.uleb128 0x3a
 9155 0202 0B       		.uleb128 0xb
 9156 0203 3B       		.uleb128 0x3b
 9157 0204 05       		.uleb128 0x5
 9158 0205 00       		.byte	0
 9159 0206 00       		.byte	0
 9160 0207 00       		.byte	0
 9161              		.section	.debug_loc,"",%progbits
 9162              	.Ldebug_loc0:
 9163              	.LLST0:
 9164 0000 00000000 		.4byte	.LVL0
 9165 0004 40000000 		.4byte	.LVL7
 9166 0008 0100     		.2byte	0x1
 9167 000a 50       		.byte	0x50
 9168 000b 40000000 		.4byte	.LVL7
 9169 000f 4E000000 		.4byte	.LVL10
 9170 0013 0100     		.2byte	0x1
 9171 0015 55       		.byte	0x55
 9172 0016 50000000 		.4byte	.LVL11
 9173 001a B4000000 		.4byte	.LVL27
 9174 001e 0100     		.2byte	0x1
 9175 0020 55       		.byte	0x55
 9176 0021 B6000000 		.4byte	.LVL28
 9177 0025 BC000000 		.4byte	.LVL30
 9178 0029 0100     		.2byte	0x1
 9179 002b 55       		.byte	0x55
 9180 002c 00000000 		.4byte	0
 9181 0030 00000000 		.4byte	0
 9182              	.LLST1:
 9183 0034 00000000 		.4byte	.LVL0
 9184 0038 20000000 		.4byte	.LVL3
 9185 003c 0100     		.2byte	0x1
 9186 003e 51       		.byte	0x51
 9187 003f 20000000 		.4byte	.LVL3
 9188 0043 40000000 		.4byte	.LVL7
 9189 0047 0400     		.2byte	0x4
 9190 0049 F3       		.byte	0xf3
 9191 004a 01       		.uleb128 0x1
 9192 004b 51       		.byte	0x51
 9193 004c 9F       		.byte	0x9f
 9194 004d 40000000 		.4byte	.LVL7
 9195 0051 48000000 		.4byte	.LVL8
 9196 0055 0100     		.2byte	0x1
 9197 0057 56       		.byte	0x56
ARM GAS  C:\Users\PC\AppData\Local\Temp\ccKVdNiW.s 			page 183


 9198 0058 50000000 		.4byte	.LVL11
 9199 005c AC000000 		.4byte	.LVL24
 9200 0060 0100     		.2byte	0x1
 9201 0062 56       		.byte	0x56
 9202 0063 AE000000 		.4byte	.LVL25
 9203 0067 BC000000 		.4byte	.LVL31
 9204 006b 0100     		.2byte	0x1
 9205 006d 56       		.byte	0x56
 9206 006e 00000000 		.4byte	0
 9207 0072 00000000 		.4byte	0
 9208              	.LLST2:
 9209 0076 00000000 		.4byte	.LVL0
 9210 007a 16000000 		.4byte	.LVL1
 9211 007e 0100     		.2byte	0x1
 9212 0080 52       		.byte	0x52
 9213 0081 16000000 		.4byte	.LVL1
 9214 0085 40000000 		.4byte	.LVL7
 9215 0089 0400     		.2byte	0x4
 9216 008b F3       		.byte	0xf3
 9217 008c 01       		.uleb128 0x1
 9218 008d 52       		.byte	0x52
 9219 008e 9F       		.byte	0x9f
 9220 008f 40000000 		.4byte	.LVL7
 9221 0093 BC000000 		.4byte	.LVL32
 9222 0097 0100     		.2byte	0x1
 9223 0099 57       		.byte	0x57
 9224 009a 00000000 		.4byte	0
 9225 009e 00000000 		.4byte	0
 9226              	.LLST3:
 9227 00a2 00000000 		.4byte	.LVL0
 9228 00a6 3C000000 		.4byte	.LVL6
 9229 00aa 0100     		.2byte	0x1
 9230 00ac 53       		.byte	0x53
 9231 00ad 3C000000 		.4byte	.LVL6
 9232 00b1 40000000 		.4byte	.LVL7
 9233 00b5 0400     		.2byte	0x4
 9234 00b7 F3       		.byte	0xf3
 9235 00b8 01       		.uleb128 0x1
 9236 00b9 53       		.byte	0x53
 9237 00ba 9F       		.byte	0x9f
 9238 00bb 40000000 		.4byte	.LVL7
 9239 00bf 4A000000 		.4byte	.LVL9
 9240 00c3 0100     		.2byte	0x1
 9241 00c5 53       		.byte	0x53
 9242 00c6 50000000 		.4byte	.LVL11
 9243 00ca 70000000 		.4byte	.LVL16
 9244 00ce 0100     		.2byte	0x1
 9245 00d0 53       		.byte	0x53
 9246 00d1 74000000 		.4byte	.LVL17
 9247 00d5 76000000 		.4byte	.LVL18
 9248 00d9 0100     		.2byte	0x1
 9249 00db 53       		.byte	0x53
 9250 00dc 00000000 		.4byte	0
 9251 00e0 00000000 		.4byte	0
 9252              	.LLST4:
 9253 00e4 00000000 		.4byte	.LVL0
 9254 00e8 16000000 		.4byte	.LVL1
ARM GAS  C:\Users\PC\AppData\Local\Temp\ccKVdNiW.s 			page 184


 9255 00ec 0200     		.2byte	0x2
 9256 00ee 91       		.byte	0x91
 9257 00ef 00       		.sleb128 0
 9258 00f0 16000000 		.4byte	.LVL1
 9259 00f4 18000000 		.4byte	.LVL2
 9260 00f8 0200     		.2byte	0x2
 9261 00fa 72       		.byte	0x72
 9262 00fb 00       		.sleb128 0
 9263 00fc 18000000 		.4byte	.LVL2
 9264 0100 C8000000 		.4byte	.LFE33
 9265 0104 0200     		.2byte	0x2
 9266 0106 91       		.byte	0x91
 9267 0107 00       		.sleb128 0
 9268 0108 00000000 		.4byte	0
 9269 010c 00000000 		.4byte	0
 9270              	.LLST5:
 9271 0110 32000000 		.4byte	.LVL4
 9272 0114 38000000 		.4byte	.LVL5
 9273 0118 0600     		.2byte	0x6
 9274 011a 78       		.byte	0x78
 9275 011b 00       		.sleb128 0
 9276 011c 72       		.byte	0x72
 9277 011d 00       		.sleb128 0
 9278 011e 2B       		.byte	0x2b
 9279 011f 9F       		.byte	0x9f
 9280 0120 38000000 		.4byte	.LVL5
 9281 0124 BC000000 		.4byte	.LVL33
 9282 0128 0600     		.2byte	0x6
 9283 012a 78       		.byte	0x78
 9284 012b 00       		.sleb128 0
 9285 012c 79       		.byte	0x79
 9286 012d 00       		.sleb128 0
 9287 012e 2B       		.byte	0x2b
 9288 012f 9F       		.byte	0x9f
 9289 0130 00000000 		.4byte	0
 9290 0134 00000000 		.4byte	0
 9291              	.LLST6:
 9292 0138 58000000 		.4byte	.LVL12
 9293 013c 68000000 		.4byte	.LVL14
 9294 0140 0100     		.2byte	0x1
 9295 0142 54       		.byte	0x54
 9296 0143 68000000 		.4byte	.LVL14
 9297 0147 BC000000 		.4byte	.LVL35
 9298 014b 0100     		.2byte	0x1
 9299 014d 5B       		.byte	0x5b
 9300 014e 00000000 		.4byte	0
 9301 0152 00000000 		.4byte	0
 9302              	.LLST7:
 9303 0156 64000000 		.4byte	.LVL13
 9304 015a BC000000 		.4byte	.LVL34
 9305 015e 0100     		.2byte	0x1
 9306 0160 5A       		.byte	0x5a
 9307 0161 00000000 		.4byte	0
 9308 0165 00000000 		.4byte	0
 9309              	.LLST8:
 9310 0169 6A000000 		.4byte	.LVL15
 9311 016d 9E000000 		.4byte	.LVL22
ARM GAS  C:\Users\PC\AppData\Local\Temp\ccKVdNiW.s 			page 185


 9312 0171 0100     		.2byte	0x1
 9313 0173 54       		.byte	0x54
 9314 0174 A2000000 		.4byte	.LVL23
 9315 0178 BC000000 		.4byte	.LVL29
 9316 017c 0100     		.2byte	0x1
 9317 017e 54       		.byte	0x54
 9318 017f 00000000 		.4byte	0
 9319 0183 00000000 		.4byte	0
 9320              	.LLST9:
 9321 0187 00000000 		.4byte	.LVL36
 9322 018b 22000000 		.4byte	.LVL44
 9323 018f 0100     		.2byte	0x1
 9324 0191 50       		.byte	0x50
 9325 0192 22000000 		.4byte	.LVL44
 9326 0196 2A000000 		.4byte	.LVL46
 9327 019a 0400     		.2byte	0x4
 9328 019c F3       		.byte	0xf3
 9329 019d 01       		.uleb128 0x1
 9330 019e 50       		.byte	0x50
 9331 019f 9F       		.byte	0x9f
 9332 01a0 2A000000 		.4byte	.LVL46
 9333 01a4 36000000 		.4byte	.LVL48
 9334 01a8 0100     		.2byte	0x1
 9335 01aa 50       		.byte	0x50
 9336 01ab 36000000 		.4byte	.LVL48
 9337 01af 38000000 		.4byte	.LVL49
 9338 01b3 0400     		.2byte	0x4
 9339 01b5 F3       		.byte	0xf3
 9340 01b6 01       		.uleb128 0x1
 9341 01b7 50       		.byte	0x50
 9342 01b8 9F       		.byte	0x9f
 9343 01b9 38000000 		.4byte	.LVL49
 9344 01bd 3A000000 		.4byte	.LVL50
 9345 01c1 0100     		.2byte	0x1
 9346 01c3 50       		.byte	0x50
 9347 01c4 4A000000 		.4byte	.LVL54
 9348 01c8 4F000000 		.4byte	.LVL55-1
 9349 01cc 0100     		.2byte	0x1
 9350 01ce 50       		.byte	0x50
 9351 01cf 4F000000 		.4byte	.LVL55-1
 9352 01d3 50000000 		.4byte	.LVL55
 9353 01d7 0400     		.2byte	0x4
 9354 01d9 F3       		.byte	0xf3
 9355 01da 01       		.uleb128 0x1
 9356 01db 50       		.byte	0x50
 9357 01dc 9F       		.byte	0x9f
 9358 01dd 00000000 		.4byte	0
 9359 01e1 00000000 		.4byte	0
 9360              	.LLST10:
 9361 01e5 00000000 		.4byte	.LVL36
 9362 01e9 14000000 		.4byte	.LVL40
 9363 01ed 0100     		.2byte	0x1
 9364 01ef 51       		.byte	0x51
 9365 01f0 14000000 		.4byte	.LVL40
 9366 01f4 16000000 		.4byte	.LVL41
 9367 01f8 0400     		.2byte	0x4
 9368 01fa F3       		.byte	0xf3
ARM GAS  C:\Users\PC\AppData\Local\Temp\ccKVdNiW.s 			page 186


 9369 01fb 01       		.uleb128 0x1
 9370 01fc 51       		.byte	0x51
 9371 01fd 9F       		.byte	0x9f
 9372 01fe 16000000 		.4byte	.LVL41
 9373 0202 18000000 		.4byte	.LVL42
 9374 0206 0100     		.2byte	0x1
 9375 0208 51       		.byte	0x51
 9376 0209 2A000000 		.4byte	.LVL46
 9377 020d 44000000 		.4byte	.LVL52
 9378 0211 0100     		.2byte	0x1
 9379 0213 51       		.byte	0x51
 9380 0214 44000000 		.4byte	.LVL52
 9381 0218 4A000000 		.4byte	.LVL54
 9382 021c 0400     		.2byte	0x4
 9383 021e F3       		.byte	0xf3
 9384 021f 01       		.uleb128 0x1
 9385 0220 51       		.byte	0x51
 9386 0221 9F       		.byte	0x9f
 9387 0222 4A000000 		.4byte	.LVL54
 9388 0226 4F000000 		.4byte	.LVL55-1
 9389 022a 0100     		.2byte	0x1
 9390 022c 51       		.byte	0x51
 9391 022d 4F000000 		.4byte	.LVL55-1
 9392 0231 50000000 		.4byte	.LVL55
 9393 0235 0400     		.2byte	0x4
 9394 0237 F3       		.byte	0xf3
 9395 0238 01       		.uleb128 0x1
 9396 0239 51       		.byte	0x51
 9397 023a 9F       		.byte	0x9f
 9398 023b 00000000 		.4byte	0
 9399 023f 00000000 		.4byte	0
 9400              	.LLST11:
 9401 0243 00000000 		.4byte	.LVL36
 9402 0247 12000000 		.4byte	.LVL39
 9403 024b 0100     		.2byte	0x1
 9404 024d 52       		.byte	0x52
 9405 024e 12000000 		.4byte	.LVL39
 9406 0252 2A000000 		.4byte	.LVL46
 9407 0256 0400     		.2byte	0x4
 9408 0258 F3       		.byte	0xf3
 9409 0259 01       		.uleb128 0x1
 9410 025a 52       		.byte	0x52
 9411 025b 9F       		.byte	0x9f
 9412 025c 2A000000 		.4byte	.LVL46
 9413 0260 3E000000 		.4byte	.LVL51
 9414 0264 0100     		.2byte	0x1
 9415 0266 52       		.byte	0x52
 9416 0267 4A000000 		.4byte	.LVL54
 9417 026b 4F000000 		.4byte	.LVL55-1
 9418 026f 0100     		.2byte	0x1
 9419 0271 52       		.byte	0x52
 9420 0272 4F000000 		.4byte	.LVL55-1
 9421 0276 50000000 		.4byte	.LVL55
 9422 027a 0400     		.2byte	0x4
 9423 027c F3       		.byte	0xf3
 9424 027d 01       		.uleb128 0x1
 9425 027e 52       		.byte	0x52
ARM GAS  C:\Users\PC\AppData\Local\Temp\ccKVdNiW.s 			page 187


 9426 027f 9F       		.byte	0x9f
 9427 0280 00000000 		.4byte	0
 9428 0284 00000000 		.4byte	0
 9429              	.LLST12:
 9430 0288 00000000 		.4byte	.LVL36
 9431 028c 16000000 		.4byte	.LVL41
 9432 0290 0100     		.2byte	0x1
 9433 0292 53       		.byte	0x53
 9434 0293 16000000 		.4byte	.LVL41
 9435 0297 1E000000 		.4byte	.LVL43
 9436 029b 0100     		.2byte	0x1
 9437 029d 53       		.byte	0x53
 9438 029e 2A000000 		.4byte	.LVL46
 9439 02a2 34000000 		.4byte	.LVL47
 9440 02a6 0100     		.2byte	0x1
 9441 02a8 53       		.byte	0x53
 9442 02a9 34000000 		.4byte	.LVL47
 9443 02ad 4A000000 		.4byte	.LVL54
 9444 02b1 0400     		.2byte	0x4
 9445 02b3 F3       		.byte	0xf3
 9446 02b4 01       		.uleb128 0x1
 9447 02b5 53       		.byte	0x53
 9448 02b6 9F       		.byte	0x9f
 9449 02b7 4A000000 		.4byte	.LVL54
 9450 02bb 4F000000 		.4byte	.LVL55-1
 9451 02bf 0100     		.2byte	0x1
 9452 02c1 53       		.byte	0x53
 9453 02c2 4F000000 		.4byte	.LVL55-1
 9454 02c6 50000000 		.4byte	.LVL55
 9455 02ca 0400     		.2byte	0x4
 9456 02cc F3       		.byte	0xf3
 9457 02cd 01       		.uleb128 0x1
 9458 02ce 53       		.byte	0x53
 9459 02cf 9F       		.byte	0x9f
 9460 02d0 00000000 		.4byte	0
 9461 02d4 00000000 		.4byte	0
 9462              	.LLST13:
 9463 02d8 00000000 		.4byte	.LVL36
 9464 02dc 06000000 		.4byte	.LVL37
 9465 02e0 0200     		.2byte	0x2
 9466 02e2 91       		.byte	0x91
 9467 02e3 00       		.sleb128 0
 9468 02e4 06000000 		.4byte	.LVL37
 9469 02e8 08000000 		.4byte	.LVL38
 9470 02ec 0200     		.2byte	0x2
 9471 02ee 74       		.byte	0x74
 9472 02ef 00       		.sleb128 0
 9473 02f0 08000000 		.4byte	.LVL38
 9474 02f4 54000000 		.4byte	.LFE34
 9475 02f8 0200     		.2byte	0x2
 9476 02fa 91       		.byte	0x91
 9477 02fb 00       		.sleb128 0
 9478 02fc 00000000 		.4byte	0
 9479 0300 00000000 		.4byte	0
 9480              	.LLST14:
 9481 0304 00000000 		.4byte	.LVL56
 9482 0308 24000000 		.4byte	.LVL60
ARM GAS  C:\Users\PC\AppData\Local\Temp\ccKVdNiW.s 			page 188


 9483 030c 0100     		.2byte	0x1
 9484 030e 50       		.byte	0x50
 9485 030f 24000000 		.4byte	.LVL60
 9486 0313 48010000 		.4byte	.LFE35
 9487 0317 0400     		.2byte	0x4
 9488 0319 F3       		.byte	0xf3
 9489 031a 01       		.uleb128 0x1
 9490 031b 50       		.byte	0x50
 9491 031c 9F       		.byte	0x9f
 9492 031d 00000000 		.4byte	0
 9493 0321 00000000 		.4byte	0
 9494              	.LLST15:
 9495 0325 00000000 		.4byte	.LVL56
 9496 0329 28000000 		.4byte	.LVL61
 9497 032d 0100     		.2byte	0x1
 9498 032f 51       		.byte	0x51
 9499 0330 28000000 		.4byte	.LVL61
 9500 0334 48010000 		.4byte	.LFE35
 9501 0338 0400     		.2byte	0x4
 9502 033a F3       		.byte	0xf3
 9503 033b 01       		.uleb128 0x1
 9504 033c 51       		.byte	0x51
 9505 033d 9F       		.byte	0x9f
 9506 033e 00000000 		.4byte	0
 9507 0342 00000000 		.4byte	0
 9508              	.LLST16:
 9509 0346 00000000 		.4byte	.LVL56
 9510 034a 38000000 		.4byte	.LVL63
 9511 034e 0100     		.2byte	0x1
 9512 0350 52       		.byte	0x52
 9513 0351 38000000 		.4byte	.LVL63
 9514 0355 72000000 		.4byte	.LVL68
 9515 0359 0200     		.2byte	0x2
 9516 035b 91       		.byte	0x91
 9517 035c 48       		.sleb128 -56
 9518 035d 72000000 		.4byte	.LVL68
 9519 0361 48010000 		.4byte	.LFE35
 9520 0365 0400     		.2byte	0x4
 9521 0367 F3       		.byte	0xf3
 9522 0368 01       		.uleb128 0x1
 9523 0369 52       		.byte	0x52
 9524 036a 9F       		.byte	0x9f
 9525 036b 00000000 		.4byte	0
 9526 036f 00000000 		.4byte	0
 9527              	.LLST17:
 9528 0373 00000000 		.4byte	.LVL56
 9529 0377 2E000000 		.4byte	.LVL62
 9530 037b 0100     		.2byte	0x1
 9531 037d 53       		.byte	0x53
 9532 037e 2E000000 		.4byte	.LVL62
 9533 0382 48010000 		.4byte	.LFE35
 9534 0386 0400     		.2byte	0x4
 9535 0388 F3       		.byte	0xf3
 9536 0389 01       		.uleb128 0x1
 9537 038a 53       		.byte	0x53
 9538 038b 9F       		.byte	0x9f
 9539 038c 00000000 		.4byte	0
ARM GAS  C:\Users\PC\AppData\Local\Temp\ccKVdNiW.s 			page 189


 9540 0390 00000000 		.4byte	0
 9541              	.LLST18:
 9542 0394 14000000 		.4byte	.LVL57
 9543 0398 72000000 		.4byte	.LVL68
 9544 039c 0100     		.2byte	0x1
 9545 039e 54       		.byte	0x54
 9546 039f 72000000 		.4byte	.LVL68
 9547 03a3 3C010000 		.4byte	.LVL83
 9548 03a7 0100     		.2byte	0x1
 9549 03a9 58       		.byte	0x58
 9550 03aa 00000000 		.4byte	0
 9551 03ae 00000000 		.4byte	0
 9552              	.LLST19:
 9553 03b2 14000000 		.4byte	.LVL57
 9554 03b6 72000000 		.4byte	.LVL68
 9555 03ba 0200     		.2byte	0x2
 9556 03bc 31       		.byte	0x31
 9557 03bd 9F       		.byte	0x9f
 9558 03be 72000000 		.4byte	.LVL68
 9559 03c2 48010000 		.4byte	.LFE35
 9560 03c6 0200     		.2byte	0x2
 9561 03c8 91       		.byte	0x91
 9562 03c9 4C       		.sleb128 -52
 9563 03ca 00000000 		.4byte	0
 9564 03ce 00000000 		.4byte	0
 9565              	.LLST20:
 9566 03d2 1E000000 		.4byte	.LVL58
 9567 03d6 72000000 		.4byte	.LVL68
 9568 03da 0200     		.2byte	0x2
 9569 03dc 30       		.byte	0x30
 9570 03dd 9F       		.byte	0x9f
 9571 03de 72000000 		.4byte	.LVL68
 9572 03e2 3C010000 		.4byte	.LVL84
 9573 03e6 0100     		.2byte	0x1
 9574 03e8 59       		.byte	0x59
 9575 03e9 00000000 		.4byte	0
 9576 03ed 00000000 		.4byte	0
 9577              	.LLST21:
 9578 03f1 00000000 		.4byte	.LVL85
 9579 03f5 36000000 		.4byte	.LVL92
 9580 03f9 0100     		.2byte	0x1
 9581 03fb 50       		.byte	0x50
 9582 03fc 36000000 		.4byte	.LVL92
 9583 0400 88010000 		.4byte	.LFE36
 9584 0404 0400     		.2byte	0x4
 9585 0406 F3       		.byte	0xf3
 9586 0407 01       		.uleb128 0x1
 9587 0408 50       		.byte	0x50
 9588 0409 9F       		.byte	0x9f
 9589 040a 00000000 		.4byte	0
 9590 040e 00000000 		.4byte	0
 9591              	.LLST22:
 9592 0412 00000000 		.4byte	.LVL85
 9593 0416 26000000 		.4byte	.LVL89
 9594 041a 0100     		.2byte	0x1
 9595 041c 51       		.byte	0x51
 9596 041d 26000000 		.4byte	.LVL89
ARM GAS  C:\Users\PC\AppData\Local\Temp\ccKVdNiW.s 			page 190


 9597 0421 88010000 		.4byte	.LFE36
 9598 0425 0400     		.2byte	0x4
 9599 0427 F3       		.byte	0xf3
 9600 0428 01       		.uleb128 0x1
 9601 0429 51       		.byte	0x51
 9602 042a 9F       		.byte	0x9f
 9603 042b 00000000 		.4byte	0
 9604 042f 00000000 		.4byte	0
 9605              	.LLST23:
 9606 0433 00000000 		.4byte	.LVL85
 9607 0437 36000000 		.4byte	.LVL92
 9608 043b 0100     		.2byte	0x1
 9609 043d 52       		.byte	0x52
 9610 043e 36000000 		.4byte	.LVL92
 9611 0442 88010000 		.4byte	.LFE36
 9612 0446 0400     		.2byte	0x4
 9613 0448 F3       		.byte	0xf3
 9614 0449 01       		.uleb128 0x1
 9615 044a 52       		.byte	0x52
 9616 044b 9F       		.byte	0x9f
 9617 044c 00000000 		.4byte	0
 9618 0450 00000000 		.4byte	0
 9619              	.LLST24:
 9620 0454 00000000 		.4byte	.LVL85
 9621 0458 16000000 		.4byte	.LVL86
 9622 045c 0100     		.2byte	0x1
 9623 045e 53       		.byte	0x53
 9624 045f 16000000 		.4byte	.LVL86
 9625 0463 88010000 		.4byte	.LFE36
 9626 0467 0400     		.2byte	0x4
 9627 0469 F3       		.byte	0xf3
 9628 046a 01       		.uleb128 0x1
 9629 046b 53       		.byte	0x53
 9630 046c 9F       		.byte	0x9f
 9631 046d 00000000 		.4byte	0
 9632 0471 00000000 		.4byte	0
 9633              	.LLST25:
 9634 0475 00000000 		.4byte	.LVL85
 9635 0479 16000000 		.4byte	.LVL86
 9636 047d 0200     		.2byte	0x2
 9637 047f 91       		.byte	0x91
 9638 0480 00       		.sleb128 0
 9639 0481 16000000 		.4byte	.LVL86
 9640 0485 18000000 		.4byte	.LVL87
 9641 0489 0200     		.2byte	0x2
 9642 048b 73       		.byte	0x73
 9643 048c 00       		.sleb128 0
 9644 048d 18000000 		.4byte	.LVL87
 9645 0491 88010000 		.4byte	.LFE36
 9646 0495 0200     		.2byte	0x2
 9647 0497 91       		.byte	0x91
 9648 0498 00       		.sleb128 0
 9649 0499 00000000 		.4byte	0
 9650 049d 00000000 		.4byte	0
 9651              	.LLST26:
 9652 04a1 20000000 		.4byte	.LVL88
 9653 04a5 4E000000 		.4byte	.LVL95
ARM GAS  C:\Users\PC\AppData\Local\Temp\ccKVdNiW.s 			page 191


 9654 04a9 0100     		.2byte	0x1
 9655 04ab 54       		.byte	0x54
 9656 04ac 50000000 		.4byte	.LVL96
 9657 04b0 64000000 		.4byte	.LVL100
 9658 04b4 0100     		.2byte	0x1
 9659 04b6 54       		.byte	0x54
 9660 04b7 66000000 		.4byte	.LVL101
 9661 04bb 7C010000 		.4byte	.LVL110
 9662 04bf 0100     		.2byte	0x1
 9663 04c1 54       		.byte	0x54
 9664 04c2 00000000 		.4byte	0
 9665 04c6 00000000 		.4byte	0
 9666              	.LLST27:
 9667 04ca 20000000 		.4byte	.LVL88
 9668 04ce 36000000 		.4byte	.LVL92
 9669 04d2 0200     		.2byte	0x2
 9670 04d4 31       		.byte	0x31
 9671 04d5 9F       		.byte	0x9f
 9672 04d6 36000000 		.4byte	.LVL92
 9673 04da 7C010000 		.4byte	.LVL114
 9674 04de 0100     		.2byte	0x1
 9675 04e0 5B       		.byte	0x5b
 9676 04e1 00000000 		.4byte	0
 9677 04e5 00000000 		.4byte	0
 9678              	.LLST28:
 9679 04e9 2A000000 		.4byte	.LVL90
 9680 04ed 7C010000 		.4byte	.LVL113
 9681 04f1 0100     		.2byte	0x1
 9682 04f3 59       		.byte	0x59
 9683 04f4 00000000 		.4byte	0
 9684 04f8 00000000 		.4byte	0
 9685              	.LLST29:
 9686 04fc 2A000000 		.4byte	.LVL90
 9687 0500 36000000 		.4byte	.LVL92
 9688 0504 0200     		.2byte	0x2
 9689 0506 30       		.byte	0x30
 9690 0507 9F       		.byte	0x9f
 9691 0508 36000000 		.4byte	.LVL92
 9692 050c 52000000 		.4byte	.LVL97
 9693 0510 0100     		.2byte	0x1
 9694 0512 57       		.byte	0x57
 9695 0513 58000000 		.4byte	.LVL98
 9696 0517 7C010000 		.4byte	.LVL111
 9697 051b 0100     		.2byte	0x1
 9698 051d 57       		.byte	0x57
 9699 051e 00000000 		.4byte	0
 9700 0522 00000000 		.4byte	0
 9701              	.LLST30:
 9702 0526 2E000000 		.4byte	.LVL91
 9703 052a 7C010000 		.4byte	.LVL112
 9704 052e 0100     		.2byte	0x1
 9705 0530 58       		.byte	0x58
 9706 0531 00000000 		.4byte	0
 9707 0535 00000000 		.4byte	0
 9708              	.LLST31:
 9709 0539 00000000 		.4byte	.LVL115
 9710 053d 2A000000 		.4byte	.LVL121
ARM GAS  C:\Users\PC\AppData\Local\Temp\ccKVdNiW.s 			page 192


 9711 0541 0100     		.2byte	0x1
 9712 0543 50       		.byte	0x50
 9713 0544 2A000000 		.4byte	.LVL121
 9714 0548 3C010000 		.4byte	.LFE38
 9715 054c 0400     		.2byte	0x4
 9716 054e F3       		.byte	0xf3
 9717 054f 01       		.uleb128 0x1
 9718 0550 50       		.byte	0x50
 9719 0551 9F       		.byte	0x9f
 9720 0552 00000000 		.4byte	0
 9721 0556 00000000 		.4byte	0
 9722              	.LLST32:
 9723 055a 00000000 		.4byte	.LVL115
 9724 055e 18000000 		.4byte	.LVL117
 9725 0562 0100     		.2byte	0x1
 9726 0564 51       		.byte	0x51
 9727 0565 18000000 		.4byte	.LVL117
 9728 0569 3C010000 		.4byte	.LFE38
 9729 056d 0400     		.2byte	0x4
 9730 056f F3       		.byte	0xf3
 9731 0570 01       		.uleb128 0x1
 9732 0571 51       		.byte	0x51
 9733 0572 9F       		.byte	0x9f
 9734 0573 00000000 		.4byte	0
 9735 0577 00000000 		.4byte	0
 9736              	.LLST33:
 9737 057b 00000000 		.4byte	.LVL115
 9738 057f 42000000 		.4byte	.LVL125
 9739 0583 0100     		.2byte	0x1
 9740 0585 52       		.byte	0x52
 9741 0586 42000000 		.4byte	.LVL125
 9742 058a 3C010000 		.4byte	.LFE38
 9743 058e 0400     		.2byte	0x4
 9744 0590 F3       		.byte	0xf3
 9745 0591 01       		.uleb128 0x1
 9746 0592 52       		.byte	0x52
 9747 0593 9F       		.byte	0x9f
 9748 0594 00000000 		.4byte	0
 9749 0598 00000000 		.4byte	0
 9750              	.LLST34:
 9751 059c 00000000 		.4byte	.LVL115
 9752 05a0 16000000 		.4byte	.LVL116
 9753 05a4 0100     		.2byte	0x1
 9754 05a6 53       		.byte	0x53
 9755 05a7 16000000 		.4byte	.LVL116
 9756 05ab 3C010000 		.4byte	.LFE38
 9757 05af 0400     		.2byte	0x4
 9758 05b1 F3       		.byte	0xf3
 9759 05b2 01       		.uleb128 0x1
 9760 05b3 53       		.byte	0x53
 9761 05b4 9F       		.byte	0x9f
 9762 05b5 00000000 		.4byte	0
 9763 05b9 00000000 		.4byte	0
 9764              	.LLST35:
 9765 05bd 00000000 		.4byte	.LVL115
 9766 05c1 16000000 		.4byte	.LVL116
 9767 05c5 0200     		.2byte	0x2
ARM GAS  C:\Users\PC\AppData\Local\Temp\ccKVdNiW.s 			page 193


 9768 05c7 91       		.byte	0x91
 9769 05c8 00       		.sleb128 0
 9770 05c9 16000000 		.4byte	.LVL116
 9771 05cd 1A000000 		.4byte	.LVL118
 9772 05d1 0200     		.2byte	0x2
 9773 05d3 73       		.byte	0x73
 9774 05d4 00       		.sleb128 0
 9775 05d5 1A000000 		.4byte	.LVL118
 9776 05d9 34000000 		.4byte	.LVL124
 9777 05dd 0200     		.2byte	0x2
 9778 05df 91       		.byte	0x91
 9779 05e0 00       		.sleb128 0
 9780 05e1 34000000 		.4byte	.LVL124
 9781 05e5 42000000 		.4byte	.LVL125
 9782 05e9 0100     		.2byte	0x1
 9783 05eb 53       		.byte	0x53
 9784 05ec 42000000 		.4byte	.LVL125
 9785 05f0 3C010000 		.4byte	.LFE38
 9786 05f4 0200     		.2byte	0x2
 9787 05f6 91       		.byte	0x91
 9788 05f7 50       		.sleb128 -48
 9789 05f8 00000000 		.4byte	0
 9790 05fc 00000000 		.4byte	0
 9791              	.LLST36:
 9792 0600 00000000 		.4byte	.LVL115
 9793 0604 16000000 		.4byte	.LVL116
 9794 0608 0200     		.2byte	0x2
 9795 060a 91       		.byte	0x91
 9796 060b 04       		.sleb128 4
 9797 060c 16000000 		.4byte	.LVL116
 9798 0610 1A000000 		.4byte	.LVL118
 9799 0614 0200     		.2byte	0x2
 9800 0616 73       		.byte	0x73
 9801 0617 04       		.sleb128 4
 9802 0618 1A000000 		.4byte	.LVL118
 9803 061c 1C000000 		.4byte	.LVL119
 9804 0620 0200     		.2byte	0x2
 9805 0622 73       		.byte	0x73
 9806 0623 00       		.sleb128 0
 9807 0624 1C000000 		.4byte	.LVL119
 9808 0628 3C010000 		.4byte	.LFE38
 9809 062c 0200     		.2byte	0x2
 9810 062e 91       		.byte	0x91
 9811 062f 04       		.sleb128 4
 9812 0630 00000000 		.4byte	0
 9813 0634 00000000 		.4byte	0
 9814              	.LLST37:
 9815 0638 24000000 		.4byte	.LVL120
 9816 063c 42000000 		.4byte	.LVL125
 9817 0640 0100     		.2byte	0x1
 9818 0642 54       		.byte	0x54
 9819 0643 42000000 		.4byte	.LVL125
 9820 0647 56000000 		.4byte	.LVL129
 9821 064b 0100     		.2byte	0x1
 9822 064d 55       		.byte	0x55
 9823 064e 58000000 		.4byte	.LVL130
 9824 0652 6C000000 		.4byte	.LVL133
ARM GAS  C:\Users\PC\AppData\Local\Temp\ccKVdNiW.s 			page 194


 9825 0656 0100     		.2byte	0x1
 9826 0658 55       		.byte	0x55
 9827 0659 6E000000 		.4byte	.LVL134
 9828 065d 30010000 		.4byte	.LVL145
 9829 0661 0100     		.2byte	0x1
 9830 0663 55       		.byte	0x55
 9831 0664 00000000 		.4byte	0
 9832 0668 00000000 		.4byte	0
 9833              	.LLST38:
 9834 066c 24000000 		.4byte	.LVL120
 9835 0670 42000000 		.4byte	.LVL125
 9836 0674 0200     		.2byte	0x2
 9837 0676 31       		.byte	0x31
 9838 0677 9F       		.byte	0x9f
 9839 0678 42000000 		.4byte	.LVL125
 9840 067c 30010000 		.4byte	.LVL149
 9841 0680 0100     		.2byte	0x1
 9842 0682 5A       		.byte	0x5a
 9843 0683 00000000 		.4byte	0
 9844 0687 00000000 		.4byte	0
 9845              	.LLST39:
 9846 068b 2E000000 		.4byte	.LVL122
 9847 068f 30010000 		.4byte	.LVL148
 9848 0693 0100     		.2byte	0x1
 9849 0695 59       		.byte	0x59
 9850 0696 00000000 		.4byte	0
 9851 069a 00000000 		.4byte	0
 9852              	.LLST40:
 9853 069e 2E000000 		.4byte	.LVL122
 9854 06a2 42000000 		.4byte	.LVL125
 9855 06a6 0200     		.2byte	0x2
 9856 06a8 30       		.byte	0x30
 9857 06a9 9F       		.byte	0x9f
 9858 06aa 42000000 		.4byte	.LVL125
 9859 06ae 60000000 		.4byte	.LVL131
 9860 06b2 0100     		.2byte	0x1
 9861 06b4 57       		.byte	0x57
 9862 06b5 60000000 		.4byte	.LVL131
 9863 06b9 2A010000 		.4byte	.LVL143
 9864 06bd 0100     		.2byte	0x1
 9865 06bf 54       		.byte	0x54
 9866 06c0 2A010000 		.4byte	.LVL143
 9867 06c4 30010000 		.4byte	.LVL147
 9868 06c8 0100     		.2byte	0x1
 9869 06ca 57       		.byte	0x57
 9870 06cb 00000000 		.4byte	0
 9871 06cf 00000000 		.4byte	0
 9872              	.LLST41:
 9873 06d3 30000000 		.4byte	.LVL123
 9874 06d7 48000000 		.4byte	.LVL126
 9875 06db 0100     		.2byte	0x1
 9876 06dd 56       		.byte	0x56
 9877 06de 4A000000 		.4byte	.LVL127
 9878 06e2 30010000 		.4byte	.LVL146
 9879 06e6 0100     		.2byte	0x1
 9880 06e8 56       		.byte	0x56
 9881 06e9 00000000 		.4byte	0
ARM GAS  C:\Users\PC\AppData\Local\Temp\ccKVdNiW.s 			page 195


 9882 06ed 00000000 		.4byte	0
 9883              	.LLST42:
 9884 06f1 30000000 		.4byte	.LVL123
 9885 06f5 42000000 		.4byte	.LVL125
 9886 06f9 0200     		.2byte	0x2
 9887 06fb 30       		.byte	0x30
 9888 06fc 9F       		.byte	0x9f
 9889 06fd 42000000 		.4byte	.LVL125
 9890 0701 02010000 		.4byte	.LVL138
 9891 0705 0100     		.2byte	0x1
 9892 0707 57       		.byte	0x57
 9893 0708 26010000 		.4byte	.LVL141
 9894 070c 28010000 		.4byte	.LVL142
 9895 0710 0100     		.2byte	0x1
 9896 0712 57       		.byte	0x57
 9897 0713 2A010000 		.4byte	.LVL143
 9898 0717 30010000 		.4byte	.LVL147
 9899 071b 0100     		.2byte	0x1
 9900 071d 57       		.byte	0x57
 9901 071e 00000000 		.4byte	0
 9902 0722 00000000 		.4byte	0
 9903              	.LLST43:
 9904 0726 30000000 		.4byte	.LVL123
 9905 072a 42000000 		.4byte	.LVL125
 9906 072e 0100     		.2byte	0x1
 9907 0730 56       		.byte	0x56
 9908 0731 42000000 		.4byte	.LVL125
 9909 0735 24010000 		.4byte	.LVL140
 9910 0739 0200     		.2byte	0x2
 9911 073b 7D       		.byte	0x7d
 9912 073c 00       		.sleb128 0
 9913 073d 26010000 		.4byte	.LVL141
 9914 0741 28010000 		.4byte	.LVL142
 9915 0745 0200     		.2byte	0x2
 9916 0747 7D       		.byte	0x7d
 9917 0748 00       		.sleb128 0
 9918 0749 2A010000 		.4byte	.LVL143
 9919 074d 30010000 		.4byte	.LVL144
 9920 0751 0200     		.2byte	0x2
 9921 0753 7D       		.byte	0x7d
 9922 0754 00       		.sleb128 0
 9923 0755 30010000 		.4byte	.LVL144
 9924 0759 3C010000 		.4byte	.LFE38
 9925 075d 0200     		.2byte	0x2
 9926 075f 91       		.byte	0x91
 9927 0760 40       		.sleb128 -64
 9928 0761 00000000 		.4byte	0
 9929 0765 00000000 		.4byte	0
 9930              	.LLST44:
 9931 0769 00000000 		.4byte	.LVL150
 9932 076d 1C000000 		.4byte	.LVL154
 9933 0771 0100     		.2byte	0x1
 9934 0773 50       		.byte	0x50
 9935 0774 1C000000 		.4byte	.LVL154
 9936 0778 36000000 		.4byte	.LFE37
 9937 077c 0400     		.2byte	0x4
 9938 077e F3       		.byte	0xf3
ARM GAS  C:\Users\PC\AppData\Local\Temp\ccKVdNiW.s 			page 196


 9939 077f 01       		.uleb128 0x1
 9940 0780 50       		.byte	0x50
 9941 0781 9F       		.byte	0x9f
 9942 0782 00000000 		.4byte	0
 9943 0786 00000000 		.4byte	0
 9944              	.LLST45:
 9945 078a 00000000 		.4byte	.LVL150
 9946 078e 0E000000 		.4byte	.LVL151
 9947 0792 0100     		.2byte	0x1
 9948 0794 51       		.byte	0x51
 9949 0795 0E000000 		.4byte	.LVL151
 9950 0799 36000000 		.4byte	.LFE37
 9951 079d 0400     		.2byte	0x4
 9952 079f F3       		.byte	0xf3
 9953 07a0 01       		.uleb128 0x1
 9954 07a1 51       		.byte	0x51
 9955 07a2 9F       		.byte	0x9f
 9956 07a3 00000000 		.4byte	0
 9957 07a7 00000000 		.4byte	0
 9958              	.LLST46:
 9959 07ab 00000000 		.4byte	.LVL150
 9960 07af 12000000 		.4byte	.LVL153
 9961 07b3 0100     		.2byte	0x1
 9962 07b5 52       		.byte	0x52
 9963 07b6 12000000 		.4byte	.LVL153
 9964 07ba 36000000 		.4byte	.LFE37
 9965 07be 0400     		.2byte	0x4
 9966 07c0 F3       		.byte	0xf3
 9967 07c1 01       		.uleb128 0x1
 9968 07c2 52       		.byte	0x52
 9969 07c3 9F       		.byte	0x9f
 9970 07c4 00000000 		.4byte	0
 9971 07c8 00000000 		.4byte	0
 9972              	.LLST47:
 9973 07cc 00000000 		.4byte	.LVL150
 9974 07d0 10000000 		.4byte	.LVL152
 9975 07d4 0100     		.2byte	0x1
 9976 07d6 53       		.byte	0x53
 9977 07d7 10000000 		.4byte	.LVL152
 9978 07db 36000000 		.4byte	.LFE37
 9979 07df 0400     		.2byte	0x4
 9980 07e1 F3       		.byte	0xf3
 9981 07e2 01       		.uleb128 0x1
 9982 07e3 53       		.byte	0x53
 9983 07e4 9F       		.byte	0x9f
 9984 07e5 00000000 		.4byte	0
 9985 07e9 00000000 		.4byte	0
 9986              	.LLST48:
 9987 07ed 00000000 		.4byte	.LVL157
 9988 07f1 18000000 		.4byte	.LVL162
 9989 07f5 0100     		.2byte	0x1
 9990 07f7 50       		.byte	0x50
 9991 07f8 18000000 		.4byte	.LVL162
 9992 07fc 4E000000 		.4byte	.LFE39
 9993 0800 0400     		.2byte	0x4
 9994 0802 F3       		.byte	0xf3
 9995 0803 01       		.uleb128 0x1
ARM GAS  C:\Users\PC\AppData\Local\Temp\ccKVdNiW.s 			page 197


 9996 0804 50       		.byte	0x50
 9997 0805 9F       		.byte	0x9f
 9998 0806 00000000 		.4byte	0
 9999 080a 00000000 		.4byte	0
 10000              	.LLST49:
 10001 080e 00000000 		.4byte	.LVL157
 10002 0812 16000000 		.4byte	.LVL161
 10003 0816 0100     		.2byte	0x1
 10004 0818 51       		.byte	0x51
 10005 0819 16000000 		.4byte	.LVL161
 10006 081d 4E000000 		.4byte	.LFE39
 10007 0821 0400     		.2byte	0x4
 10008 0823 F3       		.byte	0xf3
 10009 0824 01       		.uleb128 0x1
 10010 0825 51       		.byte	0x51
 10011 0826 9F       		.byte	0x9f
 10012 0827 00000000 		.4byte	0
 10013 082b 00000000 		.4byte	0
 10014              	.LLST50:
 10015 082f 00000000 		.4byte	.LVL157
 10016 0833 14000000 		.4byte	.LVL160
 10017 0837 0100     		.2byte	0x1
 10018 0839 52       		.byte	0x52
 10019 083a 14000000 		.4byte	.LVL160
 10020 083e 4E000000 		.4byte	.LFE39
 10021 0842 0400     		.2byte	0x4
 10022 0844 F3       		.byte	0xf3
 10023 0845 01       		.uleb128 0x1
 10024 0846 52       		.byte	0x52
 10025 0847 9F       		.byte	0x9f
 10026 0848 00000000 		.4byte	0
 10027 084c 00000000 		.4byte	0
 10028              	.LLST51:
 10029 0850 00000000 		.4byte	.LVL157
 10030 0854 0E000000 		.4byte	.LVL158
 10031 0858 0100     		.2byte	0x1
 10032 085a 53       		.byte	0x53
 10033 085b 0E000000 		.4byte	.LVL158
 10034 085f 4E000000 		.4byte	.LFE39
 10035 0863 0400     		.2byte	0x4
 10036 0865 F3       		.byte	0xf3
 10037 0866 01       		.uleb128 0x1
 10038 0867 53       		.byte	0x53
 10039 0868 9F       		.byte	0x9f
 10040 0869 00000000 		.4byte	0
 10041 086d 00000000 		.4byte	0
 10042              	.LLST52:
 10043 0871 00000000 		.4byte	.LVL157
 10044 0875 0E000000 		.4byte	.LVL158
 10045 0879 0200     		.2byte	0x2
 10046 087b 91       		.byte	0x91
 10047 087c 00       		.sleb128 0
 10048 087d 0E000000 		.4byte	.LVL158
 10049 0881 10000000 		.4byte	.LVL159
 10050 0885 0200     		.2byte	0x2
 10051 0887 73       		.byte	0x73
 10052 0888 00       		.sleb128 0
ARM GAS  C:\Users\PC\AppData\Local\Temp\ccKVdNiW.s 			page 198


 10053 0889 10000000 		.4byte	.LVL159
 10054 088d 4E000000 		.4byte	.LFE39
 10055 0891 0200     		.2byte	0x2
 10056 0893 91       		.byte	0x91
 10057 0894 00       		.sleb128 0
 10058 0895 00000000 		.4byte	0
 10059 0899 00000000 		.4byte	0
 10060              	.LLST53:
 10061 089d 00000000 		.4byte	.LVL167
 10062 08a1 44000000 		.4byte	.LVL175
 10063 08a5 0100     		.2byte	0x1
 10064 08a7 50       		.byte	0x50
 10065 08a8 44000000 		.4byte	.LVL175
 10066 08ac 1E010000 		.4byte	.LFE40
 10067 08b0 0400     		.2byte	0x4
 10068 08b2 F3       		.byte	0xf3
 10069 08b3 01       		.uleb128 0x1
 10070 08b4 50       		.byte	0x50
 10071 08b5 9F       		.byte	0x9f
 10072 08b6 00000000 		.4byte	0
 10073 08ba 00000000 		.4byte	0
 10074              	.LLST54:
 10075 08be 00000000 		.4byte	.LVL167
 10076 08c2 16000000 		.4byte	.LVL168
 10077 08c6 0100     		.2byte	0x1
 10078 08c8 51       		.byte	0x51
 10079 08c9 16000000 		.4byte	.LVL168
 10080 08cd 1E010000 		.4byte	.LFE40
 10081 08d1 0400     		.2byte	0x4
 10082 08d3 F3       		.byte	0xf3
 10083 08d4 01       		.uleb128 0x1
 10084 08d5 51       		.byte	0x51
 10085 08d6 9F       		.byte	0x9f
 10086 08d7 00000000 		.4byte	0
 10087 08db 00000000 		.4byte	0
 10088              	.LLST55:
 10089 08df 00000000 		.4byte	.LVL167
 10090 08e3 30000000 		.4byte	.LVL172
 10091 08e7 0100     		.2byte	0x1
 10092 08e9 52       		.byte	0x52
 10093 08ea 30000000 		.4byte	.LVL172
 10094 08ee 1E010000 		.4byte	.LFE40
 10095 08f2 0400     		.2byte	0x4
 10096 08f4 F3       		.byte	0xf3
 10097 08f5 01       		.uleb128 0x1
 10098 08f6 52       		.byte	0x52
 10099 08f7 9F       		.byte	0x9f
 10100 08f8 00000000 		.4byte	0
 10101 08fc 00000000 		.4byte	0
 10102              	.LLST56:
 10103 0900 00000000 		.4byte	.LVL167
 10104 0904 1A000000 		.4byte	.LVL169
 10105 0908 0100     		.2byte	0x1
 10106 090a 53       		.byte	0x53
 10107 090b 1A000000 		.4byte	.LVL169
 10108 090f 1E010000 		.4byte	.LFE40
 10109 0913 0400     		.2byte	0x4
ARM GAS  C:\Users\PC\AppData\Local\Temp\ccKVdNiW.s 			page 199


 10110 0915 F3       		.byte	0xf3
 10111 0916 01       		.uleb128 0x1
 10112 0917 53       		.byte	0x53
 10113 0918 9F       		.byte	0x9f
 10114 0919 00000000 		.4byte	0
 10115 091d 00000000 		.4byte	0
 10116              	.LLST57:
 10117 0921 00000000 		.4byte	.LVL167
 10118 0925 1A000000 		.4byte	.LVL169
 10119 0929 0200     		.2byte	0x2
 10120 092b 91       		.byte	0x91
 10121 092c 00       		.sleb128 0
 10122 092d 1A000000 		.4byte	.LVL169
 10123 0931 1E000000 		.4byte	.LVL170
 10124 0935 0200     		.2byte	0x2
 10125 0937 73       		.byte	0x73
 10126 0938 00       		.sleb128 0
 10127 0939 1E000000 		.4byte	.LVL170
 10128 093d 36000000 		.4byte	.LVL173
 10129 0941 0200     		.2byte	0x2
 10130 0943 91       		.byte	0x91
 10131 0944 00       		.sleb128 0
 10132 0945 36000000 		.4byte	.LVL173
 10133 0949 12010000 		.4byte	.LVL184
 10134 094d 0100     		.2byte	0x1
 10135 094f 56       		.byte	0x56
 10136 0950 00000000 		.4byte	0
 10137 0954 00000000 		.4byte	0
 10138              	.LLST58:
 10139 0958 00000000 		.4byte	.LVL167
 10140 095c 1A000000 		.4byte	.LVL169
 10141 0960 0200     		.2byte	0x2
 10142 0962 91       		.byte	0x91
 10143 0963 04       		.sleb128 4
 10144 0964 1A000000 		.4byte	.LVL169
 10145 0968 1E000000 		.4byte	.LVL170
 10146 096c 0200     		.2byte	0x2
 10147 096e 73       		.byte	0x73
 10148 096f 04       		.sleb128 4
 10149 0970 1E000000 		.4byte	.LVL170
 10150 0974 20000000 		.4byte	.LVL171
 10151 0978 0200     		.2byte	0x2
 10152 097a 73       		.byte	0x73
 10153 097b 00       		.sleb128 0
 10154 097c 20000000 		.4byte	.LVL171
 10155 0980 1E010000 		.4byte	.LFE40
 10156 0984 0200     		.2byte	0x2
 10157 0986 91       		.byte	0x91
 10158 0987 04       		.sleb128 4
 10159 0988 00000000 		.4byte	0
 10160 098c 00000000 		.4byte	0
 10161              	.LLST59:
 10162 0990 30000000 		.4byte	.LVL172
 10163 0994 3C000000 		.4byte	.LVL174
 10164 0998 0100     		.2byte	0x1
 10165 099a 52       		.byte	0x52
 10166 099b 00000000 		.4byte	0
ARM GAS  C:\Users\PC\AppData\Local\Temp\ccKVdNiW.s 			page 200


 10167 099f 00000000 		.4byte	0
 10168              	.LLST60:
 10169 09a3 00000000 		.4byte	.LVL185
 10170 09a7 3A000000 		.4byte	.LVL193
 10171 09ab 0100     		.2byte	0x1
 10172 09ad 50       		.byte	0x50
 10173 09ae 3A000000 		.4byte	.LVL193
 10174 09b2 8A000000 		.4byte	.LFE41
 10175 09b6 0400     		.2byte	0x4
 10176 09b8 F3       		.byte	0xf3
 10177 09b9 01       		.uleb128 0x1
 10178 09ba 50       		.byte	0x50
 10179 09bb 9F       		.byte	0x9f
 10180 09bc 00000000 		.4byte	0
 10181 09c0 00000000 		.4byte	0
 10182              	.LLST61:
 10183 09c4 00000000 		.4byte	.LVL185
 10184 09c8 42000000 		.4byte	.LVL194
 10185 09cc 0100     		.2byte	0x1
 10186 09ce 51       		.byte	0x51
 10187 09cf 42000000 		.4byte	.LVL194
 10188 09d3 8A000000 		.4byte	.LFE41
 10189 09d7 0400     		.2byte	0x4
 10190 09d9 F3       		.byte	0xf3
 10191 09da 01       		.uleb128 0x1
 10192 09db 51       		.byte	0x51
 10193 09dc 9F       		.byte	0x9f
 10194 09dd 00000000 		.4byte	0
 10195 09e1 00000000 		.4byte	0
 10196              	.LLST62:
 10197 09e5 00000000 		.4byte	.LVL185
 10198 09e9 2A000000 		.4byte	.LVL189
 10199 09ed 0100     		.2byte	0x1
 10200 09ef 52       		.byte	0x52
 10201 09f0 2A000000 		.4byte	.LVL189
 10202 09f4 8A000000 		.4byte	.LFE41
 10203 09f8 0400     		.2byte	0x4
 10204 09fa F3       		.byte	0xf3
 10205 09fb 01       		.uleb128 0x1
 10206 09fc 52       		.byte	0x52
 10207 09fd 9F       		.byte	0x9f
 10208 09fe 00000000 		.4byte	0
 10209 0a02 00000000 		.4byte	0
 10210              	.LLST63:
 10211 0a06 00000000 		.4byte	.LVL185
 10212 0a0a 14000000 		.4byte	.LVL186
 10213 0a0e 0100     		.2byte	0x1
 10214 0a10 53       		.byte	0x53
 10215 0a11 14000000 		.4byte	.LVL186
 10216 0a15 8A000000 		.4byte	.LFE41
 10217 0a19 0400     		.2byte	0x4
 10218 0a1b F3       		.byte	0xf3
 10219 0a1c 01       		.uleb128 0x1
 10220 0a1d 53       		.byte	0x53
 10221 0a1e 9F       		.byte	0x9f
 10222 0a1f 00000000 		.4byte	0
 10223 0a23 00000000 		.4byte	0
ARM GAS  C:\Users\PC\AppData\Local\Temp\ccKVdNiW.s 			page 201


 10224              	.LLST64:
 10225 0a27 00000000 		.4byte	.LVL185
 10226 0a2b 14000000 		.4byte	.LVL186
 10227 0a2f 0200     		.2byte	0x2
 10228 0a31 91       		.byte	0x91
 10229 0a32 00       		.sleb128 0
 10230 0a33 14000000 		.4byte	.LVL186
 10231 0a37 18000000 		.4byte	.LVL187
 10232 0a3b 0200     		.2byte	0x2
 10233 0a3d 73       		.byte	0x73
 10234 0a3e 00       		.sleb128 0
 10235 0a3f 18000000 		.4byte	.LVL187
 10236 0a43 30000000 		.4byte	.LVL190
 10237 0a47 0200     		.2byte	0x2
 10238 0a49 91       		.byte	0x91
 10239 0a4a 00       		.sleb128 0
 10240 0a4b 30000000 		.4byte	.LVL190
 10241 0a4f 82000000 		.4byte	.LVL198
 10242 0a53 0100     		.2byte	0x1
 10243 0a55 57       		.byte	0x57
 10244 0a56 00000000 		.4byte	0
 10245 0a5a 00000000 		.4byte	0
 10246              	.LLST65:
 10247 0a5e 00000000 		.4byte	.LVL185
 10248 0a62 14000000 		.4byte	.LVL186
 10249 0a66 0200     		.2byte	0x2
 10250 0a68 91       		.byte	0x91
 10251 0a69 04       		.sleb128 4
 10252 0a6a 14000000 		.4byte	.LVL186
 10253 0a6e 18000000 		.4byte	.LVL187
 10254 0a72 0200     		.2byte	0x2
 10255 0a74 73       		.byte	0x73
 10256 0a75 04       		.sleb128 4
 10257 0a76 18000000 		.4byte	.LVL187
 10258 0a7a 1A000000 		.4byte	.LVL188
 10259 0a7e 0200     		.2byte	0x2
 10260 0a80 73       		.byte	0x73
 10261 0a81 00       		.sleb128 0
 10262 0a82 1A000000 		.4byte	.LVL188
 10263 0a86 8A000000 		.4byte	.LFE41
 10264 0a8a 0200     		.2byte	0x2
 10265 0a8c 91       		.byte	0x91
 10266 0a8d 04       		.sleb128 4
 10267 0a8e 00000000 		.4byte	0
 10268 0a92 00000000 		.4byte	0
 10269              	.LLST66:
 10270 0a96 2A000000 		.4byte	.LVL189
 10271 0a9a 32000000 		.4byte	.LVL191
 10272 0a9e 0100     		.2byte	0x1
 10273 0aa0 52       		.byte	0x52
 10274 0aa1 32000000 		.4byte	.LVL191
 10275 0aa5 36000000 		.4byte	.LVL192
 10276 0aa9 0100     		.2byte	0x1
 10277 0aab 53       		.byte	0x53
 10278 0aac 00000000 		.4byte	0
 10279 0ab0 00000000 		.4byte	0
 10280              	.LLST67:
ARM GAS  C:\Users\PC\AppData\Local\Temp\ccKVdNiW.s 			page 202


 10281 0ab4 00000000 		.4byte	.LVL199
 10282 0ab8 1F000000 		.4byte	.LVL204-1
 10283 0abc 0100     		.2byte	0x1
 10284 0abe 50       		.byte	0x50
 10285 0abf 1F000000 		.4byte	.LVL204-1
 10286 0ac3 40000000 		.4byte	.LFE42
 10287 0ac7 0400     		.2byte	0x4
 10288 0ac9 F3       		.byte	0xf3
 10289 0aca 01       		.uleb128 0x1
 10290 0acb 50       		.byte	0x50
 10291 0acc 9F       		.byte	0x9f
 10292 0acd 00000000 		.4byte	0
 10293 0ad1 00000000 		.4byte	0
 10294              	.LLST68:
 10295 0ad5 00000000 		.4byte	.LVL199
 10296 0ad9 1F000000 		.4byte	.LVL204-1
 10297 0add 0100     		.2byte	0x1
 10298 0adf 51       		.byte	0x51
 10299 0ae0 1F000000 		.4byte	.LVL204-1
 10300 0ae4 40000000 		.4byte	.LFE42
 10301 0ae8 0400     		.2byte	0x4
 10302 0aea F3       		.byte	0xf3
 10303 0aeb 01       		.uleb128 0x1
 10304 0aec 51       		.byte	0x51
 10305 0aed 9F       		.byte	0x9f
 10306 0aee 00000000 		.4byte	0
 10307 0af2 00000000 		.4byte	0
 10308              	.LLST69:
 10309 0af6 00000000 		.4byte	.LVL199
 10310 0afa 1F000000 		.4byte	.LVL204-1
 10311 0afe 0100     		.2byte	0x1
 10312 0b00 52       		.byte	0x52
 10313 0b01 1F000000 		.4byte	.LVL204-1
 10314 0b05 40000000 		.4byte	.LFE42
 10315 0b09 0400     		.2byte	0x4
 10316 0b0b F3       		.byte	0xf3
 10317 0b0c 01       		.uleb128 0x1
 10318 0b0d 52       		.byte	0x52
 10319 0b0e 9F       		.byte	0x9f
 10320 0b0f 00000000 		.4byte	0
 10321 0b13 00000000 		.4byte	0
 10322              	.LLST70:
 10323 0b17 00000000 		.4byte	.LVL199
 10324 0b1b 0E000000 		.4byte	.LVL200
 10325 0b1f 0100     		.2byte	0x1
 10326 0b21 53       		.byte	0x53
 10327 0b22 0E000000 		.4byte	.LVL200
 10328 0b26 40000000 		.4byte	.LFE42
 10329 0b2a 0400     		.2byte	0x4
 10330 0b2c F3       		.byte	0xf3
 10331 0b2d 01       		.uleb128 0x1
 10332 0b2e 53       		.byte	0x53
 10333 0b2f 9F       		.byte	0x9f
 10334 0b30 00000000 		.4byte	0
 10335 0b34 00000000 		.4byte	0
 10336              	.LLST71:
 10337 0b38 00000000 		.4byte	.LVL199
ARM GAS  C:\Users\PC\AppData\Local\Temp\ccKVdNiW.s 			page 203


 10338 0b3c 0E000000 		.4byte	.LVL200
 10339 0b40 0200     		.2byte	0x2
 10340 0b42 91       		.byte	0x91
 10341 0b43 00       		.sleb128 0
 10342 0b44 0E000000 		.4byte	.LVL200
 10343 0b48 12000000 		.4byte	.LVL201
 10344 0b4c 0200     		.2byte	0x2
 10345 0b4e 73       		.byte	0x73
 10346 0b4f 00       		.sleb128 0
 10347 0b50 12000000 		.4byte	.LVL201
 10348 0b54 40000000 		.4byte	.LFE42
 10349 0b58 0200     		.2byte	0x2
 10350 0b5a 91       		.byte	0x91
 10351 0b5b 00       		.sleb128 0
 10352 0b5c 00000000 		.4byte	0
 10353 0b60 00000000 		.4byte	0
 10354              	.LLST72:
 10355 0b64 00000000 		.4byte	.LVL199
 10356 0b68 0E000000 		.4byte	.LVL200
 10357 0b6c 0200     		.2byte	0x2
 10358 0b6e 91       		.byte	0x91
 10359 0b6f 04       		.sleb128 4
 10360 0b70 0E000000 		.4byte	.LVL200
 10361 0b74 12000000 		.4byte	.LVL201
 10362 0b78 0200     		.2byte	0x2
 10363 0b7a 73       		.byte	0x73
 10364 0b7b 04       		.sleb128 4
 10365 0b7c 12000000 		.4byte	.LVL201
 10366 0b80 16000000 		.4byte	.LVL202
 10367 0b84 0200     		.2byte	0x2
 10368 0b86 73       		.byte	0x73
 10369 0b87 00       		.sleb128 0
 10370 0b88 16000000 		.4byte	.LVL202
 10371 0b8c 40000000 		.4byte	.LFE42
 10372 0b90 0200     		.2byte	0x2
 10373 0b92 91       		.byte	0x91
 10374 0b93 04       		.sleb128 4
 10375 0b94 00000000 		.4byte	0
 10376 0b98 00000000 		.4byte	0
 10377              	.LLST73:
 10378 0b9c 00000000 		.4byte	.LVL199
 10379 0ba0 0E000000 		.4byte	.LVL200
 10380 0ba4 0200     		.2byte	0x2
 10381 0ba6 91       		.byte	0x91
 10382 0ba7 08       		.sleb128 8
 10383 0ba8 0E000000 		.4byte	.LVL200
 10384 0bac 12000000 		.4byte	.LVL201
 10385 0bb0 0200     		.2byte	0x2
 10386 0bb2 73       		.byte	0x73
 10387 0bb3 08       		.sleb128 8
 10388 0bb4 12000000 		.4byte	.LVL201
 10389 0bb8 16000000 		.4byte	.LVL202
 10390 0bbc 0200     		.2byte	0x2
 10391 0bbe 91       		.byte	0x91
 10392 0bbf 08       		.sleb128 8
 10393 0bc0 16000000 		.4byte	.LVL202
 10394 0bc4 1C000000 		.4byte	.LVL203
ARM GAS  C:\Users\PC\AppData\Local\Temp\ccKVdNiW.s 			page 204


 10395 0bc8 0200     		.2byte	0x2
 10396 0bca 73       		.byte	0x73
 10397 0bcb 00       		.sleb128 0
 10398 0bcc 1C000000 		.4byte	.LVL203
 10399 0bd0 40000000 		.4byte	.LFE42
 10400 0bd4 0200     		.2byte	0x2
 10401 0bd6 91       		.byte	0x91
 10402 0bd7 08       		.sleb128 8
 10403 0bd8 00000000 		.4byte	0
 10404 0bdc 00000000 		.4byte	0
 10405              	.LLST74:
 10406 0be0 00000000 		.4byte	.LVL207
 10407 0be4 12000000 		.4byte	.LVL208
 10408 0be8 0100     		.2byte	0x1
 10409 0bea 50       		.byte	0x50
 10410 0beb 12000000 		.4byte	.LVL208
 10411 0bef 38000000 		.4byte	.LVL213
 10412 0bf3 0400     		.2byte	0x4
 10413 0bf5 F3       		.byte	0xf3
 10414 0bf6 01       		.uleb128 0x1
 10415 0bf7 50       		.byte	0x50
 10416 0bf8 9F       		.byte	0x9f
 10417 0bf9 38000000 		.4byte	.LVL213
 10418 0bfd 5A000000 		.4byte	.LVL219
 10419 0c01 0100     		.2byte	0x1
 10420 0c03 56       		.byte	0x56
 10421 0c04 5C000000 		.4byte	.LVL220
 10422 0c08 7A000000 		.4byte	.LVL225
 10423 0c0c 0100     		.2byte	0x1
 10424 0c0e 56       		.byte	0x56
 10425 0c0f 7A000000 		.4byte	.LVL225
 10426 0c13 7C000000 		.4byte	.LVL226
 10427 0c17 0100     		.2byte	0x1
 10428 0c19 50       		.byte	0x50
 10429 0c1a 7C000000 		.4byte	.LVL226
 10430 0c1e 7E000000 		.4byte	.LVL227
 10431 0c22 0100     		.2byte	0x1
 10432 0c24 56       		.byte	0x56
 10433 0c25 A6000000 		.4byte	.LVL233
 10434 0c29 FA000000 		.4byte	.LVL245
 10435 0c2d 0100     		.2byte	0x1
 10436 0c2f 56       		.byte	0x56
 10437 0c30 00000000 		.4byte	0
 10438 0c34 00000000 		.4byte	0
 10439              	.LLST75:
 10440 0c38 00000000 		.4byte	.LVL207
 10441 0c3c 38000000 		.4byte	.LVL213
 10442 0c40 0100     		.2byte	0x1
 10443 0c42 51       		.byte	0x51
 10444 0c43 38000000 		.4byte	.LVL213
 10445 0c47 54000000 		.4byte	.LVL217
 10446 0c4b 0200     		.2byte	0x2
 10447 0c4d 91       		.byte	0x91
 10448 0c4e 50       		.sleb128 -48
 10449 0c4f 5C000000 		.4byte	.LVL220
 10450 0c53 B4010000 		.4byte	.LFE43
 10451 0c57 0200     		.2byte	0x2
ARM GAS  C:\Users\PC\AppData\Local\Temp\ccKVdNiW.s 			page 205


 10452 0c59 91       		.byte	0x91
 10453 0c5a 50       		.sleb128 -48
 10454 0c5b 00000000 		.4byte	0
 10455 0c5f 00000000 		.4byte	0
 10456              	.LLST76:
 10457 0c63 00000000 		.4byte	.LVL207
 10458 0c67 38000000 		.4byte	.LVL213
 10459 0c6b 0100     		.2byte	0x1
 10460 0c6d 52       		.byte	0x52
 10461 0c6e 38000000 		.4byte	.LVL213
 10462 0c72 48000000 		.4byte	.LVL215
 10463 0c76 0300     		.2byte	0x3
 10464 0c78 91       		.byte	0x91
 10465 0c79 BC7F     		.sleb128 -68
 10466 0c7b 4A000000 		.4byte	.LVL216
 10467 0c7f B4010000 		.4byte	.LFE43
 10468 0c83 0300     		.2byte	0x3
 10469 0c85 91       		.byte	0x91
 10470 0c86 BC7F     		.sleb128 -68
 10471 0c88 00000000 		.4byte	0
 10472 0c8c 00000000 		.4byte	0
 10473              	.LLST77:
 10474 0c90 00000000 		.4byte	.LVL207
 10475 0c94 1C000000 		.4byte	.LVL209
 10476 0c98 0100     		.2byte	0x1
 10477 0c9a 53       		.byte	0x53
 10478 0c9b 1C000000 		.4byte	.LVL209
 10479 0c9f 38000000 		.4byte	.LVL213
 10480 0ca3 0400     		.2byte	0x4
 10481 0ca5 F3       		.byte	0xf3
 10482 0ca6 01       		.uleb128 0x1
 10483 0ca7 53       		.byte	0x53
 10484 0ca8 9F       		.byte	0x9f
 10485 0ca9 38000000 		.4byte	.LVL213
 10486 0cad 42000000 		.4byte	.LVL214
 10487 0cb1 0200     		.2byte	0x2
 10488 0cb3 91       		.byte	0x91
 10489 0cb4 4C       		.sleb128 -52
 10490 0cb5 4A000000 		.4byte	.LVL216
 10491 0cb9 56000000 		.4byte	.LVL218
 10492 0cbd 0200     		.2byte	0x2
 10493 0cbf 91       		.byte	0x91
 10494 0cc0 4C       		.sleb128 -52
 10495 0cc1 5C000000 		.4byte	.LVL220
 10496 0cc5 B4010000 		.4byte	.LFE43
 10497 0cc9 0200     		.2byte	0x2
 10498 0ccb 91       		.byte	0x91
 10499 0ccc 4C       		.sleb128 -52
 10500 0ccd 00000000 		.4byte	0
 10501 0cd1 00000000 		.4byte	0
 10502              	.LLST78:
 10503 0cd5 00000000 		.4byte	.LVL207
 10504 0cd9 1C000000 		.4byte	.LVL209
 10505 0cdd 0200     		.2byte	0x2
 10506 0cdf 91       		.byte	0x91
 10507 0ce0 00       		.sleb128 0
 10508 0ce1 1C000000 		.4byte	.LVL209
ARM GAS  C:\Users\PC\AppData\Local\Temp\ccKVdNiW.s 			page 206


 10509 0ce5 20000000 		.4byte	.LVL210
 10510 0ce9 0200     		.2byte	0x2
 10511 0ceb 73       		.byte	0x73
 10512 0cec 00       		.sleb128 0
 10513 0ced 20000000 		.4byte	.LVL210
 10514 0cf1 4A000000 		.4byte	.LVL216
 10515 0cf5 0200     		.2byte	0x2
 10516 0cf7 91       		.byte	0x91
 10517 0cf8 00       		.sleb128 0
 10518 0cf9 4A000000 		.4byte	.LVL216
 10519 0cfd C8000000 		.4byte	.LVL238
 10520 0d01 0100     		.2byte	0x1
 10521 0d03 57       		.byte	0x57
 10522 0d04 00000000 		.4byte	0
 10523 0d08 00000000 		.4byte	0
 10524              	.LLST79:
 10525 0d0c 00000000 		.4byte	.LVL207
 10526 0d10 1C000000 		.4byte	.LVL209
 10527 0d14 0200     		.2byte	0x2
 10528 0d16 91       		.byte	0x91
 10529 0d17 04       		.sleb128 4
 10530 0d18 1C000000 		.4byte	.LVL209
 10531 0d1c 20000000 		.4byte	.LVL210
 10532 0d20 0200     		.2byte	0x2
 10533 0d22 73       		.byte	0x73
 10534 0d23 04       		.sleb128 4
 10535 0d24 20000000 		.4byte	.LVL210
 10536 0d28 26000000 		.4byte	.LVL211
 10537 0d2c 0200     		.2byte	0x2
 10538 0d2e 73       		.byte	0x73
 10539 0d2f 00       		.sleb128 0
 10540 0d30 26000000 		.4byte	.LVL211
 10541 0d34 4A000000 		.4byte	.LVL216
 10542 0d38 0200     		.2byte	0x2
 10543 0d3a 91       		.byte	0x91
 10544 0d3b 04       		.sleb128 4
 10545 0d3c 4A000000 		.4byte	.LVL216
 10546 0d40 A8010000 		.4byte	.LVL281
 10547 0d44 0100     		.2byte	0x1
 10548 0d46 59       		.byte	0x59
 10549 0d47 00000000 		.4byte	0
 10550 0d4b 00000000 		.4byte	0
 10551              	.LLST80:
 10552 0d4f 00000000 		.4byte	.LVL207
 10553 0d53 1C000000 		.4byte	.LVL209
 10554 0d57 0200     		.2byte	0x2
 10555 0d59 91       		.byte	0x91
 10556 0d5a 08       		.sleb128 8
 10557 0d5b 1C000000 		.4byte	.LVL209
 10558 0d5f 20000000 		.4byte	.LVL210
 10559 0d63 0200     		.2byte	0x2
 10560 0d65 73       		.byte	0x73
 10561 0d66 08       		.sleb128 8
 10562 0d67 20000000 		.4byte	.LVL210
 10563 0d6b 26000000 		.4byte	.LVL211
 10564 0d6f 0200     		.2byte	0x2
 10565 0d71 91       		.byte	0x91
ARM GAS  C:\Users\PC\AppData\Local\Temp\ccKVdNiW.s 			page 207


 10566 0d72 08       		.sleb128 8
 10567 0d73 26000000 		.4byte	.LVL211
 10568 0d77 34000000 		.4byte	.LVL212
 10569 0d7b 0200     		.2byte	0x2
 10570 0d7d 73       		.byte	0x73
 10571 0d7e 00       		.sleb128 0
 10572 0d7f 34000000 		.4byte	.LVL212
 10573 0d83 B4010000 		.4byte	.LFE43
 10574 0d87 0200     		.2byte	0x2
 10575 0d89 91       		.byte	0x91
 10576 0d8a 08       		.sleb128 8
 10577 0d8b 00000000 		.4byte	0
 10578 0d8f 00000000 		.4byte	0
 10579              	.LLST81:
 10580 0d93 64000000 		.4byte	.LVL221
 10581 0d97 6C000000 		.4byte	.LVL222
 10582 0d9b 0100     		.2byte	0x1
 10583 0d9d 56       		.byte	0x56
 10584 0d9e 6C000000 		.4byte	.LVL222
 10585 0da2 6E000000 		.4byte	.LVL223
 10586 0da6 0100     		.2byte	0x1
 10587 0da8 50       		.byte	0x50
 10588 0da9 6E000000 		.4byte	.LVL223
 10589 0dad 7A000000 		.4byte	.LVL225
 10590 0db1 0100     		.2byte	0x1
 10591 0db3 56       		.byte	0x56
 10592 0db4 7A000000 		.4byte	.LVL225
 10593 0db8 7C000000 		.4byte	.LVL226
 10594 0dbc 0100     		.2byte	0x1
 10595 0dbe 50       		.byte	0x50
 10596 0dbf 7C000000 		.4byte	.LVL226
 10597 0dc3 7E000000 		.4byte	.LVL227
 10598 0dc7 0100     		.2byte	0x1
 10599 0dc9 56       		.byte	0x56
 10600 0dca 7E000000 		.4byte	.LVL227
 10601 0dce 8E000000 		.4byte	.LVL230
 10602 0dd2 0100     		.2byte	0x1
 10603 0dd4 50       		.byte	0x50
 10604 0dd5 0A010000 		.4byte	.LVL248
 10605 0dd9 28010000 		.4byte	.LVL254
 10606 0ddd 0100     		.2byte	0x1
 10607 0ddf 54       		.byte	0x54
 10608 0de0 28010000 		.4byte	.LVL254
 10609 0de4 2A010000 		.4byte	.LVL255
 10610 0de8 0100     		.2byte	0x1
 10611 0dea 50       		.byte	0x50
 10612 0deb 72010000 		.4byte	.LVL268
 10613 0def 8C010000 		.4byte	.LVL274
 10614 0df3 0100     		.2byte	0x1
 10615 0df5 54       		.byte	0x54
 10616 0df6 8C010000 		.4byte	.LVL274
 10617 0dfa 8E010000 		.4byte	.LVL275
 10618 0dfe 0100     		.2byte	0x1
 10619 0e00 50       		.byte	0x50
 10620 0e01 00000000 		.4byte	0
 10621 0e05 00000000 		.4byte	0
 10622              	.LLST82:
ARM GAS  C:\Users\PC\AppData\Local\Temp\ccKVdNiW.s 			page 208


 10623 0e09 64000000 		.4byte	.LVL221
 10624 0e0d 72000000 		.4byte	.LVL224
 10625 0e11 0100     		.2byte	0x1
 10626 0e13 56       		.byte	0x56
 10627 0e14 72000000 		.4byte	.LVL224
 10628 0e18 7C000000 		.4byte	.LVL226
 10629 0e1c 0300     		.2byte	0x3
 10630 0e1e 91       		.byte	0x91
 10631 0e1f BC7F     		.sleb128 -68
 10632 0e21 7C000000 		.4byte	.LVL226
 10633 0e25 94000000 		.4byte	.LVL231
 10634 0e29 0100     		.2byte	0x1
 10635 0e2b 56       		.byte	0x56
 10636 0e2c 16010000 		.4byte	.LVL250
 10637 0e30 26010000 		.4byte	.LVL253
 10638 0e34 0100     		.2byte	0x1
 10639 0e36 50       		.byte	0x50
 10640 0e37 26010000 		.4byte	.LVL253
 10641 0e3b 28010000 		.4byte	.LVL254
 10642 0e3f 0100     		.2byte	0x1
 10643 0e41 53       		.byte	0x53
 10644 0e42 28010000 		.4byte	.LVL254
 10645 0e46 32010000 		.4byte	.LVL256
 10646 0e4a 0100     		.2byte	0x1
 10647 0e4c 54       		.byte	0x54
 10648 0e4d 7E010000 		.4byte	.LVL270
 10649 0e51 8A010000 		.4byte	.LVL273
 10650 0e55 0100     		.2byte	0x1
 10651 0e57 50       		.byte	0x50
 10652 0e58 8A010000 		.4byte	.LVL273
 10653 0e5c 8C010000 		.4byte	.LVL274
 10654 0e60 0100     		.2byte	0x1
 10655 0e62 53       		.byte	0x53
 10656 0e63 8C010000 		.4byte	.LVL274
 10657 0e67 96010000 		.4byte	.LVL276
 10658 0e6b 0100     		.2byte	0x1
 10659 0e6d 54       		.byte	0x54
 10660 0e6e 00000000 		.4byte	0
 10661 0e72 00000000 		.4byte	0
 10662              	.LLST83:
 10663 0e76 F0000000 		.4byte	.LVL244
 10664 0e7a 3C010000 		.4byte	.LVL258
 10665 0e7e 0100     		.2byte	0x1
 10666 0e80 55       		.byte	0x55
 10667 0e81 3E010000 		.4byte	.LVL259
 10668 0e85 A0010000 		.4byte	.LVL278
 10669 0e89 0100     		.2byte	0x1
 10670 0e8b 55       		.byte	0x55
 10671 0e8c A2010000 		.4byte	.LVL279
 10672 0e90 A6010000 		.4byte	.LVL280
 10673 0e94 0100     		.2byte	0x1
 10674 0e96 55       		.byte	0x55
 10675 0e97 00000000 		.4byte	0
 10676 0e9b 00000000 		.4byte	0
 10677              	.LLST84:
 10678 0e9f E0000000 		.4byte	.LVL241
 10679 0ea3 E2000000 		.4byte	.LVL242
ARM GAS  C:\Users\PC\AppData\Local\Temp\ccKVdNiW.s 			page 209


 10680 0ea7 0100     		.2byte	0x1
 10681 0ea9 5B       		.byte	0x5b
 10682 0eaa EA000000 		.4byte	.LVL243
 10683 0eae 48010000 		.4byte	.LVL261
 10684 0eb2 0100     		.2byte	0x1
 10685 0eb4 5B       		.byte	0x5b
 10686 0eb5 00000000 		.4byte	0
 10687 0eb9 00000000 		.4byte	0
 10688              	.LLST85:
 10689 0ebd AE000000 		.4byte	.LVL234
 10690 0ec1 A6010000 		.4byte	.LVL280
 10691 0ec5 0200     		.2byte	0x2
 10692 0ec7 91       		.byte	0x91
 10693 0ec8 40       		.sleb128 -64
 10694 0ec9 00000000 		.4byte	0
 10695 0ecd 00000000 		.4byte	0
 10696              	.LLST86:
 10697 0ed1 B8000000 		.4byte	.LVL235
 10698 0ed5 A6010000 		.4byte	.LVL280
 10699 0ed9 0200     		.2byte	0x2
 10700 0edb 91       		.byte	0x91
 10701 0edc 44       		.sleb128 -60
 10702 0edd 00000000 		.4byte	0
 10703 0ee1 00000000 		.4byte	0
 10704              	.LLST87:
 10705 0ee5 BE000000 		.4byte	.LVL236
 10706 0ee9 5A010000 		.4byte	.LVL264
 10707 0eed 0100     		.2byte	0x1
 10708 0eef 5A       		.byte	0x5a
 10709 0ef0 5A010000 		.4byte	.LVL264
 10710 0ef4 A6010000 		.4byte	.LVL280
 10711 0ef8 0100     		.2byte	0x1
 10712 0efa 58       		.byte	0x58
 10713 0efb 00000000 		.4byte	0
 10714 0eff 00000000 		.4byte	0
 10715              	.LLST88:
 10716 0f03 C6000000 		.4byte	.LVL237
 10717 0f07 A6010000 		.4byte	.LVL280
 10718 0f0b 0300     		.2byte	0x3
 10719 0f0d 91       		.byte	0x91
 10720 0f0e B87F     		.sleb128 -72
 10721 0f10 00000000 		.4byte	0
 10722 0f14 00000000 		.4byte	0
 10723              	.LLST89:
 10724 0f18 CC000000 		.4byte	.LVL239
 10725 0f1c A6010000 		.4byte	.LVL280
 10726 0f20 0200     		.2byte	0x2
 10727 0f22 91       		.byte	0x91
 10728 0f23 54       		.sleb128 -44
 10729 0f24 00000000 		.4byte	0
 10730 0f28 00000000 		.4byte	0
 10731              	.LLST90:
 10732 0f2c D4000000 		.4byte	.LVL240
 10733 0f30 A6010000 		.4byte	.LVL280
 10734 0f34 0200     		.2byte	0x2
 10735 0f36 91       		.byte	0x91
 10736 0f37 48       		.sleb128 -56
ARM GAS  C:\Users\PC\AppData\Local\Temp\ccKVdNiW.s 			page 210


 10737 0f38 00000000 		.4byte	0
 10738 0f3c 00000000 		.4byte	0
 10739              	.LLST91:
 10740 0f40 D4000000 		.4byte	.LVL240
 10741 0f44 FE000000 		.4byte	.LVL246
 10742 0f48 0200     		.2byte	0x2
 10743 0f4a 30       		.byte	0x30
 10744 0f4b 9F       		.byte	0x9f
 10745 0f4c FE000000 		.4byte	.LVL246
 10746 0f50 4C010000 		.4byte	.LVL262
 10747 0f54 0100     		.2byte	0x1
 10748 0f56 57       		.byte	0x57
 10749 0f57 4E010000 		.4byte	.LVL263
 10750 0f5b A6010000 		.4byte	.LVL280
 10751 0f5f 0100     		.2byte	0x1
 10752 0f61 57       		.byte	0x57
 10753 0f62 00000000 		.4byte	0
 10754 0f66 00000000 		.4byte	0
 10755              	.LLST92:
 10756 0f6a D4000000 		.4byte	.LVL240
 10757 0f6e FE000000 		.4byte	.LVL246
 10758 0f72 0200     		.2byte	0x2
 10759 0f74 30       		.byte	0x30
 10760 0f75 9F       		.byte	0x9f
 10761 0f76 FE000000 		.4byte	.LVL246
 10762 0f7a 44010000 		.4byte	.LVL260
 10763 0f7e 0100     		.2byte	0x1
 10764 0f80 56       		.byte	0x56
 10765 0f81 5A010000 		.4byte	.LVL264
 10766 0f85 5C010000 		.4byte	.LVL265
 10767 0f89 0100     		.2byte	0x1
 10768 0f8b 53       		.byte	0x53
 10769 0f8c 5C010000 		.4byte	.LVL265
 10770 0f90 60010000 		.4byte	.LVL266
 10771 0f94 0100     		.2byte	0x1
 10772 0f96 5A       		.byte	0x5a
 10773 0f97 60010000 		.4byte	.LVL266
 10774 0f9b A6010000 		.4byte	.LVL280
 10775 0f9f 0100     		.2byte	0x1
 10776 0fa1 56       		.byte	0x56
 10777 0fa2 00000000 		.4byte	0
 10778 0fa6 00000000 		.4byte	0
 10779              	.LLST93:
 10780 0faa 00000000 		.4byte	.LVL282
 10781 0fae 3E000000 		.4byte	.LVL283
 10782 0fb2 0100     		.2byte	0x1
 10783 0fb4 50       		.byte	0x50
 10784 0fb5 3E000000 		.4byte	.LVL283
 10785 0fb9 EC000000 		.4byte	.LVL295
 10786 0fbd 0400     		.2byte	0x4
 10787 0fbf F3       		.byte	0xf3
 10788 0fc0 01       		.uleb128 0x1
 10789 0fc1 50       		.byte	0x50
 10790 0fc2 9F       		.byte	0x9f
 10791 0fc3 EC000000 		.4byte	.LVL295
 10792 0fc7 EE000000 		.4byte	.LVL296
 10793 0fcb 0100     		.2byte	0x1
ARM GAS  C:\Users\PC\AppData\Local\Temp\ccKVdNiW.s 			page 211


 10794 0fcd 50       		.byte	0x50
 10795 0fce EE000000 		.4byte	.LVL296
 10796 0fd2 AC010000 		.4byte	.LFE44
 10797 0fd6 0400     		.2byte	0x4
 10798 0fd8 F3       		.byte	0xf3
 10799 0fd9 01       		.uleb128 0x1
 10800 0fda 50       		.byte	0x50
 10801 0fdb 9F       		.byte	0x9f
 10802 0fdc 00000000 		.4byte	0
 10803 0fe0 00000000 		.4byte	0
 10804              	.LLST94:
 10805 0fe4 3E000000 		.4byte	.LVL283
 10806 0fe8 E8000000 		.4byte	.LVL293
 10807 0fec 0100     		.2byte	0x1
 10808 0fee 56       		.byte	0x56
 10809 0fef EA000000 		.4byte	.LVL294
 10810 0ff3 EC000000 		.4byte	.LVL295
 10811 0ff7 0100     		.2byte	0x1
 10812 0ff9 56       		.byte	0x56
 10813 0ffa EE000000 		.4byte	.LVL296
 10814 0ffe 4C010000 		.4byte	.LVL299
 10815 1002 0100     		.2byte	0x1
 10816 1004 56       		.byte	0x56
 10817 1005 00000000 		.4byte	0
 10818 1009 00000000 		.4byte	0
 10819              	.LLST95:
 10820 100d 48000000 		.4byte	.LVL284
 10821 1011 EC000000 		.4byte	.LVL295
 10822 1015 0100     		.2byte	0x1
 10823 1017 55       		.byte	0x55
 10824 1018 00000000 		.4byte	0
 10825 101c 00000000 		.4byte	0
 10826              	.LLST96:
 10827 1020 48000000 		.4byte	.LVL284
 10828 1024 4C000000 		.4byte	.LVL285
 10829 1028 0200     		.2byte	0x2
 10830 102a 30       		.byte	0x30
 10831 102b 9F       		.byte	0x9f
 10832 102c 4C000000 		.4byte	.LVL285
 10833 1030 DE000000 		.4byte	.LVL290
 10834 1034 0100     		.2byte	0x1
 10835 1036 54       		.byte	0x54
 10836 1037 E0000000 		.4byte	.LVL291
 10837 103b EC000000 		.4byte	.LVL295
 10838 103f 0100     		.2byte	0x1
 10839 1041 54       		.byte	0x54
 10840 1042 00000000 		.4byte	0
 10841 1046 00000000 		.4byte	0
 10842              	.LLST97:
 10843 104a 00000000 		.4byte	.LVL300
 10844 104e 06000000 		.4byte	.LVL301
 10845 1052 0100     		.2byte	0x1
 10846 1054 50       		.byte	0x50
 10847 1055 06000000 		.4byte	.LVL301
 10848 1059 12000000 		.4byte	.LVL304
 10849 105d 0100     		.2byte	0x1
 10850 105f 54       		.byte	0x54
ARM GAS  C:\Users\PC\AppData\Local\Temp\ccKVdNiW.s 			page 212


 10851 1060 00000000 		.4byte	0
 10852 1064 00000000 		.4byte	0
 10853              	.LLST98:
 10854 1068 00000000 		.4byte	.LVL305
 10855 106c 0E000000 		.4byte	.LVL307
 10856 1070 0100     		.2byte	0x1
 10857 1072 50       		.byte	0x50
 10858 1073 0E000000 		.4byte	.LVL307
 10859 1077 58010000 		.4byte	.LVL322
 10860 107b 0100     		.2byte	0x1
 10861 107d 58       		.byte	0x58
 10862 107e 58010000 		.4byte	.LVL322
 10863 1082 70010000 		.4byte	.LFE46
 10864 1086 0400     		.2byte	0x4
 10865 1088 F3       		.byte	0xf3
 10866 1089 01       		.uleb128 0x1
 10867 108a 50       		.byte	0x50
 10868 108b 9F       		.byte	0x9f
 10869 108c 00000000 		.4byte	0
 10870 1090 00000000 		.4byte	0
 10871              	.LLST99:
 10872 1094 0A000000 		.4byte	.LVL306
 10873 1098 0E000000 		.4byte	.LVL307
 10874 109c 0200     		.2byte	0x2
 10875 109e 30       		.byte	0x30
 10876 109f 9F       		.byte	0x9f
 10877 10a0 0E000000 		.4byte	.LVL307
 10878 10a4 AE000000 		.4byte	.LVL317
 10879 10a8 0100     		.2byte	0x1
 10880 10aa 56       		.byte	0x56
 10881 10ab B0000000 		.4byte	.LVL318
 10882 10af 0E010000 		.4byte	.LVL321
 10883 10b3 0100     		.2byte	0x1
 10884 10b5 56       		.byte	0x56
 10885 10b6 00000000 		.4byte	0
 10886 10ba 00000000 		.4byte	0
 10887              	.LLST100:
 10888 10be 12000000 		.4byte	.LVL308
 10889 10c2 B0000000 		.4byte	.LVL318
 10890 10c6 0100     		.2byte	0x1
 10891 10c8 55       		.byte	0x55
 10892 10c9 00000000 		.4byte	0
 10893 10cd 00000000 		.4byte	0
 10894              	.LLST101:
 10895 10d1 12000000 		.4byte	.LVL308
 10896 10d5 16000000 		.4byte	.LVL309
 10897 10d9 0200     		.2byte	0x2
 10898 10db 30       		.byte	0x30
 10899 10dc 9F       		.byte	0x9f
 10900 10dd 16000000 		.4byte	.LVL309
 10901 10e1 A4000000 		.4byte	.LVL314
 10902 10e5 0100     		.2byte	0x1
 10903 10e7 54       		.byte	0x54
 10904 10e8 A6000000 		.4byte	.LVL315
 10905 10ec B0000000 		.4byte	.LVL318
 10906 10f0 0100     		.2byte	0x1
 10907 10f2 54       		.byte	0x54
ARM GAS  C:\Users\PC\AppData\Local\Temp\ccKVdNiW.s 			page 213


 10908 10f3 00000000 		.4byte	0
 10909 10f7 00000000 		.4byte	0
 10910              	.LLST102:
 10911 10fb 00000000 		.4byte	.LVL324
 10912 10ff 06000000 		.4byte	.LVL325
 10913 1103 0100     		.2byte	0x1
 10914 1105 50       		.byte	0x50
 10915 1106 06000000 		.4byte	.LVL325
 10916 110a 10000000 		.4byte	.LFE51
 10917 110e 0400     		.2byte	0x4
 10918 1110 F3       		.byte	0xf3
 10919 1111 01       		.uleb128 0x1
 10920 1112 50       		.byte	0x50
 10921 1113 9F       		.byte	0x9f
 10922 1114 00000000 		.4byte	0
 10923 1118 00000000 		.4byte	0
 10924              	.LLST103:
 10925 111c 00000000 		.4byte	.LVL327
 10926 1120 39000000 		.4byte	.LVL335-1
 10927 1124 0100     		.2byte	0x1
 10928 1126 50       		.byte	0x50
 10929 1127 39000000 		.4byte	.LVL335-1
 10930 112b 74000000 		.4byte	.LFE47
 10931 112f 0400     		.2byte	0x4
 10932 1131 F3       		.byte	0xf3
 10933 1132 01       		.uleb128 0x1
 10934 1133 50       		.byte	0x50
 10935 1134 9F       		.byte	0x9f
 10936 1135 00000000 		.4byte	0
 10937 1139 00000000 		.4byte	0
 10938              	.LLST104:
 10939 113d 00000000 		.4byte	.LVL327
 10940 1141 39000000 		.4byte	.LVL335-1
 10941 1145 0100     		.2byte	0x1
 10942 1147 51       		.byte	0x51
 10943 1148 39000000 		.4byte	.LVL335-1
 10944 114c 74000000 		.4byte	.LFE47
 10945 1150 0400     		.2byte	0x4
 10946 1152 F3       		.byte	0xf3
 10947 1153 01       		.uleb128 0x1
 10948 1154 51       		.byte	0x51
 10949 1155 9F       		.byte	0x9f
 10950 1156 00000000 		.4byte	0
 10951 115a 00000000 		.4byte	0
 10952              	.LLST105:
 10953 115e 00000000 		.4byte	.LVL327
 10954 1162 39000000 		.4byte	.LVL335-1
 10955 1166 0100     		.2byte	0x1
 10956 1168 52       		.byte	0x52
 10957 1169 39000000 		.4byte	.LVL335-1
 10958 116d 74000000 		.4byte	.LFE47
 10959 1171 0400     		.2byte	0x4
 10960 1173 F3       		.byte	0xf3
 10961 1174 01       		.uleb128 0x1
 10962 1175 52       		.byte	0x52
 10963 1176 9F       		.byte	0x9f
 10964 1177 00000000 		.4byte	0
ARM GAS  C:\Users\PC\AppData\Local\Temp\ccKVdNiW.s 			page 214


 10965 117b 00000000 		.4byte	0
 10966              	.LLST106:
 10967 117f 00000000 		.4byte	.LVL327
 10968 1183 14000000 		.4byte	.LVL328
 10969 1187 0100     		.2byte	0x1
 10970 1189 53       		.byte	0x53
 10971 118a 14000000 		.4byte	.LVL328
 10972 118e 74000000 		.4byte	.LFE47
 10973 1192 0400     		.2byte	0x4
 10974 1194 F3       		.byte	0xf3
 10975 1195 01       		.uleb128 0x1
 10976 1196 53       		.byte	0x53
 10977 1197 9F       		.byte	0x9f
 10978 1198 00000000 		.4byte	0
 10979 119c 00000000 		.4byte	0
 10980              	.LLST107:
 10981 11a0 00000000 		.4byte	.LVL327
 10982 11a4 14000000 		.4byte	.LVL328
 10983 11a8 0200     		.2byte	0x2
 10984 11aa 91       		.byte	0x91
 10985 11ab 00       		.sleb128 0
 10986 11ac 14000000 		.4byte	.LVL328
 10987 11b0 1A000000 		.4byte	.LVL329
 10988 11b4 0200     		.2byte	0x2
 10989 11b6 73       		.byte	0x73
 10990 11b7 00       		.sleb128 0
 10991 11b8 1A000000 		.4byte	.LVL329
 10992 11bc 74000000 		.4byte	.LFE47
 10993 11c0 0200     		.2byte	0x2
 10994 11c2 91       		.byte	0x91
 10995 11c3 00       		.sleb128 0
 10996 11c4 00000000 		.4byte	0
 10997 11c8 00000000 		.4byte	0
 10998              	.LLST108:
 10999 11cc 00000000 		.4byte	.LVL327
 11000 11d0 14000000 		.4byte	.LVL328
 11001 11d4 0200     		.2byte	0x2
 11002 11d6 91       		.byte	0x91
 11003 11d7 04       		.sleb128 4
 11004 11d8 14000000 		.4byte	.LVL328
 11005 11dc 1A000000 		.4byte	.LVL329
 11006 11e0 0200     		.2byte	0x2
 11007 11e2 73       		.byte	0x73
 11008 11e3 04       		.sleb128 4
 11009 11e4 1A000000 		.4byte	.LVL329
 11010 11e8 39000000 		.4byte	.LVL335-1
 11011 11ec 0200     		.2byte	0x2
 11012 11ee 73       		.byte	0x73
 11013 11ef 00       		.sleb128 0
 11014 11f0 39000000 		.4byte	.LVL335-1
 11015 11f4 74000000 		.4byte	.LFE47
 11016 11f8 0200     		.2byte	0x2
 11017 11fa 91       		.byte	0x91
 11018 11fb 04       		.sleb128 4
 11019 11fc 00000000 		.4byte	0
 11020 1200 00000000 		.4byte	0
 11021              	.LLST109:
ARM GAS  C:\Users\PC\AppData\Local\Temp\ccKVdNiW.s 			page 215


 11022 1204 26000000 		.4byte	.LVL330
 11023 1208 60000000 		.4byte	.LVL343
 11024 120c 0100     		.2byte	0x1
 11025 120e 5A       		.byte	0x5a
 11026 120f 60000000 		.4byte	.LVL343
 11027 1213 74000000 		.4byte	.LFE47
 11028 1217 0500     		.2byte	0x5
 11029 1219 03       		.byte	0x3
 11030 121a 00000000 		.4byte	cursor_x
 11031 121e 00000000 		.4byte	0
 11032 1222 00000000 		.4byte	0
 11033              	.LLST110:
 11034 1226 2C000000 		.4byte	.LVL331
 11035 122a 60000000 		.4byte	.LVL342
 11036 122e 0100     		.2byte	0x1
 11037 1230 59       		.byte	0x59
 11038 1231 60000000 		.4byte	.LVL342
 11039 1235 74000000 		.4byte	.LFE47
 11040 1239 0500     		.2byte	0x5
 11041 123b 03       		.byte	0x3
 11042 123c 00000000 		.4byte	cursor_y
 11043 1240 00000000 		.4byte	0
 11044 1244 00000000 		.4byte	0
 11045              	.LLST111:
 11046 1248 32000000 		.4byte	.LVL332
 11047 124c 60000000 		.4byte	.LVL341
 11048 1250 0100     		.2byte	0x1
 11049 1252 58       		.byte	0x58
 11050 1253 60000000 		.4byte	.LVL341
 11051 1257 74000000 		.4byte	.LFE47
 11052 125b 0100     		.2byte	0x1
 11053 125d 53       		.byte	0x53
 11054 125e 00000000 		.4byte	0
 11055 1262 00000000 		.4byte	0
 11056              	.LLST112:
 11057 1266 34000000 		.4byte	.LVL333
 11058 126a 60000000 		.4byte	.LVL340
 11059 126e 0100     		.2byte	0x1
 11060 1270 57       		.byte	0x57
 11061 1271 60000000 		.4byte	.LVL340
 11062 1275 74000000 		.4byte	.LFE47
 11063 1279 0500     		.2byte	0x5
 11064 127b 03       		.byte	0x3
 11065 127c 00000000 		.4byte	textbgcolor
 11066 1280 00000000 		.4byte	0
 11067 1284 00000000 		.4byte	0
 11068              	.LLST113:
 11069 1288 36000000 		.4byte	.LVL334
 11070 128c 60000000 		.4byte	.LVL339
 11071 1290 0100     		.2byte	0x1
 11072 1292 56       		.byte	0x56
 11073 1293 60000000 		.4byte	.LVL339
 11074 1297 74000000 		.4byte	.LFE47
 11075 129b 0500     		.2byte	0x5
 11076 129d 03       		.byte	0x3
 11077 129e 00000000 		.4byte	textsize
 11078 12a2 00000000 		.4byte	0
ARM GAS  C:\Users\PC\AppData\Local\Temp\ccKVdNiW.s 			page 216


 11079 12a6 00000000 		.4byte	0
 11080              	.LLST114:
 11081 12aa 00000000 		.4byte	.LVL346
 11082 12ae 04000000 		.4byte	.LVL348
 11083 12b2 0100     		.2byte	0x1
 11084 12b4 50       		.byte	0x50
 11085 12b5 04000000 		.4byte	.LVL348
 11086 12b9 14000000 		.4byte	.LFE58
 11087 12bd 0400     		.2byte	0x4
 11088 12bf F3       		.byte	0xf3
 11089 12c0 01       		.uleb128 0x1
 11090 12c1 50       		.byte	0x50
 11091 12c2 9F       		.byte	0x9f
 11092 12c3 00000000 		.4byte	0
 11093 12c7 00000000 		.4byte	0
 11094              	.LLST115:
 11095 12cb 00000000 		.4byte	.LVL346
 11096 12cf 02000000 		.4byte	.LVL347
 11097 12d3 0100     		.2byte	0x1
 11098 12d5 51       		.byte	0x51
 11099 12d6 02000000 		.4byte	.LVL347
 11100 12da 14000000 		.4byte	.LFE58
 11101 12de 0400     		.2byte	0x4
 11102 12e0 F3       		.byte	0xf3
 11103 12e1 01       		.uleb128 0x1
 11104 12e2 51       		.byte	0x51
 11105 12e3 9F       		.byte	0x9f
 11106 12e4 00000000 		.4byte	0
 11107 12e8 00000000 		.4byte	0
 11108              	.LLST116:
 11109 12ec 00000000 		.4byte	.LVL349
 11110 12f0 24000000 		.4byte	.LVL355
 11111 12f4 0100     		.2byte	0x1
 11112 12f6 50       		.byte	0x50
 11113 12f7 24000000 		.4byte	.LVL355
 11114 12fb 76000000 		.4byte	.LFE59
 11115 12ff 0400     		.2byte	0x4
 11116 1301 F3       		.byte	0xf3
 11117 1302 01       		.uleb128 0x1
 11118 1303 50       		.byte	0x50
 11119 1304 9F       		.byte	0x9f
 11120 1305 00000000 		.4byte	0
 11121 1309 00000000 		.4byte	0
 11122              	.LLST117:
 11123 130d 00000000 		.4byte	.LVL349
 11124 1311 24000000 		.4byte	.LVL355
 11125 1315 0100     		.2byte	0x1
 11126 1317 51       		.byte	0x51
 11127 1318 24000000 		.4byte	.LVL355
 11128 131c 76000000 		.4byte	.LFE59
 11129 1320 0400     		.2byte	0x4
 11130 1322 F3       		.byte	0xf3
 11131 1323 01       		.uleb128 0x1
 11132 1324 51       		.byte	0x51
 11133 1325 9F       		.byte	0x9f
 11134 1326 00000000 		.4byte	0
 11135 132a 00000000 		.4byte	0
ARM GAS  C:\Users\PC\AppData\Local\Temp\ccKVdNiW.s 			page 217


 11136              	.LLST118:
 11137 132e 00000000 		.4byte	.LVL349
 11138 1332 24000000 		.4byte	.LVL355
 11139 1336 0100     		.2byte	0x1
 11140 1338 52       		.byte	0x52
 11141 1339 24000000 		.4byte	.LVL355
 11142 133d 6C000000 		.4byte	.LVL364
 11143 1341 0100     		.2byte	0x1
 11144 1343 57       		.byte	0x57
 11145 1344 6C000000 		.4byte	.LVL364
 11146 1348 76000000 		.4byte	.LFE59
 11147 134c 0400     		.2byte	0x4
 11148 134e F3       		.byte	0xf3
 11149 134f 01       		.uleb128 0x1
 11150 1350 52       		.byte	0x52
 11151 1351 9F       		.byte	0x9f
 11152 1352 00000000 		.4byte	0
 11153 1356 00000000 		.4byte	0
 11154              	.LLST119:
 11155 135a 00000000 		.4byte	.LVL349
 11156 135e 16000000 		.4byte	.LVL350
 11157 1362 0100     		.2byte	0x1
 11158 1364 53       		.byte	0x53
 11159 1365 16000000 		.4byte	.LVL350
 11160 1369 76000000 		.4byte	.LFE59
 11161 136d 0400     		.2byte	0x4
 11162 136f F3       		.byte	0xf3
 11163 1370 01       		.uleb128 0x1
 11164 1371 53       		.byte	0x53
 11165 1372 9F       		.byte	0x9f
 11166 1373 00000000 		.4byte	0
 11167 1377 00000000 		.4byte	0
 11168              	.LLST120:
 11169 137b 00000000 		.4byte	.LVL349
 11170 137f 16000000 		.4byte	.LVL350
 11171 1383 0200     		.2byte	0x2
 11172 1385 91       		.byte	0x91
 11173 1386 00       		.sleb128 0
 11174 1387 16000000 		.4byte	.LVL350
 11175 138b 18000000 		.4byte	.LVL351
 11176 138f 0200     		.2byte	0x2
 11177 1391 73       		.byte	0x73
 11178 1392 00       		.sleb128 0
 11179 1393 18000000 		.4byte	.LVL351
 11180 1397 76000000 		.4byte	.LFE59
 11181 139b 0200     		.2byte	0x2
 11182 139d 91       		.byte	0x91
 11183 139e 00       		.sleb128 0
 11184 139f 00000000 		.4byte	0
 11185 13a3 00000000 		.4byte	0
 11186              	.LLST121:
 11187 13a7 00000000 		.4byte	.LVL349
 11188 13ab 16000000 		.4byte	.LVL350
 11189 13af 0200     		.2byte	0x2
 11190 13b1 91       		.byte	0x91
 11191 13b2 04       		.sleb128 4
 11192 13b3 16000000 		.4byte	.LVL350
ARM GAS  C:\Users\PC\AppData\Local\Temp\ccKVdNiW.s 			page 218


 11193 13b7 18000000 		.4byte	.LVL351
 11194 13bb 0200     		.2byte	0x2
 11195 13bd 73       		.byte	0x73
 11196 13be 04       		.sleb128 4
 11197 13bf 18000000 		.4byte	.LVL351
 11198 13c3 1C000000 		.4byte	.LVL352
 11199 13c7 0200     		.2byte	0x2
 11200 13c9 91       		.byte	0x91
 11201 13ca 04       		.sleb128 4
 11202 13cb 1C000000 		.4byte	.LVL352
 11203 13cf 1E000000 		.4byte	.LVL353
 11204 13d3 0200     		.2byte	0x2
 11205 13d5 73       		.byte	0x73
 11206 13d6 00       		.sleb128 0
 11207 13d7 1E000000 		.4byte	.LVL353
 11208 13db 76000000 		.4byte	.LFE59
 11209 13df 0200     		.2byte	0x2
 11210 13e1 91       		.byte	0x91
 11211 13e2 04       		.sleb128 4
 11212 13e3 00000000 		.4byte	0
 11213 13e7 00000000 		.4byte	0
 11214              	.LLST122:
 11215 13eb 20000000 		.4byte	.LVL354
 11216 13ef 24000000 		.4byte	.LVL355
 11217 13f3 0200     		.2byte	0x2
 11218 13f5 30       		.byte	0x30
 11219 13f6 9F       		.byte	0x9f
 11220 13f7 24000000 		.4byte	.LVL355
 11221 13fb 60000000 		.4byte	.LVL361
 11222 13ff 0100     		.2byte	0x1
 11223 1401 56       		.byte	0x56
 11224 1402 62000000 		.4byte	.LVL362
 11225 1406 6C000000 		.4byte	.LVL363
 11226 140a 0100     		.2byte	0x1
 11227 140c 56       		.byte	0x56
 11228 140d 00000000 		.4byte	0
 11229 1411 00000000 		.4byte	0
 11230              	.LLST123:
 11231 1415 24000000 		.4byte	.LVL355
 11232 1419 52000000 		.4byte	.LVL357
 11233 141d 0100     		.2byte	0x1
 11234 141f 54       		.byte	0x54
 11235 1420 54000000 		.4byte	.LVL358
 11236 1424 56000000 		.4byte	.LVL359
 11237 1428 0100     		.2byte	0x1
 11238 142a 54       		.byte	0x54
 11239 142b 58000000 		.4byte	.LVL360
 11240 142f 62000000 		.4byte	.LVL362
 11241 1433 0100     		.2byte	0x1
 11242 1435 54       		.byte	0x54
 11243 1436 00000000 		.4byte	0
 11244 143a 00000000 		.4byte	0
 11245              	.LLST124:
 11246 143e 00000000 		.4byte	.LVL365
 11247 1442 2A000000 		.4byte	.LVL373
 11248 1446 0100     		.2byte	0x1
 11249 1448 50       		.byte	0x50
ARM GAS  C:\Users\PC\AppData\Local\Temp\ccKVdNiW.s 			page 219


 11250 1449 2A000000 		.4byte	.LVL373
 11251 144d 96000000 		.4byte	.LFE60
 11252 1451 0400     		.2byte	0x4
 11253 1453 F3       		.byte	0xf3
 11254 1454 01       		.uleb128 0x1
 11255 1455 50       		.byte	0x50
 11256 1456 9F       		.byte	0x9f
 11257 1457 00000000 		.4byte	0
 11258 145b 00000000 		.4byte	0
 11259              	.LLST125:
 11260 145f 00000000 		.4byte	.LVL365
 11261 1463 2A000000 		.4byte	.LVL373
 11262 1467 0100     		.2byte	0x1
 11263 1469 51       		.byte	0x51
 11264 146a 2A000000 		.4byte	.LVL373
 11265 146e 96000000 		.4byte	.LFE60
 11266 1472 0400     		.2byte	0x4
 11267 1474 F3       		.byte	0xf3
 11268 1475 01       		.uleb128 0x1
 11269 1476 51       		.byte	0x51
 11270 1477 9F       		.byte	0x9f
 11271 1478 00000000 		.4byte	0
 11272 147c 00000000 		.4byte	0
 11273              	.LLST126:
 11274 1480 00000000 		.4byte	.LVL365
 11275 1484 2A000000 		.4byte	.LVL373
 11276 1488 0100     		.2byte	0x1
 11277 148a 52       		.byte	0x52
 11278 148b 2A000000 		.4byte	.LVL373
 11279 148f 8C000000 		.4byte	.LVL383
 11280 1493 0100     		.2byte	0x1
 11281 1495 57       		.byte	0x57
 11282 1496 8C000000 		.4byte	.LVL383
 11283 149a 96000000 		.4byte	.LFE60
 11284 149e 0400     		.2byte	0x4
 11285 14a0 F3       		.byte	0xf3
 11286 14a1 01       		.uleb128 0x1
 11287 14a2 52       		.byte	0x52
 11288 14a3 9F       		.byte	0x9f
 11289 14a4 00000000 		.4byte	0
 11290 14a8 00000000 		.4byte	0
 11291              	.LLST127:
 11292 14ac 00000000 		.4byte	.LVL365
 11293 14b0 16000000 		.4byte	.LVL366
 11294 14b4 0100     		.2byte	0x1
 11295 14b6 53       		.byte	0x53
 11296 14b7 16000000 		.4byte	.LVL366
 11297 14bb 96000000 		.4byte	.LFE60
 11298 14bf 0400     		.2byte	0x4
 11299 14c1 F3       		.byte	0xf3
 11300 14c2 01       		.uleb128 0x1
 11301 14c3 53       		.byte	0x53
 11302 14c4 9F       		.byte	0x9f
 11303 14c5 00000000 		.4byte	0
 11304 14c9 00000000 		.4byte	0
 11305              	.LLST128:
 11306 14cd 00000000 		.4byte	.LVL365
ARM GAS  C:\Users\PC\AppData\Local\Temp\ccKVdNiW.s 			page 220


 11307 14d1 16000000 		.4byte	.LVL366
 11308 14d5 0200     		.2byte	0x2
 11309 14d7 91       		.byte	0x91
 11310 14d8 00       		.sleb128 0
 11311 14d9 16000000 		.4byte	.LVL366
 11312 14dd 18000000 		.4byte	.LVL367
 11313 14e1 0200     		.2byte	0x2
 11314 14e3 73       		.byte	0x73
 11315 14e4 00       		.sleb128 0
 11316 14e5 18000000 		.4byte	.LVL367
 11317 14e9 96000000 		.4byte	.LFE60
 11318 14ed 0200     		.2byte	0x2
 11319 14ef 91       		.byte	0x91
 11320 14f0 00       		.sleb128 0
 11321 14f1 00000000 		.4byte	0
 11322 14f5 00000000 		.4byte	0
 11323              	.LLST129:
 11324 14f9 00000000 		.4byte	.LVL365
 11325 14fd 16000000 		.4byte	.LVL366
 11326 1501 0200     		.2byte	0x2
 11327 1503 91       		.byte	0x91
 11328 1504 04       		.sleb128 4
 11329 1505 16000000 		.4byte	.LVL366
 11330 1509 18000000 		.4byte	.LVL367
 11331 150d 0200     		.2byte	0x2
 11332 150f 73       		.byte	0x73
 11333 1510 04       		.sleb128 4
 11334 1511 18000000 		.4byte	.LVL367
 11335 1515 1C000000 		.4byte	.LVL368
 11336 1519 0200     		.2byte	0x2
 11337 151b 91       		.byte	0x91
 11338 151c 04       		.sleb128 4
 11339 151d 1C000000 		.4byte	.LVL368
 11340 1521 1E000000 		.4byte	.LVL369
 11341 1525 0200     		.2byte	0x2
 11342 1527 73       		.byte	0x73
 11343 1528 00       		.sleb128 0
 11344 1529 1E000000 		.4byte	.LVL369
 11345 152d 96000000 		.4byte	.LFE60
 11346 1531 0200     		.2byte	0x2
 11347 1533 91       		.byte	0x91
 11348 1534 04       		.sleb128 4
 11349 1535 00000000 		.4byte	0
 11350 1539 00000000 		.4byte	0
 11351              	.LLST130:
 11352 153d 00000000 		.4byte	.LVL365
 11353 1541 16000000 		.4byte	.LVL366
 11354 1545 0200     		.2byte	0x2
 11355 1547 91       		.byte	0x91
 11356 1548 08       		.sleb128 8
 11357 1549 16000000 		.4byte	.LVL366
 11358 154d 18000000 		.4byte	.LVL367
 11359 1551 0200     		.2byte	0x2
 11360 1553 73       		.byte	0x73
 11361 1554 08       		.sleb128 8
 11362 1555 18000000 		.4byte	.LVL367
 11363 1559 22000000 		.4byte	.LVL370
ARM GAS  C:\Users\PC\AppData\Local\Temp\ccKVdNiW.s 			page 221


 11364 155d 0200     		.2byte	0x2
 11365 155f 91       		.byte	0x91
 11366 1560 08       		.sleb128 8
 11367 1561 22000000 		.4byte	.LVL370
 11368 1565 24000000 		.4byte	.LVL371
 11369 1569 0200     		.2byte	0x2
 11370 156b 73       		.byte	0x73
 11371 156c 00       		.sleb128 0
 11372 156d 24000000 		.4byte	.LVL371
 11373 1571 96000000 		.4byte	.LFE60
 11374 1575 0200     		.2byte	0x2
 11375 1577 91       		.byte	0x91
 11376 1578 08       		.sleb128 8
 11377 1579 00000000 		.4byte	0
 11378 157d 00000000 		.4byte	0
 11379              	.LLST131:
 11380 1581 26000000 		.4byte	.LVL372
 11381 1585 2A000000 		.4byte	.LVL373
 11382 1589 0200     		.2byte	0x2
 11383 158b 30       		.byte	0x30
 11384 158c 9F       		.byte	0x9f
 11385 158d 2A000000 		.4byte	.LVL373
 11386 1591 80000000 		.4byte	.LVL380
 11387 1595 0100     		.2byte	0x1
 11388 1597 55       		.byte	0x55
 11389 1598 82000000 		.4byte	.LVL381
 11390 159c 8C000000 		.4byte	.LVL382
 11391 15a0 0100     		.2byte	0x1
 11392 15a2 55       		.byte	0x55
 11393 15a3 00000000 		.4byte	0
 11394 15a7 00000000 		.4byte	0
 11395              	.LLST132:
 11396 15ab 2A000000 		.4byte	.LVL373
 11397 15af 72000000 		.4byte	.LVL376
 11398 15b3 0100     		.2byte	0x1
 11399 15b5 54       		.byte	0x54
 11400 15b6 74000000 		.4byte	.LVL377
 11401 15ba 76000000 		.4byte	.LVL378
 11402 15be 0100     		.2byte	0x1
 11403 15c0 54       		.byte	0x54
 11404 15c1 78000000 		.4byte	.LVL379
 11405 15c5 82000000 		.4byte	.LVL381
 11406 15c9 0100     		.2byte	0x1
 11407 15cb 54       		.byte	0x54
 11408 15cc 00000000 		.4byte	0
 11409 15d0 00000000 		.4byte	0
 11410              	.LLST133:
 11411 15d4 00000000 		.4byte	.LVL384
 11412 15d8 36000000 		.4byte	.LVL392
 11413 15dc 0100     		.2byte	0x1
 11414 15de 50       		.byte	0x50
 11415 15df 36000000 		.4byte	.LVL392
 11416 15e3 A4000000 		.4byte	.LFE61
 11417 15e7 0400     		.2byte	0x4
 11418 15e9 F3       		.byte	0xf3
 11419 15ea 01       		.uleb128 0x1
 11420 15eb 50       		.byte	0x50
ARM GAS  C:\Users\PC\AppData\Local\Temp\ccKVdNiW.s 			page 222


 11421 15ec 9F       		.byte	0x9f
 11422 15ed 00000000 		.4byte	0
 11423 15f1 00000000 		.4byte	0
 11424              	.LLST134:
 11425 15f5 00000000 		.4byte	.LVL384
 11426 15f9 28000000 		.4byte	.LVL390
 11427 15fd 0100     		.2byte	0x1
 11428 15ff 51       		.byte	0x51
 11429 1600 28000000 		.4byte	.LVL390
 11430 1604 36000000 		.4byte	.LVL392
 11431 1608 0400     		.2byte	0x4
 11432 160a F3       		.byte	0xf3
 11433 160b 01       		.uleb128 0x1
 11434 160c 51       		.byte	0x51
 11435 160d 9F       		.byte	0x9f
 11436 160e 36000000 		.4byte	.LVL392
 11437 1612 A4000000 		.4byte	.LFE61
 11438 1616 0200     		.2byte	0x2
 11439 1618 91       		.byte	0x91
 11440 1619 4C       		.sleb128 -52
 11441 161a 00000000 		.4byte	0
 11442 161e 00000000 		.4byte	0
 11443              	.LLST135:
 11444 1622 00000000 		.4byte	.LVL384
 11445 1626 16000000 		.4byte	.LVL385
 11446 162a 0100     		.2byte	0x1
 11447 162c 52       		.byte	0x52
 11448 162d 16000000 		.4byte	.LVL385
 11449 1631 98000000 		.4byte	.LVL410
 11450 1635 0100     		.2byte	0x1
 11451 1637 5B       		.byte	0x5b
 11452 1638 98000000 		.4byte	.LVL410
 11453 163c A4000000 		.4byte	.LFE61
 11454 1640 0400     		.2byte	0x4
 11455 1642 F3       		.byte	0xf3
 11456 1643 01       		.uleb128 0x1
 11457 1644 52       		.byte	0x52
 11458 1645 9F       		.byte	0x9f
 11459 1646 00000000 		.4byte	0
 11460 164a 00000000 		.4byte	0
 11461              	.LLST136:
 11462 164e 00000000 		.4byte	.LVL384
 11463 1652 24000000 		.4byte	.LVL389
 11464 1656 0100     		.2byte	0x1
 11465 1658 53       		.byte	0x53
 11466 1659 24000000 		.4byte	.LVL389
 11467 165d A4000000 		.4byte	.LFE61
 11468 1661 0400     		.2byte	0x4
 11469 1663 F3       		.byte	0xf3
 11470 1664 01       		.uleb128 0x1
 11471 1665 53       		.byte	0x53
 11472 1666 9F       		.byte	0x9f
 11473 1667 00000000 		.4byte	0
 11474 166b 00000000 		.4byte	0
 11475              	.LLST137:
 11476 166f 00000000 		.4byte	.LVL384
 11477 1673 16000000 		.4byte	.LVL385
ARM GAS  C:\Users\PC\AppData\Local\Temp\ccKVdNiW.s 			page 223


 11478 1677 0200     		.2byte	0x2
 11479 1679 91       		.byte	0x91
 11480 167a 00       		.sleb128 0
 11481 167b 16000000 		.4byte	.LVL385
 11482 167f 18000000 		.4byte	.LVL386
 11483 1683 0200     		.2byte	0x2
 11484 1685 72       		.byte	0x72
 11485 1686 00       		.sleb128 0
 11486 1687 18000000 		.4byte	.LVL386
 11487 168b A4000000 		.4byte	.LFE61
 11488 168f 0200     		.2byte	0x2
 11489 1691 91       		.byte	0x91
 11490 1692 00       		.sleb128 0
 11491 1693 00000000 		.4byte	0
 11492 1697 00000000 		.4byte	0
 11493              	.LLST138:
 11494 169b 00000000 		.4byte	.LVL384
 11495 169f 16000000 		.4byte	.LVL385
 11496 16a3 0200     		.2byte	0x2
 11497 16a5 91       		.byte	0x91
 11498 16a6 04       		.sleb128 4
 11499 16a7 16000000 		.4byte	.LVL385
 11500 16ab 18000000 		.4byte	.LVL386
 11501 16af 0200     		.2byte	0x2
 11502 16b1 72       		.byte	0x72
 11503 16b2 04       		.sleb128 4
 11504 16b3 18000000 		.4byte	.LVL386
 11505 16b7 1C000000 		.4byte	.LVL387
 11506 16bb 0200     		.2byte	0x2
 11507 16bd 91       		.byte	0x91
 11508 16be 04       		.sleb128 4
 11509 16bf 1C000000 		.4byte	.LVL387
 11510 16c3 1E000000 		.4byte	.LVL388
 11511 16c7 0200     		.2byte	0x2
 11512 16c9 72       		.byte	0x72
 11513 16ca 00       		.sleb128 0
 11514 16cb 1E000000 		.4byte	.LVL388
 11515 16cf A4000000 		.4byte	.LFE61
 11516 16d3 0200     		.2byte	0x2
 11517 16d5 91       		.byte	0x91
 11518 16d6 04       		.sleb128 4
 11519 16d7 00000000 		.4byte	0
 11520 16db 00000000 		.4byte	0
 11521              	.LLST139:
 11522 16df 30000000 		.4byte	.LVL391
 11523 16e3 36000000 		.4byte	.LVL392
 11524 16e7 0100     		.2byte	0x1
 11525 16e9 59       		.byte	0x59
 11526 16ea 36000000 		.4byte	.LVL392
 11527 16ee 70000000 		.4byte	.LVL400
 11528 16f2 0100     		.2byte	0x1
 11529 16f4 57       		.byte	0x57
 11530 16f5 70000000 		.4byte	.LVL400
 11531 16f9 76000000 		.4byte	.LVL401
 11532 16fd 0100     		.2byte	0x1
 11533 16ff 59       		.byte	0x59
 11534 1700 76000000 		.4byte	.LVL401
ARM GAS  C:\Users\PC\AppData\Local\Temp\ccKVdNiW.s 			page 224


 11535 1704 78000000 		.4byte	.LVL402
 11536 1708 0100     		.2byte	0x1
 11537 170a 53       		.byte	0x53
 11538 170b 78000000 		.4byte	.LVL402
 11539 170f 80000000 		.4byte	.LVL403
 11540 1713 0100     		.2byte	0x1
 11541 1715 57       		.byte	0x57
 11542 1716 80000000 		.4byte	.LVL403
 11543 171a 88000000 		.4byte	.LVL405
 11544 171e 0100     		.2byte	0x1
 11545 1720 53       		.byte	0x53
 11546 1721 88000000 		.4byte	.LVL405
 11547 1725 98000000 		.4byte	.LVL409
 11548 1729 0100     		.2byte	0x1
 11549 172b 59       		.byte	0x59
 11550 172c 00000000 		.4byte	0
 11551 1730 00000000 		.4byte	0
 11552              	.LLST140:
 11553 1734 30000000 		.4byte	.LVL391
 11554 1738 36000000 		.4byte	.LVL392
 11555 173c 0200     		.2byte	0x2
 11556 173e 30       		.byte	0x30
 11557 173f 9F       		.byte	0x9f
 11558 1740 36000000 		.4byte	.LVL392
 11559 1744 3E000000 		.4byte	.LVL393
 11560 1748 0100     		.2byte	0x1
 11561 174a 55       		.byte	0x55
 11562 174b 40000000 		.4byte	.LVL394
 11563 174f 98000000 		.4byte	.LVL407
 11564 1753 0100     		.2byte	0x1
 11565 1755 55       		.byte	0x55
 11566 1756 00000000 		.4byte	0
 11567 175a 00000000 		.4byte	0
 11568              	.LLST141:
 11569 175e 30000000 		.4byte	.LVL391
 11570 1762 36000000 		.4byte	.LVL392
 11571 1766 0200     		.2byte	0x2
 11572 1768 30       		.byte	0x30
 11573 1769 9F       		.byte	0x9f
 11574 176a 70000000 		.4byte	.LVL400
 11575 176e 78000000 		.4byte	.LVL402
 11576 1772 0100     		.2byte	0x1
 11577 1774 57       		.byte	0x57
 11578 1775 86000000 		.4byte	.LVL404
 11579 1779 98000000 		.4byte	.LVL408
 11580 177d 0100     		.2byte	0x1
 11581 177f 57       		.byte	0x57
 11582 1780 00000000 		.4byte	0
 11583 1784 00000000 		.4byte	0
 11584              	.LLST142:
 11585 1788 36000000 		.4byte	.LVL392
 11586 178c 64000000 		.4byte	.LVL396
 11587 1790 0100     		.2byte	0x1
 11588 1792 50       		.byte	0x50
 11589 1793 64000000 		.4byte	.LVL396
 11590 1797 6C000000 		.4byte	.LVL398
 11591 179b 0100     		.2byte	0x1
ARM GAS  C:\Users\PC\AppData\Local\Temp\ccKVdNiW.s 			page 225


 11592 179d 54       		.byte	0x54
 11593 179e 6C000000 		.4byte	.LVL398
 11594 17a2 6E000000 		.4byte	.LVL399
 11595 17a6 0300     		.2byte	0x3
 11596 17a8 74       		.byte	0x74
 11597 17a9 7F       		.sleb128 -1
 11598 17aa 9F       		.byte	0x9f
 11599 17ab 6E000000 		.4byte	.LVL399
 11600 17af 70000000 		.4byte	.LVL400
 11601 17b3 0100     		.2byte	0x1
 11602 17b5 50       		.byte	0x50
 11603 17b6 78000000 		.4byte	.LVL402
 11604 17ba 8E000000 		.4byte	.LVL406
 11605 17be 0100     		.2byte	0x1
 11606 17c0 50       		.byte	0x50
 11607 17c1 00000000 		.4byte	0
 11608 17c5 00000000 		.4byte	0
 11609              	.LLST143:
 11610 17c9 00000000 		.4byte	.LVL411
 11611 17cd 3E000000 		.4byte	.LVL421
 11612 17d1 0100     		.2byte	0x1
 11613 17d3 50       		.byte	0x50
 11614 17d4 3E000000 		.4byte	.LVL421
 11615 17d8 B6000000 		.4byte	.LFE62
 11616 17dc 0400     		.2byte	0x4
 11617 17de F3       		.byte	0xf3
 11618 17df 01       		.uleb128 0x1
 11619 17e0 50       		.byte	0x50
 11620 17e1 9F       		.byte	0x9f
 11621 17e2 00000000 		.4byte	0
 11622 17e6 00000000 		.4byte	0
 11623              	.LLST144:
 11624 17ea 00000000 		.4byte	.LVL411
 11625 17ee 2E000000 		.4byte	.LVL419
 11626 17f2 0100     		.2byte	0x1
 11627 17f4 51       		.byte	0x51
 11628 17f5 2E000000 		.4byte	.LVL419
 11629 17f9 3E000000 		.4byte	.LVL421
 11630 17fd 0400     		.2byte	0x4
 11631 17ff F3       		.byte	0xf3
 11632 1800 01       		.uleb128 0x1
 11633 1801 51       		.byte	0x51
 11634 1802 9F       		.byte	0x9f
 11635 1803 3E000000 		.4byte	.LVL421
 11636 1807 AA000000 		.4byte	.LVL436
 11637 180b 0200     		.2byte	0x2
 11638 180d 7D       		.byte	0x7d
 11639 180e 00       		.sleb128 0
 11640 180f AA000000 		.4byte	.LVL436
 11641 1813 B6000000 		.4byte	.LFE62
 11642 1817 0200     		.2byte	0x2
 11643 1819 91       		.byte	0x91
 11644 181a 48       		.sleb128 -56
 11645 181b 00000000 		.4byte	0
 11646 181f 00000000 		.4byte	0
 11647              	.LLST145:
 11648 1823 00000000 		.4byte	.LVL411
ARM GAS  C:\Users\PC\AppData\Local\Temp\ccKVdNiW.s 			page 226


 11649 1827 16000000 		.4byte	.LVL412
 11650 182b 0100     		.2byte	0x1
 11651 182d 52       		.byte	0x52
 11652 182e 16000000 		.4byte	.LVL412
 11653 1832 AA000000 		.4byte	.LVL440
 11654 1836 0100     		.2byte	0x1
 11655 1838 5B       		.byte	0x5b
 11656 1839 AA000000 		.4byte	.LVL440
 11657 183d B6000000 		.4byte	.LFE62
 11658 1841 0400     		.2byte	0x4
 11659 1843 F3       		.byte	0xf3
 11660 1844 01       		.uleb128 0x1
 11661 1845 52       		.byte	0x52
 11662 1846 9F       		.byte	0x9f
 11663 1847 00000000 		.4byte	0
 11664 184b 00000000 		.4byte	0
 11665              	.LLST146:
 11666 184f 00000000 		.4byte	.LVL411
 11667 1853 2A000000 		.4byte	.LVL418
 11668 1857 0100     		.2byte	0x1
 11669 1859 53       		.byte	0x53
 11670 185a 2A000000 		.4byte	.LVL418
 11671 185e B6000000 		.4byte	.LFE62
 11672 1862 0400     		.2byte	0x4
 11673 1864 F3       		.byte	0xf3
 11674 1865 01       		.uleb128 0x1
 11675 1866 53       		.byte	0x53
 11676 1867 9F       		.byte	0x9f
 11677 1868 00000000 		.4byte	0
 11678 186c 00000000 		.4byte	0
 11679              	.LLST147:
 11680 1870 00000000 		.4byte	.LVL411
 11681 1874 16000000 		.4byte	.LVL412
 11682 1878 0200     		.2byte	0x2
 11683 187a 91       		.byte	0x91
 11684 187b 00       		.sleb128 0
 11685 187c 16000000 		.4byte	.LVL412
 11686 1880 18000000 		.4byte	.LVL413
 11687 1884 0200     		.2byte	0x2
 11688 1886 72       		.byte	0x72
 11689 1887 00       		.sleb128 0
 11690 1888 18000000 		.4byte	.LVL413
 11691 188c B6000000 		.4byte	.LFE62
 11692 1890 0200     		.2byte	0x2
 11693 1892 91       		.byte	0x91
 11694 1893 00       		.sleb128 0
 11695 1894 00000000 		.4byte	0
 11696 1898 00000000 		.4byte	0
 11697              	.LLST148:
 11698 189c 00000000 		.4byte	.LVL411
 11699 18a0 16000000 		.4byte	.LVL412
 11700 18a4 0200     		.2byte	0x2
 11701 18a6 91       		.byte	0x91
 11702 18a7 04       		.sleb128 4
 11703 18a8 16000000 		.4byte	.LVL412
 11704 18ac 18000000 		.4byte	.LVL413
 11705 18b0 0200     		.2byte	0x2
ARM GAS  C:\Users\PC\AppData\Local\Temp\ccKVdNiW.s 			page 227


 11706 18b2 72       		.byte	0x72
 11707 18b3 04       		.sleb128 4
 11708 18b4 18000000 		.4byte	.LVL413
 11709 18b8 1C000000 		.4byte	.LVL414
 11710 18bc 0200     		.2byte	0x2
 11711 18be 91       		.byte	0x91
 11712 18bf 04       		.sleb128 4
 11713 18c0 1C000000 		.4byte	.LVL414
 11714 18c4 1E000000 		.4byte	.LVL415
 11715 18c8 0200     		.2byte	0x2
 11716 18ca 72       		.byte	0x72
 11717 18cb 00       		.sleb128 0
 11718 18cc 1E000000 		.4byte	.LVL415
 11719 18d0 B6000000 		.4byte	.LFE62
 11720 18d4 0200     		.2byte	0x2
 11721 18d6 91       		.byte	0x91
 11722 18d7 04       		.sleb128 4
 11723 18d8 00000000 		.4byte	0
 11724 18dc 00000000 		.4byte	0
 11725              	.LLST149:
 11726 18e0 00000000 		.4byte	.LVL411
 11727 18e4 16000000 		.4byte	.LVL412
 11728 18e8 0200     		.2byte	0x2
 11729 18ea 91       		.byte	0x91
 11730 18eb 08       		.sleb128 8
 11731 18ec 16000000 		.4byte	.LVL412
 11732 18f0 18000000 		.4byte	.LVL413
 11733 18f4 0200     		.2byte	0x2
 11734 18f6 72       		.byte	0x72
 11735 18f7 08       		.sleb128 8
 11736 18f8 18000000 		.4byte	.LVL413
 11737 18fc 22000000 		.4byte	.LVL416
 11738 1900 0200     		.2byte	0x2
 11739 1902 91       		.byte	0x91
 11740 1903 08       		.sleb128 8
 11741 1904 22000000 		.4byte	.LVL416
 11742 1908 24000000 		.4byte	.LVL417
 11743 190c 0200     		.2byte	0x2
 11744 190e 72       		.byte	0x72
 11745 190f 00       		.sleb128 0
 11746 1910 24000000 		.4byte	.LVL417
 11747 1914 B6000000 		.4byte	.LFE62
 11748 1918 0200     		.2byte	0x2
 11749 191a 91       		.byte	0x91
 11750 191b 08       		.sleb128 8
 11751 191c 00000000 		.4byte	0
 11752 1920 00000000 		.4byte	0
 11753              	.LLST150:
 11754 1924 36000000 		.4byte	.LVL420
 11755 1928 AA000000 		.4byte	.LVL439
 11756 192c 0100     		.2byte	0x1
 11757 192e 5A       		.byte	0x5a
 11758 192f 00000000 		.4byte	0
 11759 1933 00000000 		.4byte	0
 11760              	.LLST151:
 11761 1937 36000000 		.4byte	.LVL420
 11762 193b 3E000000 		.4byte	.LVL421
ARM GAS  C:\Users\PC\AppData\Local\Temp\ccKVdNiW.s 			page 228


 11763 193f 0200     		.2byte	0x2
 11764 1941 30       		.byte	0x30
 11765 1942 9F       		.byte	0x9f
 11766 1943 3E000000 		.4byte	.LVL421
 11767 1947 46000000 		.4byte	.LVL422
 11768 194b 0100     		.2byte	0x1
 11769 194d 55       		.byte	0x55
 11770 194e 48000000 		.4byte	.LVL423
 11771 1952 AA000000 		.4byte	.LVL437
 11772 1956 0100     		.2byte	0x1
 11773 1958 55       		.byte	0x55
 11774 1959 00000000 		.4byte	0
 11775 195d 00000000 		.4byte	0
 11776              	.LLST152:
 11777 1961 36000000 		.4byte	.LVL420
 11778 1965 3E000000 		.4byte	.LVL421
 11779 1969 0200     		.2byte	0x2
 11780 196b 30       		.byte	0x30
 11781 196c 9F       		.byte	0x9f
 11782 196d 3E000000 		.4byte	.LVL421
 11783 1971 AA000000 		.4byte	.LVL438
 11784 1975 0100     		.2byte	0x1
 11785 1977 58       		.byte	0x58
 11786 1978 00000000 		.4byte	0
 11787 197c 00000000 		.4byte	0
 11788              	.LLST153:
 11789 1980 3E000000 		.4byte	.LVL421
 11790 1984 6E000000 		.4byte	.LVL425
 11791 1988 0100     		.2byte	0x1
 11792 198a 50       		.byte	0x50
 11793 198b 6E000000 		.4byte	.LVL425
 11794 198f 76000000 		.4byte	.LVL427
 11795 1993 0100     		.2byte	0x1
 11796 1995 54       		.byte	0x54
 11797 1996 76000000 		.4byte	.LVL427
 11798 199a 7E000000 		.4byte	.LVL428
 11799 199e 0100     		.2byte	0x1
 11800 19a0 50       		.byte	0x50
 11801 19a1 7E000000 		.4byte	.LVL428
 11802 19a5 86000000 		.4byte	.LVL430
 11803 19a9 0100     		.2byte	0x1
 11804 19ab 54       		.byte	0x54
 11805 19ac 86000000 		.4byte	.LVL430
 11806 19b0 88000000 		.4byte	.LVL431
 11807 19b4 0300     		.2byte	0x3
 11808 19b6 74       		.byte	0x74
 11809 19b7 7F       		.sleb128 -1
 11810 19b8 9F       		.byte	0x9f
 11811 19b9 88000000 		.4byte	.LVL431
 11812 19bd 8A000000 		.4byte	.LVL432
 11813 19c1 0100     		.2byte	0x1
 11814 19c3 50       		.byte	0x50
 11815 19c4 8C000000 		.4byte	.LVL433
 11816 19c8 A0000000 		.4byte	.LVL435
 11817 19cc 0100     		.2byte	0x1
 11818 19ce 50       		.byte	0x50
 11819 19cf 00000000 		.4byte	0
ARM GAS  C:\Users\PC\AppData\Local\Temp\ccKVdNiW.s 			page 229


 11820 19d3 00000000 		.4byte	0
 11821              		.section	.debug_aranges,"",%progbits
 11822 0000 04010000 		.4byte	0x104
 11823 0004 0200     		.2byte	0x2
 11824 0006 00000000 		.4byte	.Ldebug_info0
 11825 000a 04       		.byte	0x4
 11826 000b 00       		.byte	0
 11827 000c 0000     		.2byte	0
 11828 000e 0000     		.2byte	0
 11829 0010 00000000 		.4byte	.LFB33
 11830 0014 C8000000 		.4byte	.LFE33-.LFB33
 11831 0018 00000000 		.4byte	.LFB34
 11832 001c 54000000 		.4byte	.LFE34-.LFB34
 11833 0020 00000000 		.4byte	.LFB35
 11834 0024 48010000 		.4byte	.LFE35-.LFB35
 11835 0028 00000000 		.4byte	.LFB36
 11836 002c 88010000 		.4byte	.LFE36-.LFB36
 11837 0030 00000000 		.4byte	.LFB38
 11838 0034 3C010000 		.4byte	.LFE38-.LFB38
 11839 0038 00000000 		.4byte	.LFB37
 11840 003c 36000000 		.4byte	.LFE37-.LFB37
 11841 0040 00000000 		.4byte	.LFB39
 11842 0044 4E000000 		.4byte	.LFE39-.LFB39
 11843 0048 00000000 		.4byte	.LFB40
 11844 004c 1E010000 		.4byte	.LFE40-.LFB40
 11845 0050 00000000 		.4byte	.LFB41
 11846 0054 8A000000 		.4byte	.LFE41-.LFB41
 11847 0058 00000000 		.4byte	.LFB42
 11848 005c 40000000 		.4byte	.LFE42-.LFB42
 11849 0060 00000000 		.4byte	.LFB43
 11850 0064 B4010000 		.4byte	.LFE43-.LFB43
 11851 0068 00000000 		.4byte	.LFB44
 11852 006c AC010000 		.4byte	.LFE44-.LFB44
 11853 0070 00000000 		.4byte	.LFB45
 11854 0074 14000000 		.4byte	.LFE45-.LFB45
 11855 0078 00000000 		.4byte	.LFB46
 11856 007c 70010000 		.4byte	.LFE46-.LFB46
 11857 0080 00000000 		.4byte	.LFB48
 11858 0084 0C000000 		.4byte	.LFE48-.LFB48
 11859 0088 00000000 		.4byte	.LFB49
 11860 008c 0C000000 		.4byte	.LFE49-.LFB49
 11861 0090 00000000 		.4byte	.LFB50
 11862 0094 0C000000 		.4byte	.LFE50-.LFB50
 11863 0098 00000000 		.4byte	.LFB51
 11864 009c 10000000 		.4byte	.LFE51-.LFB51
 11865 00a0 00000000 		.4byte	.LFB52
 11866 00a4 0C000000 		.4byte	.LFE52-.LFB52
 11867 00a8 00000000 		.4byte	.LFB47
 11868 00ac 74000000 		.4byte	.LFE47-.LFB47
 11869 00b0 00000000 		.4byte	.LFB53
 11870 00b4 0C000000 		.4byte	.LFE53-.LFB53
 11871 00b8 00000000 		.4byte	.LFB54
 11872 00bc 0C000000 		.4byte	.LFE54-.LFB54
 11873 00c0 00000000 		.4byte	.LFB55
 11874 00c4 0C000000 		.4byte	.LFE55-.LFB55
 11875 00c8 00000000 		.4byte	.LFB56
 11876 00cc 0C000000 		.4byte	.LFE56-.LFB56
ARM GAS  C:\Users\PC\AppData\Local\Temp\ccKVdNiW.s 			page 230


 11877 00d0 00000000 		.4byte	.LFB57
 11878 00d4 0C000000 		.4byte	.LFE57-.LFB57
 11879 00d8 00000000 		.4byte	.LFB58
 11880 00dc 14000000 		.4byte	.LFE58-.LFB58
 11881 00e0 00000000 		.4byte	.LFB59
 11882 00e4 76000000 		.4byte	.LFE59-.LFB59
 11883 00e8 00000000 		.4byte	.LFB60
 11884 00ec 96000000 		.4byte	.LFE60-.LFB60
 11885 00f0 00000000 		.4byte	.LFB61
 11886 00f4 A4000000 		.4byte	.LFE61-.LFB61
 11887 00f8 00000000 		.4byte	.LFB62
 11888 00fc B6000000 		.4byte	.LFE62-.LFB62
 11889 0100 00000000 		.4byte	0
 11890 0104 00000000 		.4byte	0
 11891              		.section	.debug_ranges,"",%progbits
 11892              	.Ldebug_ranges0:
 11893 0000 3E000000 		.4byte	.LBB14
 11894 0004 EC000000 		.4byte	.LBE14
 11895 0008 EE000000 		.4byte	.LBB17
 11896 000c F2000000 		.4byte	.LBE17
 11897 0010 00000000 		.4byte	0
 11898 0014 00000000 		.4byte	0
 11899 0018 24000000 		.4byte	.LBB22
 11900 001c 56000000 		.4byte	.LBE22
 11901 0020 58000000 		.4byte	.LBB23
 11902 0024 5E000000 		.4byte	.LBE23
 11903 0028 00000000 		.4byte	0
 11904 002c 00000000 		.4byte	0
 11905 0030 2A000000 		.4byte	.LBB25
 11906 0034 76000000 		.4byte	.LBE25
 11907 0038 78000000 		.4byte	.LBB26
 11908 003c 7E000000 		.4byte	.LBE26
 11909 0040 00000000 		.4byte	0
 11910 0044 00000000 		.4byte	0
 11911 0048 30000000 		.4byte	.LBB27
 11912 004c 32000000 		.4byte	.LBE27
 11913 0050 34000000 		.4byte	.LBB30
 11914 0054 96000000 		.4byte	.LBE30
 11915 0058 00000000 		.4byte	0
 11916 005c 00000000 		.4byte	0
 11917 0060 36000000 		.4byte	.LBB28
 11918 0064 70000000 		.4byte	.LBE28
 11919 0068 78000000 		.4byte	.LBB29
 11920 006c 82000000 		.4byte	.LBE29
 11921 0070 00000000 		.4byte	0
 11922 0074 00000000 		.4byte	0
 11923 0078 36000000 		.4byte	.LBB31
 11924 007c 3A000000 		.4byte	.LBE31
 11925 0080 3C000000 		.4byte	.LBB34
 11926 0084 A8000000 		.4byte	.LBE34
 11927 0088 00000000 		.4byte	0
 11928 008c 00000000 		.4byte	0
 11929 0090 3E000000 		.4byte	.LBB32
 11930 0094 8A000000 		.4byte	.LBE32
 11931 0098 8C000000 		.4byte	.LBB33
 11932 009c 90000000 		.4byte	.LBE33
 11933 00a0 00000000 		.4byte	0
ARM GAS  C:\Users\PC\AppData\Local\Temp\ccKVdNiW.s 			page 231


 11934 00a4 00000000 		.4byte	0
 11935 00a8 00000000 		.4byte	.LFB33
 11936 00ac C8000000 		.4byte	.LFE33
 11937 00b0 00000000 		.4byte	.LFB34
 11938 00b4 54000000 		.4byte	.LFE34
 11939 00b8 00000000 		.4byte	.LFB35
 11940 00bc 48010000 		.4byte	.LFE35
 11941 00c0 00000000 		.4byte	.LFB36
 11942 00c4 88010000 		.4byte	.LFE36
 11943 00c8 00000000 		.4byte	.LFB38
 11944 00cc 3C010000 		.4byte	.LFE38
 11945 00d0 00000000 		.4byte	.LFB37
 11946 00d4 36000000 		.4byte	.LFE37
 11947 00d8 00000000 		.4byte	.LFB39
 11948 00dc 4E000000 		.4byte	.LFE39
 11949 00e0 00000000 		.4byte	.LFB40
 11950 00e4 1E010000 		.4byte	.LFE40
 11951 00e8 00000000 		.4byte	.LFB41
 11952 00ec 8A000000 		.4byte	.LFE41
 11953 00f0 00000000 		.4byte	.LFB42
 11954 00f4 40000000 		.4byte	.LFE42
 11955 00f8 00000000 		.4byte	.LFB43
 11956 00fc B4010000 		.4byte	.LFE43
 11957 0100 00000000 		.4byte	.LFB44
 11958 0104 AC010000 		.4byte	.LFE44
 11959 0108 00000000 		.4byte	.LFB45
 11960 010c 14000000 		.4byte	.LFE45
 11961 0110 00000000 		.4byte	.LFB46
 11962 0114 70010000 		.4byte	.LFE46
 11963 0118 00000000 		.4byte	.LFB48
 11964 011c 0C000000 		.4byte	.LFE48
 11965 0120 00000000 		.4byte	.LFB49
 11966 0124 0C000000 		.4byte	.LFE49
 11967 0128 00000000 		.4byte	.LFB50
 11968 012c 0C000000 		.4byte	.LFE50
 11969 0130 00000000 		.4byte	.LFB51
 11970 0134 10000000 		.4byte	.LFE51
 11971 0138 00000000 		.4byte	.LFB52
 11972 013c 0C000000 		.4byte	.LFE52
 11973 0140 00000000 		.4byte	.LFB47
 11974 0144 74000000 		.4byte	.LFE47
 11975 0148 00000000 		.4byte	.LFB53
 11976 014c 0C000000 		.4byte	.LFE53
 11977 0150 00000000 		.4byte	.LFB54
 11978 0154 0C000000 		.4byte	.LFE54
 11979 0158 00000000 		.4byte	.LFB55
 11980 015c 0C000000 		.4byte	.LFE55
 11981 0160 00000000 		.4byte	.LFB56
 11982 0164 0C000000 		.4byte	.LFE56
 11983 0168 00000000 		.4byte	.LFB57
 11984 016c 0C000000 		.4byte	.LFE57
 11985 0170 00000000 		.4byte	.LFB58
 11986 0174 14000000 		.4byte	.LFE58
 11987 0178 00000000 		.4byte	.LFB59
 11988 017c 76000000 		.4byte	.LFE59
 11989 0180 00000000 		.4byte	.LFB60
 11990 0184 96000000 		.4byte	.LFE60
ARM GAS  C:\Users\PC\AppData\Local\Temp\ccKVdNiW.s 			page 232


 11991 0188 00000000 		.4byte	.LFB61
 11992 018c A4000000 		.4byte	.LFE61
 11993 0190 00000000 		.4byte	.LFB62
 11994 0194 B6000000 		.4byte	.LFE62
 11995 0198 00000000 		.4byte	0
 11996 019c 00000000 		.4byte	0
 11997              		.section	.debug_line,"",%progbits
 11998              	.Ldebug_line0:
 11999 0000 E3050000 		.section	.debug_str,"MS",%progbits,1
 11999      02003C01 
 11999      00000201 
 11999      FB0E0D00 
 11999      01010101 
 12000              	.LASF62:
 12001 0000 70726576 		.ascii	"prev_x\000"
 12001      5F7800
 12002              	.LASF44:
 12003 0007 6C617374 		.ascii	"last\000"
 12003      00
 12004              	.LASF94:
 12005 000c 64726177 		.ascii	"drawHLine\000"
 12005      484C696E 
 12005      6500
 12006              	.LASF45:
 12007 0016 64783031 		.ascii	"dx01\000"
 12007      00
 12008              	.LASF47:
 12009 001b 64783032 		.ascii	"dx02\000"
 12009      00
 12010              	.LASF12:
 12011 0020 756E7369 		.ascii	"unsigned int\000"
 12011      676E6564 
 12011      20696E74 
 12011      00
 12012              	.LASF79:
 12013 002d 5F627974 		.ascii	"_byte\000"
 12013      6500
 12014              	.LASF7:
 12015 0033 5F5F696E 		.ascii	"__int32_t\000"
 12015      7433325F 
 12015      7400
 12016              	.LASF73:
 12017 003d 626C7565 		.ascii	"blue\000"
 12017      00
 12018              	.LASF80:
 12019 0042 64697370 		.ascii	"display_drawBitmapV2_bg\000"
 12019      6C61795F 
 12019      64726177 
 12019      4269746D 
 12019      61705632 
 12020              	.LASF49:
 12021 005a 64783132 		.ascii	"dx12\000"
 12021      00
 12022              	.LASF69:
 12023 005f 64697370 		.ascii	"display_getRotation\000"
 12023      6C61795F 
 12023      67657452 
ARM GAS  C:\Users\PC\AppData\Local\Temp\ccKVdNiW.s 			page 233


 12023      6F746174 
 12023      696F6E00 
 12024              	.LASF37:
 12025 0073 64697370 		.ascii	"display_drawRect\000"
 12025      6C61795F 
 12025      64726177 
 12025      52656374 
 12025      00
 12026              	.LASF31:
 12027 0084 64697370 		.ascii	"display_drawCircleHelper\000"
 12027      6C61795F 
 12027      64726177 
 12027      43697263 
 12027      6C654865 
 12028              	.LASF93:
 12029 009d 64726177 		.ascii	"drawVLine\000"
 12029      564C696E 
 12029      6500
 12030              	.LASF98:
 12031 00a7 433A5C55 		.ascii	"C:\\Users\\PC\\Documents\\PSoC Creator\\yellowChip\\"
 12031      73657273 
 12031      5C50435C 
 12031      446F6375 
 12031      6D656E74 
 12032 00d5 4F6C6564 		.ascii	"Oled.cydsn\000"
 12032      2E637964 
 12032      736E00
 12033              	.LASF74:
 12034 00e0 64697370 		.ascii	"display_drawBitmapV1\000"
 12034      6C61795F 
 12034      64726177 
 12034      4269746D 
 12034      61705631 
 12035              	.LASF77:
 12036 00f5 64697370 		.ascii	"display_drawBitmapV2\000"
 12036      6C61795F 
 12036      64726177 
 12036      4269746D 
 12036      61705632 
 12037              	.LASF83:
 12038 010a 726F7461 		.ascii	"rotation\000"
 12038      74696F6E 
 12038      00
 12039              	.LASF51:
 12040 0113 64697370 		.ascii	"display_print\000"
 12040      6C61795F 
 12040      7072696E 
 12040      7400
 12041              	.LASF17:
 12042 0121 666C6F61 		.ascii	"float\000"
 12042      7400
 12043              	.LASF96:
 12044 0127 474E5520 		.ascii	"GNU C11 5.4.1 20160609 (release) [ARM/embedded-5-br"
 12044      43313120 
 12044      352E342E 
 12044      31203230 
 12044      31363036 
ARM GAS  C:\Users\PC\AppData\Local\Temp\ccKVdNiW.s 			page 234


 12045 015a 616E6368 		.ascii	"anch revision 237715] -mcpu=cortex-m0plus -mthumb -"
 12045      20726576 
 12045      6973696F 
 12045      6E203233 
 12045      37373135 
 12046 018d 67202D4F 		.ascii	"g -Og -ffunction-sections -ffat-lto-objects\000"
 12046      67202D66 
 12046      66756E63 
 12046      74696F6E 
 12046      2D736563 
 12047              	.LASF86:
 12048 01b9 63757273 		.ascii	"cursor_x\000"
 12048      6F725F78 
 12048      00
 12049              	.LASF87:
 12050 01c2 63757273 		.ascii	"cursor_y\000"
 12050      6F725F79 
 12050      00
 12051              	.LASF90:
 12052 01cb 74657874 		.ascii	"textsize\000"
 12052      73697A65 
 12052      00
 12053              	.LASF14:
 12054 01d4 696E7431 		.ascii	"int16_t\000"
 12054      365F7400 
 12055              	.LASF64:
 12056 01dc 70726576 		.ascii	"prev_color\000"
 12056      5F636F6C 
 12056      6F7200
 12057              	.LASF11:
 12058 01e7 6C6F6E67 		.ascii	"long long unsigned int\000"
 12058      206C6F6E 
 12058      6720756E 
 12058      7369676E 
 12058      65642069 
 12059              	.LASF34:
 12060 01fe 636F726E 		.ascii	"corners\000"
 12060      65727300 
 12061              	.LASF5:
 12062 0206 5F5F7569 		.ascii	"__uint16_t\000"
 12062      6E743136 
 12062      5F7400
 12063              	.LASF38:
 12064 0211 64697370 		.ascii	"display_drawRoundRect\000"
 12064      6C61795F 
 12064      64726177 
 12064      526F756E 
 12064      64526563 
 12065              	.LASF82:
 12066 0227 5F766363 		.ascii	"_vccstate\000"
 12066      73746174 
 12066      6500
 12067              	.LASF92:
 12068 0231 64726177 		.ascii	"drawPixel\000"
 12068      50697865 
 12068      6C00
 12069              	.LASF25:
ARM GAS  C:\Users\PC\AppData\Local\Temp\ccKVdNiW.s 			page 235


 12070 023b 5F426F6F 		.ascii	"_Bool\000"
 12070      6C00
 12071              	.LASF66:
 12072 0241 70726576 		.ascii	"prev_size\000"
 12072      5F73697A 
 12072      6500
 12073              	.LASF43:
 12074 024b 64697370 		.ascii	"display_fillTriangle\000"
 12074      6C61795F 
 12074      66696C6C 
 12074      54726961 
 12074      6E676C65 
 12075              	.LASF56:
 12076 0260 64697370 		.ascii	"display_getCursorX\000"
 12076      6C61795F 
 12076      67657443 
 12076      7572736F 
 12076      725800
 12077              	.LASF57:
 12078 0273 64697370 		.ascii	"display_getCursorY\000"
 12078      6C61795F 
 12078      67657443 
 12078      7572736F 
 12078      725900
 12079              	.LASF36:
 12080 0286 64697370 		.ascii	"display_fillCircle\000"
 12080      6C61795F 
 12080      66696C6C 
 12080      43697263 
 12080      6C6500
 12081              	.LASF19:
 12082 0299 63686172 		.ascii	"char\000"
 12082      00
 12083              	.LASF46:
 12084 029e 64793031 		.ascii	"dy01\000"
 12084      00
 12085              	.LASF48:
 12086 02a3 64793032 		.ascii	"dy02\000"
 12086      00
 12087              	.LASF13:
 12088 02a8 75696E74 		.ascii	"uint8_t\000"
 12088      385F7400 
 12089              	.LASF84:
 12090 02b0 5F776964 		.ascii	"_width\000"
 12090      746800
 12091              	.LASF23:
 12092 02b7 73746565 		.ascii	"steep\000"
 12092      7000
 12093              	.LASF10:
 12094 02bd 6C6F6E67 		.ascii	"long long int\000"
 12094      206C6F6E 
 12094      6720696E 
 12094      7400
 12095              	.LASF50:
 12096 02cb 64793132 		.ascii	"dy12\000"
 12096      00
 12097              	.LASF78:
ARM GAS  C:\Users\PC\AppData\Local\Temp\ccKVdNiW.s 			page 236


 12098 02d0 62797465 		.ascii	"byteWidth\000"
 12098      57696474 
 12098      6800
 12099              	.LASF3:
 12100 02da 5F5F696E 		.ascii	"__int16_t\000"
 12100      7431365F 
 12100      7400
 12101              	.LASF60:
 12102 02e4 64697370 		.ascii	"display_drawChar\000"
 12102      6C61795F 
 12102      64726177 
 12102      43686172 
 12102      00
 12103              	.LASF85:
 12104 02f5 5F686569 		.ascii	"_height\000"
 12104      67687400 
 12105              	.LASF76:
 12106 02fd 64697370 		.ascii	"display_drawBitmapV1_bg\000"
 12106      6C61795F 
 12106      64726177 
 12106      4269746D 
 12106      61705631 
 12107              	.LASF33:
 12108 0315 64697370 		.ascii	"display_fillCircleHelper\000"
 12108      6C61795F 
 12108      66696C6C 
 12108      43697263 
 12108      6C654865 
 12109              	.LASF70:
 12110 032e 64697370 		.ascii	"display_getWidth\000"
 12110      6C61795F 
 12110      67657457 
 12110      69647468 
 12110      00
 12111              	.LASF61:
 12112 033f 73697A65 		.ascii	"size\000"
 12112      00
 12113              	.LASF54:
 12114 0344 64697370 		.ascii	"display_customChar\000"
 12114      6C61795F 
 12114      63757374 
 12114      6F6D4368 
 12114      617200
 12115              	.LASF53:
 12116 0357 64697370 		.ascii	"display_string\000"
 12116      6C61795F 
 12116      73747269 
 12116      6E6700
 12117              	.LASF72:
 12118 0366 67726565 		.ascii	"green\000"
 12118      6E00
 12119              	.LASF20:
 12120 036c 6C6F6E67 		.ascii	"long double\000"
 12120      20646F75 
 12120      626C6500 
 12121              	.LASF15:
 12122 0378 75696E74 		.ascii	"uint16_t\000"
ARM GAS  C:\Users\PC\AppData\Local\Temp\ccKVdNiW.s 			page 237


 12122      31365F74 
 12122      00
 12123              	.LASF41:
 12124 0381 64697370 		.ascii	"display_FillRect\000"
 12124      6C61795F 
 12124      46696C6C 
 12124      52656374 
 12124      00
 12125              	.LASF65:
 12126 0392 70726576 		.ascii	"prev_bg\000"
 12126      5F626700 
 12127              	.LASF4:
 12128 039a 73686F72 		.ascii	"short int\000"
 12128      7420696E 
 12128      7400
 12129              	.LASF42:
 12130 03a4 64697370 		.ascii	"display_drawTriangle\000"
 12130      6C61795F 
 12130      64726177 
 12130      54726961 
 12130      6E676C65 
 12131              	.LASF40:
 12132 03b9 64697370 		.ascii	"display_fillRoundRect\000"
 12132      6C61795F 
 12132      66696C6C 
 12132      526F756E 
 12132      64526563 
 12133              	.LASF8:
 12134 03cf 6C6F6E67 		.ascii	"long int\000"
 12134      20696E74 
 12134      00
 12135              	.LASF71:
 12136 03d8 64697370 		.ascii	"display_getHeight\000"
 12136      6C61795F 
 12136      67657448 
 12136      65696768 
 12136      7400
 12137              	.LASF28:
 12138 03ea 64697370 		.ascii	"display_drawCircle\000"
 12138      6C61795F 
 12138      64726177 
 12138      43697263 
 12138      6C6500
 12139              	.LASF22:
 12140 03fd 636F6C6F 		.ascii	"color\000"
 12140      7200
 12141              	.LASF58:
 12142 0403 64697370 		.ascii	"display_setTextSize\000"
 12142      6C61795F 
 12142      73657454 
 12142      65787453 
 12142      697A6500 
 12143              	.LASF59:
 12144 0417 64697370 		.ascii	"display_setTextColor2\000"
 12144      6C61795F 
 12144      73657454 
 12144      65787443 
ARM GAS  C:\Users\PC\AppData\Local\Temp\ccKVdNiW.s 			page 238


 12144      6F6C6F72 
 12145              	.LASF2:
 12146 042d 5F5F7569 		.ascii	"__uint8_t\000"
 12146      6E74385F 
 12146      7400
 12147              	.LASF24:
 12148 0437 79737465 		.ascii	"ystep\000"
 12148      7000
 12149              	.LASF81:
 12150 043d 666F6E74 		.ascii	"font\000"
 12150      00
 12151              	.LASF95:
 12152 0442 66696C6C 		.ascii	"fillRect\000"
 12152      52656374 
 12152      00
 12153              	.LASF39:
 12154 044b 6D61785F 		.ascii	"max_radius\000"
 12154      72616469 
 12154      757300
 12155              	.LASF21:
 12156 0456 73697A65 		.ascii	"sizetype\000"
 12156      74797065 
 12156      00
 12157              	.LASF9:
 12158 045f 6C6F6E67 		.ascii	"long unsigned int\000"
 12158      20756E73 
 12158      69676E65 
 12158      6420696E 
 12158      7400
 12159              	.LASF16:
 12160 0471 696E7433 		.ascii	"int32_t\000"
 12160      325F7400 
 12161              	.LASF91:
 12162 0479 77726170 		.ascii	"wrap\000"
 12162      00
 12163              	.LASF1:
 12164 047e 756E7369 		.ascii	"unsigned char\000"
 12164      676E6564 
 12164      20636861 
 12164      7200
 12165              	.LASF75:
 12166 048c 6269746D 		.ascii	"bitmap\000"
 12166      617000
 12167              	.LASF63:
 12168 0493 70726576 		.ascii	"prev_y\000"
 12168      5F7900
 12169              	.LASF52:
 12170 049a 6C696E65 		.ascii	"line\000"
 12170      00
 12171              	.LASF99:
 12172 049f 64697370 		.ascii	"display_color565\000"
 12172      6C61795F 
 12172      636F6C6F 
 12172      72353635 
 12172      00
 12173              	.LASF32:
 12174 04b0 636F726E 		.ascii	"cornername\000"
ARM GAS  C:\Users\PC\AppData\Local\Temp\ccKVdNiW.s 			page 239


 12174      65726E61 
 12174      6D6500
 12175              	.LASF67:
 12176 04bb 64697370 		.ascii	"display_setTextColor\000"
 12176      6C61795F 
 12176      73657454 
 12176      65787443 
 12176      6F6C6F72 
 12177              	.LASF55:
 12178 04d0 64697370 		.ascii	"display_setCursor\000"
 12178      6C61795F 
 12178      73657443 
 12178      7572736F 
 12178      7200
 12179              	.LASF29:
 12180 04e2 6464465F 		.ascii	"ddF_x\000"
 12180      7800
 12181              	.LASF30:
 12182 04e8 6464465F 		.ascii	"ddF_y\000"
 12182      7900
 12183              	.LASF0:
 12184 04ee 7369676E 		.ascii	"signed char\000"
 12184      65642063 
 12184      68617200 
 12185              	.LASF35:
 12186 04fa 64656C74 		.ascii	"delta\000"
 12186      6100
 12187              	.LASF6:
 12188 0500 73686F72 		.ascii	"short unsigned int\000"
 12188      7420756E 
 12188      7369676E 
 12188      65642069 
 12188      6E7400
 12189              	.LASF18:
 12190 0513 646F7562 		.ascii	"double\000"
 12190      6C6500
 12191              	.LASF88:
 12192 051a 74657874 		.ascii	"textcolor\000"
 12192      636F6C6F 
 12192      7200
 12193              	.LASF26:
 12194 0524 77726974 		.ascii	"writeLine\000"
 12194      654C696E 
 12194      6500
 12195              	.LASF27:
 12196 052e 64697370 		.ascii	"display_drawLine\000"
 12196      6C61795F 
 12196      64726177 
 12196      4C696E65 
 12196      00
 12197              	.LASF89:
 12198 053f 74657874 		.ascii	"textbgcolor\000"
 12198      6267636F 
 12198      6C6F7200 
 12199              	.LASF68:
 12200 054b 64697370 		.ascii	"display_setTextWrap\000"
 12200      6C61795F 
ARM GAS  C:\Users\PC\AppData\Local\Temp\ccKVdNiW.s 			page 240


 12200      73657454 
 12200      65787457 
 12200      72617000 
 12201              	.LASF97:
 12202 055f 4746585F 		.ascii	"GFX_Library.c\000"
 12202      4C696272 
 12202      6172792E 
 12202      6300
 12203              		.ident	"GCC: (GNU Tools for ARM Embedded Processors) 5.4.1 20160609 (release) [ARM/embedded-5-bran
