ARM GAS  C:\Users\PC\AppData\Local\Temp\ccKVdNiW.s 			page 1


   1              		.syntax unified
   2              		.cpu cortex-m0plus
   3              		.fpu softvfp
   4              		.eabi_attribute 20, 1
   5              		.eabi_attribute 21, 1
   6              		.eabi_attribute 23, 3
   7              		.eabi_attribute 24, 1
   8              		.eabi_attribute 25, 1
   9              		.eabi_attribute 26, 1
  10              		.eabi_attribute 30, 1
  11              		.eabi_attribute 34, 0
  12              		.eabi_attribute 18, 4
  13              		.thumb
  14              		.syntax unified
  15              		.file	"GFX_Library.c"
  16              		.text
  17              	.Ltext0:
  18              		.cfi_sections	.debug_frame
  19              		.section	.text.writeLine,"ax",%progbits
  20              		.align	2
  21              		.global	writeLine
  22              		.code	16
  23              		.thumb_func
  24              		.type	writeLine, %function
  25              	writeLine:
  26              	.LFB33:
  27              		.file 1 "GFX_Library.c"
   1:GFX_Library.c **** 
   2:GFX_Library.c **** ///////////////////////////////////////////////////////////////////////////
   3:GFX_Library.c **** ////                                                                   ////
   4:GFX_Library.c **** ////                            GFX_Library.c                          ////
   5:GFX_Library.c **** ////                                                                   ////
   6:GFX_Library.c **** ////                 Graphics library for CCS C compiler.              ////
   7:GFX_Library.c **** ////                                                                   ////
   8:GFX_Library.c **** ///////////////////////////////////////////////////////////////////////////
   9:GFX_Library.c **** ////                                                                   ////
  10:GFX_Library.c **** ////               This is a free software with NO WARRANTY.           ////
  11:GFX_Library.c **** ////                     https://simple-circuit.com/                   ////
  12:GFX_Library.c **** ////                                                                   ////
  13:GFX_Library.c **** ///////////////////////////////////////////////////////////////////////////
  14:GFX_Library.c **** /*
  15:GFX_Library.c **** This is the core graphics library for all our displays, providing a common
  16:GFX_Library.c **** set of graphics primitives (points, lines, circles, etc.).  It needs to be
  17:GFX_Library.c **** paired with a hardware-specific library for each display device we carry
  18:GFX_Library.c **** (to handle the lower-level functions).
  19:GFX_Library.c **** 
  20:GFX_Library.c **** Adafruit invests time and resources providing this open source code, please
  21:GFX_Library.c **** support Adafruit & open-source hardware by purchasing products from Adafruit!
  22:GFX_Library.c **** 
  23:GFX_Library.c **** Copyright (c) 2013 Adafruit Industries.  All rights reserved.
  24:GFX_Library.c **** 
  25:GFX_Library.c **** Redistribution and use in source and binary forms, with or without
  26:GFX_Library.c **** modification, are permitted provided that the following conditions are met:
  27:GFX_Library.c **** 
  28:GFX_Library.c **** - Redistributions of source code must retain the above copyright notice,
  29:GFX_Library.c ****   this list of conditions and the following disclaimer.
  30:GFX_Library.c **** - Redistributions in binary form must reproduce the above copyright notice,
ARM GAS  C:\Users\PC\AppData\Local\Temp\ccKVdNiW.s 			page 2


  31:GFX_Library.c ****   this list of conditions and the following disclaimer in the documentation
  32:GFX_Library.c ****   and/or other materials provided with the distribution.
  33:GFX_Library.c **** 
  34:GFX_Library.c **** THIS SOFTWARE IS PROVIDED BY THE COPYRIGHT HOLDERS AND CONTRIBUTORS "AS IS"
  35:GFX_Library.c **** AND ANY EXPRESS OR IMPLIED WARRANTIES, INCLUDING, BUT NOT LIMITED TO, THE
  36:GFX_Library.c **** IMPLIED WARRANTIES OF MERCHANTABILITY AND FITNESS FOR A PARTICULAR PURPOSE
  37:GFX_Library.c **** ARE DISCLAIMED. IN NO EVENT SHALL THE COPYRIGHT HOLDER OR CONTRIBUTORS BE
  38:GFX_Library.c **** LIABLE FOR ANY DIRECT, INDIRECT, INCIDENTAL, SPECIAL, EXEMPLARY, OR
  39:GFX_Library.c **** CONSEQUENTIAL DAMAGES (INCLUDING, BUT NOT LIMITED TO, PROCUREMENT OF
  40:GFX_Library.c **** SUBSTITUTE GOODS OR SERVICES; LOSS OF USE, DATA, OR PROFITS; OR BUSINESS
  41:GFX_Library.c **** INTERRUPTION) HOWEVER CAUSED AND ON ANY THEORY OF LIABILITY, WHETHER IN
  42:GFX_Library.c **** CONTRACT, STRICT LIABILITY, OR TORT (INCLUDING NEGLIGENCE OR OTHERWISE)
  43:GFX_Library.c **** ARISING IN ANY WAY OUT OF THE USE OF THIS SOFTWARE, EVEN IF ADVISED OF THE
  44:GFX_Library.c **** POSSIBILITY OF SUCH DAMAGE.
  45:GFX_Library.c ****  */
  46:GFX_Library.c **** ///////////////////////////////////////////////////////////////////////////////
  47:GFX_Library.c **** 
  48:GFX_Library.c **** #include "ssd1306.h"
  49:GFX_Library.c **** #include "GFX_Library.h"
  50:GFX_Library.c **** 
  51:GFX_Library.c **** //************************* Non User Functions *************************//
  52:GFX_Library.c **** void writeLine(uint16_t x0, uint16_t y0, uint16_t x1, uint16_t y1, uint16_t color);
  53:GFX_Library.c **** //////////////////////////////////////////////////////////////////////////
  54:GFX_Library.c **** 
  55:GFX_Library.c **** #ifndef min
  56:GFX_Library.c **** #define min(a,b) (((a) < (b)) ? (a) : (b))
  57:GFX_Library.c **** #endif
  58:GFX_Library.c **** #ifndef _swap_int16_t
  59:GFX_Library.c **** #define _swap_int16_t(a, b) { int16_t t = a; a = b; b = t; }
  60:GFX_Library.c **** #endif
  61:GFX_Library.c **** 
  62:GFX_Library.c **** #define display_width   _width
  63:GFX_Library.c **** #define display_height  _height
  64:GFX_Library.c **** 
  65:GFX_Library.c **** #define display_drawPixel   drawPixel
  66:GFX_Library.c **** #define display_drawVLine   drawVLine
  67:GFX_Library.c **** #define display_drawHLine   drawHLine
  68:GFX_Library.c **** #define display_fillScreen  fillScreen
  69:GFX_Library.c **** #define display_fillRect    fillRect
  70:GFX_Library.c **** #define display_setRotation setRotation
  71:GFX_Library.c **** #define display_invert      invertDisplay
  72:GFX_Library.c **** 
  73:GFX_Library.c **** 
  74:GFX_Library.c **** int16_t
  75:GFX_Library.c ****   cursor_x = 0,          ///< x location to start print()ing text
  76:GFX_Library.c ****   cursor_y = 0;          ///< y location to start print()ing text
  77:GFX_Library.c **** uint16_t
  78:GFX_Library.c ****   textcolor = 0xFFFF,    ///< 16-bit background color for print()
  79:GFX_Library.c ****   textbgcolor = 0xFFFF;  ///< 16-bit text color for print()
  80:GFX_Library.c **** uint8_t
  81:GFX_Library.c ****   textsize = 1;          ///< Desired magnification of text to print()
  82:GFX_Library.c **** bool
  83:GFX_Library.c ****   wrap = true;           ///< If set, 'wrap' text at right edge of display
  84:GFX_Library.c **** 
  85:GFX_Library.c **** // Standard ASCII 5x7 font
  86:GFX_Library.c **** #ifndef FONT5X7_H
  87:GFX_Library.c **** static const uint8_t font[256][5] = {
ARM GAS  C:\Users\PC\AppData\Local\Temp\ccKVdNiW.s 			page 3


  88:GFX_Library.c ****    0x00, 0x00, 0x00, 0x00, 0x00,
  89:GFX_Library.c ****    0x3E, 0x5B, 0x4F, 0x5B, 0x3E,
  90:GFX_Library.c ****    0x3E, 0x6B, 0x4F, 0x6B, 0x3E,
  91:GFX_Library.c ****    0x1C, 0x3E, 0x7C, 0x3E, 0x1C,
  92:GFX_Library.c ****    0x18, 0x3C, 0x7E, 0x3C, 0x18,
  93:GFX_Library.c ****    0x1C, 0x57, 0x7D, 0x57, 0x1C,
  94:GFX_Library.c ****    0x1C, 0x5E, 0x7F, 0x5E, 0x1C,
  95:GFX_Library.c ****    0x00, 0x18, 0x3C, 0x18, 0x00,
  96:GFX_Library.c ****    0xFF, 0xE7, 0xC3, 0xE7, 0xFF,
  97:GFX_Library.c ****    0x00, 0x18, 0x24, 0x18, 0x00,
  98:GFX_Library.c ****    0xFF, 0xE7, 0xDB, 0xE7, 0xFF,
  99:GFX_Library.c ****    0x30, 0x48, 0x3A, 0x06, 0x0E,
 100:GFX_Library.c ****    0x26, 0x29, 0x79, 0x29, 0x26,
 101:GFX_Library.c ****    0x40, 0x7F, 0x05, 0x05, 0x07,
 102:GFX_Library.c ****    0x40, 0x7F, 0x05, 0x25, 0x3F,
 103:GFX_Library.c ****    0x5A, 0x3C, 0xE7, 0x3C, 0x5A,
 104:GFX_Library.c ****    0x7F, 0x3E, 0x1C, 0x1C, 0x08,
 105:GFX_Library.c ****    0x08, 0x1C, 0x1C, 0x3E, 0x7F,
 106:GFX_Library.c ****    0x14, 0x22, 0x7F, 0x22, 0x14,
 107:GFX_Library.c ****    0x5F, 0x5F, 0x00, 0x5F, 0x5F,
 108:GFX_Library.c ****    0x06, 0x09, 0x7F, 0x01, 0x7F,
 109:GFX_Library.c ****    0x00, 0x66, 0x89, 0x95, 0x6A,
 110:GFX_Library.c ****    0x60, 0x60, 0x60, 0x60, 0x60,
 111:GFX_Library.c ****    0x94, 0xA2, 0xFF, 0xA2, 0x94,
 112:GFX_Library.c ****    0x08, 0x04, 0x7E, 0x04, 0x08,
 113:GFX_Library.c ****    0x10, 0x20, 0x7E, 0x20, 0x10,
 114:GFX_Library.c ****    0x08, 0x08, 0x2A, 0x1C, 0x08,
 115:GFX_Library.c ****    0x08, 0x1C, 0x2A, 0x08, 0x08,
 116:GFX_Library.c ****    0x1E, 0x10, 0x10, 0x10, 0x10,
 117:GFX_Library.c ****    0x0C, 0x1E, 0x0C, 0x1E, 0x0C,
 118:GFX_Library.c ****    0x30, 0x38, 0x3E, 0x38, 0x30,
 119:GFX_Library.c ****    0x06, 0x0E, 0x3E, 0x0E, 0x06,
 120:GFX_Library.c ****    0x00, 0x00, 0x00, 0x00, 0x00,
 121:GFX_Library.c ****    0x00, 0x00, 0x5F, 0x00, 0x00,
 122:GFX_Library.c ****    0x00, 0x07, 0x00, 0x07, 0x00,
 123:GFX_Library.c ****    0x14, 0x7F, 0x14, 0x7F, 0x14,
 124:GFX_Library.c ****    0x24, 0x2A, 0x7F, 0x2A, 0x12,
 125:GFX_Library.c ****    0x23, 0x13, 0x08, 0x64, 0x62,
 126:GFX_Library.c ****    0x36, 0x49, 0x56, 0x20, 0x50,
 127:GFX_Library.c ****    0x00, 0x08, 0x07, 0x03, 0x00,
 128:GFX_Library.c ****    0x00, 0x1C, 0x22, 0x41, 0x00,
 129:GFX_Library.c ****    0x00, 0x41, 0x22, 0x1C, 0x00,
 130:GFX_Library.c ****    0x2A, 0x1C, 0x7F, 0x1C, 0x2A,
 131:GFX_Library.c ****    0x08, 0x08, 0x3E, 0x08, 0x08,
 132:GFX_Library.c ****    0x00, 0x80, 0x70, 0x30, 0x00,
 133:GFX_Library.c ****    0x08, 0x08, 0x08, 0x08, 0x08,
 134:GFX_Library.c ****    0x00, 0x00, 0x60, 0x60, 0x00,
 135:GFX_Library.c ****    0x20, 0x10, 0x08, 0x04, 0x02,
 136:GFX_Library.c ****    0x3E, 0x51, 0x49, 0x45, 0x3E,
 137:GFX_Library.c ****    0x00, 0x42, 0x7F, 0x40, 0x00,
 138:GFX_Library.c ****    0x72, 0x49, 0x49, 0x49, 0x46,
 139:GFX_Library.c ****    0x21, 0x41, 0x49, 0x4D, 0x33,
 140:GFX_Library.c ****    0x18, 0x14, 0x12, 0x7F, 0x10,
 141:GFX_Library.c ****    0x27, 0x45, 0x45, 0x45, 0x39,
 142:GFX_Library.c ****    0x3C, 0x4A, 0x49, 0x49, 0x31,
 143:GFX_Library.c ****    0x41, 0x21, 0x11, 0x09, 0x07,
 144:GFX_Library.c ****    0x36, 0x49, 0x49, 0x49, 0x36,
ARM GAS  C:\Users\PC\AppData\Local\Temp\ccKVdNiW.s 			page 4


 145:GFX_Library.c ****    0x46, 0x49, 0x49, 0x29, 0x1E,
 146:GFX_Library.c ****    0x00, 0x00, 0x14, 0x00, 0x00,
 147:GFX_Library.c ****    0x00, 0x40, 0x34, 0x00, 0x00,
 148:GFX_Library.c ****    0x00, 0x08, 0x14, 0x22, 0x41,
 149:GFX_Library.c ****    0x14, 0x14, 0x14, 0x14, 0x14,
 150:GFX_Library.c ****    0x00, 0x41, 0x22, 0x14, 0x08,
 151:GFX_Library.c ****    0x02, 0x01, 0x59, 0x09, 0x06,
 152:GFX_Library.c ****    0x3E, 0x41, 0x5D, 0x59, 0x4E,
 153:GFX_Library.c ****    0x7C, 0x12, 0x11, 0x12, 0x7C,
 154:GFX_Library.c ****    0x7F, 0x49, 0x49, 0x49, 0x36,
 155:GFX_Library.c ****    0x3E, 0x41, 0x41, 0x41, 0x22,
 156:GFX_Library.c ****    0x7F, 0x41, 0x41, 0x41, 0x3E,
 157:GFX_Library.c ****    0x7F, 0x49, 0x49, 0x49, 0x41,
 158:GFX_Library.c ****    0x7F, 0x09, 0x09, 0x09, 0x01,
 159:GFX_Library.c ****    0x3E, 0x41, 0x41, 0x51, 0x73,
 160:GFX_Library.c ****    0x7F, 0x08, 0x08, 0x08, 0x7F,
 161:GFX_Library.c ****    0x00, 0x41, 0x7F, 0x41, 0x00,
 162:GFX_Library.c ****    0x20, 0x40, 0x41, 0x3F, 0x01,
 163:GFX_Library.c ****    0x7F, 0x08, 0x14, 0x22, 0x41,
 164:GFX_Library.c ****    0x7F, 0x40, 0x40, 0x40, 0x40,
 165:GFX_Library.c ****    0x7F, 0x02, 0x1C, 0x02, 0x7F,
 166:GFX_Library.c ****    0x7F, 0x04, 0x08, 0x10, 0x7F,
 167:GFX_Library.c ****    0x3E, 0x41, 0x41, 0x41, 0x3E,
 168:GFX_Library.c ****    0x7F, 0x09, 0x09, 0x09, 0x06,
 169:GFX_Library.c ****    0x3E, 0x41, 0x51, 0x21, 0x5E,
 170:GFX_Library.c ****    0x7F, 0x09, 0x19, 0x29, 0x46,
 171:GFX_Library.c ****    0x26, 0x49, 0x49, 0x49, 0x32,
 172:GFX_Library.c ****    0x03, 0x01, 0x7F, 0x01, 0x03,
 173:GFX_Library.c ****    0x3F, 0x40, 0x40, 0x40, 0x3F,
 174:GFX_Library.c ****    0x1F, 0x20, 0x40, 0x20, 0x1F,
 175:GFX_Library.c ****    0x3F, 0x40, 0x38, 0x40, 0x3F,
 176:GFX_Library.c ****    0x63, 0x14, 0x08, 0x14, 0x63,
 177:GFX_Library.c ****    0x03, 0x04, 0x78, 0x04, 0x03,
 178:GFX_Library.c ****    0x61, 0x59, 0x49, 0x4D, 0x43,
 179:GFX_Library.c ****    0x00, 0x7F, 0x41, 0x41, 0x41,
 180:GFX_Library.c ****    0x02, 0x04, 0x08, 0x10, 0x20,
 181:GFX_Library.c ****    0x00, 0x41, 0x41, 0x41, 0x7F,
 182:GFX_Library.c ****    0x04, 0x02, 0x01, 0x02, 0x04,
 183:GFX_Library.c ****    0x40, 0x40, 0x40, 0x40, 0x40,
 184:GFX_Library.c ****    0x00, 0x03, 0x07, 0x08, 0x00,
 185:GFX_Library.c ****    0x20, 0x54, 0x54, 0x78, 0x40,
 186:GFX_Library.c ****    0x7F, 0x28, 0x44, 0x44, 0x38,
 187:GFX_Library.c ****    0x38, 0x44, 0x44, 0x44, 0x28,
 188:GFX_Library.c ****    0x38, 0x44, 0x44, 0x28, 0x7F,
 189:GFX_Library.c ****    0x38, 0x54, 0x54, 0x54, 0x18,
 190:GFX_Library.c ****    0x00, 0x08, 0x7E, 0x09, 0x02,
 191:GFX_Library.c ****    0x18, 0xA4, 0xA4, 0x9C, 0x78,
 192:GFX_Library.c ****    0x7F, 0x08, 0x04, 0x04, 0x78,
 193:GFX_Library.c ****    0x00, 0x44, 0x7D, 0x40, 0x00,
 194:GFX_Library.c ****    0x20, 0x40, 0x40, 0x3D, 0x00,
 195:GFX_Library.c ****    0x7F, 0x10, 0x28, 0x44, 0x00,
 196:GFX_Library.c ****    0x00, 0x41, 0x7F, 0x40, 0x00,
 197:GFX_Library.c ****    0x7C, 0x04, 0x78, 0x04, 0x78,
 198:GFX_Library.c ****    0x7C, 0x08, 0x04, 0x04, 0x78,
 199:GFX_Library.c ****    0x38, 0x44, 0x44, 0x44, 0x38,
 200:GFX_Library.c ****    0xFC, 0x18, 0x24, 0x24, 0x18,
 201:GFX_Library.c ****    0x18, 0x24, 0x24, 0x18, 0xFC,
ARM GAS  C:\Users\PC\AppData\Local\Temp\ccKVdNiW.s 			page 5


 202:GFX_Library.c ****    0x7C, 0x08, 0x04, 0x04, 0x08,
 203:GFX_Library.c ****    0x48, 0x54, 0x54, 0x54, 0x24,
 204:GFX_Library.c ****    0x04, 0x04, 0x3F, 0x44, 0x24,
 205:GFX_Library.c ****    0x3C, 0x40, 0x40, 0x20, 0x7C,
 206:GFX_Library.c ****    0x1C, 0x20, 0x40, 0x20, 0x1C,
 207:GFX_Library.c ****    0x3C, 0x40, 0x30, 0x40, 0x3C,
 208:GFX_Library.c ****    0x44, 0x28, 0x10, 0x28, 0x44,
 209:GFX_Library.c ****    0x4C, 0x90, 0x90, 0x90, 0x7C,
 210:GFX_Library.c ****    0x44, 0x64, 0x54, 0x4C, 0x44,
 211:GFX_Library.c ****    0x00, 0x08, 0x36, 0x41, 0x00,
 212:GFX_Library.c ****    0x00, 0x00, 0x77, 0x00, 0x00,
 213:GFX_Library.c ****    0x00, 0x41, 0x36, 0x08, 0x00,
 214:GFX_Library.c ****    0x02, 0x01, 0x02, 0x04, 0x02,
 215:GFX_Library.c ****    0x3C, 0x26, 0x23, 0x26, 0x3C,
 216:GFX_Library.c ****    0x1E, 0xA1, 0xA1, 0x61, 0x12,
 217:GFX_Library.c ****    0x3A, 0x40, 0x40, 0x20, 0x7A,
 218:GFX_Library.c ****    0x38, 0x54, 0x54, 0x55, 0x59,
 219:GFX_Library.c ****    0x21, 0x55, 0x55, 0x79, 0x41,
 220:GFX_Library.c ****    0x22, 0x54, 0x54, 0x78, 0x42, // a-umlaut
 221:GFX_Library.c ****    0x21, 0x55, 0x54, 0x78, 0x40,
 222:GFX_Library.c ****    0x20, 0x54, 0x55, 0x79, 0x40,
 223:GFX_Library.c ****    0x0C, 0x1E, 0x52, 0x72, 0x12,
 224:GFX_Library.c ****    0x39, 0x55, 0x55, 0x55, 0x59,
 225:GFX_Library.c ****    0x39, 0x54, 0x54, 0x54, 0x59,
 226:GFX_Library.c ****    0x39, 0x55, 0x54, 0x54, 0x58,
 227:GFX_Library.c ****    0x00, 0x00, 0x45, 0x7C, 0x41,
 228:GFX_Library.c ****    0x00, 0x02, 0x45, 0x7D, 0x42,
 229:GFX_Library.c ****    0x00, 0x01, 0x45, 0x7C, 0x40,
 230:GFX_Library.c ****    0x7D, 0x12, 0x11, 0x12, 0x7D, // A-umlaut
 231:GFX_Library.c ****    0xF0, 0x28, 0x25, 0x28, 0xF0,
 232:GFX_Library.c ****    0x7C, 0x54, 0x55, 0x45, 0x00,
 233:GFX_Library.c ****    0x20, 0x54, 0x54, 0x7C, 0x54,
 234:GFX_Library.c ****    0x7C, 0x0A, 0x09, 0x7F, 0x49,
 235:GFX_Library.c ****    0x32, 0x49, 0x49, 0x49, 0x32,
 236:GFX_Library.c ****    0x3A, 0x44, 0x44, 0x44, 0x3A, // o-umlaut
 237:GFX_Library.c ****    0x32, 0x4A, 0x48, 0x48, 0x30,
 238:GFX_Library.c ****    0x3A, 0x41, 0x41, 0x21, 0x7A,
 239:GFX_Library.c ****    0x3A, 0x42, 0x40, 0x20, 0x78,
 240:GFX_Library.c ****    0x00, 0x9D, 0xA0, 0xA0, 0x7D,
 241:GFX_Library.c ****    0x3D, 0x42, 0x42, 0x42, 0x3D, // O-umlaut
 242:GFX_Library.c ****    0x3D, 0x40, 0x40, 0x40, 0x3D,
 243:GFX_Library.c ****    0x3C, 0x24, 0xFF, 0x24, 0x24,
 244:GFX_Library.c ****    0x48, 0x7E, 0x49, 0x43, 0x66,
 245:GFX_Library.c ****    0x2B, 0x2F, 0xFC, 0x2F, 0x2B,
 246:GFX_Library.c ****    0xFF, 0x09, 0x29, 0xF6, 0x20,
 247:GFX_Library.c ****    0xC0, 0x88, 0x7E, 0x09, 0x03,
 248:GFX_Library.c ****    0x20, 0x54, 0x54, 0x79, 0x41,
 249:GFX_Library.c ****    0x00, 0x00, 0x44, 0x7D, 0x41,
 250:GFX_Library.c ****    0x30, 0x48, 0x48, 0x4A, 0x32,
 251:GFX_Library.c ****    0x38, 0x40, 0x40, 0x22, 0x7A,
 252:GFX_Library.c ****    0x00, 0x7A, 0x0A, 0x0A, 0x72,
 253:GFX_Library.c ****    0x7D, 0x0D, 0x19, 0x31, 0x7D,
 254:GFX_Library.c ****    0x26, 0x29, 0x29, 0x2F, 0x28,
 255:GFX_Library.c ****    0x26, 0x29, 0x29, 0x29, 0x26,
 256:GFX_Library.c ****    0x30, 0x48, 0x4D, 0x40, 0x20,
 257:GFX_Library.c ****    0x38, 0x08, 0x08, 0x08, 0x08,
 258:GFX_Library.c ****    0x08, 0x08, 0x08, 0x08, 0x38,
ARM GAS  C:\Users\PC\AppData\Local\Temp\ccKVdNiW.s 			page 6


 259:GFX_Library.c ****    0x2F, 0x10, 0xC8, 0xAC, 0xBA,
 260:GFX_Library.c ****    0x2F, 0x10, 0x28, 0x34, 0xFA,
 261:GFX_Library.c ****    0x00, 0x00, 0x7B, 0x00, 0x00,
 262:GFX_Library.c ****    0x08, 0x14, 0x2A, 0x14, 0x22,
 263:GFX_Library.c ****    0x22, 0x14, 0x2A, 0x14, 0x08,
 264:GFX_Library.c ****    0x55, 0x00, 0x55, 0x00, 0x55, // #176 (25% block) missing in old code
 265:GFX_Library.c ****    0xAA, 0x55, 0xAA, 0x55, 0xAA, // 50% block
 266:GFX_Library.c ****    0xFF, 0x55, 0xFF, 0x55, 0xFF, // 75% block
 267:GFX_Library.c ****    0x00, 0x00, 0x00, 0xFF, 0x00,
 268:GFX_Library.c ****    0x10, 0x10, 0x10, 0xFF, 0x00,
 269:GFX_Library.c ****    0x14, 0x14, 0x14, 0xFF, 0x00,
 270:GFX_Library.c ****    0x10, 0x10, 0xFF, 0x00, 0xFF,
 271:GFX_Library.c ****    0x10, 0x10, 0xF0, 0x10, 0xF0,
 272:GFX_Library.c ****    0x14, 0x14, 0x14, 0xFC, 0x00,
 273:GFX_Library.c ****    0x14, 0x14, 0xF7, 0x00, 0xFF,
 274:GFX_Library.c ****    0x00, 0x00, 0xFF, 0x00, 0xFF,
 275:GFX_Library.c ****    0x14, 0x14, 0xF4, 0x04, 0xFC,
 276:GFX_Library.c ****    0x14, 0x14, 0x17, 0x10, 0x1F,
 277:GFX_Library.c ****    0x10, 0x10, 0x1F, 0x10, 0x1F,
 278:GFX_Library.c ****    0x14, 0x14, 0x14, 0x1F, 0x00,
 279:GFX_Library.c ****    0x10, 0x10, 0x10, 0xF0, 0x00,
 280:GFX_Library.c ****    0x00, 0x00, 0x00, 0x1F, 0x10,
 281:GFX_Library.c ****    0x10, 0x10, 0x10, 0x1F, 0x10,
 282:GFX_Library.c ****    0x10, 0x10, 0x10, 0xF0, 0x10,
 283:GFX_Library.c ****    0x00, 0x00, 0x00, 0xFF, 0x10,
 284:GFX_Library.c ****    0x10, 0x10, 0x10, 0x10, 0x10,
 285:GFX_Library.c ****    0x10, 0x10, 0x10, 0xFF, 0x10,
 286:GFX_Library.c ****    0x00, 0x00, 0x00, 0xFF, 0x14,
 287:GFX_Library.c ****    0x00, 0x00, 0xFF, 0x00, 0xFF,
 288:GFX_Library.c ****    0x00, 0x00, 0x1F, 0x10, 0x17,
 289:GFX_Library.c ****    0x00, 0x00, 0xFC, 0x04, 0xF4,
 290:GFX_Library.c ****    0x14, 0x14, 0x17, 0x10, 0x17,
 291:GFX_Library.c ****    0x14, 0x14, 0xF4, 0x04, 0xF4,
 292:GFX_Library.c ****    0x00, 0x00, 0xFF, 0x00, 0xF7,
 293:GFX_Library.c ****    0x14, 0x14, 0x14, 0x14, 0x14,
 294:GFX_Library.c ****    0x14, 0x14, 0xF7, 0x00, 0xF7,
 295:GFX_Library.c ****    0x14, 0x14, 0x14, 0x17, 0x14,
 296:GFX_Library.c ****    0x10, 0x10, 0x1F, 0x10, 0x1F,
 297:GFX_Library.c ****    0x14, 0x14, 0x14, 0xF4, 0x14,
 298:GFX_Library.c ****    0x10, 0x10, 0xF0, 0x10, 0xF0,
 299:GFX_Library.c ****    0x00, 0x00, 0x1F, 0x10, 0x1F,
 300:GFX_Library.c ****    0x00, 0x00, 0x00, 0x1F, 0x14,
 301:GFX_Library.c ****    0x00, 0x00, 0x00, 0xFC, 0x14,
 302:GFX_Library.c ****    0x00, 0x00, 0xF0, 0x10, 0xF0,
 303:GFX_Library.c ****    0x10, 0x10, 0xFF, 0x10, 0xFF,
 304:GFX_Library.c ****    0x14, 0x14, 0x14, 0xFF, 0x14,
 305:GFX_Library.c ****    0x10, 0x10, 0x10, 0x1F, 0x00,
 306:GFX_Library.c ****    0x00, 0x00, 0x00, 0xF0, 0x10,
 307:GFX_Library.c ****    0xFF, 0xFF, 0xFF, 0xFF, 0xFF,
 308:GFX_Library.c ****    0xF0, 0xF0, 0xF0, 0xF0, 0xF0,
 309:GFX_Library.c ****    0xFF, 0xFF, 0xFF, 0x00, 0x00,
 310:GFX_Library.c ****    0x00, 0x00, 0x00, 0xFF, 0xFF,
 311:GFX_Library.c ****    0x0F, 0x0F, 0x0F, 0x0F, 0x0F,
 312:GFX_Library.c ****    0x38, 0x44, 0x44, 0x38, 0x44,
 313:GFX_Library.c ****    0xFC, 0x4A, 0x4A, 0x4A, 0x34, // sharp-s or beta
 314:GFX_Library.c ****    0x7E, 0x02, 0x02, 0x06, 0x06,
 315:GFX_Library.c ****    0x02, 0x7E, 0x02, 0x7E, 0x02,
ARM GAS  C:\Users\PC\AppData\Local\Temp\ccKVdNiW.s 			page 7


 316:GFX_Library.c ****    0x63, 0x55, 0x49, 0x41, 0x63,
 317:GFX_Library.c ****    0x38, 0x44, 0x44, 0x3C, 0x04,
 318:GFX_Library.c ****    0x40, 0x7E, 0x20, 0x1E, 0x20,
 319:GFX_Library.c ****    0x06, 0x02, 0x7E, 0x02, 0x02,
 320:GFX_Library.c ****    0x99, 0xA5, 0xE7, 0xA5, 0x99,
 321:GFX_Library.c ****    0x1C, 0x2A, 0x49, 0x2A, 0x1C,
 322:GFX_Library.c ****    0x4C, 0x72, 0x01, 0x72, 0x4C,
 323:GFX_Library.c ****    0x30, 0x4A, 0x4D, 0x4D, 0x30,
 324:GFX_Library.c ****    0x30, 0x48, 0x78, 0x48, 0x30,
 325:GFX_Library.c ****    0xBC, 0x62, 0x5A, 0x46, 0x3D,
 326:GFX_Library.c ****    0x3E, 0x49, 0x49, 0x49, 0x00,
 327:GFX_Library.c ****    0x7E, 0x01, 0x01, 0x01, 0x7E,
 328:GFX_Library.c ****    0x2A, 0x2A, 0x2A, 0x2A, 0x2A,
 329:GFX_Library.c ****    0x44, 0x44, 0x5F, 0x44, 0x44,
 330:GFX_Library.c ****    0x40, 0x51, 0x4A, 0x44, 0x40,
 331:GFX_Library.c ****    0x40, 0x44, 0x4A, 0x51, 0x40,
 332:GFX_Library.c ****    0x00, 0x00, 0xFF, 0x01, 0x03,
 333:GFX_Library.c ****    0xE0, 0x80, 0xFF, 0x00, 0x00,
 334:GFX_Library.c ****    0x08, 0x08, 0x6B, 0x6B, 0x08,
 335:GFX_Library.c ****    0x36, 0x12, 0x36, 0x24, 0x36,
 336:GFX_Library.c ****    0x06, 0x0F, 0x09, 0x0F, 0x06,
 337:GFX_Library.c ****    0x00, 0x00, 0x18, 0x18, 0x00,
 338:GFX_Library.c ****    0x00, 0x00, 0x10, 0x10, 0x00,
 339:GFX_Library.c ****    0x30, 0x40, 0xFF, 0x01, 0x01,
 340:GFX_Library.c ****    0x00, 0x1F, 0x01, 0x01, 0x1E,
 341:GFX_Library.c ****    0x00, 0x19, 0x1D, 0x17, 0x12,
 342:GFX_Library.c ****    0x00, 0x3C, 0x3C, 0x3C, 0x3C,
 343:GFX_Library.c ****    0x00, 0x00, 0x00, 0x00, 0x00  // #255 NBSP
 344:GFX_Library.c **** };
 345:GFX_Library.c **** #endif // FONT5X7_H
 346:GFX_Library.c **** 
 347:GFX_Library.c **** /**************************************************************************/
 348:GFX_Library.c **** /*!
 349:GFX_Library.c ****    @brief    Write a line.  Bresenham's algorithm - thx wikpedia
 350:GFX_Library.c ****     @param    x0  Start point x coordinate
 351:GFX_Library.c ****     @param    y0  Start point y coordinate
 352:GFX_Library.c ****     @param    x1  End point x coordinate
 353:GFX_Library.c ****     @param    y1  End point y coordinate
 354:GFX_Library.c ****     @param    color 16-bit 5-6-5 Color to draw with
 355:GFX_Library.c **** */
 356:GFX_Library.c **** /**************************************************************************/
 357:GFX_Library.c **** void writeLine(uint16_t x0, uint16_t y0, uint16_t x1, uint16_t y1, uint16_t color) {
  28              		.loc 1 357 0
  29              		.cfi_startproc
  30              		@ args = 4, pretend = 0, frame = 8
  31              		@ frame_needed = 0, uses_anonymous_args = 0
  32              	.LVL0:
  33 0000 F0B5     		push	{r4, r5, r6, r7, lr}
  34              		.cfi_def_cfa_offset 20
  35              		.cfi_offset 4, -20
  36              		.cfi_offset 5, -16
  37              		.cfi_offset 6, -12
  38              		.cfi_offset 7, -8
  39              		.cfi_offset 14, -4
  40 0002 5F46     		mov	r7, fp
  41 0004 5646     		mov	r6, r10
  42 0006 4D46     		mov	r5, r9
ARM GAS  C:\Users\PC\AppData\Local\Temp\ccKVdNiW.s 			page 8


  43 0008 4446     		mov	r4, r8
  44 000a F0B4     		push	{r4, r5, r6, r7}
  45              		.cfi_def_cfa_offset 36
  46              		.cfi_offset 8, -36
  47              		.cfi_offset 9, -32
  48              		.cfi_offset 10, -28
  49              		.cfi_offset 11, -24
  50 000c 83B0     		sub	sp, sp, #12
  51              		.cfi_def_cfa_offset 48
  52 000e 0500     		movs	r5, r0
  53 0010 0E00     		movs	r6, r1
  54 0012 1700     		movs	r7, r2
  55 0014 0CAA     		add	r2, sp, #48
  56              	.LVL1:
  57 0016 1288     		ldrh	r2, [r2]
  58              	.LVL2:
  59 0018 0092     		str	r2, [sp]
 358:GFX_Library.c ****     bool steep = abs((int16_t)(y1 - y0)) > abs((int16_t)(x1 - x0));
  60              		.loc 1 358 0
  61 001a 5A1A     		subs	r2, r3, r1
  62 001c 12B2     		sxth	r2, r2
  63 001e D117     		asrs	r1, r2, #31
  64              	.LVL3:
  65 0020 5218     		adds	r2, r2, r1
  66 0022 4A40     		eors	r2, r1
  67 0024 9046     		mov	r8, r2
  68 0026 3A1A     		subs	r2, r7, r0
  69 0028 12B2     		sxth	r2, r2
  70 002a D117     		asrs	r1, r2, #31
  71 002c 5218     		adds	r2, r2, r1
  72 002e 4A40     		eors	r2, r1
  73 0030 9146     		mov	r9, r2
  74              	.LVL4:
 359:GFX_Library.c ****     if (steep) {
  75              		.loc 1 359 0
  76 0032 9045     		cmp	r8, r2
  77 0034 04DD     		ble	.L2
  78 0036 3A00     		movs	r2, r7
  79              	.LVL5:
  80              	.LBB2:
 360:GFX_Library.c ****         _swap_int16_t(x0, y0);
 361:GFX_Library.c ****         _swap_int16_t(x1, y1);
  81              		.loc 1 361 0
  82 0038 1F00     		movs	r7, r3
  83 003a 1300     		movs	r3, r2
  84              	.LVL6:
  85              	.LBE2:
  86              	.LBB3:
 360:GFX_Library.c ****         _swap_int16_t(x0, y0);
  87              		.loc 1 360 0
  88 003c 3500     		movs	r5, r6
  89 003e 0600     		movs	r6, r0
  90              	.L2:
  91              	.LVL7:
  92              	.LBE3:
 362:GFX_Library.c ****     }
 363:GFX_Library.c **** 
ARM GAS  C:\Users\PC\AppData\Local\Temp\ccKVdNiW.s 			page 9


 364:GFX_Library.c ****     if (x0 > x1) {
  93              		.loc 1 364 0
  94 0040 BD42     		cmp	r5, r7
  95 0042 05D9     		bls	.L3
  96 0044 3200     		movs	r2, r6
  97              	.LBB4:
 365:GFX_Library.c ****         _swap_int16_t(x0, x1);
 366:GFX_Library.c ****         _swap_int16_t(y0, y1);
  98              		.loc 1 366 0
  99 0046 1E00     		movs	r6, r3
 100              	.LVL8:
 101 0048 1300     		movs	r3, r2
 102              	.LVL9:
 103              	.LBE4:
 104 004a 2A00     		movs	r2, r5
 105              	.LBB5:
 365:GFX_Library.c ****         _swap_int16_t(x0, x1);
 106              		.loc 1 365 0
 107 004c 3D00     		movs	r5, r7
 108              	.LVL10:
 109 004e 1700     		movs	r7, r2
 110              	.LVL11:
 111              	.L3:
 112              	.LBE5:
 367:GFX_Library.c ****     }
 368:GFX_Library.c **** 
 369:GFX_Library.c ****     int16_t dx, dy;
 370:GFX_Library.c ****     dx = x1 - x0;
 113              		.loc 1 370 0
 114 0050 7A1B     		subs	r2, r7, r5
 115 0052 92B2     		uxth	r2, r2
 116 0054 9346     		mov	fp, r2
 117 0056 14B2     		sxth	r4, r2
 118              	.LVL12:
 371:GFX_Library.c ****     dy = abs((int16_t)(y1 - y0));
 119              		.loc 1 371 0
 120 0058 9A1B     		subs	r2, r3, r6
 121 005a 12B2     		sxth	r2, r2
 122 005c D117     		asrs	r1, r2, #31
 123 005e 5218     		adds	r2, r2, r1
 124 0060 4A40     		eors	r2, r1
 125 0062 9246     		mov	r10, r2
 126              	.LVL13:
 372:GFX_Library.c **** 
 373:GFX_Library.c ****     int16_t err = dx / 2;
 127              		.loc 1 373 0
 128 0064 E20F     		lsrs	r2, r4, #31
 129 0066 1419     		adds	r4, r2, r4
 130              	.LVL14:
 131 0068 6410     		asrs	r4, r4, #1
 132              	.LVL15:
 374:GFX_Library.c ****     int16_t ystep;
 375:GFX_Library.c **** 
 376:GFX_Library.c ****     if (y0 < y1) {
 133              		.loc 1 376 0
 134 006a 9E42     		cmp	r6, r3
 135 006c 02D2     		bcs	.L12
ARM GAS  C:\Users\PC\AppData\Local\Temp\ccKVdNiW.s 			page 10


 377:GFX_Library.c ****         ystep = 1;
 136              		.loc 1 377 0
 137 006e 0123     		movs	r3, #1
 138              	.LVL16:
 139 0070 0193     		str	r3, [sp, #4]
 140 0072 20E0     		b	.L5
 141              	.LVL17:
 142              	.L12:
 378:GFX_Library.c ****     } else {
 379:GFX_Library.c ****         ystep = -1;
 143              		.loc 1 379 0
 144 0074 0123     		movs	r3, #1
 145              	.LVL18:
 146 0076 5B42     		rsbs	r3, r3, #0
 147 0078 0193     		str	r3, [sp, #4]
 148 007a 1CE0     		b	.L5
 149              	.LVL19:
 150              	.L9:
 380:GFX_Library.c ****     }
 381:GFX_Library.c **** 
 382:GFX_Library.c ****     for (; x0<=x1; x0++) {
 383:GFX_Library.c ****         if (steep) {
 151              		.loc 1 383 0
 152 007c C845     		cmp	r8, r9
 153 007e 06DD     		ble	.L6
 384:GFX_Library.c ****             display_drawPixel(y0, x0, color);
 154              		.loc 1 384 0
 155 0080 6B46     		mov	r3, sp
 156 0082 1A78     		ldrb	r2, [r3]
 157 0084 E9B2     		uxtb	r1, r5
 158 0086 F0B2     		uxtb	r0, r6
 159 0088 FFF7FEFF 		bl	drawPixel
 160              	.LVL20:
 161 008c 05E0     		b	.L7
 162              	.L6:
 385:GFX_Library.c ****         } else {
 386:GFX_Library.c ****             display_drawPixel(x0, y0, color);
 163              		.loc 1 386 0
 164 008e 6B46     		mov	r3, sp
 165 0090 1A78     		ldrb	r2, [r3]
 166 0092 F1B2     		uxtb	r1, r6
 167 0094 E8B2     		uxtb	r0, r5
 168 0096 FFF7FEFF 		bl	drawPixel
 169              	.LVL21:
 170              	.L7:
 387:GFX_Library.c ****         }
 388:GFX_Library.c ****         err -= dy;
 171              		.loc 1 388 0
 172 009a 5346     		mov	r3, r10
 173 009c E41A     		subs	r4, r4, r3
 174              	.LVL22:
 175 009e A3B2     		uxth	r3, r4
 176 00a0 1CB2     		sxth	r4, r3
 177              	.LVL23:
 389:GFX_Library.c ****         if (err < 0) {
 178              		.loc 1 389 0
 179 00a2 002C     		cmp	r4, #0
ARM GAS  C:\Users\PC\AppData\Local\Temp\ccKVdNiW.s 			page 11


 180 00a4 05DA     		bge	.L8
 390:GFX_Library.c ****             y0 += ystep;
 181              		.loc 1 390 0
 182 00a6 019A     		ldr	r2, [sp, #4]
 183 00a8 9446     		mov	ip, r2
 184 00aa 6644     		add	r6, r6, ip
 185              	.LVL24:
 186 00ac B6B2     		uxth	r6, r6
 187              	.LVL25:
 391:GFX_Library.c ****             err += dx;
 188              		.loc 1 391 0
 189 00ae 5B44     		add	r3, r3, fp
 190 00b0 1CB2     		sxth	r4, r3
 191              	.LVL26:
 192              	.L8:
 382:GFX_Library.c ****         if (steep) {
 193              		.loc 1 382 0
 194 00b2 0135     		adds	r5, r5, #1
 195              	.LVL27:
 196 00b4 ADB2     		uxth	r5, r5
 197              	.LVL28:
 198              	.L5:
 382:GFX_Library.c ****         if (steep) {
 199              		.loc 1 382 0 is_stmt 0 discriminator 1
 200 00b6 BD42     		cmp	r5, r7
 201 00b8 E0D9     		bls	.L9
 392:GFX_Library.c ****         }
 393:GFX_Library.c ****     }
 394:GFX_Library.c **** }
 202              		.loc 1 394 0 is_stmt 1
 203 00ba 03B0     		add	sp, sp, #12
 204              		@ sp needed
 205              	.LVL29:
 206              	.LVL30:
 207              	.LVL31:
 208              	.LVL32:
 209              	.LVL33:
 210              	.LVL34:
 211              	.LVL35:
 212 00bc 3CBC     		pop	{r2, r3, r4, r5}
 213 00be 9046     		mov	r8, r2
 214 00c0 9946     		mov	r9, r3
 215 00c2 A246     		mov	r10, r4
 216 00c4 AB46     		mov	fp, r5
 217 00c6 F0BD     		pop	{r4, r5, r6, r7, pc}
 218              		.cfi_endproc
 219              	.LFE33:
 220              		.size	writeLine, .-writeLine
 221              		.section	.text.display_drawLine,"ax",%progbits
 222              		.align	2
 223              		.global	display_drawLine
 224              		.code	16
 225              		.thumb_func
 226              		.type	display_drawLine, %function
 227              	display_drawLine:
 228              	.LFB34:
 395:GFX_Library.c **** 
ARM GAS  C:\Users\PC\AppData\Local\Temp\ccKVdNiW.s 			page 12


 396:GFX_Library.c **** /**************************************************************************/
 397:GFX_Library.c **** /*!
 398:GFX_Library.c ****    @brief    Draw a line
 399:GFX_Library.c ****     @param    x0  Start point x coordinate
 400:GFX_Library.c ****     @param    y0  Start point y coordinate
 401:GFX_Library.c ****     @param    x1  End point x coordinate
 402:GFX_Library.c ****     @param    y1  End point y coordinate
 403:GFX_Library.c ****     @param    color 16-bit 5-6-5 Color to draw with
 404:GFX_Library.c **** */
 405:GFX_Library.c **** /**************************************************************************/
 406:GFX_Library.c **** void display_drawLine(uint16_t x0, uint16_t y0, uint16_t x1, uint16_t y1, uint16_t color) {
 229              		.loc 1 406 0
 230              		.cfi_startproc
 231              		@ args = 4, pretend = 0, frame = 0
 232              		@ frame_needed = 0, uses_anonymous_args = 0
 233              	.LVL36:
 234 0000 10B5     		push	{r4, lr}
 235              		.cfi_def_cfa_offset 8
 236              		.cfi_offset 4, -8
 237              		.cfi_offset 14, -4
 238 0002 82B0     		sub	sp, sp, #8
 239              		.cfi_def_cfa_offset 16
 240 0004 04AC     		add	r4, sp, #16
 241              	.LVL37:
 242 0006 2488     		ldrh	r4, [r4]
 243              	.LVL38:
 407:GFX_Library.c ****     // Update in subclasses if desired!
 408:GFX_Library.c ****     if(x0 == x1){
 244              		.loc 1 408 0
 245 0008 9042     		cmp	r0, r2
 246 000a 0ED1     		bne	.L14
 409:GFX_Library.c ****         if(y0 > y1) _swap_int16_t(y0, y1);
 247              		.loc 1 409 0
 248 000c 9942     		cmp	r1, r3
 249 000e 02D9     		bls	.L15
 250 0010 0A00     		movs	r2, r1
 251              	.LVL39:
 252              	.LBB6:
 253 0012 1900     		movs	r1, r3
 254              	.LVL40:
 255 0014 1300     		movs	r3, r2
 256              	.LVL41:
 257              	.L15:
 258              	.LBE6:
 410:GFX_Library.c ****         display_drawVLine(x0, y0, y1 - y0 + 1, color);
 259              		.loc 1 410 0
 260 0016 C9B2     		uxtb	r1, r1
 261              	.LVL42:
 262 0018 E4B2     		uxtb	r4, r4
 263 001a 5A1A     		subs	r2, r3, r1
 264 001c 531C     		adds	r3, r2, #1
 265              	.LVL43:
 266 001e DAB2     		uxtb	r2, r3
 267 0020 C0B2     		uxtb	r0, r0
 268              	.LVL44:
 269 0022 2300     		movs	r3, r4
 270 0024 FFF7FEFF 		bl	drawVLine
ARM GAS  C:\Users\PC\AppData\Local\Temp\ccKVdNiW.s 			page 13


 271              	.LVL45:
 272 0028 12E0     		b	.L13
 273              	.LVL46:
 274              	.L14:
 411:GFX_Library.c ****     } else if(y0 == y1){
 275              		.loc 1 411 0
 276 002a 9942     		cmp	r1, r3
 277 002c 0DD1     		bne	.L17
 412:GFX_Library.c ****         if(x0 > x1) _swap_int16_t(x0, x1);
 278              		.loc 1 412 0
 279 002e 9042     		cmp	r0, r2
 280 0030 02D9     		bls	.L18
 281 0032 0300     		movs	r3, r0
 282              	.LVL47:
 283              	.LBB7:
 284 0034 1000     		movs	r0, r2
 285              	.LVL48:
 286 0036 1A00     		movs	r2, r3
 287              	.LVL49:
 288              	.L18:
 289              	.LBE7:
 413:GFX_Library.c ****         display_drawHLine(x0, y0, x1 - x0 + 1, color);
 290              		.loc 1 413 0
 291 0038 C0B2     		uxtb	r0, r0
 292              	.LVL50:
 293 003a E3B2     		uxtb	r3, r4
 294 003c 121A     		subs	r2, r2, r0
 295              	.LVL51:
 296 003e 0132     		adds	r2, r2, #1
 297 0040 D2B2     		uxtb	r2, r2
 298 0042 C9B2     		uxtb	r1, r1
 299              	.LVL52:
 300 0044 FFF7FEFF 		bl	drawHLine
 301              	.LVL53:
 302 0048 02E0     		b	.L13
 303              	.LVL54:
 304              	.L17:
 414:GFX_Library.c ****     } else {
 415:GFX_Library.c ****         writeLine(x0, y0, x1, y1, color);
 305              		.loc 1 415 0
 306 004a 0094     		str	r4, [sp]
 307 004c FFF7FEFF 		bl	writeLine
 308              	.LVL55:
 309              	.L13:
 416:GFX_Library.c ****     }
 417:GFX_Library.c **** }
 310              		.loc 1 417 0
 311 0050 02B0     		add	sp, sp, #8
 312              		@ sp needed
 313 0052 10BD     		pop	{r4, pc}
 314              		.cfi_endproc
 315              	.LFE34:
 316              		.size	display_drawLine, .-display_drawLine
 317              		.section	.text.display_drawCircle,"ax",%progbits
 318              		.align	2
 319              		.global	display_drawCircle
 320              		.code	16
ARM GAS  C:\Users\PC\AppData\Local\Temp\ccKVdNiW.s 			page 14


 321              		.thumb_func
 322              		.type	display_drawCircle, %function
 323              	display_drawCircle:
 324              	.LFB35:
 418:GFX_Library.c **** 
 419:GFX_Library.c **** /**************************************************************************/
 420:GFX_Library.c **** /*!
 421:GFX_Library.c ****    @brief    Draw a circle outline
 422:GFX_Library.c ****     @param    x0   Center-point x coordinate
 423:GFX_Library.c ****     @param    y0   Center-point y coordinate
 424:GFX_Library.c ****     @param    r   Radius of circle
 425:GFX_Library.c ****     @param    color 16-bit 5-6-5 Color to draw with
 426:GFX_Library.c **** */
 427:GFX_Library.c **** /**************************************************************************/
 428:GFX_Library.c **** void display_drawCircle(uint16_t x0, uint16_t y0, uint16_t r, uint16_t color) {
 325              		.loc 1 428 0
 326              		.cfi_startproc
 327              		@ args = 0, pretend = 0, frame = 24
 328              		@ frame_needed = 0, uses_anonymous_args = 0
 329              	.LVL56:
 330 0000 F0B5     		push	{r4, r5, r6, r7, lr}
 331              		.cfi_def_cfa_offset 20
 332              		.cfi_offset 4, -20
 333              		.cfi_offset 5, -16
 334              		.cfi_offset 6, -12
 335              		.cfi_offset 7, -8
 336              		.cfi_offset 14, -4
 337 0002 5F46     		mov	r7, fp
 338 0004 5646     		mov	r6, r10
 339 0006 4D46     		mov	r5, r9
 340 0008 4446     		mov	r4, r8
 341 000a F0B4     		push	{r4, r5, r6, r7}
 342              		.cfi_def_cfa_offset 36
 343              		.cfi_offset 8, -36
 344              		.cfi_offset 9, -32
 345              		.cfi_offset 10, -28
 346              		.cfi_offset 11, -24
 347 000c 87B0     		sub	sp, sp, #28
 348              		.cfi_def_cfa_offset 64
 429:GFX_Library.c ****     int16_t f = 1 - r;
 349              		.loc 1 429 0
 350 000e 0124     		movs	r4, #1
 351 0010 A41A     		subs	r4, r4, r2
 352 0012 24B2     		sxth	r4, r4
 353              	.LVL57:
 430:GFX_Library.c ****     int16_t ddF_x = 1;
 431:GFX_Library.c ****     int16_t ddF_y = -2 * r;
 354              		.loc 1 431 0
 355 0014 D503     		lsls	r5, r2, #15
 356 0016 AD1A     		subs	r5, r5, r2
 357 0018 6E00     		lsls	r6, r5, #1
 358 001a 35B2     		sxth	r5, r6
 359 001c 0595     		str	r5, [sp, #20]
 360              	.LVL58:
 432:GFX_Library.c ****     int16_t x = 0;
 433:GFX_Library.c ****     int16_t y = r;
 361              		.loc 1 433 0
ARM GAS  C:\Users\PC\AppData\Local\Temp\ccKVdNiW.s 			page 15


 362 001e 15B2     		sxth	r5, r2
 363 0020 0295     		str	r5, [sp, #8]
 364              	.LVL59:
 434:GFX_Library.c **** 
 435:GFX_Library.c ****     display_drawPixel(x0  , y0+r, color);
 365              		.loc 1 435 0
 366 0022 C0B2     		uxtb	r0, r0
 367              	.LVL60:
 368 0024 8246     		mov	r10, r0
 369 0026 C9B2     		uxtb	r1, r1
 370              	.LVL61:
 371 0028 8B46     		mov	fp, r1
 372 002a D5B2     		uxtb	r5, r2
 373 002c DBB2     		uxtb	r3, r3
 374              	.LVL62:
 375 002e 1E00     		movs	r6, r3
 376 0030 0193     		str	r3, [sp, #4]
 377 0032 4919     		adds	r1, r1, r5
 378 0034 C9B2     		uxtb	r1, r1
 379 0036 3200     		movs	r2, r6
 380              	.LVL63:
 381 0038 FFF7FEFF 		bl	drawPixel
 382              	.LVL64:
 436:GFX_Library.c ****     display_drawPixel(x0  , y0-r, color);
 383              		.loc 1 436 0
 384 003c 5B46     		mov	r3, fp
 385 003e 591B     		subs	r1, r3, r5
 386 0040 C9B2     		uxtb	r1, r1
 387 0042 3200     		movs	r2, r6
 388 0044 5046     		mov	r0, r10
 389 0046 FFF7FEFF 		bl	drawPixel
 390              	.LVL65:
 437:GFX_Library.c ****     display_drawPixel(x0+r, y0  , color);
 391              		.loc 1 437 0
 392 004a 5346     		mov	r3, r10
 393 004c 5819     		adds	r0, r3, r5
 394 004e C0B2     		uxtb	r0, r0
 395 0050 3200     		movs	r2, r6
 396 0052 5946     		mov	r1, fp
 397 0054 FFF7FEFF 		bl	drawPixel
 398              	.LVL66:
 438:GFX_Library.c ****     display_drawPixel(x0-r, y0  , color);
 399              		.loc 1 438 0
 400 0058 5346     		mov	r3, r10
 401 005a 581B     		subs	r0, r3, r5
 402 005c C0B2     		uxtb	r0, r0
 403 005e 3200     		movs	r2, r6
 404 0060 5946     		mov	r1, fp
 405 0062 FFF7FEFF 		bl	drawPixel
 406              	.LVL67:
 432:GFX_Library.c ****     int16_t y = r;
 407              		.loc 1 432 0
 408 0066 0023     		movs	r3, #0
 430:GFX_Library.c ****     int16_t ddF_y = -2 * r;
 409              		.loc 1 430 0
 410 0068 0122     		movs	r2, #1
 411 006a 0392     		str	r2, [sp, #12]
ARM GAS  C:\Users\PC\AppData\Local\Temp\ccKVdNiW.s 			page 16


 412 006c A046     		mov	r8, r4
 413 006e 9946     		mov	r9, r3
 439:GFX_Library.c **** 
 440:GFX_Library.c ****     while (x<y) {
 414              		.loc 1 440 0
 415 0070 60E0     		b	.L22
 416              	.LVL68:
 417              	.L24:
 441:GFX_Library.c ****         if (f >= 0) {
 418              		.loc 1 441 0
 419 0072 4346     		mov	r3, r8
 420 0074 002B     		cmp	r3, #0
 421 0076 0BDB     		blt	.L23
 442:GFX_Library.c ****             y--;
 422              		.loc 1 442 0
 423 0078 029B     		ldr	r3, [sp, #8]
 424 007a 013B     		subs	r3, r3, #1
 425 007c 1BB2     		sxth	r3, r3
 426 007e 0293     		str	r3, [sp, #8]
 427              	.LVL69:
 443:GFX_Library.c ****             ddF_y += 2;
 428              		.loc 1 443 0
 429 0080 059B     		ldr	r3, [sp, #20]
 430 0082 0233     		adds	r3, r3, #2
 431 0084 9BB2     		uxth	r3, r3
 432 0086 1AB2     		sxth	r2, r3
 433 0088 0592     		str	r2, [sp, #20]
 434              	.LVL70:
 444:GFX_Library.c ****             f += ddF_y;
 435              		.loc 1 444 0
 436 008a 4344     		add	r3, r3, r8
 437 008c 1BB2     		sxth	r3, r3
 438 008e 9846     		mov	r8, r3
 439              	.LVL71:
 440              	.L23:
 445:GFX_Library.c ****         }
 446:GFX_Library.c ****         x++;
 441              		.loc 1 446 0
 442 0090 4D46     		mov	r5, r9
 443 0092 0135     		adds	r5, r5, #1
 444 0094 ADB2     		uxth	r5, r5
 445 0096 2BB2     		sxth	r3, r5
 446 0098 9946     		mov	r9, r3
 447              	.LVL72:
 447:GFX_Library.c ****         ddF_x += 2;
 448              		.loc 1 447 0
 449 009a 039B     		ldr	r3, [sp, #12]
 450 009c 0233     		adds	r3, r3, #2
 451 009e 9BB2     		uxth	r3, r3
 452 00a0 1AB2     		sxth	r2, r3
 453 00a2 0392     		str	r2, [sp, #12]
 454              	.LVL73:
 448:GFX_Library.c ****         f += ddF_x;
 455              		.loc 1 448 0
 456 00a4 4344     		add	r3, r3, r8
 457 00a6 1BB2     		sxth	r3, r3
 458 00a8 9846     		mov	r8, r3
ARM GAS  C:\Users\PC\AppData\Local\Temp\ccKVdNiW.s 			page 17


 459              	.LVL74:
 449:GFX_Library.c **** 
 450:GFX_Library.c ****         display_drawPixel(x0 + x, y0 + y, color);
 460              		.loc 1 450 0
 461 00aa EDB2     		uxtb	r5, r5
 462 00ac 5346     		mov	r3, r10
 463 00ae 5B19     		adds	r3, r3, r5
 464 00b0 DBB2     		uxtb	r3, r3
 465 00b2 6A46     		mov	r2, sp
 466 00b4 167A     		ldrb	r6, [r2, #8]
 467 00b6 5A46     		mov	r2, fp
 468 00b8 9719     		adds	r7, r2, r6
 469 00ba FFB2     		uxtb	r7, r7
 470 00bc 019A     		ldr	r2, [sp, #4]
 471 00be 3900     		movs	r1, r7
 472 00c0 0493     		str	r3, [sp, #16]
 473 00c2 1800     		movs	r0, r3
 474 00c4 FFF7FEFF 		bl	drawPixel
 475              	.LVL75:
 451:GFX_Library.c ****         display_drawPixel(x0 - x, y0 + y, color);
 476              		.loc 1 451 0
 477 00c8 5246     		mov	r2, r10
 478 00ca 541B     		subs	r4, r2, r5
 479 00cc E4B2     		uxtb	r4, r4
 480 00ce 019A     		ldr	r2, [sp, #4]
 481 00d0 3900     		movs	r1, r7
 482 00d2 2000     		movs	r0, r4
 483 00d4 FFF7FEFF 		bl	drawPixel
 484              	.LVL76:
 452:GFX_Library.c ****         display_drawPixel(x0 + x, y0 - y, color);
 485              		.loc 1 452 0
 486 00d8 5A46     		mov	r2, fp
 487 00da 971B     		subs	r7, r2, r6
 488 00dc FFB2     		uxtb	r7, r7
 489 00de 019A     		ldr	r2, [sp, #4]
 490 00e0 3900     		movs	r1, r7
 491 00e2 0498     		ldr	r0, [sp, #16]
 492 00e4 FFF7FEFF 		bl	drawPixel
 493              	.LVL77:
 453:GFX_Library.c ****         display_drawPixel(x0 - x, y0 - y, color);
 494              		.loc 1 453 0
 495 00e8 019A     		ldr	r2, [sp, #4]
 496 00ea 3900     		movs	r1, r7
 497 00ec 2000     		movs	r0, r4
 498 00ee FFF7FEFF 		bl	drawPixel
 499              	.LVL78:
 454:GFX_Library.c ****         display_drawPixel(x0 + y, y0 + x, color);
 500              		.loc 1 454 0
 501 00f2 5346     		mov	r3, r10
 502 00f4 9F19     		adds	r7, r3, r6
 503 00f6 FFB2     		uxtb	r7, r7
 504 00f8 5B46     		mov	r3, fp
 505 00fa 5C19     		adds	r4, r3, r5
 506 00fc E4B2     		uxtb	r4, r4
 507 00fe 019A     		ldr	r2, [sp, #4]
 508 0100 2100     		movs	r1, r4
 509 0102 3800     		movs	r0, r7
ARM GAS  C:\Users\PC\AppData\Local\Temp\ccKVdNiW.s 			page 18


 510 0104 FFF7FEFF 		bl	drawPixel
 511              	.LVL79:
 455:GFX_Library.c ****         display_drawPixel(x0 - y, y0 + x, color);
 512              		.loc 1 455 0
 513 0108 5346     		mov	r3, r10
 514 010a 9E1B     		subs	r6, r3, r6
 515 010c F6B2     		uxtb	r6, r6
 516 010e 019A     		ldr	r2, [sp, #4]
 517 0110 2100     		movs	r1, r4
 518 0112 3000     		movs	r0, r6
 519 0114 FFF7FEFF 		bl	drawPixel
 520              	.LVL80:
 456:GFX_Library.c ****         display_drawPixel(x0 + y, y0 - x, color);
 521              		.loc 1 456 0
 522 0118 5B46     		mov	r3, fp
 523 011a 5D1B     		subs	r5, r3, r5
 524 011c EDB2     		uxtb	r5, r5
 525 011e 019C     		ldr	r4, [sp, #4]
 526 0120 2200     		movs	r2, r4
 527 0122 2900     		movs	r1, r5
 528 0124 3800     		movs	r0, r7
 529 0126 FFF7FEFF 		bl	drawPixel
 530              	.LVL81:
 457:GFX_Library.c ****         display_drawPixel(x0 - y, y0 - x, color);
 531              		.loc 1 457 0
 532 012a 2200     		movs	r2, r4
 533 012c 2900     		movs	r1, r5
 534 012e 3000     		movs	r0, r6
 535 0130 FFF7FEFF 		bl	drawPixel
 536              	.LVL82:
 537              	.L22:
 440:GFX_Library.c ****         if (f >= 0) {
 538              		.loc 1 440 0
 539 0134 029B     		ldr	r3, [sp, #8]
 540 0136 9945     		cmp	r9, r3
 541 0138 9BDB     		blt	.L24
 458:GFX_Library.c ****     }
 459:GFX_Library.c **** }
 542              		.loc 1 459 0
 543 013a 07B0     		add	sp, sp, #28
 544              		@ sp needed
 545              	.LVL83:
 546              	.LVL84:
 547 013c 3CBC     		pop	{r2, r3, r4, r5}
 548 013e 9046     		mov	r8, r2
 549 0140 9946     		mov	r9, r3
 550 0142 A246     		mov	r10, r4
 551 0144 AB46     		mov	fp, r5
 552 0146 F0BD     		pop	{r4, r5, r6, r7, pc}
 553              		.cfi_endproc
 554              	.LFE35:
 555              		.size	display_drawCircle, .-display_drawCircle
 556              		.section	.text.display_drawCircleHelper,"ax",%progbits
 557              		.align	2
 558              		.global	display_drawCircleHelper
 559              		.code	16
 560              		.thumb_func
ARM GAS  C:\Users\PC\AppData\Local\Temp\ccKVdNiW.s 			page 19


 561              		.type	display_drawCircleHelper, %function
 562              	display_drawCircleHelper:
 563              	.LFB36:
 460:GFX_Library.c **** 
 461:GFX_Library.c **** /**************************************************************************/
 462:GFX_Library.c **** /*!
 463:GFX_Library.c ****     @brief    Quarter-circle drawer, used to do circles and roundrects
 464:GFX_Library.c ****     @param    x0   Center-point x coordinate
 465:GFX_Library.c ****     @param    y0   Center-point y coordinate
 466:GFX_Library.c ****     @param    r   Radius of circle
 467:GFX_Library.c ****     @param    cornername  Mask bit #1 or bit #2 to indicate which quarters of the circle we're doin
 468:GFX_Library.c ****     @param    color 16-bit 5-6-5 Color to draw with
 469:GFX_Library.c **** */
 470:GFX_Library.c **** /**************************************************************************/
 471:GFX_Library.c **** void display_drawCircleHelper(uint16_t x0, uint16_t y0, uint16_t r, uint8_t cornername, uint16_t co
 564              		.loc 1 471 0
 565              		.cfi_startproc
 566              		@ args = 4, pretend = 0, frame = 32
 567              		@ frame_needed = 0, uses_anonymous_args = 0
 568              	.LVL85:
 569 0000 F0B5     		push	{r4, r5, r6, r7, lr}
 570              		.cfi_def_cfa_offset 20
 571              		.cfi_offset 4, -20
 572              		.cfi_offset 5, -16
 573              		.cfi_offset 6, -12
 574              		.cfi_offset 7, -8
 575              		.cfi_offset 14, -4
 576 0002 5F46     		mov	r7, fp
 577 0004 5646     		mov	r6, r10
 578 0006 4D46     		mov	r5, r9
 579 0008 4446     		mov	r4, r8
 580 000a F0B4     		push	{r4, r5, r6, r7}
 581              		.cfi_def_cfa_offset 36
 582              		.cfi_offset 8, -36
 583              		.cfi_offset 9, -32
 584              		.cfi_offset 10, -28
 585              		.cfi_offset 11, -24
 586 000c 89B0     		sub	sp, sp, #36
 587              		.cfi_def_cfa_offset 72
 588 000e 0290     		str	r0, [sp, #8]
 589 0010 0391     		str	r1, [sp, #12]
 590 0012 1E00     		movs	r6, r3
 591 0014 12AB     		add	r3, sp, #72
 592              	.LVL86:
 593 0016 1B88     		ldrh	r3, [r3]
 594              	.LVL87:
 595 0018 0493     		str	r3, [sp, #16]
 472:GFX_Library.c ****     int16_t f     = 1 - r;
 596              		.loc 1 472 0
 597 001a 0124     		movs	r4, #1
 598 001c A41A     		subs	r4, r4, r2
 599 001e 24B2     		sxth	r4, r4
 600              	.LVL88:
 473:GFX_Library.c ****     int16_t ddF_x = 1;
 474:GFX_Library.c ****     int16_t ddF_y = -2 * r;
 601              		.loc 1 474 0
 602 0020 D303     		lsls	r3, r2, #15
ARM GAS  C:\Users\PC\AppData\Local\Temp\ccKVdNiW.s 			page 20


 603 0022 9B1A     		subs	r3, r3, r2
 604 0024 5900     		lsls	r1, r3, #1
 605              	.LVL89:
 606 0026 0BB2     		sxth	r3, r1
 607 0028 9946     		mov	r9, r3
 608              	.LVL90:
 475:GFX_Library.c ****     int16_t x     = 0;
 476:GFX_Library.c ****     int16_t y     = r;
 609              		.loc 1 476 0
 610 002a 13B2     		sxth	r3, r2
 611 002c 9846     		mov	r8, r3
 612              	.LVL91:
 475:GFX_Library.c ****     int16_t x     = 0;
 613              		.loc 1 475 0
 614 002e 0027     		movs	r7, #0
 473:GFX_Library.c ****     int16_t ddF_x = 1;
 615              		.loc 1 473 0
 616 0030 0123     		movs	r3, #1
 617 0032 9B46     		mov	fp, r3
 477:GFX_Library.c **** 
 478:GFX_Library.c ****     while (x<y) {
 618              		.loc 1 478 0
 619 0034 9EE0     		b	.L26
 620              	.LVL92:
 621              	.L32:
 479:GFX_Library.c ****         if (f >= 0) {
 622              		.loc 1 479 0
 623 0036 002C     		cmp	r4, #0
 624 0038 0ADB     		blt	.L27
 480:GFX_Library.c ****             y--;
 625              		.loc 1 480 0
 626 003a 4346     		mov	r3, r8
 627 003c 013B     		subs	r3, r3, #1
 628 003e 1BB2     		sxth	r3, r3
 629 0040 9846     		mov	r8, r3
 630              	.LVL93:
 481:GFX_Library.c ****             ddF_y += 2;
 631              		.loc 1 481 0
 632 0042 4B46     		mov	r3, r9
 633 0044 0233     		adds	r3, r3, #2
 634 0046 9BB2     		uxth	r3, r3
 635 0048 1AB2     		sxth	r2, r3
 636 004a 9146     		mov	r9, r2
 637              	.LVL94:
 482:GFX_Library.c ****             f     += ddF_y;
 638              		.loc 1 482 0
 639 004c 1C19     		adds	r4, r3, r4
 640              	.LVL95:
 641 004e 24B2     		sxth	r4, r4
 642              	.LVL96:
 643              	.L27:
 483:GFX_Library.c ****         }
 484:GFX_Library.c ****         x++;
 644              		.loc 1 484 0
 645 0050 0137     		adds	r7, r7, #1
 646              	.LVL97:
 647 0052 BBB2     		uxth	r3, r7
ARM GAS  C:\Users\PC\AppData\Local\Temp\ccKVdNiW.s 			page 21


 648 0054 0193     		str	r3, [sp, #4]
 649 0056 1FB2     		sxth	r7, r3
 650              	.LVL98:
 485:GFX_Library.c ****         ddF_x += 2;
 651              		.loc 1 485 0
 652 0058 5B46     		mov	r3, fp
 653 005a 0233     		adds	r3, r3, #2
 654 005c 9BB2     		uxth	r3, r3
 655 005e 1AB2     		sxth	r2, r3
 656 0060 9346     		mov	fp, r2
 657              	.LVL99:
 486:GFX_Library.c ****         f     += ddF_x;
 658              		.loc 1 486 0
 659 0062 1C19     		adds	r4, r3, r4
 660              	.LVL100:
 661 0064 24B2     		sxth	r4, r4
 662              	.LVL101:
 487:GFX_Library.c ****         if (cornername & 0x4) {
 663              		.loc 1 487 0
 664 0066 7307     		lsls	r3, r6, #29
 665 0068 1FD5     		bpl	.L28
 488:GFX_Library.c ****             display_drawPixel(x0 + x, y0 + y, color);
 666              		.loc 1 488 0
 667 006a 6B46     		mov	r3, sp
 668 006c 187A     		ldrb	r0, [r3, #8]
 669 006e 1B79     		ldrb	r3, [r3, #4]
 670 0070 6A46     		mov	r2, sp
 671 0072 117B     		ldrb	r1, [r2, #12]
 672 0074 4246     		mov	r2, r8
 673 0076 6D46     		mov	r5, sp
 674 0078 2A75     		strb	r2, [r5, #20]
 675 007a 6A46     		mov	r2, sp
 676 007c 2D7D     		ldrb	r5, [r5, #20]
 677 007e 127C     		ldrb	r2, [r2, #16]
 678 0080 0591     		str	r1, [sp, #20]
 679 0082 0695     		str	r5, [sp, #24]
 680 0084 AC46     		mov	ip, r5
 681 0086 6144     		add	r1, r1, ip
 682 0088 C9B2     		uxtb	r1, r1
 683 008a 8246     		mov	r10, r0
 684 008c 1D00     		movs	r5, r3
 685 008e 4019     		adds	r0, r0, r5
 686 0090 C0B2     		uxtb	r0, r0
 687 0092 0792     		str	r2, [sp, #28]
 688 0094 FFF7FEFF 		bl	drawPixel
 689              	.LVL102:
 489:GFX_Library.c ****             display_drawPixel(x0 + y, y0 + x, color);
 690              		.loc 1 489 0
 691 0098 0599     		ldr	r1, [sp, #20]
 692 009a 6918     		adds	r1, r5, r1
 693 009c C9B2     		uxtb	r1, r1
 694 009e 069D     		ldr	r5, [sp, #24]
 695 00a0 5544     		add	r5, r5, r10
 696 00a2 E8B2     		uxtb	r0, r5
 697 00a4 079A     		ldr	r2, [sp, #28]
 698 00a6 FFF7FEFF 		bl	drawPixel
 699              	.LVL103:
ARM GAS  C:\Users\PC\AppData\Local\Temp\ccKVdNiW.s 			page 22


 700              	.L28:
 490:GFX_Library.c ****         }
 491:GFX_Library.c ****         if (cornername & 0x2) {
 701              		.loc 1 491 0
 702 00aa B307     		lsls	r3, r6, #30
 703 00ac 1ED5     		bpl	.L29
 492:GFX_Library.c ****             display_drawPixel(x0 + x, y0 - y, color);
 704              		.loc 1 492 0
 705 00ae 6B46     		mov	r3, sp
 706 00b0 187A     		ldrb	r0, [r3, #8]
 707 00b2 1B79     		ldrb	r3, [r3, #4]
 708 00b4 6A46     		mov	r2, sp
 709 00b6 117B     		ldrb	r1, [r2, #12]
 710 00b8 4246     		mov	r2, r8
 711 00ba 6D46     		mov	r5, sp
 712 00bc 2A75     		strb	r2, [r5, #20]
 713 00be 6A46     		mov	r2, sp
 714 00c0 2D7D     		ldrb	r5, [r5, #20]
 715 00c2 127C     		ldrb	r2, [r2, #16]
 716 00c4 0591     		str	r1, [sp, #20]
 717 00c6 0695     		str	r5, [sp, #24]
 718 00c8 491B     		subs	r1, r1, r5
 719 00ca C9B2     		uxtb	r1, r1
 720 00cc 8246     		mov	r10, r0
 721 00ce 1D00     		movs	r5, r3
 722 00d0 4019     		adds	r0, r0, r5
 723 00d2 C0B2     		uxtb	r0, r0
 724 00d4 0792     		str	r2, [sp, #28]
 725 00d6 FFF7FEFF 		bl	drawPixel
 726              	.LVL104:
 493:GFX_Library.c ****             display_drawPixel(x0 + y, y0 - x, color);
 727              		.loc 1 493 0
 728 00da 0599     		ldr	r1, [sp, #20]
 729 00dc 491B     		subs	r1, r1, r5
 730 00de C9B2     		uxtb	r1, r1
 731 00e0 069D     		ldr	r5, [sp, #24]
 732 00e2 5544     		add	r5, r5, r10
 733 00e4 E8B2     		uxtb	r0, r5
 734 00e6 079A     		ldr	r2, [sp, #28]
 735 00e8 FFF7FEFF 		bl	drawPixel
 736              	.LVL105:
 737              	.L29:
 494:GFX_Library.c ****         }
 495:GFX_Library.c ****         if (cornername & 0x8) {
 738              		.loc 1 495 0
 739 00ec 3307     		lsls	r3, r6, #28
 740 00ee 1ED5     		bpl	.L30
 496:GFX_Library.c ****             display_drawPixel(x0 - y, y0 + x, color);
 741              		.loc 1 496 0
 742 00f0 6B46     		mov	r3, sp
 743 00f2 187A     		ldrb	r0, [r3, #8]
 744 00f4 4346     		mov	r3, r8
 745 00f6 6A46     		mov	r2, sp
 746 00f8 1375     		strb	r3, [r2, #20]
 747 00fa 137D     		ldrb	r3, [r2, #20]
 748 00fc 117B     		ldrb	r1, [r2, #12]
 749 00fe 1579     		ldrb	r5, [r2, #4]
ARM GAS  C:\Users\PC\AppData\Local\Temp\ccKVdNiW.s 			page 23


 750 0100 127C     		ldrb	r2, [r2, #16]
 751 0102 0591     		str	r1, [sp, #20]
 752 0104 0695     		str	r5, [sp, #24]
 753 0106 AC46     		mov	ip, r5
 754 0108 6144     		add	r1, r1, ip
 755 010a C9B2     		uxtb	r1, r1
 756 010c 8246     		mov	r10, r0
 757 010e 1D00     		movs	r5, r3
 758 0110 401B     		subs	r0, r0, r5
 759 0112 C0B2     		uxtb	r0, r0
 760 0114 0792     		str	r2, [sp, #28]
 761 0116 FFF7FEFF 		bl	drawPixel
 762              	.LVL106:
 497:GFX_Library.c ****             display_drawPixel(x0 - x, y0 + y, color);
 763              		.loc 1 497 0
 764 011a 0599     		ldr	r1, [sp, #20]
 765 011c 6918     		adds	r1, r5, r1
 766 011e C9B2     		uxtb	r1, r1
 767 0120 5346     		mov	r3, r10
 768 0122 069D     		ldr	r5, [sp, #24]
 769 0124 581B     		subs	r0, r3, r5
 770 0126 C0B2     		uxtb	r0, r0
 771 0128 079A     		ldr	r2, [sp, #28]
 772 012a FFF7FEFF 		bl	drawPixel
 773              	.LVL107:
 774              	.L30:
 498:GFX_Library.c ****         }
 499:GFX_Library.c ****         if (cornername & 0x1) {
 775              		.loc 1 499 0
 776 012e F307     		lsls	r3, r6, #31
 777 0130 20D5     		bpl	.L26
 500:GFX_Library.c ****             display_drawPixel(x0 - y, y0 - x, color);
 778              		.loc 1 500 0
 779 0132 6B46     		mov	r3, sp
 780 0134 1D7A     		ldrb	r5, [r3, #8]
 781 0136 4346     		mov	r3, r8
 782 0138 6A46     		mov	r2, sp
 783 013a 1375     		strb	r3, [r2, #20]
 784 013c 6B46     		mov	r3, sp
 785 013e 127D     		ldrb	r2, [r2, #20]
 786 0140 197B     		ldrb	r1, [r3, #12]
 787 0142 1B79     		ldrb	r3, [r3, #4]
 788 0144 9A46     		mov	r10, r3
 789 0146 6B46     		mov	r3, sp
 790 0148 1B7C     		ldrb	r3, [r3, #16]
 791 014a 0591     		str	r1, [sp, #20]
 792 014c 5046     		mov	r0, r10
 793 014e 091A     		subs	r1, r1, r0
 794 0150 C9B2     		uxtb	r1, r1
 795 0152 0192     		str	r2, [sp, #4]
 796 0154 A81A     		subs	r0, r5, r2
 797 0156 C0B2     		uxtb	r0, r0
 798 0158 0693     		str	r3, [sp, #24]
 799 015a 1A00     		movs	r2, r3
 800 015c FFF7FEFF 		bl	drawPixel
 801              	.LVL108:
 501:GFX_Library.c ****             display_drawPixel(x0 - x, y0 - y, color);
ARM GAS  C:\Users\PC\AppData\Local\Temp\ccKVdNiW.s 			page 24


 802              		.loc 1 501 0
 803 0160 0599     		ldr	r1, [sp, #20]
 804 0162 019B     		ldr	r3, [sp, #4]
 805 0164 C91A     		subs	r1, r1, r3
 806 0166 C9B2     		uxtb	r1, r1
 807 0168 5046     		mov	r0, r10
 808 016a 2D1A     		subs	r5, r5, r0
 809 016c E8B2     		uxtb	r0, r5
 810 016e 069A     		ldr	r2, [sp, #24]
 811 0170 FFF7FEFF 		bl	drawPixel
 812              	.LVL109:
 813              	.L26:
 478:GFX_Library.c ****         if (f >= 0) {
 814              		.loc 1 478 0
 815 0174 4745     		cmp	r7, r8
 816 0176 00DA     		bge	.LCB882
 817 0178 5DE7     		b	.L32	@long jump
 818              	.LCB882:
 502:GFX_Library.c ****         }
 503:GFX_Library.c ****     }
 504:GFX_Library.c **** }
 819              		.loc 1 504 0
 820 017a 09B0     		add	sp, sp, #36
 821              		@ sp needed
 822              	.LVL110:
 823              	.LVL111:
 824              	.LVL112:
 825              	.LVL113:
 826              	.LVL114:
 827 017c 3CBC     		pop	{r2, r3, r4, r5}
 828 017e 9046     		mov	r8, r2
 829 0180 9946     		mov	r9, r3
 830 0182 A246     		mov	r10, r4
 831 0184 AB46     		mov	fp, r5
 832 0186 F0BD     		pop	{r4, r5, r6, r7, pc}
 833              		.cfi_endproc
 834              	.LFE36:
 835              		.size	display_drawCircleHelper, .-display_drawCircleHelper
 836              		.section	.text.display_fillCircleHelper,"ax",%progbits
 837              		.align	2
 838              		.global	display_fillCircleHelper
 839              		.code	16
 840              		.thumb_func
 841              		.type	display_fillCircleHelper, %function
 842              	display_fillCircleHelper:
 843              	.LFB38:
 505:GFX_Library.c **** 
 506:GFX_Library.c **** /**************************************************************************/
 507:GFX_Library.c **** /*!
 508:GFX_Library.c ****    @brief    Draw a circle with filled color
 509:GFX_Library.c ****     @param    x0   Center-point x coordinate
 510:GFX_Library.c ****     @param    y0   Center-point y coordinate
 511:GFX_Library.c ****     @param    r   Radius of circle
 512:GFX_Library.c ****     @param    color 16-bit 5-6-5 Color to fill with
 513:GFX_Library.c **** */
 514:GFX_Library.c **** /**************************************************************************/
 515:GFX_Library.c **** void display_fillCircle(uint16_t x0, uint16_t y0, uint16_t r, uint16_t color) {
ARM GAS  C:\Users\PC\AppData\Local\Temp\ccKVdNiW.s 			page 25


 516:GFX_Library.c ****     display_drawVLine(x0, y0-r, 2*r+1, color);
 517:GFX_Library.c ****     display_fillCircleHelper(x0, y0, r, 3, 0, color);
 518:GFX_Library.c **** }
 519:GFX_Library.c **** 
 520:GFX_Library.c **** 
 521:GFX_Library.c **** /**************************************************************************/
 522:GFX_Library.c **** /*!
 523:GFX_Library.c ****     @brief  Quarter-circle drawer with fill, used for circles and roundrects
 524:GFX_Library.c ****     @param  x0       Center-point x coordinate
 525:GFX_Library.c ****     @param  y0       Center-point y coordinate
 526:GFX_Library.c ****     @param  r        Radius of circle
 527:GFX_Library.c ****     @param  corners  Mask bits indicating which quarters we're doing
 528:GFX_Library.c ****     @param  delta    Offset from center-point, used for round-rects
 529:GFX_Library.c ****     @param  color    16-bit 5-6-5 Color to fill with
 530:GFX_Library.c **** */
 531:GFX_Library.c **** /**************************************************************************/
 532:GFX_Library.c **** void display_fillCircleHelper(uint16_t x0, uint16_t y0, uint16_t r, uint8_t corners, uint16_t delta
 844              		.loc 1 532 0
 845              		.cfi_startproc
 846              		@ args = 8, pretend = 0, frame = 24
 847              		@ frame_needed = 0, uses_anonymous_args = 0
 848              	.LVL115:
 849 0000 F0B5     		push	{r4, r5, r6, r7, lr}
 850              		.cfi_def_cfa_offset 20
 851              		.cfi_offset 4, -20
 852              		.cfi_offset 5, -16
 853              		.cfi_offset 6, -12
 854              		.cfi_offset 7, -8
 855              		.cfi_offset 14, -4
 856 0002 5F46     		mov	r7, fp
 857 0004 5646     		mov	r6, r10
 858 0006 4D46     		mov	r5, r9
 859 0008 4446     		mov	r4, r8
 860 000a F0B4     		push	{r4, r5, r6, r7}
 861              		.cfi_def_cfa_offset 36
 862              		.cfi_offset 8, -36
 863              		.cfi_offset 9, -32
 864              		.cfi_offset 10, -28
 865              		.cfi_offset 11, -24
 866 000c 87B0     		sub	sp, sp, #28
 867              		.cfi_def_cfa_offset 64
 868 000e 0190     		str	r0, [sp, #4]
 869 0010 0291     		str	r1, [sp, #8]
 870 0012 9B46     		mov	fp, r3
 871 0014 10AB     		add	r3, sp, #64
 872              	.LVL116:
 873 0016 1988     		ldrh	r1, [r3]
 874              	.LVL117:
 875 0018 11AB     		add	r3, sp, #68
 876              	.LVL118:
 877 001a 1B88     		ldrh	r3, [r3]
 878              	.LVL119:
 879 001c 0393     		str	r3, [sp, #12]
 533:GFX_Library.c ****     int16_t f     = 1 - r;
 880              		.loc 1 533 0
 881 001e 0124     		movs	r4, #1
 882 0020 A41A     		subs	r4, r4, r2
ARM GAS  C:\Users\PC\AppData\Local\Temp\ccKVdNiW.s 			page 26


 883 0022 24B2     		sxth	r4, r4
 884              	.LVL120:
 534:GFX_Library.c ****     int16_t ddF_x = 1;
 535:GFX_Library.c ****     int16_t ddF_y = -2 * r;
 885              		.loc 1 535 0
 886 0024 D303     		lsls	r3, r2, #15
 887 0026 9B1A     		subs	r3, r3, r2
 888 0028 5800     		lsls	r0, r3, #1
 889              	.LVL121:
 890 002a 03B2     		sxth	r3, r0
 891 002c 9946     		mov	r9, r3
 892              	.LVL122:
 536:GFX_Library.c ****     int16_t x     = 0;
 537:GFX_Library.c ****     int16_t y     = r;
 893              		.loc 1 537 0
 894 002e 16B2     		sxth	r6, r2
 895              	.LVL123:
 538:GFX_Library.c ****     int16_t px    = x;
 539:GFX_Library.c ****     int16_t py    = y;
 540:GFX_Library.c **** 
 541:GFX_Library.c ****     delta++; // Avoid some +1's in the loop
 896              		.loc 1 541 0
 897 0030 4B1C     		adds	r3, r1, #1
 898 0032 9BB2     		uxth	r3, r3
 899              	.LVL124:
 539:GFX_Library.c **** 
 900              		.loc 1 539 0
 901 0034 0096     		str	r6, [sp]
 536:GFX_Library.c ****     int16_t x     = 0;
 902              		.loc 1 536 0
 903 0036 0027     		movs	r7, #0
 534:GFX_Library.c ****     int16_t ddF_y = -2 * r;
 904              		.loc 1 534 0
 905 0038 0125     		movs	r5, #1
 906 003a AA46     		mov	r10, r5
 907 003c 2500     		movs	r5, r4
 908 003e 0493     		str	r3, [sp, #16]
 542:GFX_Library.c **** 
 543:GFX_Library.c ****     while(x < y) {
 909              		.loc 1 543 0
 910 0040 73E0     		b	.L34
 911              	.LVL125:
 912              	.L40:
 544:GFX_Library.c ****         if (f >= 0) {
 913              		.loc 1 544 0
 914 0042 002D     		cmp	r5, #0
 915 0044 08DB     		blt	.L35
 545:GFX_Library.c ****             y--;
 916              		.loc 1 545 0
 917 0046 013E     		subs	r6, r6, #1
 918              	.LVL126:
 919 0048 36B2     		sxth	r6, r6
 920              	.LVL127:
 546:GFX_Library.c ****             ddF_y += 2;
 921              		.loc 1 546 0
 922 004a 4B46     		mov	r3, r9
 923 004c 0233     		adds	r3, r3, #2
ARM GAS  C:\Users\PC\AppData\Local\Temp\ccKVdNiW.s 			page 27


 924 004e 9BB2     		uxth	r3, r3
 925 0050 1AB2     		sxth	r2, r3
 926 0052 9146     		mov	r9, r2
 927              	.LVL128:
 547:GFX_Library.c ****             f     += ddF_y;
 928              		.loc 1 547 0
 929 0054 5D19     		adds	r5, r3, r5
 930              	.LVL129:
 931 0056 2DB2     		sxth	r5, r5
 932              	.LVL130:
 933              	.L35:
 548:GFX_Library.c ****         }
 549:GFX_Library.c ****         x++;
 934              		.loc 1 549 0
 935 0058 7C1C     		adds	r4, r7, #1
 936 005a A3B2     		uxth	r3, r4
 937 005c 9846     		mov	r8, r3
 938 005e 1CB2     		sxth	r4, r3
 939              	.LVL131:
 550:GFX_Library.c ****         ddF_x += 2;
 940              		.loc 1 550 0
 941 0060 5346     		mov	r3, r10
 942 0062 0233     		adds	r3, r3, #2
 943 0064 9BB2     		uxth	r3, r3
 944 0066 1AB2     		sxth	r2, r3
 945 0068 9246     		mov	r10, r2
 946              	.LVL132:
 551:GFX_Library.c ****         f     += ddF_x;
 947              		.loc 1 551 0
 948 006a 5D19     		adds	r5, r3, r5
 949              	.LVL133:
 950 006c 2DB2     		sxth	r5, r5
 951              	.LVL134:
 552:GFX_Library.c ****         // These checks avoid double-drawing certain lines, important
 553:GFX_Library.c ****         // for the SSD1306 library which has an INVERT drawing mode.
 554:GFX_Library.c ****         if(x < (y + 1)) {
 952              		.loc 1 554 0
 953 006e 731C     		adds	r3, r6, #1
 954 0070 9C42     		cmp	r4, r3
 955 0072 28DA     		bge	.L36
 555:GFX_Library.c ****             if(corners & 1) display_drawVLine(x0+x, y0-y, 2*y+delta, color);
 956              		.loc 1 555 0
 957 0074 5B46     		mov	r3, fp
 958 0076 DB07     		lsls	r3, r3, #31
 959 0078 0FD5     		bpl	.L37
 960              		.loc 1 555 0 is_stmt 0 discriminator 1
 961 007a F1B2     		uxtb	r1, r6
 962 007c 6B46     		mov	r3, sp
 963 007e 1B7B     		ldrb	r3, [r3, #12]
 964 0080 4A00     		lsls	r2, r1, #1
 965 0082 0498     		ldr	r0, [sp, #16]
 966 0084 8446     		mov	ip, r0
 967 0086 6244     		add	r2, r2, ip
 968 0088 D2B2     		uxtb	r2, r2
 969 008a 0298     		ldr	r0, [sp, #8]
 970 008c 411A     		subs	r1, r0, r1
 971 008e C9B2     		uxtb	r1, r1
ARM GAS  C:\Users\PC\AppData\Local\Temp\ccKVdNiW.s 			page 28


 972 0090 0198     		ldr	r0, [sp, #4]
 973 0092 4044     		add	r0, r0, r8
 974 0094 C0B2     		uxtb	r0, r0
 975 0096 FFF7FEFF 		bl	drawVLine
 976              	.LVL135:
 977              	.L37:
 556:GFX_Library.c ****             if(corners & 2) display_drawVLine(x0-x, y0-y, 2*y+delta, color);
 978              		.loc 1 556 0 is_stmt 1
 979 009a 5B46     		mov	r3, fp
 980 009c 9B07     		lsls	r3, r3, #30
 981 009e 12D5     		bpl	.L36
 982              		.loc 1 556 0 is_stmt 0 discriminator 1
 983 00a0 F1B2     		uxtb	r1, r6
 984 00a2 6B46     		mov	r3, sp
 985 00a4 1B7B     		ldrb	r3, [r3, #12]
 986 00a6 0593     		str	r3, [sp, #20]
 987 00a8 4A00     		lsls	r2, r1, #1
 988 00aa 0498     		ldr	r0, [sp, #16]
 989 00ac 8446     		mov	ip, r0
 990 00ae 6244     		add	r2, r2, ip
 991 00b0 D2B2     		uxtb	r2, r2
 992 00b2 0298     		ldr	r0, [sp, #8]
 993 00b4 411A     		subs	r1, r0, r1
 994 00b6 C9B2     		uxtb	r1, r1
 995 00b8 0198     		ldr	r0, [sp, #4]
 996 00ba 4346     		mov	r3, r8
 997 00bc C01A     		subs	r0, r0, r3
 998 00be C0B2     		uxtb	r0, r0
 999 00c0 059B     		ldr	r3, [sp, #20]
 1000 00c2 FFF7FEFF 		bl	drawVLine
 1001              	.LVL136:
 1002              	.L36:
 557:GFX_Library.c ****         }
 558:GFX_Library.c ****         if(y != py) {
 1003              		.loc 1 558 0 is_stmt 1
 1004 00c6 009B     		ldr	r3, [sp]
 1005 00c8 9E42     		cmp	r6, r3
 1006 00ca 2DD0     		beq	.L38
 559:GFX_Library.c ****             if(corners & 1) display_drawVLine(x0+py, y0-px, 2*px+delta, color);
 1007              		.loc 1 559 0
 1008 00cc 5B46     		mov	r3, fp
 1009 00ce DB07     		lsls	r3, r3, #31
 1010 00d0 13D5     		bpl	.L39
 1011              		.loc 1 559 0 is_stmt 0 discriminator 1
 1012 00d2 F9B2     		uxtb	r1, r7
 1013 00d4 6B46     		mov	r3, sp
 1014 00d6 1B7B     		ldrb	r3, [r3, #12]
 1015 00d8 4A00     		lsls	r2, r1, #1
 1016 00da 0498     		ldr	r0, [sp, #16]
 1017 00dc 8446     		mov	ip, r0
 1018 00de 6244     		add	r2, r2, ip
 1019 00e0 D2B2     		uxtb	r2, r2
 1020 00e2 0298     		ldr	r0, [sp, #8]
 1021 00e4 411A     		subs	r1, r0, r1
 1022 00e6 C9B2     		uxtb	r1, r1
 1023 00e8 0198     		ldr	r0, [sp, #4]
 1024 00ea 8046     		mov	r8, r0
ARM GAS  C:\Users\PC\AppData\Local\Temp\ccKVdNiW.s 			page 29


 1025 00ec 0098     		ldr	r0, [sp]
 1026 00ee 8446     		mov	ip, r0
 1027 00f0 E044     		add	r8, r8, ip
 1028 00f2 4046     		mov	r0, r8
 1029 00f4 C0B2     		uxtb	r0, r0
 1030 00f6 FFF7FEFF 		bl	drawVLine
 1031              	.LVL137:
 1032              	.L39:
 560:GFX_Library.c ****             if(corners & 2) display_drawVLine(x0-py, y0-px, 2*px+delta, color);
 1033              		.loc 1 560 0 is_stmt 1
 1034 00fa 5B46     		mov	r3, fp
 1035 00fc 9B07     		lsls	r3, r3, #30
 1036 00fe 12D5     		bpl	.L41
 1037              		.loc 1 560 0 is_stmt 0 discriminator 1
 1038 0100 FFB2     		uxtb	r7, r7
 1039              	.LVL138:
 1040 0102 6B46     		mov	r3, sp
 1041 0104 1B7B     		ldrb	r3, [r3, #12]
 1042 0106 7A00     		lsls	r2, r7, #1
 1043 0108 0499     		ldr	r1, [sp, #16]
 1044 010a 8C46     		mov	ip, r1
 1045 010c 6244     		add	r2, r2, ip
 1046 010e D2B2     		uxtb	r2, r2
 1047 0110 0299     		ldr	r1, [sp, #8]
 1048 0112 CF1B     		subs	r7, r1, r7
 1049 0114 F9B2     		uxtb	r1, r7
 1050 0116 0198     		ldr	r0, [sp, #4]
 1051 0118 009F     		ldr	r7, [sp]
 1052 011a C01B     		subs	r0, r0, r7
 1053 011c C0B2     		uxtb	r0, r0
 1054 011e FFF7FEFF 		bl	drawVLine
 1055              	.LVL139:
 561:GFX_Library.c ****             py = y;
 1056              		.loc 1 561 0 is_stmt 1 discriminator 1
 1057 0122 0096     		str	r6, [sp]
 1058              	.LVL140:
 1059 0124 00E0     		b	.L38
 1060              	.LVL141:
 1061              	.L41:
 1062              		.loc 1 561 0 is_stmt 0
 1063 0126 0096     		str	r6, [sp]
 1064              	.LVL142:
 1065              	.L38:
 1066 0128 2700     		movs	r7, r4
 1067              	.LVL143:
 1068              	.L34:
 543:GFX_Library.c ****         if (f >= 0) {
 1069              		.loc 1 543 0 is_stmt 1
 1070 012a B742     		cmp	r7, r6
 1071 012c 89DB     		blt	.L40
 562:GFX_Library.c ****         }
 563:GFX_Library.c ****         px = x;
 564:GFX_Library.c ****     }
 565:GFX_Library.c **** }
 1072              		.loc 1 565 0
 1073 012e 07B0     		add	sp, sp, #28
 1074              	.LVL144:
ARM GAS  C:\Users\PC\AppData\Local\Temp\ccKVdNiW.s 			page 30


 1075              		@ sp needed
 1076              	.LVL145:
 1077              	.LVL146:
 1078              	.LVL147:
 1079              	.LVL148:
 1080              	.LVL149:
 1081 0130 3CBC     		pop	{r2, r3, r4, r5}
 1082 0132 9046     		mov	r8, r2
 1083 0134 9946     		mov	r9, r3
 1084 0136 A246     		mov	r10, r4
 1085 0138 AB46     		mov	fp, r5
 1086 013a F0BD     		pop	{r4, r5, r6, r7, pc}
 1087              		.cfi_endproc
 1088              	.LFE38:
 1089              		.size	display_fillCircleHelper, .-display_fillCircleHelper
 1090              		.section	.text.display_fillCircle,"ax",%progbits
 1091              		.align	2
 1092              		.global	display_fillCircle
 1093              		.code	16
 1094              		.thumb_func
 1095              		.type	display_fillCircle, %function
 1096              	display_fillCircle:
 1097              	.LFB37:
 515:GFX_Library.c ****     display_drawVLine(x0, y0-r, 2*r+1, color);
 1098              		.loc 1 515 0
 1099              		.cfi_startproc
 1100              		@ args = 0, pretend = 0, frame = 0
 1101              		@ frame_needed = 0, uses_anonymous_args = 0
 1102              	.LVL150:
 1103 0000 F0B5     		push	{r4, r5, r6, r7, lr}
 1104              		.cfi_def_cfa_offset 20
 1105              		.cfi_offset 4, -20
 1106              		.cfi_offset 5, -16
 1107              		.cfi_offset 6, -12
 1108              		.cfi_offset 7, -8
 1109              		.cfi_offset 14, -4
 1110 0002 83B0     		sub	sp, sp, #12
 1111              		.cfi_def_cfa_offset 32
 1112 0004 0400     		movs	r4, r0
 1113 0006 0D00     		movs	r5, r1
 1114 0008 1600     		movs	r6, r2
 1115 000a 1F00     		movs	r7, r3
 516:GFX_Library.c ****     display_fillCircleHelper(x0, y0, r, 3, 0, color);
 1116              		.loc 1 516 0
 1117 000c D1B2     		uxtb	r1, r2
 1118              	.LVL151:
 1119 000e DBB2     		uxtb	r3, r3
 1120              	.LVL152:
 1121 0010 4A00     		lsls	r2, r1, #1
 1122              	.LVL153:
 1123 0012 0132     		adds	r2, r2, #1
 1124 0014 D2B2     		uxtb	r2, r2
 1125 0016 691A     		subs	r1, r5, r1
 1126 0018 C9B2     		uxtb	r1, r1
 1127 001a C0B2     		uxtb	r0, r0
 1128              	.LVL154:
 1129 001c FFF7FEFF 		bl	drawVLine
ARM GAS  C:\Users\PC\AppData\Local\Temp\ccKVdNiW.s 			page 31


 1130              	.LVL155:
 517:GFX_Library.c **** }
 1131              		.loc 1 517 0
 1132 0020 0197     		str	r7, [sp, #4]
 1133 0022 0023     		movs	r3, #0
 1134 0024 0093     		str	r3, [sp]
 1135 0026 0333     		adds	r3, r3, #3
 1136 0028 3200     		movs	r2, r6
 1137 002a 2900     		movs	r1, r5
 1138 002c 2000     		movs	r0, r4
 1139 002e FFF7FEFF 		bl	display_fillCircleHelper
 1140              	.LVL156:
 518:GFX_Library.c **** 
 1141              		.loc 1 518 0
 1142 0032 03B0     		add	sp, sp, #12
 1143              		@ sp needed
 1144 0034 F0BD     		pop	{r4, r5, r6, r7, pc}
 1145              		.cfi_endproc
 1146              	.LFE37:
 1147              		.size	display_fillCircle, .-display_fillCircle
 1148 0036 C046     		.section	.text.display_drawRect,"ax",%progbits
 1149              		.align	2
 1150              		.global	display_drawRect
 1151              		.code	16
 1152              		.thumb_func
 1153              		.type	display_drawRect, %function
 1154              	display_drawRect:
 1155              	.LFB39:
 566:GFX_Library.c **** 
 567:GFX_Library.c **** /**************************************************************************/
 568:GFX_Library.c **** /*!
 569:GFX_Library.c ****    @brief   Draw a rectangle with no fill color
 570:GFX_Library.c ****     @param    x   Top left corner x coordinate
 571:GFX_Library.c ****     @param    y   Top left corner y coordinate
 572:GFX_Library.c ****     @param    w   Width in pixels
 573:GFX_Library.c ****     @param    h   Height in pixels
 574:GFX_Library.c ****     @param    color 16-bit 5-6-5 Color to draw with
 575:GFX_Library.c **** */
 576:GFX_Library.c **** /**************************************************************************/
 577:GFX_Library.c **** void display_drawRect(uint16_t x, uint16_t y, uint16_t w, uint16_t h, uint16_t color) {
 1156              		.loc 1 577 0
 1157              		.cfi_startproc
 1158              		@ args = 4, pretend = 0, frame = 8
 1159              		@ frame_needed = 0, uses_anonymous_args = 0
 1160              	.LVL157:
 1161 0000 F0B5     		push	{r4, r5, r6, r7, lr}
 1162              		.cfi_def_cfa_offset 20
 1163              		.cfi_offset 4, -20
 1164              		.cfi_offset 5, -16
 1165              		.cfi_offset 6, -12
 1166              		.cfi_offset 7, -8
 1167              		.cfi_offset 14, -4
 1168 0002 83B0     		sub	sp, sp, #12
 1169              		.cfi_def_cfa_offset 32
 1170 0004 1E00     		movs	r6, r3
 578:GFX_Library.c ****     display_drawHLine(x, y, w, color);
 1171              		.loc 1 578 0
ARM GAS  C:\Users\PC\AppData\Local\Temp\ccKVdNiW.s 			page 32


 1172 0006 C5B2     		uxtb	r5, r0
 1173 0008 CCB2     		uxtb	r4, r1
 1174 000a D7B2     		uxtb	r7, r2
 1175 000c 08AB     		add	r3, sp, #32
 1176              	.LVL158:
 1177 000e 1B78     		ldrb	r3, [r3]
 1178              	.LVL159:
 1179 0010 0193     		str	r3, [sp, #4]
 1180 0012 3A00     		movs	r2, r7
 1181              	.LVL160:
 1182 0014 2100     		movs	r1, r4
 1183              	.LVL161:
 1184 0016 2800     		movs	r0, r5
 1185              	.LVL162:
 1186 0018 FFF7FEFF 		bl	drawHLine
 1187              	.LVL163:
 579:GFX_Library.c ****     display_drawHLine(x, y+h-1, w, color);
 1188              		.loc 1 579 0
 1189 001c F6B2     		uxtb	r6, r6
 1190 001e A119     		adds	r1, r4, r6
 1191 0020 0139     		subs	r1, r1, #1
 1192 0022 C9B2     		uxtb	r1, r1
 1193 0024 019B     		ldr	r3, [sp, #4]
 1194 0026 3A00     		movs	r2, r7
 1195 0028 2800     		movs	r0, r5
 1196 002a FFF7FEFF 		bl	drawHLine
 1197              	.LVL164:
 580:GFX_Library.c ****     display_drawVLine(x, y, h, color);
 1198              		.loc 1 580 0
 1199 002e 019B     		ldr	r3, [sp, #4]
 1200 0030 3200     		movs	r2, r6
 1201 0032 2100     		movs	r1, r4
 1202 0034 2800     		movs	r0, r5
 1203 0036 FFF7FEFF 		bl	drawVLine
 1204              	.LVL165:
 581:GFX_Library.c ****     display_drawVLine(x+w-1, y, h, color);
 1205              		.loc 1 581 0
 1206 003a ED19     		adds	r5, r5, r7
 1207 003c 013D     		subs	r5, r5, #1
 1208 003e E8B2     		uxtb	r0, r5
 1209 0040 019B     		ldr	r3, [sp, #4]
 1210 0042 3200     		movs	r2, r6
 1211 0044 2100     		movs	r1, r4
 1212 0046 FFF7FEFF 		bl	drawVLine
 1213              	.LVL166:
 582:GFX_Library.c **** }
 1214              		.loc 1 582 0
 1215 004a 03B0     		add	sp, sp, #12
 1216              		@ sp needed
 1217 004c F0BD     		pop	{r4, r5, r6, r7, pc}
 1218              		.cfi_endproc
 1219              	.LFE39:
 1220              		.size	display_drawRect, .-display_drawRect
 1221 004e C046     		.section	.text.display_drawRoundRect,"ax",%progbits
 1222              		.align	2
 1223              		.global	display_drawRoundRect
 1224              		.code	16
ARM GAS  C:\Users\PC\AppData\Local\Temp\ccKVdNiW.s 			page 33


 1225              		.thumb_func
 1226              		.type	display_drawRoundRect, %function
 1227              	display_drawRoundRect:
 1228              	.LFB40:
 583:GFX_Library.c **** 
 584:GFX_Library.c **** /**************************************************************************/
 585:GFX_Library.c **** /*!
 586:GFX_Library.c ****    @brief   Draw a rounded rectangle with no fill color
 587:GFX_Library.c ****     @param    x   Top left corner x coordinate
 588:GFX_Library.c ****     @param    y   Top left corner y coordinate
 589:GFX_Library.c ****     @param    w   Width in pixels
 590:GFX_Library.c ****     @param    h   Height in pixels
 591:GFX_Library.c ****     @param    r   Radius of corner rounding
 592:GFX_Library.c ****     @param    color 16-bit 5-6-5 Color to draw with
 593:GFX_Library.c **** */
 594:GFX_Library.c **** /**************************************************************************/
 595:GFX_Library.c **** void display_drawRoundRect(uint16_t x, uint16_t y, uint16_t w, uint16_t h, uint16_t r, uint16_t col
 1229              		.loc 1 595 0
 1230              		.cfi_startproc
 1231              		@ args = 8, pretend = 0, frame = 32
 1232              		@ frame_needed = 0, uses_anonymous_args = 0
 1233              	.LVL167:
 1234 0000 F0B5     		push	{r4, r5, r6, r7, lr}
 1235              		.cfi_def_cfa_offset 20
 1236              		.cfi_offset 4, -20
 1237              		.cfi_offset 5, -16
 1238              		.cfi_offset 6, -12
 1239              		.cfi_offset 7, -8
 1240              		.cfi_offset 14, -4
 1241 0002 5F46     		mov	r7, fp
 1242 0004 5646     		mov	r6, r10
 1243 0006 4D46     		mov	r5, r9
 1244 0008 4446     		mov	r4, r8
 1245 000a F0B4     		push	{r4, r5, r6, r7}
 1246              		.cfi_def_cfa_offset 36
 1247              		.cfi_offset 8, -36
 1248              		.cfi_offset 9, -32
 1249              		.cfi_offset 10, -28
 1250              		.cfi_offset 11, -24
 1251 000c 8BB0     		sub	sp, sp, #44
 1252              		.cfi_def_cfa_offset 80
 1253 000e 0590     		str	r0, [sp, #20]
 1254 0010 0491     		str	r1, [sp, #16]
 1255 0012 0692     		str	r2, [sp, #24]
 1256 0014 1900     		movs	r1, r3
 1257              	.LVL168:
 1258 0016 0793     		str	r3, [sp, #28]
 1259 0018 14AB     		add	r3, sp, #80
 1260              	.LVL169:
 1261 001a 1E88     		ldrh	r6, [r3]
 1262 001c 15AB     		add	r3, sp, #84
 1263              	.LVL170:
 1264 001e 1B88     		ldrh	r3, [r3]
 1265              	.LVL171:
 1266 0020 9846     		mov	r8, r3
 596:GFX_Library.c ****     int16_t max_radius = ((w < h) ? w : h) / 2; // 1/2 minor axis
 1267              		.loc 1 596 0
ARM GAS  C:\Users\PC\AppData\Local\Temp\ccKVdNiW.s 			page 34


 1268 0022 0B1C     		adds	r3, r1, #0
 1269 0024 9142     		cmp	r1, r2
 1270 0026 00D9     		bls	.L45
 1271 0028 131C     		adds	r3, r2, #0
 1272              	.L45:
 1273 002a 9BB2     		uxth	r3, r3
 1274 002c 5B10     		asrs	r3, r3, #1
 1275 002e 1AB2     		sxth	r2, r3
 1276              	.LVL172:
 597:GFX_Library.c ****     if(r > max_radius) r = max_radius;
 1277              		.loc 1 597 0
 1278 0030 9642     		cmp	r6, r2
 1279 0032 00DD     		ble	.L46
 1280              		.loc 1 597 0 is_stmt 0 discriminator 1
 1281 0034 9EB2     		uxth	r6, r3
 1282              	.LVL173:
 1283              	.L46:
 598:GFX_Library.c ****     // smarter version
 599:GFX_Library.c ****     display_drawHLine(x+r  , y    , w-2*r, color); // Top
 1284              		.loc 1 599 0 is_stmt 1
 1285 0036 6B46     		mov	r3, sp
 1286 0038 1D7D     		ldrb	r5, [r3, #20]
 1287 003a F2B2     		uxtb	r2, r6
 1288              	.LVL174:
 1289 003c 9346     		mov	fp, r2
 1290 003e AB18     		adds	r3, r5, r2
 1291 0040 DBB2     		uxtb	r3, r3
 1292 0042 1800     		movs	r0, r3
 1293              	.LVL175:
 1294 0044 6B46     		mov	r3, sp
 1295 0046 1F7C     		ldrb	r7, [r3, #16]
 1296 0048 1A7E     		ldrb	r2, [r3, #24]
 1297 004a 9146     		mov	r9, r2
 1298 004c 5A46     		mov	r2, fp
 1299 004e 5400     		lsls	r4, r2, #1
 1300 0050 E2B2     		uxtb	r2, r4
 1301 0052 9246     		mov	r10, r2
 1302 0054 4A46     		mov	r2, r9
 1303 0056 5146     		mov	r1, r10
 1304 0058 531A     		subs	r3, r2, r1
 1305 005a DBB2     		uxtb	r3, r3
 1306 005c 1A00     		movs	r2, r3
 1307 005e 4146     		mov	r1, r8
 1308 0060 CBB2     		uxtb	r3, r1
 1309 0062 0393     		str	r3, [sp, #12]
 1310 0064 0992     		str	r2, [sp, #36]
 1311 0066 3900     		movs	r1, r7
 1312 0068 0890     		str	r0, [sp, #32]
 1313 006a FFF7FEFF 		bl	drawHLine
 1314              	.LVL176:
 600:GFX_Library.c ****     display_drawHLine(x+r  , y+h-1, w-2*r, color); // Bottom
 1315              		.loc 1 600 0
 1316 006e 6B46     		mov	r3, sp
 1317 0070 1C7F     		ldrb	r4, [r3, #28]
 1318 0072 3919     		adds	r1, r7, r4
 1319 0074 0139     		subs	r1, r1, #1
 1320 0076 C9B2     		uxtb	r1, r1
ARM GAS  C:\Users\PC\AppData\Local\Temp\ccKVdNiW.s 			page 35


 1321 0078 039B     		ldr	r3, [sp, #12]
 1322 007a 099A     		ldr	r2, [sp, #36]
 1323 007c 0898     		ldr	r0, [sp, #32]
 1324 007e FFF7FEFF 		bl	drawHLine
 1325              	.LVL177:
 601:GFX_Library.c ****     display_drawVLine(x    , y+r  , h-2*r, color); // Left
 1326              		.loc 1 601 0
 1327 0082 5F44     		add	r7, r7, fp
 1328 0084 FFB2     		uxtb	r7, r7
 1329 0086 5146     		mov	r1, r10
 1330 0088 641A     		subs	r4, r4, r1
 1331 008a E4B2     		uxtb	r4, r4
 1332 008c 039B     		ldr	r3, [sp, #12]
 1333 008e 2200     		movs	r2, r4
 1334 0090 3900     		movs	r1, r7
 1335 0092 2800     		movs	r0, r5
 1336 0094 FFF7FEFF 		bl	drawVLine
 1337              	.LVL178:
 602:GFX_Library.c ****     display_drawVLine(x+w-1, y+r  , h-2*r, color); // Right
 1338              		.loc 1 602 0
 1339 0098 2800     		movs	r0, r5
 1340 009a 4844     		add	r0, r0, r9
 1341 009c 0138     		subs	r0, r0, #1
 1342 009e C0B2     		uxtb	r0, r0
 1343 00a0 039B     		ldr	r3, [sp, #12]
 1344 00a2 2200     		movs	r2, r4
 1345 00a4 3900     		movs	r1, r7
 1346 00a6 FFF7FEFF 		bl	drawVLine
 1347              	.LVL179:
 603:GFX_Library.c ****     // draw four corners
 604:GFX_Library.c ****     display_drawCircleHelper(x+r    , y+r    , r, 1, color);
 1348              		.loc 1 604 0
 1349 00aa 059D     		ldr	r5, [sp, #20]
 1350 00ac 7719     		adds	r7, r6, r5
 1351 00ae BFB2     		uxth	r7, r7
 1352 00b0 049B     		ldr	r3, [sp, #16]
 1353 00b2 F418     		adds	r4, r6, r3
 1354 00b4 A4B2     		uxth	r4, r4
 1355 00b6 4146     		mov	r1, r8
 1356 00b8 0091     		str	r1, [sp]
 1357 00ba 0123     		movs	r3, #1
 1358 00bc 3200     		movs	r2, r6
 1359 00be 2100     		movs	r1, r4
 1360 00c0 3800     		movs	r0, r7
 1361 00c2 FFF7FEFF 		bl	display_drawCircleHelper
 1362              	.LVL180:
 605:GFX_Library.c ****     display_drawCircleHelper(x+w-r-1, y+r    , r, 2, color);
 1363              		.loc 1 605 0
 1364 00c6 0699     		ldr	r1, [sp, #24]
 1365 00c8 AC46     		mov	ip, r5
 1366 00ca 6144     		add	r1, r1, ip
 1367 00cc 8D1B     		subs	r5, r1, r6
 1368 00ce 013D     		subs	r5, r5, #1
 1369 00d0 ADB2     		uxth	r5, r5
 1370 00d2 4146     		mov	r1, r8
 1371 00d4 0091     		str	r1, [sp]
 1372 00d6 0223     		movs	r3, #2
ARM GAS  C:\Users\PC\AppData\Local\Temp\ccKVdNiW.s 			page 36


 1373 00d8 3200     		movs	r2, r6
 1374 00da 2100     		movs	r1, r4
 1375 00dc 2800     		movs	r0, r5
 1376 00de FFF7FEFF 		bl	display_drawCircleHelper
 1377              	.LVL181:
 606:GFX_Library.c ****     display_drawCircleHelper(x+w-r-1, y+h-r-1, r, 4, color);
 1378              		.loc 1 606 0
 1379 00e2 079A     		ldr	r2, [sp, #28]
 1380 00e4 049B     		ldr	r3, [sp, #16]
 1381 00e6 9C46     		mov	ip, r3
 1382 00e8 6244     		add	r2, r2, ip
 1383 00ea 941B     		subs	r4, r2, r6
 1384 00ec 013C     		subs	r4, r4, #1
 1385 00ee A4B2     		uxth	r4, r4
 1386 00f0 4346     		mov	r3, r8
 1387 00f2 0093     		str	r3, [sp]
 1388 00f4 0423     		movs	r3, #4
 1389 00f6 3200     		movs	r2, r6
 1390 00f8 2100     		movs	r1, r4
 1391 00fa 2800     		movs	r0, r5
 1392 00fc FFF7FEFF 		bl	display_drawCircleHelper
 1393              	.LVL182:
 607:GFX_Library.c ****     display_drawCircleHelper(x+r    , y+h-r-1, r, 8, color);
 1394              		.loc 1 607 0
 1395 0100 4346     		mov	r3, r8
 1396 0102 0093     		str	r3, [sp]
 1397 0104 0823     		movs	r3, #8
 1398 0106 3200     		movs	r2, r6
 1399 0108 2100     		movs	r1, r4
 1400 010a 3800     		movs	r0, r7
 1401 010c FFF7FEFF 		bl	display_drawCircleHelper
 1402              	.LVL183:
 608:GFX_Library.c **** }
 1403              		.loc 1 608 0
 1404 0110 0BB0     		add	sp, sp, #44
 1405              		@ sp needed
 1406              	.LVL184:
 1407 0112 3CBC     		pop	{r2, r3, r4, r5}
 1408 0114 9046     		mov	r8, r2
 1409 0116 9946     		mov	r9, r3
 1410 0118 A246     		mov	r10, r4
 1411 011a AB46     		mov	fp, r5
 1412 011c F0BD     		pop	{r4, r5, r6, r7, pc}
 1413              		.cfi_endproc
 1414              	.LFE40:
 1415              		.size	display_drawRoundRect, .-display_drawRoundRect
 1416 011e C046     		.section	.text.display_fillRoundRect,"ax",%progbits
 1417              		.align	2
 1418              		.global	display_fillRoundRect
 1419              		.code	16
 1420              		.thumb_func
 1421              		.type	display_fillRoundRect, %function
 1422              	display_fillRoundRect:
 1423              	.LFB41:
 609:GFX_Library.c **** 
 610:GFX_Library.c **** /**************************************************************************/
 611:GFX_Library.c **** /*!
ARM GAS  C:\Users\PC\AppData\Local\Temp\ccKVdNiW.s 			page 37


 612:GFX_Library.c ****    @brief   Draw a rounded rectangle with fill color
 613:GFX_Library.c ****     @param    x   Top left corner x coordinate
 614:GFX_Library.c ****     @param    y   Top left corner y coordinate
 615:GFX_Library.c ****     @param    w   Width in pixels
 616:GFX_Library.c ****     @param    h   Height in pixels
 617:GFX_Library.c ****     @param    r   Radius of corner rounding
 618:GFX_Library.c ****     @param    color 16-bit 5-6-5 Color to draw/fill with
 619:GFX_Library.c **** */
 620:GFX_Library.c **** /**************************************************************************/
 621:GFX_Library.c **** void display_fillRoundRect(uint16_t x, uint16_t y, uint16_t w,
 622:GFX_Library.c ****   uint16_t h, uint16_t r, uint16_t color) {
 1424              		.loc 1 622 0
 1425              		.cfi_startproc
 1426              		@ args = 8, pretend = 0, frame = 8
 1427              		@ frame_needed = 0, uses_anonymous_args = 0
 1428              	.LVL185:
 1429 0000 F0B5     		push	{r4, r5, r6, r7, lr}
 1430              		.cfi_def_cfa_offset 20
 1431              		.cfi_offset 4, -20
 1432              		.cfi_offset 5, -16
 1433              		.cfi_offset 6, -12
 1434              		.cfi_offset 7, -8
 1435              		.cfi_offset 14, -4
 1436 0002 5746     		mov	r7, r10
 1437 0004 4646     		mov	r6, r8
 1438 0006 C0B4     		push	{r6, r7}
 1439              		.cfi_def_cfa_offset 28
 1440              		.cfi_offset 8, -28
 1441              		.cfi_offset 10, -24
 1442 0008 85B0     		sub	sp, sp, #20
 1443              		.cfi_def_cfa_offset 48
 1444 000a 8046     		mov	r8, r0
 1445 000c 0E00     		movs	r6, r1
 1446 000e 1500     		movs	r5, r2
 1447 0010 1C00     		movs	r4, r3
 1448 0012 0CAB     		add	r3, sp, #48
 1449              	.LVL186:
 1450 0014 1F88     		ldrh	r7, [r3]
 1451 0016 0DAB     		add	r3, sp, #52
 1452              	.LVL187:
 1453 0018 1B88     		ldrh	r3, [r3]
 1454              	.LVL188:
 1455 001a 9A46     		mov	r10, r3
 623:GFX_Library.c ****     int16_t max_radius = ((w < h) ? w : h) / 2; // 1/2 minor axis
 1456              		.loc 1 623 0
 1457 001c 231C     		adds	r3, r4, #0
 1458 001e 9442     		cmp	r4, r2
 1459 0020 00D9     		bls	.L48
 1460 0022 131C     		adds	r3, r2, #0
 1461              	.L48:
 1462 0024 9BB2     		uxth	r3, r3
 1463 0026 5B10     		asrs	r3, r3, #1
 1464 0028 1AB2     		sxth	r2, r3
 1465              	.LVL189:
 624:GFX_Library.c ****     if(r > max_radius) r = max_radius;
 1466              		.loc 1 624 0
 1467 002a 9742     		cmp	r7, r2
ARM GAS  C:\Users\PC\AppData\Local\Temp\ccKVdNiW.s 			page 38


 1468 002c 00DD     		ble	.L49
 1469              		.loc 1 624 0 is_stmt 0 discriminator 1
 1470 002e 9FB2     		uxth	r7, r3
 1471              	.LVL190:
 1472              	.L49:
 625:GFX_Library.c ****     // smarter version
 626:GFX_Library.c ****     display_FillRect(x+r, y, w-2*r, h, color);
 1473              		.loc 1 626 0 is_stmt 1
 1474 0030 7A00     		lsls	r2, r7, #1
 1475              	.LVL191:
 1476 0032 AA1A     		subs	r2, r5, r2
 1477 0034 3B00     		movs	r3, r7
 1478              	.LVL192:
 1479 0036 4344     		add	r3, r3, r8
 1480 0038 1800     		movs	r0, r3
 1481              	.LVL193:
 1482 003a 5346     		mov	r3, r10
 1483 003c 0093     		str	r3, [sp]
 1484 003e 2300     		movs	r3, r4
 1485 0040 3100     		movs	r1, r6
 1486              	.LVL194:
 1487 0042 0390     		str	r0, [sp, #12]
 1488 0044 FFF7FEFF 		bl	display_FillRect
 1489              	.LVL195:
 627:GFX_Library.c ****     // draw four corners
 628:GFX_Library.c ****     display_fillCircleHelper(x+w-r-1, y+r, r, 1, h-2*r-1, color);
 1490              		.loc 1 628 0
 1491 0048 BE19     		adds	r6, r7, r6
 1492 004a B6B2     		uxth	r6, r6
 1493 004c 7B00     		lsls	r3, r7, #1
 1494 004e E41A     		subs	r4, r4, r3
 1495 0050 013C     		subs	r4, r4, #1
 1496 0052 A4B2     		uxth	r4, r4
 1497 0054 4544     		add	r5, r5, r8
 1498 0056 E81B     		subs	r0, r5, r7
 1499 0058 0138     		subs	r0, r0, #1
 1500 005a 80B2     		uxth	r0, r0
 1501 005c 5246     		mov	r2, r10
 1502 005e 0192     		str	r2, [sp, #4]
 1503 0060 0094     		str	r4, [sp]
 1504 0062 0123     		movs	r3, #1
 1505 0064 3A00     		movs	r2, r7
 1506 0066 3100     		movs	r1, r6
 1507 0068 FFF7FEFF 		bl	display_fillCircleHelper
 1508              	.LVL196:
 629:GFX_Library.c ****     //display_fillCircleHelper(94, 18, 8, 1, 43, color);
 630:GFX_Library.c ****     display_fillCircleHelper(x+r    , y+r, r, 2, h-2*r-1, color);
 1509              		.loc 1 630 0
 1510 006c 6B46     		mov	r3, sp
 1511 006e 9889     		ldrh	r0, [r3, #12]
 1512 0070 5346     		mov	r3, r10
 1513 0072 0193     		str	r3, [sp, #4]
 1514 0074 0094     		str	r4, [sp]
 1515 0076 0223     		movs	r3, #2
 1516 0078 3A00     		movs	r2, r7
 1517 007a 3100     		movs	r1, r6
 1518 007c FFF7FEFF 		bl	display_fillCircleHelper
ARM GAS  C:\Users\PC\AppData\Local\Temp\ccKVdNiW.s 			page 39


 1519              	.LVL197:
 631:GFX_Library.c **** }
 1520              		.loc 1 631 0
 1521 0080 05B0     		add	sp, sp, #20
 1522              		@ sp needed
 1523              	.LVL198:
 1524 0082 0CBC     		pop	{r2, r3}
 1525 0084 9046     		mov	r8, r2
 1526 0086 9A46     		mov	r10, r3
 1527 0088 F0BD     		pop	{r4, r5, r6, r7, pc}
 1528              		.cfi_endproc
 1529              	.LFE41:
 1530              		.size	display_fillRoundRect, .-display_fillRoundRect
 1531 008a C046     		.section	.text.display_drawTriangle,"ax",%progbits
 1532              		.align	2
 1533              		.global	display_drawTriangle
 1534              		.code	16
 1535              		.thumb_func
 1536              		.type	display_drawTriangle, %function
 1537              	display_drawTriangle:
 1538              	.LFB42:
 632:GFX_Library.c **** 
 633:GFX_Library.c **** /**************************************************************************/
 634:GFX_Library.c **** /*!
 635:GFX_Library.c ****    @brief   Draw a triangle with no fill color
 636:GFX_Library.c ****     @param    x0  Vertex #0 x coordinate
 637:GFX_Library.c ****     @param    y0  Vertex #0 y coordinate
 638:GFX_Library.c ****     @param    x1  Vertex #1 x coordinate
 639:GFX_Library.c ****     @param    y1  Vertex #1 y coordinate
 640:GFX_Library.c ****     @param    x2  Vertex #2 x coordinate
 641:GFX_Library.c ****     @param    y2  Vertex #2 y coordinate
 642:GFX_Library.c ****     @param    color 16-bit 5-6-5 Color to draw with
 643:GFX_Library.c **** */
 644:GFX_Library.c **** /**************************************************************************/
 645:GFX_Library.c **** void display_drawTriangle(uint16_t x0, uint16_t y0, uint16_t x1, uint16_t y1,
 646:GFX_Library.c ****   uint16_t x2, uint16_t y2, uint16_t color) {
 1539              		.loc 1 646 0
 1540              		.cfi_startproc
 1541              		@ args = 12, pretend = 0, frame = 16
 1542              		@ frame_needed = 0, uses_anonymous_args = 0
 1543              	.LVL199:
 1544 0000 F0B5     		push	{r4, r5, r6, r7, lr}
 1545              		.cfi_def_cfa_offset 20
 1546              		.cfi_offset 4, -20
 1547              		.cfi_offset 5, -16
 1548              		.cfi_offset 6, -12
 1549              		.cfi_offset 7, -8
 1550              		.cfi_offset 14, -4
 1551 0002 87B0     		sub	sp, sp, #28
 1552              		.cfi_def_cfa_offset 48
 1553 0004 0390     		str	r0, [sp, #12]
 1554 0006 0491     		str	r1, [sp, #16]
 1555 0008 0592     		str	r2, [sp, #20]
 1556 000a 1F00     		movs	r7, r3
 1557 000c 0CAB     		add	r3, sp, #48
 1558              	.LVL200:
 1559 000e 1C88     		ldrh	r4, [r3]
ARM GAS  C:\Users\PC\AppData\Local\Temp\ccKVdNiW.s 			page 40


 1560 0010 0DAB     		add	r3, sp, #52
 1561              	.LVL201:
 1562 0012 1D88     		ldrh	r5, [r3]
 1563 0014 0EAB     		add	r3, sp, #56
 1564              	.LVL202:
 1565 0016 1E88     		ldrh	r6, [r3]
 647:GFX_Library.c ****     display_drawLine(x0, y0, x1, y1, color);
 1566              		.loc 1 647 0
 1567 0018 0096     		str	r6, [sp]
 1568 001a 3B00     		movs	r3, r7
 1569              	.LVL203:
 1570 001c FFF7FEFF 		bl	display_drawLine
 1571              	.LVL204:
 648:GFX_Library.c ****     display_drawLine(x1, y1, x2, y2, color);
 1572              		.loc 1 648 0
 1573 0020 0096     		str	r6, [sp]
 1574 0022 2B00     		movs	r3, r5
 1575 0024 2200     		movs	r2, r4
 1576 0026 3900     		movs	r1, r7
 1577 0028 0598     		ldr	r0, [sp, #20]
 1578 002a FFF7FEFF 		bl	display_drawLine
 1579              	.LVL205:
 649:GFX_Library.c ****     display_drawLine(x2, y2, x0, y0, color);
 1580              		.loc 1 649 0
 1581 002e 0096     		str	r6, [sp]
 1582 0030 049B     		ldr	r3, [sp, #16]
 1583 0032 039A     		ldr	r2, [sp, #12]
 1584 0034 2900     		movs	r1, r5
 1585 0036 2000     		movs	r0, r4
 1586 0038 FFF7FEFF 		bl	display_drawLine
 1587              	.LVL206:
 650:GFX_Library.c **** }
 1588              		.loc 1 650 0
 1589 003c 07B0     		add	sp, sp, #28
 1590              		@ sp needed
 1591 003e F0BD     		pop	{r4, r5, r6, r7, pc}
 1592              		.cfi_endproc
 1593              	.LFE42:
 1594              		.size	display_drawTriangle, .-display_drawTriangle
 1595              		.global	__aeabi_idiv
 1596              		.section	.text.display_fillTriangle,"ax",%progbits
 1597              		.align	2
 1598              		.global	display_fillTriangle
 1599              		.code	16
 1600              		.thumb_func
 1601              		.type	display_fillTriangle, %function
 1602              	display_fillTriangle:
 1603              	.LFB43:
 651:GFX_Library.c **** 
 652:GFX_Library.c **** /**************************************************************************/
 653:GFX_Library.c **** /*!
 654:GFX_Library.c ****    @brief     Draw a triangle with color-fill
 655:GFX_Library.c ****     @param    x0  Vertex #0 x coordinate
 656:GFX_Library.c ****     @param    y0  Vertex #0 y coordinate
 657:GFX_Library.c ****     @param    x1  Vertex #1 x coordinate
 658:GFX_Library.c ****     @param    y1  Vertex #1 y coordinate
 659:GFX_Library.c ****     @param    x2  Vertex #2 x coordinate
ARM GAS  C:\Users\PC\AppData\Local\Temp\ccKVdNiW.s 			page 41


 660:GFX_Library.c ****     @param    y2  Vertex #2 y coordinate
 661:GFX_Library.c ****     @param    color 16-bit 5-6-5 Color to fill/draw with
 662:GFX_Library.c **** */
 663:GFX_Library.c **** /**************************************************************************/
 664:GFX_Library.c **** void display_fillTriangle(uint16_t x0, uint16_t y0, uint16_t x1, uint16_t y1,
 665:GFX_Library.c ****   uint16_t x2, uint16_t y2, uint16_t color) {
 1604              		.loc 1 665 0
 1605              		.cfi_startproc
 1606              		@ args = 12, pretend = 0, frame = 40
 1607              		@ frame_needed = 0, uses_anonymous_args = 0
 1608              	.LVL207:
 1609 0000 F0B5     		push	{r4, r5, r6, r7, lr}
 1610              		.cfi_def_cfa_offset 20
 1611              		.cfi_offset 4, -20
 1612              		.cfi_offset 5, -16
 1613              		.cfi_offset 6, -12
 1614              		.cfi_offset 7, -8
 1615              		.cfi_offset 14, -4
 1616 0002 5F46     		mov	r7, fp
 1617 0004 5646     		mov	r6, r10
 1618 0006 4D46     		mov	r5, r9
 1619 0008 4446     		mov	r4, r8
 1620 000a F0B4     		push	{r4, r5, r6, r7}
 1621              		.cfi_def_cfa_offset 36
 1622              		.cfi_offset 8, -36
 1623              		.cfi_offset 9, -32
 1624              		.cfi_offset 10, -28
 1625              		.cfi_offset 11, -24
 1626 000c 8BB0     		sub	sp, sp, #44
 1627              		.cfi_def_cfa_offset 80
 1628 000e 0600     		movs	r6, r0
 1629 0010 0800     		movs	r0, r1
 1630              	.LVL208:
 1631 0012 0891     		str	r1, [sp, #32]
 1632 0014 0392     		str	r2, [sp, #12]
 1633 0016 1C00     		movs	r4, r3
 1634 0018 0793     		str	r3, [sp, #28]
 1635 001a 14AB     		add	r3, sp, #80
 1636              	.LVL209:
 1637 001c 1F88     		ldrh	r7, [r3]
 1638 001e 15AB     		add	r3, sp, #84
 1639              	.LVL210:
 1640 0020 1D88     		ldrh	r5, [r3]
 1641 0022 A946     		mov	r9, r5
 1642 0024 16AB     		add	r3, sp, #88
 1643              	.LVL211:
 1644 0026 1D88     		ldrh	r5, [r3]
 1645 0028 0195     		str	r5, [sp, #4]
 666:GFX_Library.c ****     int16_t a, b, y, last;
 667:GFX_Library.c **** 
 668:GFX_Library.c ****     // Sort coordinates by Y order (y2 >= y1 >= y0)
 669:GFX_Library.c ****     if (y0 > y1) {
 1646              		.loc 1 669 0
 1647 002a A142     		cmp	r1, r4
 1648 002c 04D9     		bls	.L52
 1649              	.LBB8:
 670:GFX_Library.c ****         _swap_int16_t(y0, y1); _swap_int16_t(x0, x1);
ARM GAS  C:\Users\PC\AppData\Local\Temp\ccKVdNiW.s 			page 42


 1650              		.loc 1 670 0
 1651 002e 0894     		str	r4, [sp, #32]
 1652 0030 0790     		str	r0, [sp, #28]
 1653              	.LBE8:
 1654 0032 3300     		movs	r3, r6
 1655              	.LVL212:
 1656              	.LBB9:
 1657 0034 1600     		movs	r6, r2
 1658 0036 0393     		str	r3, [sp, #12]
 1659              	.L52:
 1660              	.LVL213:
 1661              	.LBE9:
 671:GFX_Library.c ****     }
 672:GFX_Library.c ****     if (y1 > y2) {
 1662              		.loc 1 672 0
 1663 0038 079B     		ldr	r3, [sp, #28]
 1664 003a 4B45     		cmp	r3, r9
 1665 003c 05D9     		bls	.L53
 1666              	.LBB10:
 673:GFX_Library.c ****         _swap_int16_t(y2, y1); _swap_int16_t(x2, x1);
 1667              		.loc 1 673 0
 1668 003e 4A46     		mov	r2, r9
 1669 0040 0792     		str	r2, [sp, #28]
 1670              	.LVL214:
 1671 0042 9946     		mov	r9, r3
 1672              	.LBE10:
 1673 0044 039B     		ldr	r3, [sp, #12]
 1674              	.LBB11:
 1675 0046 0397     		str	r7, [sp, #12]
 1676              	.LVL215:
 1677 0048 1F00     		movs	r7, r3
 1678              	.L53:
 1679              	.LVL216:
 1680              	.LBE11:
 674:GFX_Library.c ****     }
 675:GFX_Library.c ****     if (y0 > y1) {
 1681              		.loc 1 675 0
 1682 004a 089B     		ldr	r3, [sp, #32]
 1683 004c 0798     		ldr	r0, [sp, #28]
 1684 004e 8342     		cmp	r3, r0
 1685 0050 04D9     		bls	.L54
 1686              	.LBB12:
 676:GFX_Library.c ****         _swap_int16_t(y0, y1); _swap_int16_t(x0, x1);
 1687              		.loc 1 676 0
 1688 0052 0890     		str	r0, [sp, #32]
 1689              	.LVL217:
 1690 0054 0793     		str	r3, [sp, #28]
 1691              	.LVL218:
 1692              	.LBE12:
 1693 0056 3300     		movs	r3, r6
 1694              	.LBB13:
 1695 0058 039E     		ldr	r6, [sp, #12]
 1696              	.LVL219:
 1697 005a 0393     		str	r3, [sp, #12]
 1698              	.LVL220:
 1699              	.L54:
 1700              	.LBE13:
ARM GAS  C:\Users\PC\AppData\Local\Temp\ccKVdNiW.s 			page 43


 677:GFX_Library.c ****     }
 678:GFX_Library.c **** 
 679:GFX_Library.c ****     if(y0 == y2) { // Handle awkward all-on-same-line case as its own thing
 1701              		.loc 1 679 0
 1702 005c 089B     		ldr	r3, [sp, #32]
 1703 005e 4B45     		cmp	r3, r9
 1704 0060 21D1     		bne	.L55
 680:GFX_Library.c ****         a = b = x0;
 1705              		.loc 1 680 0
 1706 0062 36B2     		sxth	r6, r6
 1707              	.LVL221:
 681:GFX_Library.c ****         if(x1 < a)      a = x1;
 1708              		.loc 1 681 0
 1709 0064 0398     		ldr	r0, [sp, #12]
 1710 0066 B042     		cmp	r0, r6
 1711 0068 01DA     		bge	.L56
 1712              		.loc 1 681 0 is_stmt 0 discriminator 1
 1713 006a 00B2     		sxth	r0, r0
 1714              	.LVL222:
 1715 006c 07E0     		b	.L57
 1716              	.LVL223:
 1717              	.L56:
 682:GFX_Library.c ****         else if(x1 > b) b = x1;
 1718              		.loc 1 682 0 is_stmt 1
 1719 006e B042     		cmp	r0, r6
 1720 0070 04DD     		ble	.L72
 1721              	.LVL224:
 680:GFX_Library.c ****         a = b = x0;
 1722              		.loc 1 680 0 discriminator 1
 1723 0072 3000     		movs	r0, r6
 1724              		.loc 1 682 0 discriminator 1
 1725 0074 6B46     		mov	r3, sp
 1726 0076 0C26     		movs	r6, #12
 1727 0078 9E5F     		ldrsh	r6, [r3, r6]
 1728              	.LVL225:
 1729 007a 00E0     		b	.L57
 1730              	.LVL226:
 1731              	.L72:
 680:GFX_Library.c ****         a = b = x0;
 1732              		.loc 1 680 0
 1733 007c 3000     		movs	r0, r6
 1734              	.LVL227:
 1735              	.L57:
 683:GFX_Library.c ****         if(x2 < a)      a = x2;
 1736              		.loc 1 683 0
 1737 007e 8742     		cmp	r7, r0
 1738 0080 01DA     		bge	.L58
 1739              		.loc 1 683 0 is_stmt 0 discriminator 1
 1740 0082 38B2     		sxth	r0, r7
 1741              	.LVL228:
 1742 0084 02E0     		b	.L59
 1743              	.L58:
 684:GFX_Library.c ****         else if(x2 > b) b = x2;
 1744              		.loc 1 684 0 is_stmt 1
 1745 0086 B742     		cmp	r7, r6
 1746 0088 00DD     		ble	.L59
 1747              		.loc 1 684 0 is_stmt 0 discriminator 1
ARM GAS  C:\Users\PC\AppData\Local\Temp\ccKVdNiW.s 			page 44


 1748 008a 3EB2     		sxth	r6, r7
 1749              	.LVL229:
 1750              	.L59:
 685:GFX_Library.c ****         display_drawHLine(a, y0, b-a+1, color);
 1751              		.loc 1 685 0 is_stmt 1
 1752 008c C0B2     		uxtb	r0, r0
 1753              	.LVL230:
 1754 008e 6B46     		mov	r3, sp
 1755 0090 1B79     		ldrb	r3, [r3, #4]
 1756 0092 361A     		subs	r6, r6, r0
 1757              	.LVL231:
 1758 0094 0136     		adds	r6, r6, #1
 1759 0096 F2B2     		uxtb	r2, r6
 1760 0098 6946     		mov	r1, sp
 1761 009a 2024     		movs	r4, #32
 1762 009c 0919     		adds	r1, r1, r4
 1763 009e 0978     		ldrb	r1, [r1]
 1764 00a0 FFF7FEFF 		bl	drawHLine
 1765              	.LVL232:
 686:GFX_Library.c ****         return;
 1766              		.loc 1 686 0
 1767 00a4 7FE0     		b	.L51
 1768              	.LVL233:
 1769              	.L55:
 687:GFX_Library.c ****     }
 688:GFX_Library.c **** 
 689:GFX_Library.c ****     int16_t
 690:GFX_Library.c ****     dx01 = x1 - x0,
 1770              		.loc 1 690 0
 1771 00a6 0399     		ldr	r1, [sp, #12]
 1772 00a8 8B1B     		subs	r3, r1, r6
 1773 00aa 1BB2     		sxth	r3, r3
 1774 00ac 0493     		str	r3, [sp, #16]
 1775              	.LVL234:
 691:GFX_Library.c ****     dy01 = y1 - y0,
 1776              		.loc 1 691 0
 1777 00ae 079A     		ldr	r2, [sp, #28]
 1778 00b0 0898     		ldr	r0, [sp, #32]
 1779 00b2 131A     		subs	r3, r2, r0
 1780 00b4 1BB2     		sxth	r3, r3
 1781 00b6 0593     		str	r3, [sp, #20]
 1782              	.LVL235:
 692:GFX_Library.c ****     dx02 = x2 - x0,
 1783              		.loc 1 692 0
 1784 00b8 BB1B     		subs	r3, r7, r6
 1785 00ba 1BB2     		sxth	r3, r3
 1786 00bc 9A46     		mov	r10, r3
 1787              	.LVL236:
 693:GFX_Library.c ****     dy02 = y2 - y0,
 1788              		.loc 1 693 0
 1789 00be 4B46     		mov	r3, r9
 1790 00c0 1B1A     		subs	r3, r3, r0
 1791 00c2 1BB2     		sxth	r3, r3
 1792 00c4 0293     		str	r3, [sp, #8]
 1793              	.LVL237:
 694:GFX_Library.c ****     dx12 = x2 - x1,
 1794              		.loc 1 694 0
ARM GAS  C:\Users\PC\AppData\Local\Temp\ccKVdNiW.s 			page 45


 1795 00c6 7F1A     		subs	r7, r7, r1
 1796              	.LVL238:
 1797 00c8 3BB2     		sxth	r3, r7
 1798 00ca 0993     		str	r3, [sp, #36]
 1799              	.LVL239:
 695:GFX_Library.c ****     dy12 = y2 - y1;
 1800              		.loc 1 695 0
 1801 00cc 4946     		mov	r1, r9
 1802 00ce 8B1A     		subs	r3, r1, r2
 1803 00d0 1BB2     		sxth	r3, r3
 1804 00d2 0693     		str	r3, [sp, #24]
 1805              	.LVL240:
 696:GFX_Library.c ****     int32_t
 697:GFX_Library.c ****     sa   = 0,
 698:GFX_Library.c ****     sb   = 0;
 699:GFX_Library.c **** 
 700:GFX_Library.c ****     // For upper part of triangle, find scanline crossings for segments
 701:GFX_Library.c ****     // 0-1 and 0-2.  If y1=y2 (flat-bottomed triangle), the scanline y1
 702:GFX_Library.c ****     // is included here (and second loop will be skipped, avoiding a /0
 703:GFX_Library.c ****     // error there), otherwise scanline y1 is skipped here and handled
 704:GFX_Library.c ****     // in the second loop...which also avoids a /0 error here if y0=y1
 705:GFX_Library.c ****     // (flat-topped triangle).
 706:GFX_Library.c ****     if(y1 == y2) last = y1;   // Include y1 scanline
 1806              		.loc 1 706 0
 1807 00d4 4A45     		cmp	r2, r9
 1808 00d6 04D1     		bne	.L61
 1809              		.loc 1 706 0 is_stmt 0 discriminator 1
 1810 00d8 6B46     		mov	r3, sp
 1811 00da 1C22     		movs	r2, #28
 1812 00dc 9B5E     		ldrsh	r3, [r3, r2]
 1813 00de 9B46     		mov	fp, r3
 1814              	.LVL241:
 1815 00e0 03E0     		b	.L62
 1816              	.LVL242:
 1817              	.L61:
 707:GFX_Library.c ****     else         last = y1-1; // Skip it
 1818              		.loc 1 707 0 is_stmt 1
 1819 00e2 079B     		ldr	r3, [sp, #28]
 1820 00e4 013B     		subs	r3, r3, #1
 1821 00e6 1BB2     		sxth	r3, r3
 1822 00e8 9B46     		mov	fp, r3
 1823              	.LVL243:
 1824              	.L62:
 708:GFX_Library.c **** 
 709:GFX_Library.c ****     for(y=y0; y<=last; y++) {
 1825              		.loc 1 709 0
 1826 00ea 6B46     		mov	r3, sp
 1827 00ec 2025     		movs	r5, #32
 1828 00ee 5D5F     		ldrsh	r5, [r3, r5]
 1829              	.LVL244:
 698:GFX_Library.c **** 
 1830              		.loc 1 698 0
 1831 00f0 0023     		movs	r3, #0
 1832 00f2 9846     		mov	r8, r3
 697:GFX_Library.c ****     sb   = 0;
 1833              		.loc 1 697 0
 1834 00f4 0027     		movs	r7, #0
ARM GAS  C:\Users\PC\AppData\Local\Temp\ccKVdNiW.s 			page 46


 1835 00f6 3300     		movs	r3, r6
 1836 00f8 4646     		mov	r6, r8
 1837              	.LVL245:
 1838 00fa 9846     		mov	r8, r3
 1839              		.loc 1 709 0
 1840 00fc 1FE0     		b	.L63
 1841              	.LVL246:
 1842              	.L65:
 710:GFX_Library.c ****         a   = x0 + sa / dy01;
 1843              		.loc 1 710 0
 1844 00fe 0599     		ldr	r1, [sp, #20]
 1845 0100 3800     		movs	r0, r7
 1846 0102 FFF7FEFF 		bl	__aeabi_idiv
 1847              	.LVL247:
 1848 0106 4044     		add	r0, r0, r8
 1849 0108 04B2     		sxth	r4, r0
 1850              	.LVL248:
 711:GFX_Library.c ****         b   = x0 + sb / dy02;
 1851              		.loc 1 711 0
 1852 010a 0299     		ldr	r1, [sp, #8]
 1853 010c 3000     		movs	r0, r6
 1854 010e FFF7FEFF 		bl	__aeabi_idiv
 1855              	.LVL249:
 1856 0112 4044     		add	r0, r0, r8
 1857 0114 00B2     		sxth	r0, r0
 1858              	.LVL250:
 712:GFX_Library.c ****         sa += dx01;
 1859              		.loc 1 712 0
 1860 0116 049B     		ldr	r3, [sp, #16]
 1861 0118 9C46     		mov	ip, r3
 1862 011a 6744     		add	r7, r7, ip
 1863              	.LVL251:
 713:GFX_Library.c ****         sb += dx02;
 1864              		.loc 1 713 0
 1865 011c 5644     		add	r6, r6, r10
 1866              	.LVL252:
 714:GFX_Library.c ****         /* longhand:
 715:GFX_Library.c ****         a = x0 + (x1 - x0) * (y - y0) / (y1 - y0);
 716:GFX_Library.c ****         b = x0 + (x2 - x0) * (y - y0) / (y2 - y0);
 717:GFX_Library.c ****         */
 718:GFX_Library.c ****         if(a > b) _swap_int16_t(a,b);
 1867              		.loc 1 718 0
 1868 011e 8442     		cmp	r4, r0
 1869 0120 02DC     		bgt	.L64
 1870 0122 0300     		movs	r3, r0
 710:GFX_Library.c ****         b   = x0 + sb / dy02;
 1871              		.loc 1 710 0
 1872 0124 2000     		movs	r0, r4
 1873              	.LVL253:
 711:GFX_Library.c ****         sa += dx01;
 1874              		.loc 1 711 0
 1875 0126 1C00     		movs	r4, r3
 1876              	.LVL254:
 1877              	.L64:
 719:GFX_Library.c ****         display_drawHLine(a, y, b-a+1, color);
 1878              		.loc 1 719 0 discriminator 2
 1879 0128 C0B2     		uxtb	r0, r0
ARM GAS  C:\Users\PC\AppData\Local\Temp\ccKVdNiW.s 			page 47


 1880              	.LVL255:
 1881 012a 6B46     		mov	r3, sp
 1882 012c 1B79     		ldrb	r3, [r3, #4]
 1883 012e 221A     		subs	r2, r4, r0
 1884 0130 541C     		adds	r4, r2, #1
 1885              	.LVL256:
 1886 0132 E2B2     		uxtb	r2, r4
 1887 0134 E9B2     		uxtb	r1, r5
 1888 0136 FFF7FEFF 		bl	drawHLine
 1889              	.LVL257:
 709:GFX_Library.c ****         a   = x0 + sa / dy01;
 1890              		.loc 1 709 0 discriminator 2
 1891 013a 0135     		adds	r5, r5, #1
 1892              	.LVL258:
 1893 013c 2DB2     		sxth	r5, r5
 1894              	.LVL259:
 1895              	.L63:
 709:GFX_Library.c ****         a   = x0 + sa / dy01;
 1896              		.loc 1 709 0 is_stmt 0 discriminator 1
 1897 013e 5D45     		cmp	r5, fp
 1898 0140 DDDD     		ble	.L65
 1899 0142 4646     		mov	r6, r8
 1900              	.LVL260:
 720:GFX_Library.c ****     }
 721:GFX_Library.c **** 
 722:GFX_Library.c ****     // For lower part of triangle, find scanline crossings for segments
 723:GFX_Library.c ****     // 0-2 and 1-2.  This loop is skipped if y1=y2.
 724:GFX_Library.c ****     sa = dx12 * (y - y1);
 1901              		.loc 1 724 0 is_stmt 1
 1902 0144 099A     		ldr	r2, [sp, #36]
 1903 0146 9346     		mov	fp, r2
 1904              	.LVL261:
 1905 0148 079B     		ldr	r3, [sp, #28]
 1906 014a EF1A     		subs	r7, r5, r3
 1907              	.LVL262:
 1908 014c 5743     		muls	r7, r2
 1909              	.LVL263:
 725:GFX_Library.c ****     sb = dx02 * (y - y0);
 1910              		.loc 1 725 0
 1911 014e D046     		mov	r8, r10
 1912 0150 089B     		ldr	r3, [sp, #32]
 1913 0152 E91A     		subs	r1, r5, r3
 1914 0154 5346     		mov	r3, r10
 1915 0156 4B43     		muls	r3, r1
 1916 0158 9A46     		mov	r10, r3
 1917              	.LVL264:
 1918 015a 3300     		movs	r3, r6
 1919              	.LVL265:
 1920 015c 5646     		mov	r6, r10
 1921 015e 9A46     		mov	r10, r3
 1922              	.LVL266:
 726:GFX_Library.c ****     for(; y<=y2; y++) {
 1923              		.loc 1 726 0
 1924 0160 1FE0     		b	.L66
 1925              	.L68:
 727:GFX_Library.c ****         a   = x1 + sa / dy12;
 1926              		.loc 1 727 0
ARM GAS  C:\Users\PC\AppData\Local\Temp\ccKVdNiW.s 			page 48


 1927 0162 0699     		ldr	r1, [sp, #24]
 1928 0164 3800     		movs	r0, r7
 1929 0166 FFF7FEFF 		bl	__aeabi_idiv
 1930              	.LVL267:
 1931 016a 039B     		ldr	r3, [sp, #12]
 1932 016c 9C46     		mov	ip, r3
 1933 016e 6044     		add	r0, r0, ip
 1934 0170 04B2     		sxth	r4, r0
 1935              	.LVL268:
 728:GFX_Library.c ****         b   = x0 + sb / dy02;
 1936              		.loc 1 728 0
 1937 0172 0299     		ldr	r1, [sp, #8]
 1938 0174 3000     		movs	r0, r6
 1939 0176 FFF7FEFF 		bl	__aeabi_idiv
 1940              	.LVL269:
 1941 017a 5044     		add	r0, r0, r10
 1942 017c 00B2     		sxth	r0, r0
 1943              	.LVL270:
 729:GFX_Library.c ****         sa += dx12;
 1944              		.loc 1 729 0
 1945 017e 5F44     		add	r7, r7, fp
 1946              	.LVL271:
 730:GFX_Library.c ****         sb += dx02;
 1947              		.loc 1 730 0
 1948 0180 4644     		add	r6, r6, r8
 1949              	.LVL272:
 731:GFX_Library.c ****         /* longhand:
 732:GFX_Library.c ****         a = x1 + (x2 - x1) * (y - y1) / (y2 - y1);
 733:GFX_Library.c ****         b = x0 + (x2 - x0) * (y - y0) / (y2 - y0);
 734:GFX_Library.c ****         */
 735:GFX_Library.c ****         if(a > b) _swap_int16_t(a,b);
 1950              		.loc 1 735 0
 1951 0182 8442     		cmp	r4, r0
 1952 0184 02DC     		bgt	.L67
 1953 0186 0300     		movs	r3, r0
 727:GFX_Library.c ****         b   = x0 + sb / dy02;
 1954              		.loc 1 727 0
 1955 0188 2000     		movs	r0, r4
 1956              	.LVL273:
 728:GFX_Library.c ****         sa += dx12;
 1957              		.loc 1 728 0
 1958 018a 1C00     		movs	r4, r3
 1959              	.LVL274:
 1960              	.L67:
 736:GFX_Library.c ****         display_drawHLine(a, y, b-a+1, color);
 1961              		.loc 1 736 0
 1962 018c C0B2     		uxtb	r0, r0
 1963              	.LVL275:
 1964 018e 6B46     		mov	r3, sp
 1965 0190 1B79     		ldrb	r3, [r3, #4]
 1966 0192 221A     		subs	r2, r4, r0
 1967 0194 541C     		adds	r4, r2, #1
 1968              	.LVL276:
 1969 0196 E2B2     		uxtb	r2, r4
 1970 0198 E9B2     		uxtb	r1, r5
 1971 019a FFF7FEFF 		bl	drawHLine
 1972              	.LVL277:
ARM GAS  C:\Users\PC\AppData\Local\Temp\ccKVdNiW.s 			page 49


 726:GFX_Library.c ****         a   = x1 + sa / dy12;
 1973              		.loc 1 726 0
 1974 019e 0135     		adds	r5, r5, #1
 1975              	.LVL278:
 1976 01a0 2DB2     		sxth	r5, r5
 1977              	.LVL279:
 1978              	.L66:
 726:GFX_Library.c ****         a   = x1 + sa / dy12;
 1979              		.loc 1 726 0 is_stmt 0 discriminator 1
 1980 01a2 4D45     		cmp	r5, r9
 1981 01a4 DDDD     		ble	.L68
 1982              	.LVL280:
 1983              	.L51:
 737:GFX_Library.c ****     }
 738:GFX_Library.c **** }
 1984              		.loc 1 738 0 is_stmt 1
 1985 01a6 0BB0     		add	sp, sp, #44
 1986              		@ sp needed
 1987              	.LVL281:
 1988 01a8 3CBC     		pop	{r2, r3, r4, r5}
 1989 01aa 9046     		mov	r8, r2
 1990 01ac 9946     		mov	r9, r3
 1991 01ae A246     		mov	r10, r4
 1992 01b0 AB46     		mov	fp, r5
 1993 01b2 F0BD     		pop	{r4, r5, r6, r7, pc}
 1994              		.cfi_endproc
 1995              	.LFE43:
 1996              		.size	display_fillTriangle, .-display_fillTriangle
 1997              		.section	.text.display_print,"ax",%progbits
 1998              		.align	2
 1999              		.global	display_print
 2000              		.code	16
 2001              		.thumb_func
 2002              		.type	display_print, %function
 2003              	display_print:
 2004              	.LFB44:
 739:GFX_Library.c **** 
 740:GFX_Library.c **** /**************************************************************************/
 741:GFX_Library.c **** /*!
 742:GFX_Library.c ****     @brief  Print one byte/character of data
 743:GFX_Library.c ****     @param  c  The 8-bit ascii character to write
 744:GFX_Library.c **** */
 745:GFX_Library.c **** /**************************************************************************/
 746:GFX_Library.c **** void display_print(uint8_t c) {
 2005              		.loc 1 746 0
 2006              		.cfi_startproc
 2007              		@ args = 0, pretend = 0, frame = 0
 2008              		@ frame_needed = 0, uses_anonymous_args = 0
 2009              	.LVL282:
 2010 0000 F0B5     		push	{r4, r5, r6, r7, lr}
 2011              		.cfi_def_cfa_offset 20
 2012              		.cfi_offset 4, -20
 2013              		.cfi_offset 5, -16
 2014              		.cfi_offset 6, -12
 2015              		.cfi_offset 7, -8
 2016              		.cfi_offset 14, -4
 2017 0002 83B0     		sub	sp, sp, #12
ARM GAS  C:\Users\PC\AppData\Local\Temp\ccKVdNiW.s 			page 50


 2018              		.cfi_def_cfa_offset 32
 2019 0004 0700     		movs	r7, r0
 747:GFX_Library.c **** 
 748:GFX_Library.c ****   if (c == ' ' && cursor_x == 0 && wrap)
 2020              		.loc 1 748 0
 2021 0006 2028     		cmp	r0, #32
 2022 0008 09D1     		bne	.L74
 2023              		.loc 1 748 0 is_stmt 0 discriminator 1
 2024 000a 634B     		ldr	r3, .L89
 2025 000c 0022     		movs	r2, #0
 2026 000e 9B5E     		ldrsh	r3, [r3, r2]
 2027 0010 002B     		cmp	r3, #0
 2028 0012 04D1     		bne	.L74
 2029              		.loc 1 748 0 discriminator 2
 2030 0014 614B     		ldr	r3, .L89+4
 2031 0016 1B78     		ldrb	r3, [r3]
 2032 0018 002B     		cmp	r3, #0
 2033 001a 00D0     		beq	.LCB2218
 2034 001c BAE0     		b	.L73	@long jump
 2035              	.LCB2218:
 2036              	.L74:
 749:GFX_Library.c ****     return;
 750:GFX_Library.c ****   if(c == '\r') {
 2037              		.loc 1 750 0 is_stmt 1
 2038 001e 0D2F     		cmp	r7, #13
 2039 0020 03D1     		bne	.L76
 751:GFX_Library.c ****     cursor_x = 0;
 2040              		.loc 1 751 0
 2041 0022 0022     		movs	r2, #0
 2042 0024 5C4B     		ldr	r3, .L89
 2043 0026 1A80     		strh	r2, [r3]
 752:GFX_Library.c ****     return;
 2044              		.loc 1 752 0
 2045 0028 B4E0     		b	.L73
 2046              	.L76:
 753:GFX_Library.c ****   }
 754:GFX_Library.c ****   if(c == '\n') {
 2047              		.loc 1 754 0
 2048 002a 0A2F     		cmp	r7, #10
 2049 002c 5ED1     		bne	.L88
 755:GFX_Library.c ****     cursor_y += textsize * 8;
 2050              		.loc 1 755 0
 2051 002e 5A49     		ldr	r1, .L89
 2052 0030 5A4B     		ldr	r3, .L89+4
 2053 0032 5B78     		ldrb	r3, [r3, #1]
 2054 0034 DA00     		lsls	r2, r3, #3
 2055 0036 4B88     		ldrh	r3, [r1, #2]
 2056 0038 D318     		adds	r3, r2, r3
 2057 003a 4B80     		strh	r3, [r1, #2]
 756:GFX_Library.c ****     return;
 2058              		.loc 1 756 0
 2059 003c AAE0     		b	.L73
 2060              	.LVL283:
 2061              	.L84:
 2062              	.LBB14:
 2063              	.LBB15:
 757:GFX_Library.c ****   }
ARM GAS  C:\Users\PC\AppData\Local\Temp\ccKVdNiW.s 			page 51


 758:GFX_Library.c **** 
 759:GFX_Library.c ****   for(uint8_t i = 0; i < 5; i++ ) {
 760:GFX_Library.c ****     uint8_t line = font[c][i];
 2064              		.loc 1 760 0
 2065 003e BB00     		lsls	r3, r7, #2
 2066 0040 DB19     		adds	r3, r3, r7
 2067 0042 574A     		ldr	r2, .L89+8
 2068 0044 D318     		adds	r3, r2, r3
 2069 0046 9D5D     		ldrb	r5, [r3, r6]
 2070              	.LVL284:
 2071              	.LBB16:
 761:GFX_Library.c ****     for(uint8_t j = 0; j < 8; j++, line >>= 1) {
 2072              		.loc 1 761 0
 2073 0048 0024     		movs	r4, #0
 2074 004a 4AE0     		b	.L78
 2075              	.LVL285:
 2076              	.L83:
 762:GFX_Library.c ****       if(line & 1) {
 2077              		.loc 1 762 0
 2078 004c EB07     		lsls	r3, r5, #31
 2079 004e 20D5     		bpl	.L79
 763:GFX_Library.c ****         if(textsize == 1)
 2080              		.loc 1 763 0
 2081 0050 524B     		ldr	r3, .L89+4
 2082 0052 5A78     		ldrb	r2, [r3, #1]
 2083 0054 012A     		cmp	r2, #1
 2084 0056 0AD1     		bne	.L80
 764:GFX_Library.c ****           display_drawPixel(cursor_x + i, cursor_y + j, textcolor);
 2085              		.loc 1 764 0
 2086 0058 9A78     		ldrb	r2, [r3, #2]
 2087 005a 4F4B     		ldr	r3, .L89
 2088 005c 5988     		ldrh	r1, [r3, #2]
 2089 005e 6118     		adds	r1, r4, r1
 2090 0060 C9B2     		uxtb	r1, r1
 2091 0062 1888     		ldrh	r0, [r3]
 2092 0064 3018     		adds	r0, r6, r0
 2093 0066 C0B2     		uxtb	r0, r0
 2094 0068 FFF7FEFF 		bl	drawPixel
 2095              	.LVL286:
 2096 006c 36E0     		b	.L81
 2097              	.L80:
 765:GFX_Library.c ****         else
 766:GFX_Library.c ****           display_fillRect(cursor_x + i * textsize, cursor_y + j * textsize, textsize, textsize, te
 2098              		.loc 1 766 0
 2099 006e 4A48     		ldr	r0, .L89
 2100 0070 4188     		ldrh	r1, [r0, #2]
 2101 0072 1300     		movs	r3, r2
 2102 0074 6343     		muls	r3, r4
 2103 0076 C918     		adds	r1, r1, r3
 2104 0078 C9B2     		uxtb	r1, r1
 2105 007a 0088     		ldrh	r0, [r0]
 2106 007c 1300     		movs	r3, r2
 2107 007e 7343     		muls	r3, r6
 2108 0080 C018     		adds	r0, r0, r3
 2109 0082 C0B2     		uxtb	r0, r0
 2110 0084 454B     		ldr	r3, .L89+4
 2111 0086 9B78     		ldrb	r3, [r3, #2]
ARM GAS  C:\Users\PC\AppData\Local\Temp\ccKVdNiW.s 			page 52


 2112 0088 0093     		str	r3, [sp]
 2113 008a 1300     		movs	r3, r2
 2114 008c FFF7FEFF 		bl	fillRect
 2115              	.LVL287:
 2116 0090 24E0     		b	.L81
 2117              	.L79:
 767:GFX_Library.c ****       } 
 768:GFX_Library.c ****       else 
 769:GFX_Library.c ****         if(textbgcolor != textcolor) {
 2118              		.loc 1 769 0
 2119 0092 4249     		ldr	r1, .L89+4
 2120 0094 8B88     		ldrh	r3, [r1, #4]
 2121 0096 4A88     		ldrh	r2, [r1, #2]
 2122 0098 9342     		cmp	r3, r2
 2123 009a 1FD0     		beq	.L81
 770:GFX_Library.c ****           if(textsize == 1)
 2124              		.loc 1 770 0
 2125 009c 4A78     		ldrb	r2, [r1, #1]
 2126 009e 012A     		cmp	r2, #1
 2127 00a0 0AD1     		bne	.L82
 771:GFX_Library.c ****             display_drawPixel(cursor_x + i, cursor_y + j, textbgcolor);
 2128              		.loc 1 771 0
 2129 00a2 DAB2     		uxtb	r2, r3
 2130 00a4 3C48     		ldr	r0, .L89
 2131 00a6 4188     		ldrh	r1, [r0, #2]
 2132 00a8 6118     		adds	r1, r4, r1
 2133 00aa C9B2     		uxtb	r1, r1
 2134 00ac 0088     		ldrh	r0, [r0]
 2135 00ae 3018     		adds	r0, r6, r0
 2136 00b0 C0B2     		uxtb	r0, r0
 2137 00b2 FFF7FEFF 		bl	drawPixel
 2138              	.LVL288:
 2139 00b6 11E0     		b	.L81
 2140              	.L82:
 772:GFX_Library.c ****           else
 773:GFX_Library.c ****             display_fillRect(cursor_x + i * textsize, cursor_y + j * textsize, textsize, textsize, 
 2141              		.loc 1 773 0
 2142 00b8 3748     		ldr	r0, .L89
 2143 00ba 4188     		ldrh	r1, [r0, #2]
 2144 00bc 8C46     		mov	ip, r1
 2145 00be 1100     		movs	r1, r2
 2146 00c0 6143     		muls	r1, r4
 2147 00c2 6144     		add	r1, r1, ip
 2148 00c4 C9B2     		uxtb	r1, r1
 2149 00c6 0088     		ldrh	r0, [r0]
 2150 00c8 8446     		mov	ip, r0
 2151 00ca 1000     		movs	r0, r2
 2152 00cc 7043     		muls	r0, r6
 2153 00ce 6044     		add	r0, r0, ip
 2154 00d0 C0B2     		uxtb	r0, r0
 2155 00d2 DBB2     		uxtb	r3, r3
 2156 00d4 0093     		str	r3, [sp]
 2157 00d6 1300     		movs	r3, r2
 2158 00d8 FFF7FEFF 		bl	fillRect
 2159              	.LVL289:
 2160              	.L81:
 761:GFX_Library.c ****       if(line & 1) {
ARM GAS  C:\Users\PC\AppData\Local\Temp\ccKVdNiW.s 			page 53


 2161              		.loc 1 761 0 discriminator 2
 2162 00dc 0134     		adds	r4, r4, #1
 2163              	.LVL290:
 2164 00de E4B2     		uxtb	r4, r4
 2165              	.LVL291:
 2166 00e0 6D08     		lsrs	r5, r5, #1
 2167              	.LVL292:
 2168              	.L78:
 761:GFX_Library.c ****       if(line & 1) {
 2169              		.loc 1 761 0 is_stmt 0 discriminator 1
 2170 00e2 072C     		cmp	r4, #7
 2171 00e4 B2D9     		bls	.L83
 2172              	.LBE16:
 2173              	.LBE15:
 759:GFX_Library.c ****     uint8_t line = font[c][i];
 2174              		.loc 1 759 0 is_stmt 1 discriminator 2
 2175 00e6 0136     		adds	r6, r6, #1
 2176              	.LVL293:
 2177 00e8 F6B2     		uxtb	r6, r6
 2178              	.LVL294:
 2179 00ea 00E0     		b	.L77
 2180              	.LVL295:
 2181              	.L88:
 2182              	.LBE14:
 2183 00ec 0026     		movs	r6, #0
 2184              	.LVL296:
 2185              	.L77:
 2186              	.LBB17:
 759:GFX_Library.c ****     uint8_t line = font[c][i];
 2187              		.loc 1 759 0 is_stmt 0 discriminator 1
 2188 00ee 042E     		cmp	r6, #4
 2189 00f0 A5D9     		bls	.L84
 2190              	.LBE17:
 774:GFX_Library.c ****         }
 775:GFX_Library.c ****     }
 776:GFX_Library.c ****   }
 777:GFX_Library.c **** 
 778:GFX_Library.c ****   if(textbgcolor != textcolor) {  // If opaque, draw vertical line for last column
 2191              		.loc 1 778 0 is_stmt 1
 2192 00f2 2A4B     		ldr	r3, .L89+4
 2193 00f4 9C88     		ldrh	r4, [r3, #4]
 2194 00f6 5B88     		ldrh	r3, [r3, #2]
 2195 00f8 9C42     		cmp	r4, r3
 2196 00fa 1AD0     		beq	.L85
 779:GFX_Library.c ****     if(textsize == 1)  display_drawVLine(cursor_x + 5, cursor_y, 8, textbgcolor);
 2197              		.loc 1 779 0
 2198 00fc 274B     		ldr	r3, .L89+4
 2199 00fe 5A78     		ldrb	r2, [r3, #1]
 2200 0100 012A     		cmp	r2, #1
 2201 0102 09D1     		bne	.L86
 2202              		.loc 1 779 0 is_stmt 0 discriminator 1
 2203 0104 E3B2     		uxtb	r3, r4
 2204 0106 244A     		ldr	r2, .L89
 2205 0108 9178     		ldrb	r1, [r2, #2]
 2206 010a 1088     		ldrh	r0, [r2]
 2207 010c 0530     		adds	r0, r0, #5
 2208 010e C0B2     		uxtb	r0, r0
ARM GAS  C:\Users\PC\AppData\Local\Temp\ccKVdNiW.s 			page 54


 2209 0110 0822     		movs	r2, #8
 2210 0112 FFF7FEFF 		bl	drawVLine
 2211              	.LVL297:
 2212 0116 0CE0     		b	.L85
 2213              	.L86:
 780:GFX_Library.c ****     else               display_fillRect(cursor_x + 5 * textsize, cursor_y, textsize, 8 * textsize, 
 2214              		.loc 1 780 0 is_stmt 1
 2215 0118 D300     		lsls	r3, r2, #3
 2216 011a DBB2     		uxtb	r3, r3
 2217 011c 1E48     		ldr	r0, .L89
 2218 011e 8178     		ldrb	r1, [r0, #2]
 2219 0120 0588     		ldrh	r5, [r0]
 2220 0122 9000     		lsls	r0, r2, #2
 2221 0124 1018     		adds	r0, r2, r0
 2222 0126 2818     		adds	r0, r5, r0
 2223 0128 C0B2     		uxtb	r0, r0
 2224 012a E4B2     		uxtb	r4, r4
 2225 012c 0094     		str	r4, [sp]
 2226 012e FFF7FEFF 		bl	fillRect
 2227              	.LVL298:
 2228              	.L85:
 781:GFX_Library.c ****   }
 782:GFX_Library.c **** 
 783:GFX_Library.c ****   cursor_x += textsize * 6;
 2229              		.loc 1 783 0
 2230 0132 1A4B     		ldr	r3, .L89+4
 2231 0134 5B78     		ldrb	r3, [r3, #1]
 2232 0136 9CB2     		uxth	r4, r3
 2233 0138 6100     		lsls	r1, r4, #1
 2234 013a 6118     		adds	r1, r4, r1
 2235 013c 4800     		lsls	r0, r1, #1
 2236 013e 1649     		ldr	r1, .L89
 2237 0140 0A88     		ldrh	r2, [r1]
 2238 0142 8218     		adds	r2, r0, r2
 2239 0144 12B2     		sxth	r2, r2
 2240 0146 0A80     		strh	r2, [r1]
 784:GFX_Library.c **** 
 785:GFX_Library.c ****   if( cursor_x > ((uint16_t)display_width + textsize * 6) )
 2241              		.loc 1 785 0
 2242 0148 1649     		ldr	r1, .L89+12
 2243 014a 0E78     		ldrb	r6, [r1]
 2244              	.LVL299:
 2245 014c 3500     		movs	r5, r6
 2246 014e 5800     		lsls	r0, r3, #1
 2247 0150 C018     		adds	r0, r0, r3
 2248 0152 4100     		lsls	r1, r0, #1
 2249 0154 7118     		adds	r1, r6, r1
 2250 0156 8A42     		cmp	r2, r1
 2251 0158 01DD     		ble	.L87
 786:GFX_Library.c ****     cursor_x = display_width;
 2252              		.loc 1 786 0
 2253 015a 0F4A     		ldr	r2, .L89
 2254 015c 1680     		strh	r6, [r2]
 2255              	.L87:
 787:GFX_Library.c **** 
 788:GFX_Library.c ****   if (wrap && (cursor_x + (textsize * 5)) > display_width)
 2256              		.loc 1 788 0
ARM GAS  C:\Users\PC\AppData\Local\Temp\ccKVdNiW.s 			page 55


 2257 015e 0F4A     		ldr	r2, .L89+4
 2258 0160 1278     		ldrb	r2, [r2]
 2259 0162 002A     		cmp	r2, #0
 2260 0164 16D0     		beq	.L73
 2261              		.loc 1 788 0 is_stmt 0 discriminator 1
 2262 0166 9A00     		lsls	r2, r3, #2
 2263 0168 D218     		adds	r2, r2, r3
 2264 016a 0B49     		ldr	r1, .L89
 2265 016c 0020     		movs	r0, #0
 2266 016e 095E     		ldrsh	r1, [r1, r0]
 2267 0170 8A18     		adds	r2, r1, r2
 2268 0172 9542     		cmp	r5, r2
 2269 0174 0EDA     		bge	.L73
 789:GFX_Library.c ****   {
 790:GFX_Library.c ****     cursor_x = 0;
 2270              		.loc 1 790 0 is_stmt 1
 2271 0176 0849     		ldr	r1, .L89
 2272 0178 0022     		movs	r2, #0
 2273 017a 0A80     		strh	r2, [r1]
 791:GFX_Library.c ****     cursor_y += textsize * 8;
 2274              		.loc 1 791 0
 2275 017c E400     		lsls	r4, r4, #3
 2276 017e 4A88     		ldrh	r2, [r1, #2]
 2277 0180 A418     		adds	r4, r4, r2
 2278 0182 24B2     		sxth	r4, r4
 2279 0184 4C80     		strh	r4, [r1, #2]
 792:GFX_Library.c ****     if( cursor_y > ((uint16_t)display_height + textsize * 8) )
 2280              		.loc 1 792 0
 2281 0186 084A     		ldr	r2, .L89+16
 2282 0188 1278     		ldrb	r2, [r2]
 2283 018a DB00     		lsls	r3, r3, #3
 2284 018c D318     		adds	r3, r2, r3
 2285 018e 9C42     		cmp	r4, r3
 2286 0190 00DD     		ble	.L73
 793:GFX_Library.c ****       cursor_y = display_height;
 2287              		.loc 1 793 0
 2288 0192 4A80     		strh	r2, [r1, #2]
 2289              	.L73:
 794:GFX_Library.c ****   }
 795:GFX_Library.c **** }
 2290              		.loc 1 795 0
 2291 0194 03B0     		add	sp, sp, #12
 2292              		@ sp needed
 2293 0196 F0BD     		pop	{r4, r5, r6, r7, pc}
 2294              	.L90:
 2295              		.align	2
 2296              	.L89:
 2297 0198 00000000 		.word	.LANCHOR0
 2298 019c 00000000 		.word	.LANCHOR1
 2299 01a0 00000000 		.word	.LANCHOR2
 2300 01a4 00000000 		.word	_width
 2301 01a8 00000000 		.word	_height
 2302              		.cfi_endproc
 2303              	.LFE44:
 2304              		.size	display_print, .-display_print
 2305              		.section	.text.display_string,"ax",%progbits
 2306              		.align	2
ARM GAS  C:\Users\PC\AppData\Local\Temp\ccKVdNiW.s 			page 56


 2307              		.global	display_string
 2308              		.code	16
 2309              		.thumb_func
 2310              		.type	display_string, %function
 2311              	display_string:
 2312              	.LFB45:
 796:GFX_Library.c **** 
 797:GFX_Library.c **** void display_string(char *str) {
 2313              		.loc 1 797 0
 2314              		.cfi_startproc
 2315              		@ args = 0, pretend = 0, frame = 0
 2316              		@ frame_needed = 0, uses_anonymous_args = 0
 2317              	.LVL300:
 2318 0000 10B5     		push	{r4, lr}
 2319              		.cfi_def_cfa_offset 8
 2320              		.cfi_offset 4, -8
 2321              		.cfi_offset 14, -4
 2322 0002 0400     		movs	r4, r0
 798:GFX_Library.c ****     while(*str != 0) {
 2323              		.loc 1 798 0
 2324 0004 02E0     		b	.L92
 2325              	.LVL301:
 2326              	.L93:
 799:GFX_Library.c ****         display_print(*str);
 2327              		.loc 1 799 0
 2328 0006 FFF7FEFF 		bl	display_print
 2329              	.LVL302:
 800:GFX_Library.c ****         str++;
 2330              		.loc 1 800 0
 2331 000a 0134     		adds	r4, r4, #1
 2332              	.LVL303:
 2333              	.L92:
 798:GFX_Library.c ****     while(*str != 0) {
 2334              		.loc 1 798 0
 2335 000c 2078     		ldrb	r0, [r4]
 2336 000e 0028     		cmp	r0, #0
 2337 0010 F9D1     		bne	.L93
 801:GFX_Library.c ****     }
 802:GFX_Library.c **** }
 2338              		.loc 1 802 0
 2339              		@ sp needed
 2340              	.LVL304:
 2341 0012 10BD     		pop	{r4, pc}
 2342              		.cfi_endproc
 2343              	.LFE45:
 2344              		.size	display_string, .-display_string
 2345              		.section	.text.display_customChar,"ax",%progbits
 2346              		.align	2
 2347              		.global	display_customChar
 2348              		.code	16
 2349              		.thumb_func
 2350              		.type	display_customChar, %function
 2351              	display_customChar:
 2352              	.LFB46:
 803:GFX_Library.c **** 
 804:GFX_Library.c **** // print custom char (dimension: 7x5 or 8x5 pixel)
 805:GFX_Library.c **** void display_customChar(const uint8_t *c) {
ARM GAS  C:\Users\PC\AppData\Local\Temp\ccKVdNiW.s 			page 57


 2353              		.loc 1 805 0
 2354              		.cfi_startproc
 2355              		@ args = 0, pretend = 0, frame = 0
 2356              		@ frame_needed = 0, uses_anonymous_args = 0
 2357              	.LVL305:
 2358 0000 F0B5     		push	{r4, r5, r6, r7, lr}
 2359              		.cfi_def_cfa_offset 20
 2360              		.cfi_offset 4, -20
 2361              		.cfi_offset 5, -16
 2362              		.cfi_offset 6, -12
 2363              		.cfi_offset 7, -8
 2364              		.cfi_offset 14, -4
 2365 0002 4746     		mov	r7, r8
 2366 0004 80B4     		push	{r7}
 2367              		.cfi_def_cfa_offset 24
 2368              		.cfi_offset 8, -24
 2369 0006 82B0     		sub	sp, sp, #8
 2370              		.cfi_def_cfa_offset 32
 2371 0008 8046     		mov	r8, r0
 2372              	.LVL306:
 2373              	.LBB18:
 806:GFX_Library.c **** 
 807:GFX_Library.c ****   for(uint8_t i = 0; i < 5; i++ ) {
 2374              		.loc 1 807 0
 2375 000a 0026     		movs	r6, #0
 2376 000c 50E0     		b	.L95
 2377              	.LVL307:
 2378              	.L102:
 2379              	.LBB19:
 808:GFX_Library.c ****     uint8_t line = c[i];
 2380              		.loc 1 808 0
 2381 000e 4346     		mov	r3, r8
 2382 0010 9D5D     		ldrb	r5, [r3, r6]
 2383              	.LVL308:
 2384              	.LBB20:
 809:GFX_Library.c ****     for(uint8_t j = 0; j < 8; j++, line >>= 1) {
 2385              		.loc 1 809 0
 2386 0012 0024     		movs	r4, #0
 2387 0014 48E0     		b	.L96
 2388              	.LVL309:
 2389              	.L101:
 810:GFX_Library.c ****       if(line & 1) {
 2390              		.loc 1 810 0
 2391 0016 EB07     		lsls	r3, r5, #31
 2392 0018 20D5     		bpl	.L97
 811:GFX_Library.c ****         if(textsize == 1)
 2393              		.loc 1 811 0
 2394 001a 514B     		ldr	r3, .L107
 2395 001c 5A78     		ldrb	r2, [r3, #1]
 2396 001e 012A     		cmp	r2, #1
 2397 0020 0AD1     		bne	.L98
 812:GFX_Library.c ****           display_drawPixel(cursor_x + i, cursor_y + j, textcolor);
 2398              		.loc 1 812 0
 2399 0022 9A78     		ldrb	r2, [r3, #2]
 2400 0024 4F4B     		ldr	r3, .L107+4
 2401 0026 5988     		ldrh	r1, [r3, #2]
 2402 0028 6118     		adds	r1, r4, r1
ARM GAS  C:\Users\PC\AppData\Local\Temp\ccKVdNiW.s 			page 58


 2403 002a C9B2     		uxtb	r1, r1
 2404 002c 1888     		ldrh	r0, [r3]
 2405 002e 3018     		adds	r0, r6, r0
 2406 0030 C0B2     		uxtb	r0, r0
 2407 0032 FFF7FEFF 		bl	drawPixel
 2408              	.LVL310:
 2409 0036 34E0     		b	.L99
 2410              	.L98:
 813:GFX_Library.c ****         else
 814:GFX_Library.c ****           display_fillRect(cursor_x + i * textsize, cursor_y + j * textsize, textsize, textsize, te
 2411              		.loc 1 814 0
 2412 0038 4A48     		ldr	r0, .L107+4
 2413 003a 4188     		ldrh	r1, [r0, #2]
 2414 003c 1300     		movs	r3, r2
 2415 003e 6343     		muls	r3, r4
 2416 0040 C918     		adds	r1, r1, r3
 2417 0042 C9B2     		uxtb	r1, r1
 2418 0044 0088     		ldrh	r0, [r0]
 2419 0046 1300     		movs	r3, r2
 2420 0048 7343     		muls	r3, r6
 2421 004a C018     		adds	r0, r0, r3
 2422 004c C0B2     		uxtb	r0, r0
 2423 004e 444B     		ldr	r3, .L107
 2424 0050 9B78     		ldrb	r3, [r3, #2]
 2425 0052 0093     		str	r3, [sp]
 2426 0054 1300     		movs	r3, r2
 2427 0056 FFF7FEFF 		bl	fillRect
 2428              	.LVL311:
 2429 005a 22E0     		b	.L99
 2430              	.L97:
 815:GFX_Library.c ****       } 
 816:GFX_Library.c ****       else 
 817:GFX_Library.c ****         if(textbgcolor != textcolor) {
 2431              		.loc 1 817 0
 2432 005c 4049     		ldr	r1, .L107
 2433 005e 8B88     		ldrh	r3, [r1, #4]
 2434 0060 4A88     		ldrh	r2, [r1, #2]
 2435 0062 9342     		cmp	r3, r2
 2436 0064 1DD0     		beq	.L99
 818:GFX_Library.c ****           if(textsize == 1)
 2437              		.loc 1 818 0
 2438 0066 4A78     		ldrb	r2, [r1, #1]
 2439 0068 012A     		cmp	r2, #1
 2440 006a 0AD1     		bne	.L100
 819:GFX_Library.c ****             display_drawPixel(cursor_x + i, cursor_y + j, textbgcolor);
 2441              		.loc 1 819 0
 2442 006c DAB2     		uxtb	r2, r3
 2443 006e 3D48     		ldr	r0, .L107+4
 2444 0070 4188     		ldrh	r1, [r0, #2]
 2445 0072 6118     		adds	r1, r4, r1
 2446 0074 C9B2     		uxtb	r1, r1
 2447 0076 0088     		ldrh	r0, [r0]
 2448 0078 3018     		adds	r0, r6, r0
 2449 007a C0B2     		uxtb	r0, r0
 2450 007c FFF7FEFF 		bl	drawPixel
 2451              	.LVL312:
 2452 0080 0FE0     		b	.L99
ARM GAS  C:\Users\PC\AppData\Local\Temp\ccKVdNiW.s 			page 59


 2453              	.L100:
 820:GFX_Library.c ****           else
 821:GFX_Library.c ****             display_fillRect(cursor_x + i * textsize, cursor_y + j * textsize, textsize, textsize, 
 2454              		.loc 1 821 0
 2455 0082 3848     		ldr	r0, .L107+4
 2456 0084 4788     		ldrh	r7, [r0, #2]
 2457 0086 1100     		movs	r1, r2
 2458 0088 6143     		muls	r1, r4
 2459 008a 7918     		adds	r1, r7, r1
 2460 008c C9B2     		uxtb	r1, r1
 2461 008e 0788     		ldrh	r7, [r0]
 2462 0090 1000     		movs	r0, r2
 2463 0092 7043     		muls	r0, r6
 2464 0094 3818     		adds	r0, r7, r0
 2465 0096 C0B2     		uxtb	r0, r0
 2466 0098 DBB2     		uxtb	r3, r3
 2467 009a 0093     		str	r3, [sp]
 2468 009c 1300     		movs	r3, r2
 2469 009e FFF7FEFF 		bl	fillRect
 2470              	.LVL313:
 2471              	.L99:
 809:GFX_Library.c ****       if(line & 1) {
 2472              		.loc 1 809 0 discriminator 2
 2473 00a2 0134     		adds	r4, r4, #1
 2474              	.LVL314:
 2475 00a4 E4B2     		uxtb	r4, r4
 2476              	.LVL315:
 2477 00a6 6D08     		lsrs	r5, r5, #1
 2478              	.LVL316:
 2479              	.L96:
 809:GFX_Library.c ****       if(line & 1) {
 2480              		.loc 1 809 0 is_stmt 0 discriminator 1
 2481 00a8 072C     		cmp	r4, #7
 2482 00aa B4D9     		bls	.L101
 2483              	.LBE20:
 2484              	.LBE19:
 807:GFX_Library.c ****     uint8_t line = c[i];
 2485              		.loc 1 807 0 is_stmt 1 discriminator 2
 2486 00ac 0136     		adds	r6, r6, #1
 2487              	.LVL317:
 2488 00ae F6B2     		uxtb	r6, r6
 2489              	.LVL318:
 2490              	.L95:
 807:GFX_Library.c ****     uint8_t line = c[i];
 2491              		.loc 1 807 0 is_stmt 0 discriminator 1
 2492 00b0 042E     		cmp	r6, #4
 2493 00b2 ACD9     		bls	.L102
 2494              	.LBE18:
 822:GFX_Library.c ****         }
 823:GFX_Library.c ****     }
 824:GFX_Library.c ****   }
 825:GFX_Library.c **** 
 826:GFX_Library.c ****   if(textbgcolor != textcolor) {  // If opaque, draw vertical line for last column
 2495              		.loc 1 826 0 is_stmt 1
 2496 00b4 2A4B     		ldr	r3, .L107
 2497 00b6 9C88     		ldrh	r4, [r3, #4]
 2498 00b8 5B88     		ldrh	r3, [r3, #2]
ARM GAS  C:\Users\PC\AppData\Local\Temp\ccKVdNiW.s 			page 60


 2499 00ba 9C42     		cmp	r4, r3
 2500 00bc 1AD0     		beq	.L103
 827:GFX_Library.c ****     if(textsize == 1)  display_drawVLine(cursor_x + 5, cursor_y, 8, textbgcolor);
 2501              		.loc 1 827 0
 2502 00be 284B     		ldr	r3, .L107
 2503 00c0 5A78     		ldrb	r2, [r3, #1]
 2504 00c2 012A     		cmp	r2, #1
 2505 00c4 09D1     		bne	.L104
 2506              		.loc 1 827 0 is_stmt 0 discriminator 1
 2507 00c6 E3B2     		uxtb	r3, r4
 2508 00c8 264A     		ldr	r2, .L107+4
 2509 00ca 9178     		ldrb	r1, [r2, #2]
 2510 00cc 1088     		ldrh	r0, [r2]
 2511 00ce 0530     		adds	r0, r0, #5
 2512 00d0 C0B2     		uxtb	r0, r0
 2513 00d2 0822     		movs	r2, #8
 2514 00d4 FFF7FEFF 		bl	drawVLine
 2515              	.LVL319:
 2516 00d8 0CE0     		b	.L103
 2517              	.L104:
 828:GFX_Library.c ****     else               display_fillRect(cursor_x + 5 * textsize, cursor_y, textsize, 8 * textsize, 
 2518              		.loc 1 828 0 is_stmt 1
 2519 00da D300     		lsls	r3, r2, #3
 2520 00dc DBB2     		uxtb	r3, r3
 2521 00de 2148     		ldr	r0, .L107+4
 2522 00e0 8178     		ldrb	r1, [r0, #2]
 2523 00e2 0588     		ldrh	r5, [r0]
 2524 00e4 9000     		lsls	r0, r2, #2
 2525 00e6 1018     		adds	r0, r2, r0
 2526 00e8 2818     		adds	r0, r5, r0
 2527 00ea C0B2     		uxtb	r0, r0
 2528 00ec E4B2     		uxtb	r4, r4
 2529 00ee 0094     		str	r4, [sp]
 2530 00f0 FFF7FEFF 		bl	fillRect
 2531              	.LVL320:
 2532              	.L103:
 829:GFX_Library.c ****   }
 830:GFX_Library.c **** 
 831:GFX_Library.c ****   cursor_x += textsize * 6;
 2533              		.loc 1 831 0
 2534 00f4 1A4B     		ldr	r3, .L107
 2535 00f6 5B78     		ldrb	r3, [r3, #1]
 2536 00f8 9CB2     		uxth	r4, r3
 2537 00fa 6100     		lsls	r1, r4, #1
 2538 00fc 6118     		adds	r1, r4, r1
 2539 00fe 4800     		lsls	r0, r1, #1
 2540 0100 1849     		ldr	r1, .L107+4
 2541 0102 0A88     		ldrh	r2, [r1]
 2542 0104 8218     		adds	r2, r0, r2
 2543 0106 12B2     		sxth	r2, r2
 2544 0108 0A80     		strh	r2, [r1]
 832:GFX_Library.c **** 
 833:GFX_Library.c ****   if( cursor_x > ((uint16_t)display_width + textsize * 6) )
 2545              		.loc 1 833 0
 2546 010a 1749     		ldr	r1, .L107+8
 2547 010c 0E78     		ldrb	r6, [r1]
 2548              	.LVL321:
ARM GAS  C:\Users\PC\AppData\Local\Temp\ccKVdNiW.s 			page 61


 2549 010e 3500     		movs	r5, r6
 2550 0110 5800     		lsls	r0, r3, #1
 2551 0112 C018     		adds	r0, r0, r3
 2552 0114 4100     		lsls	r1, r0, #1
 2553 0116 7118     		adds	r1, r6, r1
 2554 0118 8A42     		cmp	r2, r1
 2555 011a 01DD     		ble	.L105
 834:GFX_Library.c ****     cursor_x = display_width;
 2556              		.loc 1 834 0
 2557 011c 114A     		ldr	r2, .L107+4
 2558 011e 1680     		strh	r6, [r2]
 2559              	.L105:
 835:GFX_Library.c **** 
 836:GFX_Library.c ****   if (wrap && (cursor_x + (textsize * 5)) > display_width)
 2560              		.loc 1 836 0
 2561 0120 0F4A     		ldr	r2, .L107
 2562 0122 1278     		ldrb	r2, [r2]
 2563 0124 002A     		cmp	r2, #0
 2564 0126 16D0     		beq	.L94
 2565              		.loc 1 836 0 is_stmt 0 discriminator 1
 2566 0128 9A00     		lsls	r2, r3, #2
 2567 012a D218     		adds	r2, r2, r3
 2568 012c 0D49     		ldr	r1, .L107+4
 2569 012e 0020     		movs	r0, #0
 2570 0130 095E     		ldrsh	r1, [r1, r0]
 2571 0132 8A18     		adds	r2, r1, r2
 2572 0134 9542     		cmp	r5, r2
 2573 0136 0EDA     		bge	.L94
 837:GFX_Library.c ****   {
 838:GFX_Library.c ****     cursor_x = 0;
 2574              		.loc 1 838 0 is_stmt 1
 2575 0138 0A49     		ldr	r1, .L107+4
 2576 013a 0022     		movs	r2, #0
 2577 013c 0A80     		strh	r2, [r1]
 839:GFX_Library.c ****     cursor_y += textsize * 8;
 2578              		.loc 1 839 0
 2579 013e E400     		lsls	r4, r4, #3
 2580 0140 4A88     		ldrh	r2, [r1, #2]
 2581 0142 A418     		adds	r4, r4, r2
 2582 0144 24B2     		sxth	r4, r4
 2583 0146 4C80     		strh	r4, [r1, #2]
 840:GFX_Library.c ****     if( cursor_y > ((uint16_t)display_height + textsize * 8) )
 2584              		.loc 1 840 0
 2585 0148 084A     		ldr	r2, .L107+12
 2586 014a 1278     		ldrb	r2, [r2]
 2587 014c DB00     		lsls	r3, r3, #3
 2588 014e D318     		adds	r3, r2, r3
 2589 0150 9C42     		cmp	r4, r3
 2590 0152 00DD     		ble	.L94
 841:GFX_Library.c ****       cursor_y = display_height;
 2591              		.loc 1 841 0
 2592 0154 4A80     		strh	r2, [r1, #2]
 2593              	.L94:
 842:GFX_Library.c ****   }
 843:GFX_Library.c **** }
 2594              		.loc 1 843 0
 2595 0156 02B0     		add	sp, sp, #8
ARM GAS  C:\Users\PC\AppData\Local\Temp\ccKVdNiW.s 			page 62


 2596              		@ sp needed
 2597              	.LVL322:
 2598 0158 04BC     		pop	{r2}
 2599 015a 9046     		mov	r8, r2
 2600 015c F0BD     		pop	{r4, r5, r6, r7, pc}
 2601              	.L108:
 2602 015e C046     		.align	2
 2603              	.L107:
 2604 0160 00000000 		.word	.LANCHOR1
 2605 0164 00000000 		.word	.LANCHOR0
 2606 0168 00000000 		.word	_width
 2607 016c 00000000 		.word	_height
 2608              		.cfi_endproc
 2609              	.LFE46:
 2610              		.size	display_customChar, .-display_customChar
 2611              		.section	.text.display_setCursor,"ax",%progbits
 2612              		.align	2
 2613              		.global	display_setCursor
 2614              		.code	16
 2615              		.thumb_func
 2616              		.type	display_setCursor, %function
 2617              	display_setCursor:
 2618              	.LFB48:
 844:GFX_Library.c **** 
 845:GFX_Library.c **** /**************************************************************************/
 846:GFX_Library.c **** /*!
 847:GFX_Library.c ****    @brief   Draw a single character
 848:GFX_Library.c ****     @param    x   Bottom left corner x coordinate
 849:GFX_Library.c ****     @param    y   Bottom left corner y coordinate
 850:GFX_Library.c ****     @param    c   The 8-bit font-indexed character (likely ascii)
 851:GFX_Library.c ****     @param    color 16-bit 5-6-5 Color to draw chraracter with
 852:GFX_Library.c ****     @param    bg 16-bit 5-6-5 Color to fill background with (if same as color, no background)
 853:GFX_Library.c ****     @param    size  Font magnification level, 1 is 'original' size
 854:GFX_Library.c **** */
 855:GFX_Library.c **** /**************************************************************************/
 856:GFX_Library.c **** void display_drawChar(uint16_t x, uint16_t y, uint8_t c, uint16_t color, uint16_t bg,
 857:GFX_Library.c ****      uint8_t size) {
 858:GFX_Library.c ****   uint16_t prev_x     = cursor_x,
 859:GFX_Library.c ****            prev_y     = cursor_y,
 860:GFX_Library.c ****            prev_color = textcolor,
 861:GFX_Library.c ****            prev_bg    = textbgcolor;
 862:GFX_Library.c ****   uint8_t  prev_size  = textsize;
 863:GFX_Library.c **** 
 864:GFX_Library.c ****   display_setCursor(x, y);
 865:GFX_Library.c ****   display_setTextSize(size);
 866:GFX_Library.c ****   display_setTextColor2(color, bg);
 867:GFX_Library.c ****   display_print(c);
 868:GFX_Library.c **** 
 869:GFX_Library.c ****   cursor_x    = prev_x;
 870:GFX_Library.c ****   cursor_y    = prev_y;
 871:GFX_Library.c ****   textcolor   = prev_color;
 872:GFX_Library.c ****   textbgcolor = prev_bg;
 873:GFX_Library.c ****   textsize    = prev_size;
 874:GFX_Library.c **** }
 875:GFX_Library.c **** 
 876:GFX_Library.c **** /**************************************************************************/
 877:GFX_Library.c **** /*!
ARM GAS  C:\Users\PC\AppData\Local\Temp\ccKVdNiW.s 			page 63


 878:GFX_Library.c ****     @brief  Set text cursor location
 879:GFX_Library.c ****     @param  x    X coordinate in pixels
 880:GFX_Library.c ****     @param  y    Y coordinate in pixels
 881:GFX_Library.c **** */
 882:GFX_Library.c **** /**************************************************************************/
 883:GFX_Library.c **** void display_setCursor(uint16_t x, uint16_t y) {
 2619              		.loc 1 883 0
 2620              		.cfi_startproc
 2621              		@ args = 0, pretend = 0, frame = 0
 2622              		@ frame_needed = 0, uses_anonymous_args = 0
 2623              		@ link register save eliminated.
 2624              	.LVL323:
 884:GFX_Library.c ****     cursor_x = x;
 2625              		.loc 1 884 0
 2626 0000 014B     		ldr	r3, .L110
 2627 0002 1880     		strh	r0, [r3]
 885:GFX_Library.c ****     cursor_y = y;
 2628              		.loc 1 885 0
 2629 0004 5980     		strh	r1, [r3, #2]
 886:GFX_Library.c **** }
 2630              		.loc 1 886 0
 2631              		@ sp needed
 2632 0006 7047     		bx	lr
 2633              	.L111:
 2634              		.align	2
 2635              	.L110:
 2636 0008 00000000 		.word	.LANCHOR0
 2637              		.cfi_endproc
 2638              	.LFE48:
 2639              		.size	display_setCursor, .-display_setCursor
 2640              		.section	.text.display_getCursorX,"ax",%progbits
 2641              		.align	2
 2642              		.global	display_getCursorX
 2643              		.code	16
 2644              		.thumb_func
 2645              		.type	display_getCursorX, %function
 2646              	display_getCursorX:
 2647              	.LFB49:
 887:GFX_Library.c **** 
 888:GFX_Library.c **** /**************************************************************************/
 889:GFX_Library.c **** /*!
 890:GFX_Library.c ****     @brief  Get text cursor X location
 891:GFX_Library.c ****     @returns    X coordinate in pixels
 892:GFX_Library.c **** */
 893:GFX_Library.c **** /**************************************************************************/
 894:GFX_Library.c **** uint16_t display_getCursorX(void) {
 2648              		.loc 1 894 0
 2649              		.cfi_startproc
 2650              		@ args = 0, pretend = 0, frame = 0
 2651              		@ frame_needed = 0, uses_anonymous_args = 0
 2652              		@ link register save eliminated.
 895:GFX_Library.c ****     return cursor_x;
 2653              		.loc 1 895 0
 2654 0000 014B     		ldr	r3, .L113
 2655 0002 1888     		ldrh	r0, [r3]
 896:GFX_Library.c **** }
 2656              		.loc 1 896 0
ARM GAS  C:\Users\PC\AppData\Local\Temp\ccKVdNiW.s 			page 64


 2657              		@ sp needed
 2658 0004 7047     		bx	lr
 2659              	.L114:
 2660 0006 C046     		.align	2
 2661              	.L113:
 2662 0008 00000000 		.word	.LANCHOR0
 2663              		.cfi_endproc
 2664              	.LFE49:
 2665              		.size	display_getCursorX, .-display_getCursorX
 2666              		.section	.text.display_getCursorY,"ax",%progbits
 2667              		.align	2
 2668              		.global	display_getCursorY
 2669              		.code	16
 2670              		.thumb_func
 2671              		.type	display_getCursorY, %function
 2672              	display_getCursorY:
 2673              	.LFB50:
 897:GFX_Library.c **** 
 898:GFX_Library.c **** /**************************************************************************/
 899:GFX_Library.c **** /*!
 900:GFX_Library.c ****     @brief      Get text cursor Y location
 901:GFX_Library.c ****     @returns    Y coordinate in pixels
 902:GFX_Library.c **** */
 903:GFX_Library.c **** /**************************************************************************/
 904:GFX_Library.c **** uint16_t display_getCursorY(void) {
 2674              		.loc 1 904 0
 2675              		.cfi_startproc
 2676              		@ args = 0, pretend = 0, frame = 0
 2677              		@ frame_needed = 0, uses_anonymous_args = 0
 2678              		@ link register save eliminated.
 905:GFX_Library.c ****     return cursor_y;
 2679              		.loc 1 905 0
 2680 0000 014B     		ldr	r3, .L116
 2681 0002 5888     		ldrh	r0, [r3, #2]
 906:GFX_Library.c **** }
 2682              		.loc 1 906 0
 2683              		@ sp needed
 2684 0004 7047     		bx	lr
 2685              	.L117:
 2686 0006 C046     		.align	2
 2687              	.L116:
 2688 0008 00000000 		.word	.LANCHOR0
 2689              		.cfi_endproc
 2690              	.LFE50:
 2691              		.size	display_getCursorY, .-display_getCursorY
 2692              		.section	.text.display_setTextSize,"ax",%progbits
 2693              		.align	2
 2694              		.global	display_setTextSize
 2695              		.code	16
 2696              		.thumb_func
 2697              		.type	display_setTextSize, %function
 2698              	display_setTextSize:
 2699              	.LFB51:
 907:GFX_Library.c **** 
 908:GFX_Library.c **** /**************************************************************************/
 909:GFX_Library.c **** /*!
 910:GFX_Library.c ****     @brief   Set text 'magnification' size. Each increase in s makes 1 pixel that much bigger.
ARM GAS  C:\Users\PC\AppData\Local\Temp\ccKVdNiW.s 			page 65


 911:GFX_Library.c ****     @param  s  Desired text size. 1 is default 6x8, 2 is 12x16, 3 is 18x24, etc
 912:GFX_Library.c **** */
 913:GFX_Library.c **** /**************************************************************************/
 914:GFX_Library.c **** void display_setTextSize(uint8_t s) {
 2700              		.loc 1 914 0
 2701              		.cfi_startproc
 2702              		@ args = 0, pretend = 0, frame = 0
 2703              		@ frame_needed = 0, uses_anonymous_args = 0
 2704              		@ link register save eliminated.
 2705              	.LVL324:
 915:GFX_Library.c ****     textsize = (s > 0) ? s : 1;
 2706              		.loc 1 915 0
 2707 0000 0028     		cmp	r0, #0
 2708 0002 00D1     		bne	.L119
 2709 0004 0130     		adds	r0, r0, #1
 2710              	.LVL325:
 2711              	.L119:
 2712              		.loc 1 915 0 is_stmt 0 discriminator 4
 2713 0006 014B     		ldr	r3, .L121
 2714 0008 5870     		strb	r0, [r3, #1]
 916:GFX_Library.c **** }
 2715              		.loc 1 916 0 is_stmt 1 discriminator 4
 2716              		@ sp needed
 2717 000a 7047     		bx	lr
 2718              	.L122:
 2719              		.align	2
 2720              	.L121:
 2721 000c 00000000 		.word	.LANCHOR1
 2722              		.cfi_endproc
 2723              	.LFE51:
 2724              		.size	display_setTextSize, .-display_setTextSize
 2725              		.section	.text.display_setTextColor2,"ax",%progbits
 2726              		.align	2
 2727              		.global	display_setTextColor2
 2728              		.code	16
 2729              		.thumb_func
 2730              		.type	display_setTextColor2, %function
 2731              	display_setTextColor2:
 2732              	.LFB52:
 917:GFX_Library.c **** 
 918:GFX_Library.c **** /**************************************************************************/
 919:GFX_Library.c **** /*!
 920:GFX_Library.c ****     @brief   Set text font color with custom background color
 921:GFX_Library.c ****     @param   c   16-bit 5-6-5 Color to draw text with
 922:GFX_Library.c ****     @param   b   16-bit 5-6-5 Color to draw background/fill with
 923:GFX_Library.c **** */
 924:GFX_Library.c **** /**************************************************************************/
 925:GFX_Library.c **** void display_setTextColor2(uint16_t c, uint16_t b) {
 2733              		.loc 1 925 0
 2734              		.cfi_startproc
 2735              		@ args = 0, pretend = 0, frame = 0
 2736              		@ frame_needed = 0, uses_anonymous_args = 0
 2737              		@ link register save eliminated.
 2738              	.LVL326:
 926:GFX_Library.c ****     textcolor   = c;
 2739              		.loc 1 926 0
 2740 0000 014B     		ldr	r3, .L124
ARM GAS  C:\Users\PC\AppData\Local\Temp\ccKVdNiW.s 			page 66


 2741 0002 5880     		strh	r0, [r3, #2]
 927:GFX_Library.c ****     textbgcolor = b;
 2742              		.loc 1 927 0
 2743 0004 9980     		strh	r1, [r3, #4]
 928:GFX_Library.c **** }
 2744              		.loc 1 928 0
 2745              		@ sp needed
 2746 0006 7047     		bx	lr
 2747              	.L125:
 2748              		.align	2
 2749              	.L124:
 2750 0008 00000000 		.word	.LANCHOR1
 2751              		.cfi_endproc
 2752              	.LFE52:
 2753              		.size	display_setTextColor2, .-display_setTextColor2
 2754              		.section	.text.display_drawChar,"ax",%progbits
 2755              		.align	2
 2756              		.global	display_drawChar
 2757              		.code	16
 2758              		.thumb_func
 2759              		.type	display_drawChar, %function
 2760              	display_drawChar:
 2761              	.LFB47:
 857:GFX_Library.c ****   uint16_t prev_x     = cursor_x,
 2762              		.loc 1 857 0
 2763              		.cfi_startproc
 2764              		@ args = 8, pretend = 0, frame = 16
 2765              		@ frame_needed = 0, uses_anonymous_args = 0
 2766              	.LVL327:
 2767 0000 F0B5     		push	{r4, r5, r6, r7, lr}
 2768              		.cfi_def_cfa_offset 20
 2769              		.cfi_offset 4, -20
 2770              		.cfi_offset 5, -16
 2771              		.cfi_offset 6, -12
 2772              		.cfi_offset 7, -8
 2773              		.cfi_offset 14, -4
 2774 0002 5F46     		mov	r7, fp
 2775 0004 5646     		mov	r6, r10
 2776 0006 4D46     		mov	r5, r9
 2777 0008 4446     		mov	r4, r8
 2778 000a F0B4     		push	{r4, r5, r6, r7}
 2779              		.cfi_def_cfa_offset 36
 2780              		.cfi_offset 8, -36
 2781              		.cfi_offset 9, -32
 2782              		.cfi_offset 10, -28
 2783              		.cfi_offset 11, -24
 2784 000c 85B0     		sub	sp, sp, #20
 2785              		.cfi_def_cfa_offset 56
 2786 000e 0192     		str	r2, [sp, #4]
 2787 0010 0293     		str	r3, [sp, #8]
 2788 0012 0EAB     		add	r3, sp, #56
 2789              	.LVL328:
 2790 0014 1C88     		ldrh	r4, [r3]
 2791 0016 0394     		str	r4, [sp, #12]
 2792 0018 0FAB     		add	r3, sp, #60
 2793              	.LVL329:
 2794 001a 1D78     		ldrb	r5, [r3]
ARM GAS  C:\Users\PC\AppData\Local\Temp\ccKVdNiW.s 			page 67


 2795 001c AB46     		mov	fp, r5
 858:GFX_Library.c ****            prev_y     = cursor_y,
 2796              		.loc 1 858 0
 2797 001e 134D     		ldr	r5, .L127
 2798 0020 0027     		movs	r7, #0
 2799 0022 EE5F     		ldrsh	r6, [r5, r7]
 2800 0024 B246     		mov	r10, r6
 2801              	.LVL330:
 859:GFX_Library.c ****            prev_color = textcolor,
 2802              		.loc 1 859 0
 2803 0026 0227     		movs	r7, #2
 2804 0028 EE5F     		ldrsh	r6, [r5, r7]
 2805 002a B146     		mov	r9, r6
 2806              	.LVL331:
 860:GFX_Library.c ****            prev_bg    = textbgcolor;
 2807              		.loc 1 860 0
 2808 002c 104C     		ldr	r4, .L127+4
 2809 002e 6688     		ldrh	r6, [r4, #2]
 2810 0030 B046     		mov	r8, r6
 2811              	.LVL332:
 861:GFX_Library.c ****   uint8_t  prev_size  = textsize;
 2812              		.loc 1 861 0
 2813 0032 A788     		ldrh	r7, [r4, #4]
 2814              	.LVL333:
 862:GFX_Library.c **** 
 2815              		.loc 1 862 0
 2816 0034 6678     		ldrb	r6, [r4, #1]
 2817              	.LVL334:
 864:GFX_Library.c ****   display_setTextSize(size);
 2818              		.loc 1 864 0
 2819 0036 FFF7FEFF 		bl	display_setCursor
 2820              	.LVL335:
 865:GFX_Library.c ****   display_setTextColor2(color, bg);
 2821              		.loc 1 865 0
 2822 003a 5846     		mov	r0, fp
 2823 003c FFF7FEFF 		bl	display_setTextSize
 2824              	.LVL336:
 866:GFX_Library.c ****   display_print(c);
 2825              		.loc 1 866 0
 2826 0040 0399     		ldr	r1, [sp, #12]
 2827 0042 0298     		ldr	r0, [sp, #8]
 2828 0044 FFF7FEFF 		bl	display_setTextColor2
 2829              	.LVL337:
 867:GFX_Library.c **** 
 2830              		.loc 1 867 0
 2831 0048 0198     		ldr	r0, [sp, #4]
 2832 004a FFF7FEFF 		bl	display_print
 2833              	.LVL338:
 869:GFX_Library.c ****   cursor_y    = prev_y;
 2834              		.loc 1 869 0
 2835 004e 5346     		mov	r3, r10
 2836 0050 2B80     		strh	r3, [r5]
 870:GFX_Library.c ****   textcolor   = prev_color;
 2837              		.loc 1 870 0
 2838 0052 4B46     		mov	r3, r9
 2839 0054 6B80     		strh	r3, [r5, #2]
 871:GFX_Library.c ****   textbgcolor = prev_bg;
ARM GAS  C:\Users\PC\AppData\Local\Temp\ccKVdNiW.s 			page 68


 2840              		.loc 1 871 0
 2841 0056 4346     		mov	r3, r8
 2842 0058 6380     		strh	r3, [r4, #2]
 872:GFX_Library.c ****   textsize    = prev_size;
 2843              		.loc 1 872 0
 2844 005a A780     		strh	r7, [r4, #4]
 873:GFX_Library.c **** }
 2845              		.loc 1 873 0
 2846 005c 6670     		strb	r6, [r4, #1]
 874:GFX_Library.c **** 
 2847              		.loc 1 874 0
 2848 005e 05B0     		add	sp, sp, #20
 2849              		@ sp needed
 2850              	.LVL339:
 2851              	.LVL340:
 2852              	.LVL341:
 2853              	.LVL342:
 2854              	.LVL343:
 2855 0060 3CBC     		pop	{r2, r3, r4, r5}
 2856 0062 9046     		mov	r8, r2
 2857 0064 9946     		mov	r9, r3
 2858 0066 A246     		mov	r10, r4
 2859 0068 AB46     		mov	fp, r5
 2860 006a F0BD     		pop	{r4, r5, r6, r7, pc}
 2861              	.L128:
 2862              		.align	2
 2863              	.L127:
 2864 006c 00000000 		.word	.LANCHOR0
 2865 0070 00000000 		.word	.LANCHOR1
 2866              		.cfi_endproc
 2867              	.LFE47:
 2868              		.size	display_drawChar, .-display_drawChar
 2869              		.section	.text.display_setTextColor,"ax",%progbits
 2870              		.align	2
 2871              		.global	display_setTextColor
 2872              		.code	16
 2873              		.thumb_func
 2874              		.type	display_setTextColor, %function
 2875              	display_setTextColor:
 2876              	.LFB53:
 929:GFX_Library.c **** 
 930:GFX_Library.c **** /**************************************************************************/
 931:GFX_Library.c **** /*!
 932:GFX_Library.c ****     @brief   Set text font color with transparant background
 933:GFX_Library.c ****     @param   c   16-bit 5-6-5 Color to draw text with
 934:GFX_Library.c **** */
 935:GFX_Library.c **** /**************************************************************************/
 936:GFX_Library.c **** void display_setTextColor(uint16_t c) {
 2877              		.loc 1 936 0
 2878              		.cfi_startproc
 2879              		@ args = 0, pretend = 0, frame = 0
 2880              		@ frame_needed = 0, uses_anonymous_args = 0
 2881              		@ link register save eliminated.
 2882              	.LVL344:
 937:GFX_Library.c ****   textcolor = textbgcolor = c;
 2883              		.loc 1 937 0
 2884 0000 014B     		ldr	r3, .L130
ARM GAS  C:\Users\PC\AppData\Local\Temp\ccKVdNiW.s 			page 69


 2885 0002 9880     		strh	r0, [r3, #4]
 2886 0004 5880     		strh	r0, [r3, #2]
 938:GFX_Library.c **** }
 2887              		.loc 1 938 0
 2888              		@ sp needed
 2889 0006 7047     		bx	lr
 2890              	.L131:
 2891              		.align	2
 2892              	.L130:
 2893 0008 00000000 		.word	.LANCHOR1
 2894              		.cfi_endproc
 2895              	.LFE53:
 2896              		.size	display_setTextColor, .-display_setTextColor
 2897              		.section	.text.display_setTextWrap,"ax",%progbits
 2898              		.align	2
 2899              		.global	display_setTextWrap
 2900              		.code	16
 2901              		.thumb_func
 2902              		.type	display_setTextWrap, %function
 2903              	display_setTextWrap:
 2904              	.LFB54:
 939:GFX_Library.c **** 
 940:GFX_Library.c **** /**************************************************************************/
 941:GFX_Library.c **** /*!
 942:GFX_Library.c ****     @brief      Whether text that is too long should 'wrap' around to the next line.
 943:GFX_Library.c ****     @param  w Set true for wrapping, false for clipping
 944:GFX_Library.c **** */
 945:GFX_Library.c **** /**************************************************************************/
 946:GFX_Library.c **** void display_setTextWrap(bool w) {
 2905              		.loc 1 946 0
 2906              		.cfi_startproc
 2907              		@ args = 0, pretend = 0, frame = 0
 2908              		@ frame_needed = 0, uses_anonymous_args = 0
 2909              		@ link register save eliminated.
 2910              	.LVL345:
 947:GFX_Library.c ****     wrap = w;
 2911              		.loc 1 947 0
 2912 0000 014B     		ldr	r3, .L133
 2913 0002 1870     		strb	r0, [r3]
 948:GFX_Library.c **** }
 2914              		.loc 1 948 0
 2915              		@ sp needed
 2916 0004 7047     		bx	lr
 2917              	.L134:
 2918 0006 C046     		.align	2
 2919              	.L133:
 2920 0008 00000000 		.word	.LANCHOR1
 2921              		.cfi_endproc
 2922              	.LFE54:
 2923              		.size	display_setTextWrap, .-display_setTextWrap
 2924              		.section	.text.display_getRotation,"ax",%progbits
 2925              		.align	2
 2926              		.global	display_getRotation
 2927              		.code	16
 2928              		.thumb_func
 2929              		.type	display_getRotation, %function
 2930              	display_getRotation:
ARM GAS  C:\Users\PC\AppData\Local\Temp\ccKVdNiW.s 			page 70


 2931              	.LFB55:
 949:GFX_Library.c **** 
 950:GFX_Library.c **** /**************************************************************************/
 951:GFX_Library.c **** /*!
 952:GFX_Library.c ****     @brief      Get rotation setting for display
 953:GFX_Library.c ****     @returns    0 thru 3 corresponding to 4 cardinal rotations
 954:GFX_Library.c **** */
 955:GFX_Library.c **** /**************************************************************************/
 956:GFX_Library.c **** uint8_t display_getRotation(void) {
 2932              		.loc 1 956 0
 2933              		.cfi_startproc
 2934              		@ args = 0, pretend = 0, frame = 0
 2935              		@ frame_needed = 0, uses_anonymous_args = 0
 2936              		@ link register save eliminated.
 957:GFX_Library.c ****     return rotation;
 2937              		.loc 1 957 0
 2938 0000 014B     		ldr	r3, .L136
 2939 0002 1878     		ldrb	r0, [r3]
 958:GFX_Library.c **** }
 2940              		.loc 1 958 0
 2941              		@ sp needed
 2942 0004 7047     		bx	lr
 2943              	.L137:
 2944 0006 C046     		.align	2
 2945              	.L136:
 2946 0008 00000000 		.word	rotation
 2947              		.cfi_endproc
 2948              	.LFE55:
 2949              		.size	display_getRotation, .-display_getRotation
 2950              		.section	.text.display_getWidth,"ax",%progbits
 2951              		.align	2
 2952              		.global	display_getWidth
 2953              		.code	16
 2954              		.thumb_func
 2955              		.type	display_getWidth, %function
 2956              	display_getWidth:
 2957              	.LFB56:
 959:GFX_Library.c **** 
 960:GFX_Library.c **** /**************************************************************************/
 961:GFX_Library.c **** /*!
 962:GFX_Library.c ****     @brief      Get width of the display, accounting for the current rotation
 963:GFX_Library.c ****     @returns    Width in pixels
 964:GFX_Library.c **** */
 965:GFX_Library.c **** /**************************************************************************/
 966:GFX_Library.c **** uint16_t display_getWidth(void) {
 2958              		.loc 1 966 0
 2959              		.cfi_startproc
 2960              		@ args = 0, pretend = 0, frame = 0
 2961              		@ frame_needed = 0, uses_anonymous_args = 0
 2962              		@ link register save eliminated.
 967:GFX_Library.c ****     return display_width;
 2963              		.loc 1 967 0
 2964 0000 014B     		ldr	r3, .L139
 2965 0002 1878     		ldrb	r0, [r3]
 968:GFX_Library.c **** }
 2966              		.loc 1 968 0
 2967              		@ sp needed
ARM GAS  C:\Users\PC\AppData\Local\Temp\ccKVdNiW.s 			page 71


 2968 0004 7047     		bx	lr
 2969              	.L140:
 2970 0006 C046     		.align	2
 2971              	.L139:
 2972 0008 00000000 		.word	_width
 2973              		.cfi_endproc
 2974              	.LFE56:
 2975              		.size	display_getWidth, .-display_getWidth
 2976              		.section	.text.display_getHeight,"ax",%progbits
 2977              		.align	2
 2978              		.global	display_getHeight
 2979              		.code	16
 2980              		.thumb_func
 2981              		.type	display_getHeight, %function
 2982              	display_getHeight:
 2983              	.LFB57:
 969:GFX_Library.c **** 
 970:GFX_Library.c **** /**************************************************************************/
 971:GFX_Library.c **** /*!
 972:GFX_Library.c ****     @brief      Get height of the display, accounting for the current rotation
 973:GFX_Library.c ****     @returns    Height in pixels
 974:GFX_Library.c **** */
 975:GFX_Library.c **** /**************************************************************************/
 976:GFX_Library.c **** uint16_t display_getHeight(void) {
 2984              		.loc 1 976 0
 2985              		.cfi_startproc
 2986              		@ args = 0, pretend = 0, frame = 0
 2987              		@ frame_needed = 0, uses_anonymous_args = 0
 2988              		@ link register save eliminated.
 977:GFX_Library.c ****     return display_height;
 2989              		.loc 1 977 0
 2990 0000 014B     		ldr	r3, .L142
 2991 0002 1878     		ldrb	r0, [r3]
 978:GFX_Library.c **** }
 2992              		.loc 1 978 0
 2993              		@ sp needed
 2994 0004 7047     		bx	lr
 2995              	.L143:
 2996 0006 C046     		.align	2
 2997              	.L142:
 2998 0008 00000000 		.word	_height
 2999              		.cfi_endproc
 3000              	.LFE57:
 3001              		.size	display_getHeight, .-display_getHeight
 3002              		.section	.text.display_color565,"ax",%progbits
 3003              		.align	2
 3004              		.global	display_color565
 3005              		.code	16
 3006              		.thumb_func
 3007              		.type	display_color565, %function
 3008              	display_color565:
 3009              	.LFB58:
 979:GFX_Library.c **** 
 980:GFX_Library.c **** /**************************************************************************/
 981:GFX_Library.c **** /*!
 982:GFX_Library.c ****     @brief   Given 8-bit red, green and blue values, return a 'packed'
 983:GFX_Library.c ****              16-bit color value in '565' RGB format (5 bits red, 6 bits
ARM GAS  C:\Users\PC\AppData\Local\Temp\ccKVdNiW.s 			page 72


 984:GFX_Library.c ****              green, 5 bits blue). This is just a mathematical operation,
 985:GFX_Library.c ****              no hardware is touched.
 986:GFX_Library.c ****     @param   red    8-bit red brightnesss (0 = off, 255 = max).
 987:GFX_Library.c ****     @param   green  8-bit green brightnesss (0 = off, 255 = max).
 988:GFX_Library.c ****     @param   blue   8-bit blue brightnesss (0 = off, 255 = max).
 989:GFX_Library.c ****     @return  'Packed' 16-bit color value (565 format).
 990:GFX_Library.c **** */
 991:GFX_Library.c **** /**************************************************************************/
 992:GFX_Library.c **** uint16_t display_color565(uint8_t red, uint8_t green, uint8_t blue) {
 3010              		.loc 1 992 0
 3011              		.cfi_startproc
 3012              		@ args = 0, pretend = 0, frame = 0
 3013              		@ frame_needed = 0, uses_anonymous_args = 0
 3014              		@ link register save eliminated.
 3015              	.LVL346:
 993:GFX_Library.c ****     return ((uint16_t)(red & 0xF8) << 8) | ((uint16_t)(green & 0xFC) << 3) | (blue >> 3);
 3016              		.loc 1 993 0
 3017 0000 C900     		lsls	r1, r1, #3
 3018              	.LVL347:
 3019 0002 C008     		lsrs	r0, r0, #3
 3020              	.LVL348:
 3021 0004 C002     		lsls	r0, r0, #11
 3022 0006 FC23     		movs	r3, #252
 3023 0008 DB00     		lsls	r3, r3, #3
 3024 000a 1940     		ands	r1, r3
 3025 000c 0143     		orrs	r1, r0
 3026 000e D008     		lsrs	r0, r2, #3
 3027 0010 0843     		orrs	r0, r1
 994:GFX_Library.c **** }
 3028              		.loc 1 994 0
 3029              		@ sp needed
 3030 0012 7047     		bx	lr
 3031              		.cfi_endproc
 3032              	.LFE58:
 3033              		.size	display_color565, .-display_color565
 3034              		.section	.text.display_drawBitmapV1,"ax",%progbits
 3035              		.align	2
 3036              		.global	display_drawBitmapV1
 3037              		.code	16
 3038              		.thumb_func
 3039              		.type	display_drawBitmapV1, %function
 3040              	display_drawBitmapV1:
 3041              	.LFB59:
 995:GFX_Library.c **** 
 996:GFX_Library.c **** /**************************************************************************/
 997:GFX_Library.c **** /*!
 998:GFX_Library.c ****    @brief     Draw a ROM-resident 1-bit image at the specified (x,y) position,
 999:GFX_Library.c ****               using the specified foreground color (unset bits are transparent).
1000:GFX_Library.c ****     @param    x   Top left corner x coordinate
1001:GFX_Library.c ****     @param    y   Top left corner y coordinate
1002:GFX_Library.c ****     @param    bitmap  byte array with monochrome bitmap
1003:GFX_Library.c ****     @param    w   Width of bitmap in pixels
1004:GFX_Library.c ****     @param    h   Hieght of bitmap in pixels
1005:GFX_Library.c ****     @param    color 16-bit 5-6-5 Color to draw with
1006:GFX_Library.c **** */
1007:GFX_Library.c **** /**************************************************************************/
1008:GFX_Library.c **** void display_drawBitmapV1(uint16_t x, uint16_t y, const uint8_t *bitmap, uint16_t w, uint16_t h,
ARM GAS  C:\Users\PC\AppData\Local\Temp\ccKVdNiW.s 			page 73


1009:GFX_Library.c ****      uint16_t color) {
 3042              		.loc 1 1009 0
 3043              		.cfi_startproc
 3044              		@ args = 8, pretend = 0, frame = 8
 3045              		@ frame_needed = 0, uses_anonymous_args = 0
 3046              	.LVL349:
 3047 0000 F0B5     		push	{r4, r5, r6, r7, lr}
 3048              		.cfi_def_cfa_offset 20
 3049              		.cfi_offset 4, -20
 3050              		.cfi_offset 5, -16
 3051              		.cfi_offset 6, -12
 3052              		.cfi_offset 7, -8
 3053              		.cfi_offset 14, -4
 3054 0002 5746     		mov	r7, r10
 3055 0004 4E46     		mov	r6, r9
 3056 0006 4546     		mov	r5, r8
 3057 0008 E0B4     		push	{r5, r6, r7}
 3058              		.cfi_def_cfa_offset 32
 3059              		.cfi_offset 8, -32
 3060              		.cfi_offset 9, -28
 3061              		.cfi_offset 10, -24
 3062 000a 82B0     		sub	sp, sp, #8
 3063              		.cfi_def_cfa_offset 40
 3064 000c 8246     		mov	r10, r0
 3065 000e 8946     		mov	r9, r1
 3066 0010 1700     		movs	r7, r2
 3067 0012 1D00     		movs	r5, r3
 3068 0014 0AAB     		add	r3, sp, #40
 3069              	.LVL350:
 3070 0016 1B88     		ldrh	r3, [r3]
 3071              	.LVL351:
 3072 0018 9846     		mov	r8, r3
 3073 001a 0BAB     		add	r3, sp, #44
 3074              	.LVL352:
 3075 001c 1B88     		ldrh	r3, [r3]
 3076              	.LVL353:
 3077 001e 0193     		str	r3, [sp, #4]
 3078              	.LVL354:
 3079              	.LBB21:
1010:GFX_Library.c ****   for( uint16_t i = 0; i < h/8; i++)
 3080              		.loc 1 1010 0
 3081 0020 0026     		movs	r6, #0
 3082 0022 1EE0     		b	.L146
 3083              	.LVL355:
 3084              	.L148:
 3085              	.LBB22:
1011:GFX_Library.c ****   {    
1012:GFX_Library.c ****     for( uint16_t j = 0; j < w * 8; j++)
1013:GFX_Library.c ****     {      
1014:GFX_Library.c ****       if( bitmap[j/8 + i*w] & (1 << (j % 8)) )
 3086              		.loc 1 1014 0
 3087 0024 E008     		lsrs	r0, r4, #3
 3088 0026 2B00     		movs	r3, r5
 3089 0028 7343     		muls	r3, r6
 3090 002a C318     		adds	r3, r0, r3
 3091 002c FB5C     		ldrb	r3, [r7, r3]
 3092 002e 0722     		movs	r2, #7
ARM GAS  C:\Users\PC\AppData\Local\Temp\ccKVdNiW.s 			page 74


 3093 0030 2240     		ands	r2, r4
 3094 0032 1341     		asrs	r3, r3, r2
 3095 0034 DB07     		lsls	r3, r3, #31
 3096 0036 0BD5     		bpl	.L147
1015:GFX_Library.c ****         display_drawPixel(x + j/8, y + i*8 + (j % 8), color);
 3097              		.loc 1 1015 0
 3098 0038 6B46     		mov	r3, sp
 3099 003a 1A79     		ldrb	r2, [r3, #4]
 3100 003c F100     		lsls	r1, r6, #3
 3101 003e 4944     		add	r1, r1, r9
 3102 0040 0723     		movs	r3, #7
 3103 0042 2340     		ands	r3, r4
 3104 0044 C918     		adds	r1, r1, r3
 3105 0046 C9B2     		uxtb	r1, r1
 3106 0048 5044     		add	r0, r0, r10
 3107 004a C0B2     		uxtb	r0, r0
 3108 004c FFF7FEFF 		bl	drawPixel
 3109              	.LVL356:
 3110              	.L147:
1012:GFX_Library.c ****     {      
 3111              		.loc 1 1012 0 discriminator 2
 3112 0050 0134     		adds	r4, r4, #1
 3113              	.LVL357:
 3114 0052 A4B2     		uxth	r4, r4
 3115              	.LVL358:
 3116 0054 00E0     		b	.L149
 3117              	.LVL359:
 3118              	.L150:
 3119              	.LBE22:
 3120 0056 0024     		movs	r4, #0
 3121              	.L149:
 3122              	.LVL360:
 3123              	.LBB23:
1012:GFX_Library.c ****     {      
 3124              		.loc 1 1012 0 is_stmt 0 discriminator 1
 3125 0058 EB00     		lsls	r3, r5, #3
 3126 005a 9C42     		cmp	r4, r3
 3127 005c E2DB     		blt	.L148
 3128              	.LBE23:
1010:GFX_Library.c ****   {    
 3129              		.loc 1 1010 0 is_stmt 1 discriminator 2
 3130 005e 0136     		adds	r6, r6, #1
 3131              	.LVL361:
 3132 0060 B6B2     		uxth	r6, r6
 3133              	.LVL362:
 3134              	.L146:
1010:GFX_Library.c ****   {    
 3135              		.loc 1 1010 0 is_stmt 0 discriminator 1
 3136 0062 4346     		mov	r3, r8
 3137 0064 DB08     		lsrs	r3, r3, #3
 3138 0066 9E42     		cmp	r6, r3
 3139 0068 F5D3     		bcc	.L150
 3140              	.LBE21:
1016:GFX_Library.c ****     }
1017:GFX_Library.c ****   }
1018:GFX_Library.c **** }
 3141              		.loc 1 1018 0 is_stmt 1
ARM GAS  C:\Users\PC\AppData\Local\Temp\ccKVdNiW.s 			page 75


 3142 006a 02B0     		add	sp, sp, #8
 3143              		@ sp needed
 3144              	.LVL363:
 3145              	.LVL364:
 3146 006c 1CBC     		pop	{r2, r3, r4}
 3147 006e 9046     		mov	r8, r2
 3148 0070 9946     		mov	r9, r3
 3149 0072 A246     		mov	r10, r4
 3150 0074 F0BD     		pop	{r4, r5, r6, r7, pc}
 3151              		.cfi_endproc
 3152              	.LFE59:
 3153              		.size	display_drawBitmapV1, .-display_drawBitmapV1
 3154 0076 C046     		.section	.text.display_drawBitmapV1_bg,"ax",%progbits
 3155              		.align	2
 3156              		.global	display_drawBitmapV1_bg
 3157              		.code	16
 3158              		.thumb_func
 3159              		.type	display_drawBitmapV1_bg, %function
 3160              	display_drawBitmapV1_bg:
 3161              	.LFB60:
1019:GFX_Library.c **** 
1020:GFX_Library.c **** /**************************************************************************/
1021:GFX_Library.c **** /*!
1022:GFX_Library.c ****    @brief     Draw a ROM-resident 1-bit image at the specified (x,y) position,
1023:GFX_Library.c ****               using the specified foreground (for set bits) and background (unset bits) colors.
1024:GFX_Library.c ****     @param    x   Top left corner x coordinate
1025:GFX_Library.c ****     @param    y   Top left corner y coordinate
1026:GFX_Library.c ****     @param    bitmap  byte array with monochrome bitmap
1027:GFX_Library.c ****     @param    w   Width of bitmap in pixels
1028:GFX_Library.c ****     @param    h   Hieght of bitmap in pixels
1029:GFX_Library.c ****     @param    color 16-bit 5-6-5 Color to draw pixels with
1030:GFX_Library.c ****     @param    bg 16-bit 5-6-5 Color to draw background with
1031:GFX_Library.c **** */
1032:GFX_Library.c **** /**************************************************************************/
1033:GFX_Library.c **** void display_drawBitmapV1_bg(uint16_t x, uint16_t y, const uint8_t *bitmap, uint16_t w, uint16_t h,
1034:GFX_Library.c ****      uint16_t color, uint16_t bg) {
 3162              		.loc 1 1034 0
 3163              		.cfi_startproc
 3164              		@ args = 12, pretend = 0, frame = 8
 3165              		@ frame_needed = 0, uses_anonymous_args = 0
 3166              	.LVL365:
 3167 0000 F0B5     		push	{r4, r5, r6, r7, lr}
 3168              		.cfi_def_cfa_offset 20
 3169              		.cfi_offset 4, -20
 3170              		.cfi_offset 5, -16
 3171              		.cfi_offset 6, -12
 3172              		.cfi_offset 7, -8
 3173              		.cfi_offset 14, -4
 3174 0002 5F46     		mov	r7, fp
 3175 0004 5646     		mov	r6, r10
 3176 0006 4D46     		mov	r5, r9
 3177 0008 E0B4     		push	{r5, r6, r7}
 3178              		.cfi_def_cfa_offset 32
 3179              		.cfi_offset 9, -32
 3180              		.cfi_offset 10, -28
 3181              		.cfi_offset 11, -24
 3182 000a 82B0     		sub	sp, sp, #8
ARM GAS  C:\Users\PC\AppData\Local\Temp\ccKVdNiW.s 			page 76


 3183              		.cfi_def_cfa_offset 40
 3184 000c 8246     		mov	r10, r0
 3185 000e 8946     		mov	r9, r1
 3186 0010 1700     		movs	r7, r2
 3187 0012 1E00     		movs	r6, r3
 3188 0014 0AAB     		add	r3, sp, #40
 3189              	.LVL366:
 3190 0016 1B88     		ldrh	r3, [r3]
 3191              	.LVL367:
 3192 0018 9B46     		mov	fp, r3
 3193 001a 0BAB     		add	r3, sp, #44
 3194              	.LVL368:
 3195 001c 1B88     		ldrh	r3, [r3]
 3196              	.LVL369:
 3197 001e 0093     		str	r3, [sp]
 3198 0020 0CAB     		add	r3, sp, #48
 3199              	.LVL370:
 3200 0022 1B88     		ldrh	r3, [r3]
 3201              	.LVL371:
 3202 0024 0193     		str	r3, [sp, #4]
 3203              	.LVL372:
 3204              	.LBB24:
1035:GFX_Library.c ****   for( uint16_t i = 0; i < h/8; i++)
 3205              		.loc 1 1035 0
 3206 0026 0025     		movs	r5, #0
 3207 0028 2BE0     		b	.L152
 3208              	.LVL373:
 3209              	.L155:
 3210              	.LBB25:
1036:GFX_Library.c ****   {    
1037:GFX_Library.c ****     for( uint16_t j = 0; j < w * 8; j++)
1038:GFX_Library.c ****     {      
1039:GFX_Library.c ****       if( bitmap[j/8 + i*w] & (1 << (j % 8)) )
 3211              		.loc 1 1039 0
 3212 002a E008     		lsrs	r0, r4, #3
 3213 002c 3300     		movs	r3, r6
 3214 002e 6B43     		muls	r3, r5
 3215 0030 C318     		adds	r3, r0, r3
 3216 0032 FB5C     		ldrb	r3, [r7, r3]
 3217 0034 0722     		movs	r2, #7
 3218 0036 2240     		ands	r2, r4
 3219 0038 1341     		asrs	r3, r3, r2
 3220 003a DB07     		lsls	r3, r3, #31
 3221 003c 0CD5     		bpl	.L153
1040:GFX_Library.c ****         display_drawPixel(x + j/8, y + i*8 + (j % 8), color);
 3222              		.loc 1 1040 0
 3223 003e 6B46     		mov	r3, sp
 3224 0040 1A78     		ldrb	r2, [r3]
 3225 0042 E900     		lsls	r1, r5, #3
 3226 0044 4944     		add	r1, r1, r9
 3227 0046 0723     		movs	r3, #7
 3228 0048 2340     		ands	r3, r4
 3229 004a C918     		adds	r1, r1, r3
 3230 004c C9B2     		uxtb	r1, r1
 3231 004e 5044     		add	r0, r0, r10
 3232 0050 C0B2     		uxtb	r0, r0
 3233 0052 FFF7FEFF 		bl	drawPixel
ARM GAS  C:\Users\PC\AppData\Local\Temp\ccKVdNiW.s 			page 77


 3234              	.LVL374:
 3235 0056 0BE0     		b	.L154
 3236              	.L153:
1041:GFX_Library.c ****       else
1042:GFX_Library.c ****         display_drawPixel(x + j/8, y + i*8 + (j % 8), bg);
 3237              		.loc 1 1042 0
 3238 0058 6B46     		mov	r3, sp
 3239 005a 1A79     		ldrb	r2, [r3, #4]
 3240 005c E900     		lsls	r1, r5, #3
 3241 005e 4944     		add	r1, r1, r9
 3242 0060 0723     		movs	r3, #7
 3243 0062 2340     		ands	r3, r4
 3244 0064 C918     		adds	r1, r1, r3
 3245 0066 C9B2     		uxtb	r1, r1
 3246 0068 5044     		add	r0, r0, r10
 3247 006a C0B2     		uxtb	r0, r0
 3248 006c FFF7FEFF 		bl	drawPixel
 3249              	.LVL375:
 3250              	.L154:
1037:GFX_Library.c ****     {      
 3251              		.loc 1 1037 0 discriminator 2
 3252 0070 0134     		adds	r4, r4, #1
 3253              	.LVL376:
 3254 0072 A4B2     		uxth	r4, r4
 3255              	.LVL377:
 3256 0074 00E0     		b	.L156
 3257              	.LVL378:
 3258              	.L157:
 3259              	.LBE25:
 3260 0076 0024     		movs	r4, #0
 3261              	.L156:
 3262              	.LVL379:
 3263              	.LBB26:
1037:GFX_Library.c ****     {      
 3264              		.loc 1 1037 0 is_stmt 0 discriminator 1
 3265 0078 F300     		lsls	r3, r6, #3
 3266 007a 9C42     		cmp	r4, r3
 3267 007c D5DB     		blt	.L155
 3268              	.LBE26:
1035:GFX_Library.c ****   {    
 3269              		.loc 1 1035 0 is_stmt 1 discriminator 2
 3270 007e 0135     		adds	r5, r5, #1
 3271              	.LVL380:
 3272 0080 ADB2     		uxth	r5, r5
 3273              	.LVL381:
 3274              	.L152:
1035:GFX_Library.c ****   {    
 3275              		.loc 1 1035 0 is_stmt 0 discriminator 1
 3276 0082 5B46     		mov	r3, fp
 3277 0084 DB08     		lsrs	r3, r3, #3
 3278 0086 9D42     		cmp	r5, r3
 3279 0088 F5D3     		bcc	.L157
 3280              	.LBE24:
1043:GFX_Library.c ****     }
1044:GFX_Library.c ****   }
1045:GFX_Library.c **** }
 3281              		.loc 1 1045 0 is_stmt 1
ARM GAS  C:\Users\PC\AppData\Local\Temp\ccKVdNiW.s 			page 78


 3282 008a 02B0     		add	sp, sp, #8
 3283              		@ sp needed
 3284              	.LVL382:
 3285              	.LVL383:
 3286 008c 1CBC     		pop	{r2, r3, r4}
 3287 008e 9146     		mov	r9, r2
 3288 0090 9A46     		mov	r10, r3
 3289 0092 A346     		mov	fp, r4
 3290 0094 F0BD     		pop	{r4, r5, r6, r7, pc}
 3291              		.cfi_endproc
 3292              	.LFE60:
 3293              		.size	display_drawBitmapV1_bg, .-display_drawBitmapV1_bg
 3294 0096 C046     		.section	.text.display_drawBitmapV2,"ax",%progbits
 3295              		.align	2
 3296              		.global	display_drawBitmapV2
 3297              		.code	16
 3298              		.thumb_func
 3299              		.type	display_drawBitmapV2, %function
 3300              	display_drawBitmapV2:
 3301              	.LFB61:
1046:GFX_Library.c **** 
1047:GFX_Library.c **** /**************************************************************************/
1048:GFX_Library.c **** /*!
1049:GFX_Library.c ****    @brief     Draw a ROM-resident 1-bit image at the specified (x,y) position,
1050:GFX_Library.c ****               using the specified foreground color (unset bits are transparent).
1051:GFX_Library.c ****     @param    x   Top left corner x coordinate
1052:GFX_Library.c ****     @param    y   Top left corner y coordinate
1053:GFX_Library.c ****     @param    bitmap  byte array with monochrome bitmap
1054:GFX_Library.c ****     @param    w   Width of bitmap in pixels
1055:GFX_Library.c ****     @param    h   Hieght of bitmap in pixels
1056:GFX_Library.c ****     @param    color 16-bit 5-6-5 Color to draw pixels with
1057:GFX_Library.c **** */
1058:GFX_Library.c **** /**************************************************************************/
1059:GFX_Library.c **** void display_drawBitmapV2(uint16_t x, uint16_t y, const uint8_t *bitmap, uint16_t w, uint16_t h,
1060:GFX_Library.c ****   uint16_t color) {
 3302              		.loc 1 1060 0
 3303              		.cfi_startproc
 3304              		@ args = 8, pretend = 0, frame = 16
 3305              		@ frame_needed = 0, uses_anonymous_args = 0
 3306              	.LVL384:
 3307 0000 F0B5     		push	{r4, r5, r6, r7, lr}
 3308              		.cfi_def_cfa_offset 20
 3309              		.cfi_offset 4, -20
 3310              		.cfi_offset 5, -16
 3311              		.cfi_offset 6, -12
 3312              		.cfi_offset 7, -8
 3313              		.cfi_offset 14, -4
 3314 0002 5F46     		mov	r7, fp
 3315 0004 5646     		mov	r6, r10
 3316 0006 4D46     		mov	r5, r9
 3317 0008 4446     		mov	r4, r8
 3318 000a F0B4     		push	{r4, r5, r6, r7}
 3319              		.cfi_def_cfa_offset 36
 3320              		.cfi_offset 8, -36
 3321              		.cfi_offset 9, -32
 3322              		.cfi_offset 10, -28
 3323              		.cfi_offset 11, -24
ARM GAS  C:\Users\PC\AppData\Local\Temp\ccKVdNiW.s 			page 79


 3324 000c 85B0     		sub	sp, sp, #20
 3325              		.cfi_def_cfa_offset 56
 3326 000e 8246     		mov	r10, r0
 3327 0010 0191     		str	r1, [sp, #4]
 3328 0012 9346     		mov	fp, r2
 3329 0014 0EAA     		add	r2, sp, #56
 3330              	.LVL385:
 3331 0016 1288     		ldrh	r2, [r2]
 3332              	.LVL386:
 3333 0018 0392     		str	r2, [sp, #12]
 3334 001a 0FAA     		add	r2, sp, #60
 3335              	.LVL387:
 3336 001c 1288     		ldrh	r2, [r2]
 3337              	.LVL388:
 3338 001e 0292     		str	r2, [sp, #8]
1061:GFX_Library.c **** 
1062:GFX_Library.c ****     int16_t byteWidth = (w + 7) / 8; // Bitmap scanline pad = whole byte
 3339              		.loc 1 1062 0
 3340 0020 1E00     		movs	r6, r3
 3341 0022 0733     		adds	r3, r3, #7
 3342              	.LVL389:
 3343 0024 DA17     		asrs	r2, r3, #31
 3344 0026 0721     		movs	r1, #7
 3345              	.LVL390:
 3346 0028 0A40     		ands	r2, r1
 3347 002a D318     		adds	r3, r2, r3
 3348 002c DB10     		asrs	r3, r3, #3
 3349 002e 9946     		mov	r9, r3
 3350              	.LVL391:
 3351              	.LBB27:
1063:GFX_Library.c ****     uint8_t _byte = 0;
1064:GFX_Library.c **** 
1065:GFX_Library.c ****     for(int16_t j=0; j<h; j++, y++) {
 3352              		.loc 1 1065 0
 3353 0030 0027     		movs	r7, #0
 3354              	.LBE27:
1063:GFX_Library.c ****     uint8_t _byte = 0;
 3355              		.loc 1 1063 0
 3356 0032 0025     		movs	r5, #0
 3357              	.LBB30:
 3358              		.loc 1 1065 0
 3359 0034 2BE0     		b	.L159
 3360              	.LVL392:
 3361              	.L163:
 3362              	.LBB28:
1066:GFX_Library.c ****         for(int16_t i=0; i<w; i++ ) {
1067:GFX_Library.c ****             if(i & 7) _byte <<= 1;
 3363              		.loc 1 1067 0
 3364 0036 84B2     		uxth	r4, r0
 3365 0038 6307     		lsls	r3, r4, #29
 3366 003a 02D0     		beq	.L160
 3367              		.loc 1 1067 0 is_stmt 0 discriminator 1
 3368 003c 6D00     		lsls	r5, r5, #1
 3369              	.LVL393:
 3370 003e EDB2     		uxtb	r5, r5
 3371              	.LVL394:
 3372 0040 09E0     		b	.L161
ARM GAS  C:\Users\PC\AppData\Local\Temp\ccKVdNiW.s 			page 80


 3373              	.L160:
1068:GFX_Library.c ****             else      _byte   = bitmap[j * byteWidth + i / 8];
 3374              		.loc 1 1068 0 is_stmt 1
 3375 0042 C317     		asrs	r3, r0, #31
 3376 0044 0722     		movs	r2, #7
 3377 0046 1340     		ands	r3, r2
 3378 0048 1B18     		adds	r3, r3, r0
 3379 004a DB10     		asrs	r3, r3, #3
 3380 004c 4246     		mov	r2, r8
 3381 004e 7A43     		muls	r2, r7
 3382 0050 D318     		adds	r3, r2, r3
 3383 0052 5A46     		mov	r2, fp
 3384 0054 D55C     		ldrb	r5, [r2, r3]
 3385              	.LVL395:
 3386              	.L161:
1069:GFX_Library.c ****             if(_byte & 0x80)
 3387              		.loc 1 1069 0
 3388 0056 6BB2     		sxtb	r3, r5
 3389 0058 002B     		cmp	r3, #0
 3390 005a 06DA     		bge	.L162
1070:GFX_Library.c ****               display_drawPixel(x+i, y, color);
 3391              		.loc 1 1070 0
 3392 005c 6B46     		mov	r3, sp
 3393 005e 1A7A     		ldrb	r2, [r3, #8]
 3394 0060 1979     		ldrb	r1, [r3, #4]
 3395 0062 5044     		add	r0, r0, r10
 3396              	.LVL396:
 3397 0064 C0B2     		uxtb	r0, r0
 3398 0066 FFF7FEFF 		bl	drawPixel
 3399              	.LVL397:
 3400              	.L162:
1066:GFX_Library.c ****             if(i & 7) _byte <<= 1;
 3401              		.loc 1 1066 0 discriminator 2
 3402 006a 0134     		adds	r4, r4, #1
 3403              	.LVL398:
 3404 006c 20B2     		sxth	r0, r4
 3405              	.LVL399:
 3406 006e 03E0     		b	.L164
 3407              	.LVL400:
 3408              	.L165:
 3409              	.LBE28:
 3410 0070 0020     		movs	r0, #0
 3411 0072 4B46     		mov	r3, r9
 3412 0074 B946     		mov	r9, r7
 3413              	.LVL401:
 3414 0076 1F00     		movs	r7, r3
 3415              	.LVL402:
 3416              	.L164:
 3417              	.LBB29:
1066:GFX_Library.c ****             if(i & 7) _byte <<= 1;
 3418              		.loc 1 1066 0 is_stmt 0 discriminator 1
 3419 0078 8642     		cmp	r6, r0
 3420 007a DCDC     		bgt	.L163
 3421 007c 3B00     		movs	r3, r7
 3422 007e 4F46     		mov	r7, r9
 3423              	.LVL403:
 3424 0080 9946     		mov	r9, r3
ARM GAS  C:\Users\PC\AppData\Local\Temp\ccKVdNiW.s 			page 81


 3425              	.LBE29:
1065:GFX_Library.c ****         for(int16_t i=0; i<w; i++ ) {
 3426              		.loc 1 1065 0 is_stmt 1 discriminator 2
 3427 0082 0137     		adds	r7, r7, #1
 3428 0084 3FB2     		sxth	r7, r7
 3429              	.LVL404:
 3430 0086 019B     		ldr	r3, [sp, #4]
 3431              	.LVL405:
 3432 0088 0133     		adds	r3, r3, #1
 3433 008a 9BB2     		uxth	r3, r3
 3434 008c 0193     		str	r3, [sp, #4]
 3435              	.LVL406:
 3436              	.L159:
1065:GFX_Library.c ****         for(int16_t i=0; i<w; i++ ) {
 3437              		.loc 1 1065 0 is_stmt 0 discriminator 1
 3438 008e B846     		mov	r8, r7
 3439 0090 039B     		ldr	r3, [sp, #12]
 3440 0092 9F42     		cmp	r7, r3
 3441 0094 ECDB     		blt	.L165
 3442              	.LBE30:
1071:GFX_Library.c ****         }
1072:GFX_Library.c ****     }
1073:GFX_Library.c **** }
 3443              		.loc 1 1073 0 is_stmt 1
 3444 0096 05B0     		add	sp, sp, #20
 3445              		@ sp needed
 3446              	.LVL407:
 3447              	.LVL408:
 3448              	.LVL409:
 3449              	.LVL410:
 3450 0098 3CBC     		pop	{r2, r3, r4, r5}
 3451 009a 9046     		mov	r8, r2
 3452 009c 9946     		mov	r9, r3
 3453 009e A246     		mov	r10, r4
 3454 00a0 AB46     		mov	fp, r5
 3455 00a2 F0BD     		pop	{r4, r5, r6, r7, pc}
 3456              		.cfi_endproc
 3457              	.LFE61:
 3458              		.size	display_drawBitmapV2, .-display_drawBitmapV2
 3459              		.section	.text.display_drawBitmapV2_bg,"ax",%progbits
 3460              		.align	2
 3461              		.global	display_drawBitmapV2_bg
 3462              		.code	16
 3463              		.thumb_func
 3464              		.type	display_drawBitmapV2_bg, %function
 3465              	display_drawBitmapV2_bg:
 3466              	.LFB62:
1074:GFX_Library.c **** 
1075:GFX_Library.c **** /**************************************************************************/
1076:GFX_Library.c **** /*!
1077:GFX_Library.c ****    @brief     Draw a ROM-resident 1-bit image at the specified (x,y) position,
1078:GFX_Library.c ****               using the specified foreground (for set bits) and background (unset bits) colors.
1079:GFX_Library.c ****     @param    x   Top left corner x coordinate
1080:GFX_Library.c ****     @param    y   Top left corner y coordinate
1081:GFX_Library.c ****     @param    bitmap  byte array with monochrome bitmap
1082:GFX_Library.c ****     @param    w   Width of bitmap in pixels
1083:GFX_Library.c ****     @param    h   Hieght of bitmap in pixels
ARM GAS  C:\Users\PC\AppData\Local\Temp\ccKVdNiW.s 			page 82


1084:GFX_Library.c ****     @param    color 16-bit 5-6-5 Color to draw pixels with
1085:GFX_Library.c ****     @param    bg 16-bit 5-6-5 Color to draw background with
1086:GFX_Library.c **** */
1087:GFX_Library.c **** /**************************************************************************/
1088:GFX_Library.c **** void display_drawBitmapV2_bg(uint16_t x, uint16_t y, const uint8_t *bitmap, uint16_t w, uint16_t h,
1089:GFX_Library.c ****   uint16_t color, uint16_t bg) {
 3467              		.loc 1 1089 0
 3468              		.cfi_startproc
 3469              		@ args = 12, pretend = 0, frame = 16
 3470              		@ frame_needed = 0, uses_anonymous_args = 0
 3471              	.LVL411:
 3472 0000 F0B5     		push	{r4, r5, r6, r7, lr}
 3473              		.cfi_def_cfa_offset 20
 3474              		.cfi_offset 4, -20
 3475              		.cfi_offset 5, -16
 3476              		.cfi_offset 6, -12
 3477              		.cfi_offset 7, -8
 3478              		.cfi_offset 14, -4
 3479 0002 5F46     		mov	r7, fp
 3480 0004 5646     		mov	r6, r10
 3481 0006 4D46     		mov	r5, r9
 3482 0008 4446     		mov	r4, r8
 3483 000a F0B4     		push	{r4, r5, r6, r7}
 3484              		.cfi_def_cfa_offset 36
 3485              		.cfi_offset 8, -36
 3486              		.cfi_offset 9, -32
 3487              		.cfi_offset 10, -28
 3488              		.cfi_offset 11, -24
 3489 000c 85B0     		sub	sp, sp, #20
 3490              		.cfi_def_cfa_offset 56
 3491 000e 0700     		movs	r7, r0
 3492 0010 0091     		str	r1, [sp]
 3493 0012 9346     		mov	fp, r2
 3494 0014 0EAA     		add	r2, sp, #56
 3495              	.LVL412:
 3496 0016 1288     		ldrh	r2, [r2]
 3497              	.LVL413:
 3498 0018 0392     		str	r2, [sp, #12]
 3499 001a 0FAA     		add	r2, sp, #60
 3500              	.LVL414:
 3501 001c 1288     		ldrh	r2, [r2]
 3502              	.LVL415:
 3503 001e 0292     		str	r2, [sp, #8]
 3504 0020 10AA     		add	r2, sp, #64
 3505              	.LVL416:
 3506 0022 1288     		ldrh	r2, [r2]
 3507              	.LVL417:
 3508 0024 0192     		str	r2, [sp, #4]
1090:GFX_Library.c **** 
1091:GFX_Library.c ****     int16_t byteWidth = (w + 7) / 8; // Bitmap scanline pad = whole byte
 3509              		.loc 1 1091 0
 3510 0026 1E00     		movs	r6, r3
 3511 0028 0733     		adds	r3, r3, #7
 3512              	.LVL418:
 3513 002a DA17     		asrs	r2, r3, #31
 3514 002c 0721     		movs	r1, #7
 3515              	.LVL419:
ARM GAS  C:\Users\PC\AppData\Local\Temp\ccKVdNiW.s 			page 83


 3516 002e 0A40     		ands	r2, r1
 3517 0030 D318     		adds	r3, r2, r3
 3518 0032 DB10     		asrs	r3, r3, #3
 3519 0034 9A46     		mov	r10, r3
 3520              	.LVL420:
 3521              	.LBB31:
1092:GFX_Library.c ****     uint8_t _byte = 0;
1093:GFX_Library.c **** 
1094:GFX_Library.c ****     for(int16_t j=0; j<h; j++, y++) {
 3522              		.loc 1 1094 0
 3523 0036 0023     		movs	r3, #0
 3524 0038 9846     		mov	r8, r3
 3525              	.LBE31:
1092:GFX_Library.c ****     uint8_t _byte = 0;
 3526              		.loc 1 1092 0
 3527 003a 0025     		movs	r5, #0
 3528              	.LBB34:
 3529              		.loc 1 1094 0
 3530 003c 30E0     		b	.L167
 3531              	.LVL421:
 3532              	.L172:
 3533              	.LBB32:
1095:GFX_Library.c ****         for(int16_t i=0; i<w; i++ ) {
1096:GFX_Library.c ****             if(i & 7) _byte <<= 1;
 3534              		.loc 1 1096 0
 3535 003e 84B2     		uxth	r4, r0
 3536 0040 6307     		lsls	r3, r4, #29
 3537 0042 02D0     		beq	.L168
 3538              		.loc 1 1096 0 is_stmt 0 discriminator 1
 3539 0044 6D00     		lsls	r5, r5, #1
 3540              	.LVL422:
 3541 0046 EDB2     		uxtb	r5, r5
 3542              	.LVL423:
 3543 0048 0AE0     		b	.L169
 3544              	.L168:
1097:GFX_Library.c ****             else      _byte   = bitmap[j * byteWidth + i / 8];
 3545              		.loc 1 1097 0 is_stmt 1
 3546 004a C317     		asrs	r3, r0, #31
 3547 004c 0722     		movs	r2, #7
 3548 004e 1340     		ands	r3, r2
 3549 0050 1B18     		adds	r3, r3, r0
 3550 0052 DB10     		asrs	r3, r3, #3
 3551 0054 4A46     		mov	r2, r9
 3552 0056 5146     		mov	r1, r10
 3553 0058 4A43     		muls	r2, r1
 3554 005a D318     		adds	r3, r2, r3
 3555 005c 5A46     		mov	r2, fp
 3556 005e D55C     		ldrb	r5, [r2, r3]
 3557              	.LVL424:
 3558              	.L169:
1098:GFX_Library.c ****             if(_byte & 0x80)
 3559              		.loc 1 1098 0
 3560 0060 6BB2     		sxtb	r3, r5
 3561 0062 002B     		cmp	r3, #0
 3562 0064 07DA     		bge	.L170
1099:GFX_Library.c ****               display_drawPixel(x+i, y, color);
 3563              		.loc 1 1099 0
ARM GAS  C:\Users\PC\AppData\Local\Temp\ccKVdNiW.s 			page 84


 3564 0066 6B46     		mov	r3, sp
 3565 0068 1A7A     		ldrb	r2, [r3, #8]
 3566 006a 1978     		ldrb	r1, [r3]
 3567 006c 3818     		adds	r0, r7, r0
 3568              	.LVL425:
 3569 006e C0B2     		uxtb	r0, r0
 3570 0070 FFF7FEFF 		bl	drawPixel
 3571              	.LVL426:
 3572 0074 06E0     		b	.L171
 3573              	.LVL427:
 3574              	.L170:
1100:GFX_Library.c ****             else
1101:GFX_Library.c ****               display_drawPixel(x+i, y, bg);
 3575              		.loc 1 1101 0
 3576 0076 6B46     		mov	r3, sp
 3577 0078 1A79     		ldrb	r2, [r3, #4]
 3578 007a 1978     		ldrb	r1, [r3]
 3579 007c 3818     		adds	r0, r7, r0
 3580              	.LVL428:
 3581 007e C0B2     		uxtb	r0, r0
 3582 0080 FFF7FEFF 		bl	drawPixel
 3583              	.LVL429:
 3584              	.L171:
1095:GFX_Library.c ****             if(i & 7) _byte <<= 1;
 3585              		.loc 1 1095 0 discriminator 2
 3586 0084 0134     		adds	r4, r4, #1
 3587              	.LVL430:
 3588 0086 20B2     		sxth	r0, r4
 3589              	.LVL431:
 3590 0088 00E0     		b	.L173
 3591              	.LVL432:
 3592              	.L174:
 3593              	.LBE32:
 3594 008a 0020     		movs	r0, #0
 3595              	.L173:
 3596              	.LVL433:
 3597              	.LBB33:
1095:GFX_Library.c ****             if(i & 7) _byte <<= 1;
 3598              		.loc 1 1095 0 is_stmt 0 discriminator 1
 3599 008c 8642     		cmp	r6, r0
 3600 008e D6DC     		bgt	.L172
 3601              	.LBE33:
1094:GFX_Library.c ****         for(int16_t i=0; i<w; i++ ) {
 3602              		.loc 1 1094 0 is_stmt 1 discriminator 2
 3603 0090 4346     		mov	r3, r8
 3604 0092 0133     		adds	r3, r3, #1
 3605 0094 1BB2     		sxth	r3, r3
 3606 0096 9846     		mov	r8, r3
 3607              	.LVL434:
 3608 0098 009B     		ldr	r3, [sp]
 3609 009a 0133     		adds	r3, r3, #1
 3610 009c 9BB2     		uxth	r3, r3
 3611 009e 0093     		str	r3, [sp]
 3612              	.LVL435:
 3613              	.L167:
1094:GFX_Library.c ****         for(int16_t i=0; i<w; i++ ) {
 3614              		.loc 1 1094 0 is_stmt 0 discriminator 1
ARM GAS  C:\Users\PC\AppData\Local\Temp\ccKVdNiW.s 			page 85


 3615 00a0 C146     		mov	r9, r8
 3616 00a2 039B     		ldr	r3, [sp, #12]
 3617 00a4 9845     		cmp	r8, r3
 3618 00a6 F0DB     		blt	.L174
 3619              	.LBE34:
1102:GFX_Library.c ****         }
1103:GFX_Library.c ****     }
1104:GFX_Library.c **** }
 3620              		.loc 1 1104 0 is_stmt 1
 3621 00a8 05B0     		add	sp, sp, #20
 3622              	.LVL436:
 3623              		@ sp needed
 3624              	.LVL437:
 3625              	.LVL438:
 3626              	.LVL439:
 3627              	.LVL440:
 3628 00aa 3CBC     		pop	{r2, r3, r4, r5}
 3629 00ac 9046     		mov	r8, r2
 3630 00ae 9946     		mov	r9, r3
 3631 00b0 A246     		mov	r10, r4
 3632 00b2 AB46     		mov	fp, r5
 3633 00b4 F0BD     		pop	{r4, r5, r6, r7, pc}
 3634              		.cfi_endproc
 3635              	.LFE62:
 3636              		.size	display_drawBitmapV2_bg, .-display_drawBitmapV2_bg
 3637              		.global	wrap
 3638              		.global	textsize
 3639              		.global	textbgcolor
 3640              		.global	textcolor
 3641              		.global	cursor_y
 3642              		.global	cursor_x
 3643              		.comm	_height,1,1
 3644              		.comm	_width,1,1
 3645              		.comm	rotation,1,1
 3646              		.comm	_vccstate,1,1
 3647 00b6 C046     		.section	.rodata
 3648              		.align	2
 3649              		.set	.LANCHOR2,. + 0
 3650              		.type	font, %object
 3651              		.size	font, 1280
 3652              	font:
 3653 0000 00       		.byte	0
 3654 0001 00       		.byte	0
 3655 0002 00       		.byte	0
 3656 0003 00       		.byte	0
 3657 0004 00       		.byte	0
 3658 0005 3E       		.byte	62
 3659 0006 5B       		.byte	91
 3660 0007 4F       		.byte	79
 3661 0008 5B       		.byte	91
 3662 0009 3E       		.byte	62
 3663 000a 3E       		.byte	62
 3664 000b 6B       		.byte	107
 3665 000c 4F       		.byte	79
 3666 000d 6B       		.byte	107
 3667 000e 3E       		.byte	62
 3668 000f 1C       		.byte	28
ARM GAS  C:\Users\PC\AppData\Local\Temp\ccKVdNiW.s 			page 86


 3669 0010 3E       		.byte	62
 3670 0011 7C       		.byte	124
 3671 0012 3E       		.byte	62
 3672 0013 1C       		.byte	28
 3673 0014 18       		.byte	24
 3674 0015 3C       		.byte	60
 3675 0016 7E       		.byte	126
 3676 0017 3C       		.byte	60
 3677 0018 18       		.byte	24
 3678 0019 1C       		.byte	28
 3679 001a 57       		.byte	87
 3680 001b 7D       		.byte	125
 3681 001c 57       		.byte	87
 3682 001d 1C       		.byte	28
 3683 001e 1C       		.byte	28
 3684 001f 5E       		.byte	94
 3685 0020 7F       		.byte	127
 3686 0021 5E       		.byte	94
 3687 0022 1C       		.byte	28
 3688 0023 00       		.byte	0
 3689 0024 18       		.byte	24
 3690 0025 3C       		.byte	60
 3691 0026 18       		.byte	24
 3692 0027 00       		.byte	0
 3693 0028 FF       		.byte	-1
 3694 0029 E7       		.byte	-25
 3695 002a C3       		.byte	-61
 3696 002b E7       		.byte	-25
 3697 002c FF       		.byte	-1
 3698 002d 00       		.byte	0
 3699 002e 18       		.byte	24
 3700 002f 24       		.byte	36
 3701 0030 18       		.byte	24
 3702 0031 00       		.byte	0
 3703 0032 FF       		.byte	-1
 3704 0033 E7       		.byte	-25
 3705 0034 DB       		.byte	-37
 3706 0035 E7       		.byte	-25
 3707 0036 FF       		.byte	-1
 3708 0037 30       		.byte	48
 3709 0038 48       		.byte	72
 3710 0039 3A       		.byte	58
 3711 003a 06       		.byte	6
 3712 003b 0E       		.byte	14
 3713 003c 26       		.byte	38
 3714 003d 29       		.byte	41
 3715 003e 79       		.byte	121
 3716 003f 29       		.byte	41
 3717 0040 26       		.byte	38
 3718 0041 40       		.byte	64
 3719 0042 7F       		.byte	127
 3720 0043 05       		.byte	5
 3721 0044 05       		.byte	5
 3722 0045 07       		.byte	7
 3723 0046 40       		.byte	64
 3724 0047 7F       		.byte	127
 3725 0048 05       		.byte	5
ARM GAS  C:\Users\PC\AppData\Local\Temp\ccKVdNiW.s 			page 87


 3726 0049 25       		.byte	37
 3727 004a 3F       		.byte	63
 3728 004b 5A       		.byte	90
 3729 004c 3C       		.byte	60
 3730 004d E7       		.byte	-25
 3731 004e 3C       		.byte	60
 3732 004f 5A       		.byte	90
 3733 0050 7F       		.byte	127
 3734 0051 3E       		.byte	62
 3735 0052 1C       		.byte	28
 3736 0053 1C       		.byte	28
 3737 0054 08       		.byte	8
 3738 0055 08       		.byte	8
 3739 0056 1C       		.byte	28
 3740 0057 1C       		.byte	28
 3741 0058 3E       		.byte	62
 3742 0059 7F       		.byte	127
 3743 005a 14       		.byte	20
 3744 005b 22       		.byte	34
 3745 005c 7F       		.byte	127
 3746 005d 22       		.byte	34
 3747 005e 14       		.byte	20
 3748 005f 5F       		.byte	95
 3749 0060 5F       		.byte	95
 3750 0061 00       		.byte	0
 3751 0062 5F       		.byte	95
 3752 0063 5F       		.byte	95
 3753 0064 06       		.byte	6
 3754 0065 09       		.byte	9
 3755 0066 7F       		.byte	127
 3756 0067 01       		.byte	1
 3757 0068 7F       		.byte	127
 3758 0069 00       		.byte	0
 3759 006a 66       		.byte	102
 3760 006b 89       		.byte	-119
 3761 006c 95       		.byte	-107
 3762 006d 6A       		.byte	106
 3763 006e 60       		.byte	96
 3764 006f 60       		.byte	96
 3765 0070 60       		.byte	96
 3766 0071 60       		.byte	96
 3767 0072 60       		.byte	96
 3768 0073 94       		.byte	-108
 3769 0074 A2       		.byte	-94
 3770 0075 FF       		.byte	-1
 3771 0076 A2       		.byte	-94
 3772 0077 94       		.byte	-108
 3773 0078 08       		.byte	8
 3774 0079 04       		.byte	4
 3775 007a 7E       		.byte	126
 3776 007b 04       		.byte	4
 3777 007c 08       		.byte	8
 3778 007d 10       		.byte	16
 3779 007e 20       		.byte	32
 3780 007f 7E       		.byte	126
 3781 0080 20       		.byte	32
 3782 0081 10       		.byte	16
ARM GAS  C:\Users\PC\AppData\Local\Temp\ccKVdNiW.s 			page 88


 3783 0082 08       		.byte	8
 3784 0083 08       		.byte	8
 3785 0084 2A       		.byte	42
 3786 0085 1C       		.byte	28
 3787 0086 08       		.byte	8
 3788 0087 08       		.byte	8
 3789 0088 1C       		.byte	28
 3790 0089 2A       		.byte	42
 3791 008a 08       		.byte	8
 3792 008b 08       		.byte	8
 3793 008c 1E       		.byte	30
 3794 008d 10       		.byte	16
 3795 008e 10       		.byte	16
 3796 008f 10       		.byte	16
 3797 0090 10       		.byte	16
 3798 0091 0C       		.byte	12
 3799 0092 1E       		.byte	30
 3800 0093 0C       		.byte	12
 3801 0094 1E       		.byte	30
 3802 0095 0C       		.byte	12
 3803 0096 30       		.byte	48
 3804 0097 38       		.byte	56
 3805 0098 3E       		.byte	62
 3806 0099 38       		.byte	56
 3807 009a 30       		.byte	48
 3808 009b 06       		.byte	6
 3809 009c 0E       		.byte	14
 3810 009d 3E       		.byte	62
 3811 009e 0E       		.byte	14
 3812 009f 06       		.byte	6
 3813 00a0 00       		.byte	0
 3814 00a1 00       		.byte	0
 3815 00a2 00       		.byte	0
 3816 00a3 00       		.byte	0
 3817 00a4 00       		.byte	0
 3818 00a5 00       		.byte	0
 3819 00a6 00       		.byte	0
 3820 00a7 5F       		.byte	95
 3821 00a8 00       		.byte	0
 3822 00a9 00       		.byte	0
 3823 00aa 00       		.byte	0
 3824 00ab 07       		.byte	7
 3825 00ac 00       		.byte	0
 3826 00ad 07       		.byte	7
 3827 00ae 00       		.byte	0
 3828 00af 14       		.byte	20
 3829 00b0 7F       		.byte	127
 3830 00b1 14       		.byte	20
 3831 00b2 7F       		.byte	127
 3832 00b3 14       		.byte	20
 3833 00b4 24       		.byte	36
 3834 00b5 2A       		.byte	42
 3835 00b6 7F       		.byte	127
 3836 00b7 2A       		.byte	42
 3837 00b8 12       		.byte	18
 3838 00b9 23       		.byte	35
 3839 00ba 13       		.byte	19
ARM GAS  C:\Users\PC\AppData\Local\Temp\ccKVdNiW.s 			page 89


 3840 00bb 08       		.byte	8
 3841 00bc 64       		.byte	100
 3842 00bd 62       		.byte	98
 3843 00be 36       		.byte	54
 3844 00bf 49       		.byte	73
 3845 00c0 56       		.byte	86
 3846 00c1 20       		.byte	32
 3847 00c2 50       		.byte	80
 3848 00c3 00       		.byte	0
 3849 00c4 08       		.byte	8
 3850 00c5 07       		.byte	7
 3851 00c6 03       		.byte	3
 3852 00c7 00       		.byte	0
 3853 00c8 00       		.byte	0
 3854 00c9 1C       		.byte	28
 3855 00ca 22       		.byte	34
 3856 00cb 41       		.byte	65
 3857 00cc 00       		.byte	0
 3858 00cd 00       		.byte	0
 3859 00ce 41       		.byte	65
 3860 00cf 22       		.byte	34
 3861 00d0 1C       		.byte	28
 3862 00d1 00       		.byte	0
 3863 00d2 2A       		.byte	42
 3864 00d3 1C       		.byte	28
 3865 00d4 7F       		.byte	127
 3866 00d5 1C       		.byte	28
 3867 00d6 2A       		.byte	42
 3868 00d7 08       		.byte	8
 3869 00d8 08       		.byte	8
 3870 00d9 3E       		.byte	62
 3871 00da 08       		.byte	8
 3872 00db 08       		.byte	8
 3873 00dc 00       		.byte	0
 3874 00dd 80       		.byte	-128
 3875 00de 70       		.byte	112
 3876 00df 30       		.byte	48
 3877 00e0 00       		.byte	0
 3878 00e1 08       		.byte	8
 3879 00e2 08       		.byte	8
 3880 00e3 08       		.byte	8
 3881 00e4 08       		.byte	8
 3882 00e5 08       		.byte	8
 3883 00e6 00       		.byte	0
 3884 00e7 00       		.byte	0
 3885 00e8 60       		.byte	96
 3886 00e9 60       		.byte	96
 3887 00ea 00       		.byte	0
 3888 00eb 20       		.byte	32
 3889 00ec 10       		.byte	16
 3890 00ed 08       		.byte	8
 3891 00ee 04       		.byte	4
 3892 00ef 02       		.byte	2
 3893 00f0 3E       		.byte	62
 3894 00f1 51       		.byte	81
 3895 00f2 49       		.byte	73
 3896 00f3 45       		.byte	69
ARM GAS  C:\Users\PC\AppData\Local\Temp\ccKVdNiW.s 			page 90


 3897 00f4 3E       		.byte	62
 3898 00f5 00       		.byte	0
 3899 00f6 42       		.byte	66
 3900 00f7 7F       		.byte	127
 3901 00f8 40       		.byte	64
 3902 00f9 00       		.byte	0
 3903 00fa 72       		.byte	114
 3904 00fb 49       		.byte	73
 3905 00fc 49       		.byte	73
 3906 00fd 49       		.byte	73
 3907 00fe 46       		.byte	70
 3908 00ff 21       		.byte	33
 3909 0100 41       		.byte	65
 3910 0101 49       		.byte	73
 3911 0102 4D       		.byte	77
 3912 0103 33       		.byte	51
 3913 0104 18       		.byte	24
 3914 0105 14       		.byte	20
 3915 0106 12       		.byte	18
 3916 0107 7F       		.byte	127
 3917 0108 10       		.byte	16
 3918 0109 27       		.byte	39
 3919 010a 45       		.byte	69
 3920 010b 45       		.byte	69
 3921 010c 45       		.byte	69
 3922 010d 39       		.byte	57
 3923 010e 3C       		.byte	60
 3924 010f 4A       		.byte	74
 3925 0110 49       		.byte	73
 3926 0111 49       		.byte	73
 3927 0112 31       		.byte	49
 3928 0113 41       		.byte	65
 3929 0114 21       		.byte	33
 3930 0115 11       		.byte	17
 3931 0116 09       		.byte	9
 3932 0117 07       		.byte	7
 3933 0118 36       		.byte	54
 3934 0119 49       		.byte	73
 3935 011a 49       		.byte	73
 3936 011b 49       		.byte	73
 3937 011c 36       		.byte	54
 3938 011d 46       		.byte	70
 3939 011e 49       		.byte	73
 3940 011f 49       		.byte	73
 3941 0120 29       		.byte	41
 3942 0121 1E       		.byte	30
 3943 0122 00       		.byte	0
 3944 0123 00       		.byte	0
 3945 0124 14       		.byte	20
 3946 0125 00       		.byte	0
 3947 0126 00       		.byte	0
 3948 0127 00       		.byte	0
 3949 0128 40       		.byte	64
 3950 0129 34       		.byte	52
 3951 012a 00       		.byte	0
 3952 012b 00       		.byte	0
 3953 012c 00       		.byte	0
ARM GAS  C:\Users\PC\AppData\Local\Temp\ccKVdNiW.s 			page 91


 3954 012d 08       		.byte	8
 3955 012e 14       		.byte	20
 3956 012f 22       		.byte	34
 3957 0130 41       		.byte	65
 3958 0131 14       		.byte	20
 3959 0132 14       		.byte	20
 3960 0133 14       		.byte	20
 3961 0134 14       		.byte	20
 3962 0135 14       		.byte	20
 3963 0136 00       		.byte	0
 3964 0137 41       		.byte	65
 3965 0138 22       		.byte	34
 3966 0139 14       		.byte	20
 3967 013a 08       		.byte	8
 3968 013b 02       		.byte	2
 3969 013c 01       		.byte	1
 3970 013d 59       		.byte	89
 3971 013e 09       		.byte	9
 3972 013f 06       		.byte	6
 3973 0140 3E       		.byte	62
 3974 0141 41       		.byte	65
 3975 0142 5D       		.byte	93
 3976 0143 59       		.byte	89
 3977 0144 4E       		.byte	78
 3978 0145 7C       		.byte	124
 3979 0146 12       		.byte	18
 3980 0147 11       		.byte	17
 3981 0148 12       		.byte	18
 3982 0149 7C       		.byte	124
 3983 014a 7F       		.byte	127
 3984 014b 49       		.byte	73
 3985 014c 49       		.byte	73
 3986 014d 49       		.byte	73
 3987 014e 36       		.byte	54
 3988 014f 3E       		.byte	62
 3989 0150 41       		.byte	65
 3990 0151 41       		.byte	65
 3991 0152 41       		.byte	65
 3992 0153 22       		.byte	34
 3993 0154 7F       		.byte	127
 3994 0155 41       		.byte	65
 3995 0156 41       		.byte	65
 3996 0157 41       		.byte	65
 3997 0158 3E       		.byte	62
 3998 0159 7F       		.byte	127
 3999 015a 49       		.byte	73
 4000 015b 49       		.byte	73
 4001 015c 49       		.byte	73
 4002 015d 41       		.byte	65
 4003 015e 7F       		.byte	127
 4004 015f 09       		.byte	9
 4005 0160 09       		.byte	9
 4006 0161 09       		.byte	9
 4007 0162 01       		.byte	1
 4008 0163 3E       		.byte	62
 4009 0164 41       		.byte	65
 4010 0165 41       		.byte	65
ARM GAS  C:\Users\PC\AppData\Local\Temp\ccKVdNiW.s 			page 92


 4011 0166 51       		.byte	81
 4012 0167 73       		.byte	115
 4013 0168 7F       		.byte	127
 4014 0169 08       		.byte	8
 4015 016a 08       		.byte	8
 4016 016b 08       		.byte	8
 4017 016c 7F       		.byte	127
 4018 016d 00       		.byte	0
 4019 016e 41       		.byte	65
 4020 016f 7F       		.byte	127
 4021 0170 41       		.byte	65
 4022 0171 00       		.byte	0
 4023 0172 20       		.byte	32
 4024 0173 40       		.byte	64
 4025 0174 41       		.byte	65
 4026 0175 3F       		.byte	63
 4027 0176 01       		.byte	1
 4028 0177 7F       		.byte	127
 4029 0178 08       		.byte	8
 4030 0179 14       		.byte	20
 4031 017a 22       		.byte	34
 4032 017b 41       		.byte	65
 4033 017c 7F       		.byte	127
 4034 017d 40       		.byte	64
 4035 017e 40       		.byte	64
 4036 017f 40       		.byte	64
 4037 0180 40       		.byte	64
 4038 0181 7F       		.byte	127
 4039 0182 02       		.byte	2
 4040 0183 1C       		.byte	28
 4041 0184 02       		.byte	2
 4042 0185 7F       		.byte	127
 4043 0186 7F       		.byte	127
 4044 0187 04       		.byte	4
 4045 0188 08       		.byte	8
 4046 0189 10       		.byte	16
 4047 018a 7F       		.byte	127
 4048 018b 3E       		.byte	62
 4049 018c 41       		.byte	65
 4050 018d 41       		.byte	65
 4051 018e 41       		.byte	65
 4052 018f 3E       		.byte	62
 4053 0190 7F       		.byte	127
 4054 0191 09       		.byte	9
 4055 0192 09       		.byte	9
 4056 0193 09       		.byte	9
 4057 0194 06       		.byte	6
 4058 0195 3E       		.byte	62
 4059 0196 41       		.byte	65
 4060 0197 51       		.byte	81
 4061 0198 21       		.byte	33
 4062 0199 5E       		.byte	94
 4063 019a 7F       		.byte	127
 4064 019b 09       		.byte	9
 4065 019c 19       		.byte	25
 4066 019d 29       		.byte	41
 4067 019e 46       		.byte	70
ARM GAS  C:\Users\PC\AppData\Local\Temp\ccKVdNiW.s 			page 93


 4068 019f 26       		.byte	38
 4069 01a0 49       		.byte	73
 4070 01a1 49       		.byte	73
 4071 01a2 49       		.byte	73
 4072 01a3 32       		.byte	50
 4073 01a4 03       		.byte	3
 4074 01a5 01       		.byte	1
 4075 01a6 7F       		.byte	127
 4076 01a7 01       		.byte	1
 4077 01a8 03       		.byte	3
 4078 01a9 3F       		.byte	63
 4079 01aa 40       		.byte	64
 4080 01ab 40       		.byte	64
 4081 01ac 40       		.byte	64
 4082 01ad 3F       		.byte	63
 4083 01ae 1F       		.byte	31
 4084 01af 20       		.byte	32
 4085 01b0 40       		.byte	64
 4086 01b1 20       		.byte	32
 4087 01b2 1F       		.byte	31
 4088 01b3 3F       		.byte	63
 4089 01b4 40       		.byte	64
 4090 01b5 38       		.byte	56
 4091 01b6 40       		.byte	64
 4092 01b7 3F       		.byte	63
 4093 01b8 63       		.byte	99
 4094 01b9 14       		.byte	20
 4095 01ba 08       		.byte	8
 4096 01bb 14       		.byte	20
 4097 01bc 63       		.byte	99
 4098 01bd 03       		.byte	3
 4099 01be 04       		.byte	4
 4100 01bf 78       		.byte	120
 4101 01c0 04       		.byte	4
 4102 01c1 03       		.byte	3
 4103 01c2 61       		.byte	97
 4104 01c3 59       		.byte	89
 4105 01c4 49       		.byte	73
 4106 01c5 4D       		.byte	77
 4107 01c6 43       		.byte	67
 4108 01c7 00       		.byte	0
 4109 01c8 7F       		.byte	127
 4110 01c9 41       		.byte	65
 4111 01ca 41       		.byte	65
 4112 01cb 41       		.byte	65
 4113 01cc 02       		.byte	2
 4114 01cd 04       		.byte	4
 4115 01ce 08       		.byte	8
 4116 01cf 10       		.byte	16
 4117 01d0 20       		.byte	32
 4118 01d1 00       		.byte	0
 4119 01d2 41       		.byte	65
 4120 01d3 41       		.byte	65
 4121 01d4 41       		.byte	65
 4122 01d5 7F       		.byte	127
 4123 01d6 04       		.byte	4
 4124 01d7 02       		.byte	2
ARM GAS  C:\Users\PC\AppData\Local\Temp\ccKVdNiW.s 			page 94


 4125 01d8 01       		.byte	1
 4126 01d9 02       		.byte	2
 4127 01da 04       		.byte	4
 4128 01db 40       		.byte	64
 4129 01dc 40       		.byte	64
 4130 01dd 40       		.byte	64
 4131 01de 40       		.byte	64
 4132 01df 40       		.byte	64
 4133 01e0 00       		.byte	0
 4134 01e1 03       		.byte	3
 4135 01e2 07       		.byte	7
 4136 01e3 08       		.byte	8
 4137 01e4 00       		.byte	0
 4138 01e5 20       		.byte	32
 4139 01e6 54       		.byte	84
 4140 01e7 54       		.byte	84
 4141 01e8 78       		.byte	120
 4142 01e9 40       		.byte	64
 4143 01ea 7F       		.byte	127
 4144 01eb 28       		.byte	40
 4145 01ec 44       		.byte	68
 4146 01ed 44       		.byte	68
 4147 01ee 38       		.byte	56
 4148 01ef 38       		.byte	56
 4149 01f0 44       		.byte	68
 4150 01f1 44       		.byte	68
 4151 01f2 44       		.byte	68
 4152 01f3 28       		.byte	40
 4153 01f4 38       		.byte	56
 4154 01f5 44       		.byte	68
 4155 01f6 44       		.byte	68
 4156 01f7 28       		.byte	40
 4157 01f8 7F       		.byte	127
 4158 01f9 38       		.byte	56
 4159 01fa 54       		.byte	84
 4160 01fb 54       		.byte	84
 4161 01fc 54       		.byte	84
 4162 01fd 18       		.byte	24
 4163 01fe 00       		.byte	0
 4164 01ff 08       		.byte	8
 4165 0200 7E       		.byte	126
 4166 0201 09       		.byte	9
 4167 0202 02       		.byte	2
 4168 0203 18       		.byte	24
 4169 0204 A4       		.byte	-92
 4170 0205 A4       		.byte	-92
 4171 0206 9C       		.byte	-100
 4172 0207 78       		.byte	120
 4173 0208 7F       		.byte	127
 4174 0209 08       		.byte	8
 4175 020a 04       		.byte	4
 4176 020b 04       		.byte	4
 4177 020c 78       		.byte	120
 4178 020d 00       		.byte	0
 4179 020e 44       		.byte	68
 4180 020f 7D       		.byte	125
 4181 0210 40       		.byte	64
ARM GAS  C:\Users\PC\AppData\Local\Temp\ccKVdNiW.s 			page 95


 4182 0211 00       		.byte	0
 4183 0212 20       		.byte	32
 4184 0213 40       		.byte	64
 4185 0214 40       		.byte	64
 4186 0215 3D       		.byte	61
 4187 0216 00       		.byte	0
 4188 0217 7F       		.byte	127
 4189 0218 10       		.byte	16
 4190 0219 28       		.byte	40
 4191 021a 44       		.byte	68
 4192 021b 00       		.byte	0
 4193 021c 00       		.byte	0
 4194 021d 41       		.byte	65
 4195 021e 7F       		.byte	127
 4196 021f 40       		.byte	64
 4197 0220 00       		.byte	0
 4198 0221 7C       		.byte	124
 4199 0222 04       		.byte	4
 4200 0223 78       		.byte	120
 4201 0224 04       		.byte	4
 4202 0225 78       		.byte	120
 4203 0226 7C       		.byte	124
 4204 0227 08       		.byte	8
 4205 0228 04       		.byte	4
 4206 0229 04       		.byte	4
 4207 022a 78       		.byte	120
 4208 022b 38       		.byte	56
 4209 022c 44       		.byte	68
 4210 022d 44       		.byte	68
 4211 022e 44       		.byte	68
 4212 022f 38       		.byte	56
 4213 0230 FC       		.byte	-4
 4214 0231 18       		.byte	24
 4215 0232 24       		.byte	36
 4216 0233 24       		.byte	36
 4217 0234 18       		.byte	24
 4218 0235 18       		.byte	24
 4219 0236 24       		.byte	36
 4220 0237 24       		.byte	36
 4221 0238 18       		.byte	24
 4222 0239 FC       		.byte	-4
 4223 023a 7C       		.byte	124
 4224 023b 08       		.byte	8
 4225 023c 04       		.byte	4
 4226 023d 04       		.byte	4
 4227 023e 08       		.byte	8
 4228 023f 48       		.byte	72
 4229 0240 54       		.byte	84
 4230 0241 54       		.byte	84
 4231 0242 54       		.byte	84
 4232 0243 24       		.byte	36
 4233 0244 04       		.byte	4
 4234 0245 04       		.byte	4
 4235 0246 3F       		.byte	63
 4236 0247 44       		.byte	68
 4237 0248 24       		.byte	36
 4238 0249 3C       		.byte	60
ARM GAS  C:\Users\PC\AppData\Local\Temp\ccKVdNiW.s 			page 96


 4239 024a 40       		.byte	64
 4240 024b 40       		.byte	64
 4241 024c 20       		.byte	32
 4242 024d 7C       		.byte	124
 4243 024e 1C       		.byte	28
 4244 024f 20       		.byte	32
 4245 0250 40       		.byte	64
 4246 0251 20       		.byte	32
 4247 0252 1C       		.byte	28
 4248 0253 3C       		.byte	60
 4249 0254 40       		.byte	64
 4250 0255 30       		.byte	48
 4251 0256 40       		.byte	64
 4252 0257 3C       		.byte	60
 4253 0258 44       		.byte	68
 4254 0259 28       		.byte	40
 4255 025a 10       		.byte	16
 4256 025b 28       		.byte	40
 4257 025c 44       		.byte	68
 4258 025d 4C       		.byte	76
 4259 025e 90       		.byte	-112
 4260 025f 90       		.byte	-112
 4261 0260 90       		.byte	-112
 4262 0261 7C       		.byte	124
 4263 0262 44       		.byte	68
 4264 0263 64       		.byte	100
 4265 0264 54       		.byte	84
 4266 0265 4C       		.byte	76
 4267 0266 44       		.byte	68
 4268 0267 00       		.byte	0
 4269 0268 08       		.byte	8
 4270 0269 36       		.byte	54
 4271 026a 41       		.byte	65
 4272 026b 00       		.byte	0
 4273 026c 00       		.byte	0
 4274 026d 00       		.byte	0
 4275 026e 77       		.byte	119
 4276 026f 00       		.byte	0
 4277 0270 00       		.byte	0
 4278 0271 00       		.byte	0
 4279 0272 41       		.byte	65
 4280 0273 36       		.byte	54
 4281 0274 08       		.byte	8
 4282 0275 00       		.byte	0
 4283 0276 02       		.byte	2
 4284 0277 01       		.byte	1
 4285 0278 02       		.byte	2
 4286 0279 04       		.byte	4
 4287 027a 02       		.byte	2
 4288 027b 3C       		.byte	60
 4289 027c 26       		.byte	38
 4290 027d 23       		.byte	35
 4291 027e 26       		.byte	38
 4292 027f 3C       		.byte	60
 4293 0280 1E       		.byte	30
 4294 0281 A1       		.byte	-95
 4295 0282 A1       		.byte	-95
ARM GAS  C:\Users\PC\AppData\Local\Temp\ccKVdNiW.s 			page 97


 4296 0283 61       		.byte	97
 4297 0284 12       		.byte	18
 4298 0285 3A       		.byte	58
 4299 0286 40       		.byte	64
 4300 0287 40       		.byte	64
 4301 0288 20       		.byte	32
 4302 0289 7A       		.byte	122
 4303 028a 38       		.byte	56
 4304 028b 54       		.byte	84
 4305 028c 54       		.byte	84
 4306 028d 55       		.byte	85
 4307 028e 59       		.byte	89
 4308 028f 21       		.byte	33
 4309 0290 55       		.byte	85
 4310 0291 55       		.byte	85
 4311 0292 79       		.byte	121
 4312 0293 41       		.byte	65
 4313 0294 22       		.byte	34
 4314 0295 54       		.byte	84
 4315 0296 54       		.byte	84
 4316 0297 78       		.byte	120
 4317 0298 42       		.byte	66
 4318 0299 21       		.byte	33
 4319 029a 55       		.byte	85
 4320 029b 54       		.byte	84
 4321 029c 78       		.byte	120
 4322 029d 40       		.byte	64
 4323 029e 20       		.byte	32
 4324 029f 54       		.byte	84
 4325 02a0 55       		.byte	85
 4326 02a1 79       		.byte	121
 4327 02a2 40       		.byte	64
 4328 02a3 0C       		.byte	12
 4329 02a4 1E       		.byte	30
 4330 02a5 52       		.byte	82
 4331 02a6 72       		.byte	114
 4332 02a7 12       		.byte	18
 4333 02a8 39       		.byte	57
 4334 02a9 55       		.byte	85
 4335 02aa 55       		.byte	85
 4336 02ab 55       		.byte	85
 4337 02ac 59       		.byte	89
 4338 02ad 39       		.byte	57
 4339 02ae 54       		.byte	84
 4340 02af 54       		.byte	84
 4341 02b0 54       		.byte	84
 4342 02b1 59       		.byte	89
 4343 02b2 39       		.byte	57
 4344 02b3 55       		.byte	85
 4345 02b4 54       		.byte	84
 4346 02b5 54       		.byte	84
 4347 02b6 58       		.byte	88
 4348 02b7 00       		.byte	0
 4349 02b8 00       		.byte	0
 4350 02b9 45       		.byte	69
 4351 02ba 7C       		.byte	124
 4352 02bb 41       		.byte	65
ARM GAS  C:\Users\PC\AppData\Local\Temp\ccKVdNiW.s 			page 98


 4353 02bc 00       		.byte	0
 4354 02bd 02       		.byte	2
 4355 02be 45       		.byte	69
 4356 02bf 7D       		.byte	125
 4357 02c0 42       		.byte	66
 4358 02c1 00       		.byte	0
 4359 02c2 01       		.byte	1
 4360 02c3 45       		.byte	69
 4361 02c4 7C       		.byte	124
 4362 02c5 40       		.byte	64
 4363 02c6 7D       		.byte	125
 4364 02c7 12       		.byte	18
 4365 02c8 11       		.byte	17
 4366 02c9 12       		.byte	18
 4367 02ca 7D       		.byte	125
 4368 02cb F0       		.byte	-16
 4369 02cc 28       		.byte	40
 4370 02cd 25       		.byte	37
 4371 02ce 28       		.byte	40
 4372 02cf F0       		.byte	-16
 4373 02d0 7C       		.byte	124
 4374 02d1 54       		.byte	84
 4375 02d2 55       		.byte	85
 4376 02d3 45       		.byte	69
 4377 02d4 00       		.byte	0
 4378 02d5 20       		.byte	32
 4379 02d6 54       		.byte	84
 4380 02d7 54       		.byte	84
 4381 02d8 7C       		.byte	124
 4382 02d9 54       		.byte	84
 4383 02da 7C       		.byte	124
 4384 02db 0A       		.byte	10
 4385 02dc 09       		.byte	9
 4386 02dd 7F       		.byte	127
 4387 02de 49       		.byte	73
 4388 02df 32       		.byte	50
 4389 02e0 49       		.byte	73
 4390 02e1 49       		.byte	73
 4391 02e2 49       		.byte	73
 4392 02e3 32       		.byte	50
 4393 02e4 3A       		.byte	58
 4394 02e5 44       		.byte	68
 4395 02e6 44       		.byte	68
 4396 02e7 44       		.byte	68
 4397 02e8 3A       		.byte	58
 4398 02e9 32       		.byte	50
 4399 02ea 4A       		.byte	74
 4400 02eb 48       		.byte	72
 4401 02ec 48       		.byte	72
 4402 02ed 30       		.byte	48
 4403 02ee 3A       		.byte	58
 4404 02ef 41       		.byte	65
 4405 02f0 41       		.byte	65
 4406 02f1 21       		.byte	33
 4407 02f2 7A       		.byte	122
 4408 02f3 3A       		.byte	58
 4409 02f4 42       		.byte	66
ARM GAS  C:\Users\PC\AppData\Local\Temp\ccKVdNiW.s 			page 99


 4410 02f5 40       		.byte	64
 4411 02f6 20       		.byte	32
 4412 02f7 78       		.byte	120
 4413 02f8 00       		.byte	0
 4414 02f9 9D       		.byte	-99
 4415 02fa A0       		.byte	-96
 4416 02fb A0       		.byte	-96
 4417 02fc 7D       		.byte	125
 4418 02fd 3D       		.byte	61
 4419 02fe 42       		.byte	66
 4420 02ff 42       		.byte	66
 4421 0300 42       		.byte	66
 4422 0301 3D       		.byte	61
 4423 0302 3D       		.byte	61
 4424 0303 40       		.byte	64
 4425 0304 40       		.byte	64
 4426 0305 40       		.byte	64
 4427 0306 3D       		.byte	61
 4428 0307 3C       		.byte	60
 4429 0308 24       		.byte	36
 4430 0309 FF       		.byte	-1
 4431 030a 24       		.byte	36
 4432 030b 24       		.byte	36
 4433 030c 48       		.byte	72
 4434 030d 7E       		.byte	126
 4435 030e 49       		.byte	73
 4436 030f 43       		.byte	67
 4437 0310 66       		.byte	102
 4438 0311 2B       		.byte	43
 4439 0312 2F       		.byte	47
 4440 0313 FC       		.byte	-4
 4441 0314 2F       		.byte	47
 4442 0315 2B       		.byte	43
 4443 0316 FF       		.byte	-1
 4444 0317 09       		.byte	9
 4445 0318 29       		.byte	41
 4446 0319 F6       		.byte	-10
 4447 031a 20       		.byte	32
 4448 031b C0       		.byte	-64
 4449 031c 88       		.byte	-120
 4450 031d 7E       		.byte	126
 4451 031e 09       		.byte	9
 4452 031f 03       		.byte	3
 4453 0320 20       		.byte	32
 4454 0321 54       		.byte	84
 4455 0322 54       		.byte	84
 4456 0323 79       		.byte	121
 4457 0324 41       		.byte	65
 4458 0325 00       		.byte	0
 4459 0326 00       		.byte	0
 4460 0327 44       		.byte	68
 4461 0328 7D       		.byte	125
 4462 0329 41       		.byte	65
 4463 032a 30       		.byte	48
 4464 032b 48       		.byte	72
 4465 032c 48       		.byte	72
 4466 032d 4A       		.byte	74
ARM GAS  C:\Users\PC\AppData\Local\Temp\ccKVdNiW.s 			page 100


 4467 032e 32       		.byte	50
 4468 032f 38       		.byte	56
 4469 0330 40       		.byte	64
 4470 0331 40       		.byte	64
 4471 0332 22       		.byte	34
 4472 0333 7A       		.byte	122
 4473 0334 00       		.byte	0
 4474 0335 7A       		.byte	122
 4475 0336 0A       		.byte	10
 4476 0337 0A       		.byte	10
 4477 0338 72       		.byte	114
 4478 0339 7D       		.byte	125
 4479 033a 0D       		.byte	13
 4480 033b 19       		.byte	25
 4481 033c 31       		.byte	49
 4482 033d 7D       		.byte	125
 4483 033e 26       		.byte	38
 4484 033f 29       		.byte	41
 4485 0340 29       		.byte	41
 4486 0341 2F       		.byte	47
 4487 0342 28       		.byte	40
 4488 0343 26       		.byte	38
 4489 0344 29       		.byte	41
 4490 0345 29       		.byte	41
 4491 0346 29       		.byte	41
 4492 0347 26       		.byte	38
 4493 0348 30       		.byte	48
 4494 0349 48       		.byte	72
 4495 034a 4D       		.byte	77
 4496 034b 40       		.byte	64
 4497 034c 20       		.byte	32
 4498 034d 38       		.byte	56
 4499 034e 08       		.byte	8
 4500 034f 08       		.byte	8
 4501 0350 08       		.byte	8
 4502 0351 08       		.byte	8
 4503 0352 08       		.byte	8
 4504 0353 08       		.byte	8
 4505 0354 08       		.byte	8
 4506 0355 08       		.byte	8
 4507 0356 38       		.byte	56
 4508 0357 2F       		.byte	47
 4509 0358 10       		.byte	16
 4510 0359 C8       		.byte	-56
 4511 035a AC       		.byte	-84
 4512 035b BA       		.byte	-70
 4513 035c 2F       		.byte	47
 4514 035d 10       		.byte	16
 4515 035e 28       		.byte	40
 4516 035f 34       		.byte	52
 4517 0360 FA       		.byte	-6
 4518 0361 00       		.byte	0
 4519 0362 00       		.byte	0
 4520 0363 7B       		.byte	123
 4521 0364 00       		.byte	0
 4522 0365 00       		.byte	0
 4523 0366 08       		.byte	8
ARM GAS  C:\Users\PC\AppData\Local\Temp\ccKVdNiW.s 			page 101


 4524 0367 14       		.byte	20
 4525 0368 2A       		.byte	42
 4526 0369 14       		.byte	20
 4527 036a 22       		.byte	34
 4528 036b 22       		.byte	34
 4529 036c 14       		.byte	20
 4530 036d 2A       		.byte	42
 4531 036e 14       		.byte	20
 4532 036f 08       		.byte	8
 4533 0370 55       		.byte	85
 4534 0371 00       		.byte	0
 4535 0372 55       		.byte	85
 4536 0373 00       		.byte	0
 4537 0374 55       		.byte	85
 4538 0375 AA       		.byte	-86
 4539 0376 55       		.byte	85
 4540 0377 AA       		.byte	-86
 4541 0378 55       		.byte	85
 4542 0379 AA       		.byte	-86
 4543 037a FF       		.byte	-1
 4544 037b 55       		.byte	85
 4545 037c FF       		.byte	-1
 4546 037d 55       		.byte	85
 4547 037e FF       		.byte	-1
 4548 037f 00       		.byte	0
 4549 0380 00       		.byte	0
 4550 0381 00       		.byte	0
 4551 0382 FF       		.byte	-1
 4552 0383 00       		.byte	0
 4553 0384 10       		.byte	16
 4554 0385 10       		.byte	16
 4555 0386 10       		.byte	16
 4556 0387 FF       		.byte	-1
 4557 0388 00       		.byte	0
 4558 0389 14       		.byte	20
 4559 038a 14       		.byte	20
 4560 038b 14       		.byte	20
 4561 038c FF       		.byte	-1
 4562 038d 00       		.byte	0
 4563 038e 10       		.byte	16
 4564 038f 10       		.byte	16
 4565 0390 FF       		.byte	-1
 4566 0391 00       		.byte	0
 4567 0392 FF       		.byte	-1
 4568 0393 10       		.byte	16
 4569 0394 10       		.byte	16
 4570 0395 F0       		.byte	-16
 4571 0396 10       		.byte	16
 4572 0397 F0       		.byte	-16
 4573 0398 14       		.byte	20
 4574 0399 14       		.byte	20
 4575 039a 14       		.byte	20
 4576 039b FC       		.byte	-4
 4577 039c 00       		.byte	0
 4578 039d 14       		.byte	20
 4579 039e 14       		.byte	20
 4580 039f F7       		.byte	-9
ARM GAS  C:\Users\PC\AppData\Local\Temp\ccKVdNiW.s 			page 102


 4581 03a0 00       		.byte	0
 4582 03a1 FF       		.byte	-1
 4583 03a2 00       		.byte	0
 4584 03a3 00       		.byte	0
 4585 03a4 FF       		.byte	-1
 4586 03a5 00       		.byte	0
 4587 03a6 FF       		.byte	-1
 4588 03a7 14       		.byte	20
 4589 03a8 14       		.byte	20
 4590 03a9 F4       		.byte	-12
 4591 03aa 04       		.byte	4
 4592 03ab FC       		.byte	-4
 4593 03ac 14       		.byte	20
 4594 03ad 14       		.byte	20
 4595 03ae 17       		.byte	23
 4596 03af 10       		.byte	16
 4597 03b0 1F       		.byte	31
 4598 03b1 10       		.byte	16
 4599 03b2 10       		.byte	16
 4600 03b3 1F       		.byte	31
 4601 03b4 10       		.byte	16
 4602 03b5 1F       		.byte	31
 4603 03b6 14       		.byte	20
 4604 03b7 14       		.byte	20
 4605 03b8 14       		.byte	20
 4606 03b9 1F       		.byte	31
 4607 03ba 00       		.byte	0
 4608 03bb 10       		.byte	16
 4609 03bc 10       		.byte	16
 4610 03bd 10       		.byte	16
 4611 03be F0       		.byte	-16
 4612 03bf 00       		.byte	0
 4613 03c0 00       		.byte	0
 4614 03c1 00       		.byte	0
 4615 03c2 00       		.byte	0
 4616 03c3 1F       		.byte	31
 4617 03c4 10       		.byte	16
 4618 03c5 10       		.byte	16
 4619 03c6 10       		.byte	16
 4620 03c7 10       		.byte	16
 4621 03c8 1F       		.byte	31
 4622 03c9 10       		.byte	16
 4623 03ca 10       		.byte	16
 4624 03cb 10       		.byte	16
 4625 03cc 10       		.byte	16
 4626 03cd F0       		.byte	-16
 4627 03ce 10       		.byte	16
 4628 03cf 00       		.byte	0
 4629 03d0 00       		.byte	0
 4630 03d1 00       		.byte	0
 4631 03d2 FF       		.byte	-1
 4632 03d3 10       		.byte	16
 4633 03d4 10       		.byte	16
 4634 03d5 10       		.byte	16
 4635 03d6 10       		.byte	16
 4636 03d7 10       		.byte	16
 4637 03d8 10       		.byte	16
ARM GAS  C:\Users\PC\AppData\Local\Temp\ccKVdNiW.s 			page 103


 4638 03d9 10       		.byte	16
 4639 03da 10       		.byte	16
 4640 03db 10       		.byte	16
 4641 03dc FF       		.byte	-1
 4642 03dd 10       		.byte	16
 4643 03de 00       		.byte	0
 4644 03df 00       		.byte	0
 4645 03e0 00       		.byte	0
 4646 03e1 FF       		.byte	-1
 4647 03e2 14       		.byte	20
 4648 03e3 00       		.byte	0
 4649 03e4 00       		.byte	0
 4650 03e5 FF       		.byte	-1
 4651 03e6 00       		.byte	0
 4652 03e7 FF       		.byte	-1
 4653 03e8 00       		.byte	0
 4654 03e9 00       		.byte	0
 4655 03ea 1F       		.byte	31
 4656 03eb 10       		.byte	16
 4657 03ec 17       		.byte	23
 4658 03ed 00       		.byte	0
 4659 03ee 00       		.byte	0
 4660 03ef FC       		.byte	-4
 4661 03f0 04       		.byte	4
 4662 03f1 F4       		.byte	-12
 4663 03f2 14       		.byte	20
 4664 03f3 14       		.byte	20
 4665 03f4 17       		.byte	23
 4666 03f5 10       		.byte	16
 4667 03f6 17       		.byte	23
 4668 03f7 14       		.byte	20
 4669 03f8 14       		.byte	20
 4670 03f9 F4       		.byte	-12
 4671 03fa 04       		.byte	4
 4672 03fb F4       		.byte	-12
 4673 03fc 00       		.byte	0
 4674 03fd 00       		.byte	0
 4675 03fe FF       		.byte	-1
 4676 03ff 00       		.byte	0
 4677 0400 F7       		.byte	-9
 4678 0401 14       		.byte	20
 4679 0402 14       		.byte	20
 4680 0403 14       		.byte	20
 4681 0404 14       		.byte	20
 4682 0405 14       		.byte	20
 4683 0406 14       		.byte	20
 4684 0407 14       		.byte	20
 4685 0408 F7       		.byte	-9
 4686 0409 00       		.byte	0
 4687 040a F7       		.byte	-9
 4688 040b 14       		.byte	20
 4689 040c 14       		.byte	20
 4690 040d 14       		.byte	20
 4691 040e 17       		.byte	23
 4692 040f 14       		.byte	20
 4693 0410 10       		.byte	16
 4694 0411 10       		.byte	16
ARM GAS  C:\Users\PC\AppData\Local\Temp\ccKVdNiW.s 			page 104


 4695 0412 1F       		.byte	31
 4696 0413 10       		.byte	16
 4697 0414 1F       		.byte	31
 4698 0415 14       		.byte	20
 4699 0416 14       		.byte	20
 4700 0417 14       		.byte	20
 4701 0418 F4       		.byte	-12
 4702 0419 14       		.byte	20
 4703 041a 10       		.byte	16
 4704 041b 10       		.byte	16
 4705 041c F0       		.byte	-16
 4706 041d 10       		.byte	16
 4707 041e F0       		.byte	-16
 4708 041f 00       		.byte	0
 4709 0420 00       		.byte	0
 4710 0421 1F       		.byte	31
 4711 0422 10       		.byte	16
 4712 0423 1F       		.byte	31
 4713 0424 00       		.byte	0
 4714 0425 00       		.byte	0
 4715 0426 00       		.byte	0
 4716 0427 1F       		.byte	31
 4717 0428 14       		.byte	20
 4718 0429 00       		.byte	0
 4719 042a 00       		.byte	0
 4720 042b 00       		.byte	0
 4721 042c FC       		.byte	-4
 4722 042d 14       		.byte	20
 4723 042e 00       		.byte	0
 4724 042f 00       		.byte	0
 4725 0430 F0       		.byte	-16
 4726 0431 10       		.byte	16
 4727 0432 F0       		.byte	-16
 4728 0433 10       		.byte	16
 4729 0434 10       		.byte	16
 4730 0435 FF       		.byte	-1
 4731 0436 10       		.byte	16
 4732 0437 FF       		.byte	-1
 4733 0438 14       		.byte	20
 4734 0439 14       		.byte	20
 4735 043a 14       		.byte	20
 4736 043b FF       		.byte	-1
 4737 043c 14       		.byte	20
 4738 043d 10       		.byte	16
 4739 043e 10       		.byte	16
 4740 043f 10       		.byte	16
 4741 0440 1F       		.byte	31
 4742 0441 00       		.byte	0
 4743 0442 00       		.byte	0
 4744 0443 00       		.byte	0
 4745 0444 00       		.byte	0
 4746 0445 F0       		.byte	-16
 4747 0446 10       		.byte	16
 4748 0447 FF       		.byte	-1
 4749 0448 FF       		.byte	-1
 4750 0449 FF       		.byte	-1
 4751 044a FF       		.byte	-1
ARM GAS  C:\Users\PC\AppData\Local\Temp\ccKVdNiW.s 			page 105


 4752 044b FF       		.byte	-1
 4753 044c F0       		.byte	-16
 4754 044d F0       		.byte	-16
 4755 044e F0       		.byte	-16
 4756 044f F0       		.byte	-16
 4757 0450 F0       		.byte	-16
 4758 0451 FF       		.byte	-1
 4759 0452 FF       		.byte	-1
 4760 0453 FF       		.byte	-1
 4761 0454 00       		.byte	0
 4762 0455 00       		.byte	0
 4763 0456 00       		.byte	0
 4764 0457 00       		.byte	0
 4765 0458 00       		.byte	0
 4766 0459 FF       		.byte	-1
 4767 045a FF       		.byte	-1
 4768 045b 0F       		.byte	15
 4769 045c 0F       		.byte	15
 4770 045d 0F       		.byte	15
 4771 045e 0F       		.byte	15
 4772 045f 0F       		.byte	15
 4773 0460 38       		.byte	56
 4774 0461 44       		.byte	68
 4775 0462 44       		.byte	68
 4776 0463 38       		.byte	56
 4777 0464 44       		.byte	68
 4778 0465 FC       		.byte	-4
 4779 0466 4A       		.byte	74
 4780 0467 4A       		.byte	74
 4781 0468 4A       		.byte	74
 4782 0469 34       		.byte	52
 4783 046a 7E       		.byte	126
 4784 046b 02       		.byte	2
 4785 046c 02       		.byte	2
 4786 046d 06       		.byte	6
 4787 046e 06       		.byte	6
 4788 046f 02       		.byte	2
 4789 0470 7E       		.byte	126
 4790 0471 02       		.byte	2
 4791 0472 7E       		.byte	126
 4792 0473 02       		.byte	2
 4793 0474 63       		.byte	99
 4794 0475 55       		.byte	85
 4795 0476 49       		.byte	73
 4796 0477 41       		.byte	65
 4797 0478 63       		.byte	99
 4798 0479 38       		.byte	56
 4799 047a 44       		.byte	68
 4800 047b 44       		.byte	68
 4801 047c 3C       		.byte	60
 4802 047d 04       		.byte	4
 4803 047e 40       		.byte	64
 4804 047f 7E       		.byte	126
 4805 0480 20       		.byte	32
 4806 0481 1E       		.byte	30
 4807 0482 20       		.byte	32
 4808 0483 06       		.byte	6
ARM GAS  C:\Users\PC\AppData\Local\Temp\ccKVdNiW.s 			page 106


 4809 0484 02       		.byte	2
 4810 0485 7E       		.byte	126
 4811 0486 02       		.byte	2
 4812 0487 02       		.byte	2
 4813 0488 99       		.byte	-103
 4814 0489 A5       		.byte	-91
 4815 048a E7       		.byte	-25
 4816 048b A5       		.byte	-91
 4817 048c 99       		.byte	-103
 4818 048d 1C       		.byte	28
 4819 048e 2A       		.byte	42
 4820 048f 49       		.byte	73
 4821 0490 2A       		.byte	42
 4822 0491 1C       		.byte	28
 4823 0492 4C       		.byte	76
 4824 0493 72       		.byte	114
 4825 0494 01       		.byte	1
 4826 0495 72       		.byte	114
 4827 0496 4C       		.byte	76
 4828 0497 30       		.byte	48
 4829 0498 4A       		.byte	74
 4830 0499 4D       		.byte	77
 4831 049a 4D       		.byte	77
 4832 049b 30       		.byte	48
 4833 049c 30       		.byte	48
 4834 049d 48       		.byte	72
 4835 049e 78       		.byte	120
 4836 049f 48       		.byte	72
 4837 04a0 30       		.byte	48
 4838 04a1 BC       		.byte	-68
 4839 04a2 62       		.byte	98
 4840 04a3 5A       		.byte	90
 4841 04a4 46       		.byte	70
 4842 04a5 3D       		.byte	61
 4843 04a6 3E       		.byte	62
 4844 04a7 49       		.byte	73
 4845 04a8 49       		.byte	73
 4846 04a9 49       		.byte	73
 4847 04aa 00       		.byte	0
 4848 04ab 7E       		.byte	126
 4849 04ac 01       		.byte	1
 4850 04ad 01       		.byte	1
 4851 04ae 01       		.byte	1
 4852 04af 7E       		.byte	126
 4853 04b0 2A       		.byte	42
 4854 04b1 2A       		.byte	42
 4855 04b2 2A       		.byte	42
 4856 04b3 2A       		.byte	42
 4857 04b4 2A       		.byte	42
 4858 04b5 44       		.byte	68
 4859 04b6 44       		.byte	68
 4860 04b7 5F       		.byte	95
 4861 04b8 44       		.byte	68
 4862 04b9 44       		.byte	68
 4863 04ba 40       		.byte	64
 4864 04bb 51       		.byte	81
 4865 04bc 4A       		.byte	74
ARM GAS  C:\Users\PC\AppData\Local\Temp\ccKVdNiW.s 			page 107


 4866 04bd 44       		.byte	68
 4867 04be 40       		.byte	64
 4868 04bf 40       		.byte	64
 4869 04c0 44       		.byte	68
 4870 04c1 4A       		.byte	74
 4871 04c2 51       		.byte	81
 4872 04c3 40       		.byte	64
 4873 04c4 00       		.byte	0
 4874 04c5 00       		.byte	0
 4875 04c6 FF       		.byte	-1
 4876 04c7 01       		.byte	1
 4877 04c8 03       		.byte	3
 4878 04c9 E0       		.byte	-32
 4879 04ca 80       		.byte	-128
 4880 04cb FF       		.byte	-1
 4881 04cc 00       		.byte	0
 4882 04cd 00       		.byte	0
 4883 04ce 08       		.byte	8
 4884 04cf 08       		.byte	8
 4885 04d0 6B       		.byte	107
 4886 04d1 6B       		.byte	107
 4887 04d2 08       		.byte	8
 4888 04d3 36       		.byte	54
 4889 04d4 12       		.byte	18
 4890 04d5 36       		.byte	54
 4891 04d6 24       		.byte	36
 4892 04d7 36       		.byte	54
 4893 04d8 06       		.byte	6
 4894 04d9 0F       		.byte	15
 4895 04da 09       		.byte	9
 4896 04db 0F       		.byte	15
 4897 04dc 06       		.byte	6
 4898 04dd 00       		.byte	0
 4899 04de 00       		.byte	0
 4900 04df 18       		.byte	24
 4901 04e0 18       		.byte	24
 4902 04e1 00       		.byte	0
 4903 04e2 00       		.byte	0
 4904 04e3 00       		.byte	0
 4905 04e4 10       		.byte	16
 4906 04e5 10       		.byte	16
 4907 04e6 00       		.byte	0
 4908 04e7 30       		.byte	48
 4909 04e8 40       		.byte	64
 4910 04e9 FF       		.byte	-1
 4911 04ea 01       		.byte	1
 4912 04eb 01       		.byte	1
 4913 04ec 00       		.byte	0
 4914 04ed 1F       		.byte	31
 4915 04ee 01       		.byte	1
 4916 04ef 01       		.byte	1
 4917 04f0 1E       		.byte	30
 4918 04f1 00       		.byte	0
 4919 04f2 19       		.byte	25
 4920 04f3 1D       		.byte	29
 4921 04f4 17       		.byte	23
 4922 04f5 12       		.byte	18
ARM GAS  C:\Users\PC\AppData\Local\Temp\ccKVdNiW.s 			page 108


 4923 04f6 00       		.byte	0
 4924 04f7 3C       		.byte	60
 4925 04f8 3C       		.byte	60
 4926 04f9 3C       		.byte	60
 4927 04fa 3C       		.byte	60
 4928 04fb 00       		.byte	0
 4929 04fc 00       		.byte	0
 4930 04fd 00       		.byte	0
 4931 04fe 00       		.byte	0
 4932 04ff 00       		.byte	0
 4933              		.data
 4934              		.align	1
 4935              		.set	.LANCHOR1,. + 0
 4936              		.type	wrap, %object
 4937              		.size	wrap, 1
 4938              	wrap:
 4939 0000 01       		.byte	1
 4940              		.type	textsize, %object
 4941              		.size	textsize, 1
 4942              	textsize:
 4943 0001 01       		.byte	1
 4944              		.type	textcolor, %object
 4945              		.size	textcolor, 2
 4946              	textcolor:
 4947 0002 FFFF     		.short	-1
 4948              		.type	textbgcolor, %object
 4949              		.size	textbgcolor, 2
 4950              	textbgcolor:
 4951 0004 FFFF     		.short	-1
 4952              		.bss
 4953              		.align	1
 4954              		.set	.LANCHOR0,. + 0
 4955              		.type	cursor_x, %object
 4956              		.size	cursor_x, 2
 4957              	cursor_x:
 4958 0000 0000     		.space	2
 4959              		.type	cursor_y, %object
 4960              		.size	cursor_y, 2
 4961              	cursor_y:
 4962 0002 0000     		.space	2
 4963              		.text
 4964              	.Letext0:
 4965              		.file 2 "c:\\program files (x86)\\cypress\\psoc creator\\4.4\\psoc creator\\import\\gnu\\arm\\5.4.
 4966              		.file 3 "c:\\program files (x86)\\cypress\\psoc creator\\4.4\\psoc creator\\import\\gnu\\arm\\5.4.
 4967              		.file 4 "ssd1306.h"
 4968              		.file 5 "<built-in>"