ARM GAS  C:\Users\PC\AppData\Local\Temp\ccUeHxB3.s 			page 1


   1              		.syntax unified
   2              		.cpu cortex-m0plus
   3              		.fpu softvfp
   4              		.eabi_attribute 20, 1
   5              		.eabi_attribute 21, 1
   6              		.eabi_attribute 23, 3
   7              		.eabi_attribute 24, 1
   8              		.eabi_attribute 25, 1
   9              		.eabi_attribute 26, 1
  10              		.eabi_attribute 30, 1
  11              		.eabi_attribute 34, 0
  12              		.eabi_attribute 18, 4
  13              		.thumb
  14              		.syntax unified
  15              		.file	"main.c"
  16              		.text
  17              	.Ltext0:
  18              		.cfi_sections	.debug_frame
  19              		.section	.text.println,"ax",%progbits
  20              		.align	2
  21              		.global	println
  22              		.code	16
  23              		.thumb_func
  24              		.type	println, %function
  25              	println:
  26              	.LFB34:
  27              		.file 1 "main.c"
   1:main.c        **** /* ========================================
   2:main.c        ****  *
   3:main.c        ****  * Copyright YOUR COMPANY, THE YEAR
   4:main.c        ****  * All Rights Reserved
   5:main.c        ****  * UNPUBLISHED, LICENSED SOFTWARE.
   6:main.c        ****  *
   7:main.c        ****  * CONFIDENTIAL AND PROPRIETARY INFORMATION
   8:main.c        ****  * WHICH IS THE PROPERTY OF your company.
   9:main.c        ****  *
  10:main.c        ****  * ========================================
  11:main.c        **** */
  12:main.c        **** #include <stdio.h>
  13:main.c        **** #include "project.h"
  14:main.c        **** typedef char *String;
  15:main.c        **** 
  16:main.c        **** void println(String str){
  28              		.loc 1 16 0
  29              		.cfi_startproc
  30              		@ args = 0, pretend = 0, frame = 0
  31              		@ frame_needed = 0, uses_anonymous_args = 0
  32              	.LVL0:
  33 0000 10B5     		push	{r4, lr}
  34              		.cfi_def_cfa_offset 8
  35              		.cfi_offset 4, -8
  36              		.cfi_offset 14, -4
  17:main.c        ****     mUART_UartPutString(str);
  37              		.loc 1 17 0
  38 0002 FFF7FEFF 		bl	mUART_UartPutString
  39              	.LVL1:
  18:main.c        ****     mUART_UartPutString("\n");
ARM GAS  C:\Users\PC\AppData\Local\Temp\ccUeHxB3.s 			page 2


  40              		.loc 1 18 0
  41 0006 0248     		ldr	r0, .L2
  42 0008 FFF7FEFF 		bl	mUART_UartPutString
  43              	.LVL2:
  19:main.c        **** }
  44              		.loc 1 19 0
  45              		@ sp needed
  46 000c 10BD     		pop	{r4, pc}
  47              	.L3:
  48 000e C046     		.align	2
  49              	.L2:
  50 0010 00000000 		.word	.LC0
  51              		.cfi_endproc
  52              	.LFE34:
  53              		.size	println, .-println
  54              		.section	.text.publicSetUp,"ax",%progbits
  55              		.align	2
  56              		.global	publicSetUp
  57              		.code	16
  58              		.thumb_func
  59              		.type	publicSetUp, %function
  60              	publicSetUp:
  61              	.LFB35:
  20:main.c        **** 
  21:main.c        **** typedef struct _System{
  22:main.c        ****     struct _IN{   
  23:main.c        ****     
  24:main.c        ****     }in;
  25:main.c        ****     struct _OUT{
  26:main.c        ****         void (*println)(String);
  27:main.c        ****         void (*pLed_Writr)(int);
  28:main.c        ****     }out;
  29:main.c        **** }system;
  30:main.c        **** 
  31:main.c        **** void publicSetUp(system *System){
  62              		.loc 1 31 0
  63              		.cfi_startproc
  64              		@ args = 0, pretend = 0, frame = 0
  65              		@ frame_needed = 0, uses_anonymous_args = 0
  66              		@ link register save eliminated.
  67              	.LVL3:
  32:main.c        ****     System->out.println = println;
  68              		.loc 1 32 0
  69 0000 024B     		ldr	r3, .L5
  70 0002 0360     		str	r3, [r0]
  33:main.c        ****     System->out.pLed_Writr = pLed_Write;
  71              		.loc 1 33 0
  72 0004 024B     		ldr	r3, .L5+4
  73 0006 4360     		str	r3, [r0, #4]
  34:main.c        **** }
  74              		.loc 1 34 0
  75              		@ sp needed
  76 0008 7047     		bx	lr
  77              	.L6:
  78 000a C046     		.align	2
  79              	.L5:
  80 000c 00000000 		.word	println
ARM GAS  C:\Users\PC\AppData\Local\Temp\ccUeHxB3.s 			page 3


  81 0010 00000000 		.word	pLed_Write
  82              		.cfi_endproc
  83              	.LFE35:
  84              		.size	publicSetUp, .-publicSetUp
  85              		.section	.text.privateSetUp,"ax",%progbits
  86              		.align	2
  87              		.global	privateSetUp
  88              		.code	16
  89              		.thumb_func
  90              		.type	privateSetUp, %function
  91              	privateSetUp:
  92              	.LFB36:
  35:main.c        **** 
  36:main.c        **** void privateSetUp(system *System){
  93              		.loc 1 36 0
  94              		.cfi_startproc
  95              		@ args = 0, pretend = 0, frame = 0
  96              		@ frame_needed = 0, uses_anonymous_args = 0
  97              	.LVL4:
  98 0000 10B5     		push	{r4, lr}
  99              		.cfi_def_cfa_offset 8
 100              		.cfi_offset 4, -8
 101              		.cfi_offset 14, -4
  37:main.c        ****     publicSetUp(System);
 102              		.loc 1 37 0
 103 0002 FFF7FEFF 		bl	publicSetUp
 104              	.LVL5:
  38:main.c        **** }
 105              		.loc 1 38 0
 106              		@ sp needed
 107 0006 10BD     		pop	{r4, pc}
 108              		.cfi_endproc
 109              	.LFE36:
 110              		.size	privateSetUp, .-privateSetUp
 111              		.section	.text.main,"ax",%progbits
 112              		.align	2
 113              		.global	main
 114              		.code	16
 115              		.thumb_func
 116              		.type	main, %function
 117              	main:
 118              	.LFB37:
  39:main.c        **** 
  40:main.c        **** int main(void) {
 119              		.loc 1 40 0
 120              		.cfi_startproc
 121              		@ args = 0, pretend = 0, frame = 16
 122              		@ frame_needed = 0, uses_anonymous_args = 0
 123 0000 10B5     		push	{r4, lr}
 124              		.cfi_def_cfa_offset 8
 125              		.cfi_offset 4, -8
 126              		.cfi_offset 14, -4
 127 0002 84B0     		sub	sp, sp, #16
 128              		.cfi_def_cfa_offset 24
  41:main.c        ****     system System;
  42:main.c        ****     CyGlobalIntEnable; /* Enable global interrupts. */
 129              		.loc 1 42 0
ARM GAS  C:\Users\PC\AppData\Local\Temp\ccUeHxB3.s 			page 4


 130              		.syntax divided
 131              	@ 42 "main.c" 1
 132 0004 62B6     		CPSIE   i
 133              	@ 0 "" 2
  43:main.c        **** 
  44:main.c        ****     /* Place your initialization/startup code here (e.g. MyInst_Start()) */
  45:main.c        ****     publicSetUp(&System);
 134              		.loc 1 45 0
 135              		.thumb
 136              		.syntax unified
 137 0006 02A8     		add	r0, sp, #8
 138 0008 FFF7FEFF 		bl	publicSetUp
 139              	.LVL6:
  46:main.c        ****     mUART_Start();
 140              		.loc 1 46 0
 141 000c FFF7FEFF 		bl	mUART_Start
 142              	.LVL7:
 143              	.L9:
  47:main.c        ****     for(;;) {
  48:main.c        ****         /* Place your application code here. */
  49:main.c        ****         System.out.pLed_Writr(1);
 144              		.loc 1 49 0 discriminator 1
 145 0010 039B     		ldr	r3, [sp, #12]
 146 0012 0193     		str	r3, [sp, #4]
 147 0014 0120     		movs	r0, #1
 148 0016 9847     		blx	r3
 149              	.LVL8:
  50:main.c        ****         CyDelay(500);
 150              		.loc 1 50 0 discriminator 1
 151 0018 FA24     		movs	r4, #250
 152 001a 6400     		lsls	r4, r4, #1
 153 001c 2000     		movs	r0, r4
 154 001e FFF7FEFF 		bl	CyDelay
 155              	.LVL9:
  51:main.c        ****         System.out.pLed_Writr(0);
 156              		.loc 1 51 0 discriminator 1
 157 0022 039B     		ldr	r3, [sp, #12]
 158 0024 0020     		movs	r0, #0
 159 0026 9847     		blx	r3
 160              	.LVL10:
  52:main.c        ****         CyDelay(500);
 161              		.loc 1 52 0 discriminator 1
 162 0028 2000     		movs	r0, r4
 163 002a FFF7FEFF 		bl	CyDelay
 164              	.LVL11:
 165 002e EFE7     		b	.L9
 166              		.cfi_endproc
 167              	.LFE37:
 168              		.size	main, .-main
 169              		.section	.rodata.str1.4,"aMS",%progbits,1
 170              		.align	2
 171              	.LC0:
 172 0000 0A00     		.ascii	"\012\000"
 173              		.text
 174              	.Letext0:
 175              		.file 2 "Generated_Source\\PSoC4/mUART_SPI_UART.h"
 176              		.file 3 "Generated_Source\\PSoC4/mUART.h"
ARM GAS  C:\Users\PC\AppData\Local\Temp\ccUeHxB3.s 			page 5


 177              		.file 4 "Generated_Source\\PSoC4/CyLib.h"