ARM GAS  C:\Users\PC\AppData\Local\Temp\ccktR3hl.s 			page 1


   1              		.syntax unified
   2              		.cpu cortex-m0plus
   3              		.fpu softvfp
   4              		.eabi_attribute 20, 1
   5              		.eabi_attribute 21, 1
   6              		.eabi_attribute 23, 3
   7              		.eabi_attribute 24, 1
   8              		.eabi_attribute 25, 1
   9              		.eabi_attribute 26, 1
  10              		.eabi_attribute 30, 4
  11              		.eabi_attribute 34, 0
  12              		.eabi_attribute 18, 4
  13              		.thumb
  14              		.syntax unified
  15              		.file	"main.c"
  16              		.text
  17              	.Ltext0:
  18              		.cfi_sections	.debug_frame
  19              		.section	.text.CySysTickCallback,"ax",%progbits
  20              		.align	1
  21              		.global	CySysTickCallback
  22              		.code	16
  23              		.thumb_func
  24              		.type	CySysTickCallback, %function
  25              	CySysTickCallback:
  26              	.LFB37:
  27              		.file 1 "main.c"
   1:main.c        **** /* ========================================
   2:main.c        ****  *
   3:main.c        ****  * Copyright YOUR COMPANY, THE YEAR
   4:main.c        ****  * All Rights Reserved
   5:main.c        ****  * UNPUBLISHED, LICENSED SOFTWARE.
   6:main.c        ****  *
   7:main.c        ****  * CONFIDENTIAL AND PROPRIETARY INFORMATION
   8:main.c        ****  * WHICH IS THE PROPERTY OF your company.
   9:main.c        ****  *
  10:main.c        ****  * ========================================
  11:main.c        **** */
  12:main.c        **** #include <stdio.h>
  13:main.c        **** #include "project.h"
  14:main.c        **** typedef char *String;
  15:main.c        **** 
  16:main.c        **** void println(String str){
  17:main.c        ****     mUART_UartPutString(str);
  18:main.c        ****     mUART_UartPutString("\n");
  19:main.c        **** }
  20:main.c        **** 
  21:main.c        **** typedef struct _System{
  22:main.c        ****     struct _IN{   
  23:main.c        ****     
  24:main.c        ****     }in;
  25:main.c        ****     struct _OUT{
  26:main.c        ****         void (*println)(String);
  27:main.c        ****     }out;
  28:main.c        **** }system;
  29:main.c        **** 
  30:main.c        **** void publicSetUp(system *System){
ARM GAS  C:\Users\PC\AppData\Local\Temp\ccktR3hl.s 			page 2


  31:main.c        ****     System->out.println = println;
  32:main.c        **** }
  33:main.c        **** 
  34:main.c        **** void privateSetUp(system *System){
  35:main.c        ****     publicSetUp(System);
  36:main.c        **** }
  37:main.c        **** int count300ms;
  38:main.c        **** int count400ms;
  39:main.c        **** 
  40:main.c        **** //1ms
  41:main.c        **** void CySysTickCallback(){
  28              		.loc 1 41 0
  29              		.cfi_startproc
  30              		@ args = 0, pretend = 0, frame = 0
  31              		@ frame_needed = 0, uses_anonymous_args = 0
  32              		@ link register save eliminated.
  42:main.c        ****     if(count300ms > 0) count300ms--;
  33              		.loc 1 42 0
  34 0000 064A     		ldr	r2, .L5
  35 0002 1368     		ldr	r3, [r2]
  36 0004 002B     		cmp	r3, #0
  37 0006 01DD     		ble	.L2
  38              		.loc 1 42 0 is_stmt 0 discriminator 1
  39 0008 013B     		subs	r3, r3, #1
  40 000a 1360     		str	r3, [r2]
  41              	.L2:
  43:main.c        ****     if(count400ms > 0) count400ms--;
  42              		.loc 1 43 0 is_stmt 1
  43 000c 044A     		ldr	r2, .L5+4
  44 000e 1368     		ldr	r3, [r2]
  45 0010 002B     		cmp	r3, #0
  46 0012 01DD     		ble	.L1
  47              		.loc 1 43 0 is_stmt 0 discriminator 1
  48 0014 013B     		subs	r3, r3, #1
  49 0016 1360     		str	r3, [r2]
  50              	.L1:
  44:main.c        **** }
  51              		.loc 1 44 0 is_stmt 1
  52              		@ sp needed
  53 0018 7047     		bx	lr
  54              	.L6:
  55 001a C046     		.align	2
  56              	.L5:
  57 001c 00000000 		.word	count300ms
  58 0020 00000000 		.word	count400ms
  59              		.cfi_endproc
  60              	.LFE37:
  61              		.size	CySysTickCallback, .-CySysTickCallback
  62              		.section	.text.println,"ax",%progbits
  63              		.align	1
  64              		.global	println
  65              		.code	16
  66              		.thumb_func
  67              		.type	println, %function
  68              	println:
  69              	.LFB34:
  16:main.c        ****     mUART_UartPutString(str);
ARM GAS  C:\Users\PC\AppData\Local\Temp\ccktR3hl.s 			page 3


  70              		.loc 1 16 0
  71              		.cfi_startproc
  72              		@ args = 0, pretend = 0, frame = 0
  73              		@ frame_needed = 0, uses_anonymous_args = 0
  74              	.LVL0:
  75 0000 10B5     		push	{r4, lr}
  76              		.cfi_def_cfa_offset 8
  77              		.cfi_offset 4, -8
  78              		.cfi_offset 14, -4
  17:main.c        ****     mUART_UartPutString("\n");
  79              		.loc 1 17 0
  80 0002 FFF7FEFF 		bl	mUART_UartPutString
  81              	.LVL1:
  18:main.c        **** }
  82              		.loc 1 18 0
  83 0006 0248     		ldr	r0, .L8
  84 0008 FFF7FEFF 		bl	mUART_UartPutString
  85              	.LVL2:
  19:main.c        **** 
  86              		.loc 1 19 0
  87              		@ sp needed
  88 000c 10BD     		pop	{r4, pc}
  89              	.L9:
  90 000e C046     		.align	2
  91              	.L8:
  92 0010 00000000 		.word	.LC2
  93              		.cfi_endproc
  94              	.LFE34:
  95              		.size	println, .-println
  96              		.section	.text.publicSetUp,"ax",%progbits
  97              		.align	1
  98              		.global	publicSetUp
  99              		.code	16
 100              		.thumb_func
 101              		.type	publicSetUp, %function
 102              	publicSetUp:
 103              	.LFB40:
 104              		.cfi_startproc
 105              		@ args = 0, pretend = 0, frame = 0
 106              		@ frame_needed = 0, uses_anonymous_args = 0
 107              		@ link register save eliminated.
 108 0000 014B     		ldr	r3, .L11
 109              		@ sp needed
 110 0002 0360     		str	r3, [r0]
 111 0004 7047     		bx	lr
 112              	.L12:
 113 0006 C046     		.align	2
 114              	.L11:
 115 0008 00000000 		.word	println
 116              		.cfi_endproc
 117              	.LFE40:
 118              		.size	publicSetUp, .-publicSetUp
 119              		.section	.text.privateSetUp,"ax",%progbits
 120              		.align	1
 121              		.global	privateSetUp
 122              		.code	16
 123              		.thumb_func
ARM GAS  C:\Users\PC\AppData\Local\Temp\ccktR3hl.s 			page 4


 124              		.type	privateSetUp, %function
 125              	privateSetUp:
 126              	.LFB36:
  34:main.c        ****     publicSetUp(System);
 127              		.loc 1 34 0
 128              		.cfi_startproc
 129              		@ args = 0, pretend = 0, frame = 0
 130              		@ frame_needed = 0, uses_anonymous_args = 0
 131              		@ link register save eliminated.
 132              	.LVL3:
 133              	.LBB4:
 134              	.LBB5:
  31:main.c        **** }
 135              		.loc 1 31 0
 136 0000 014B     		ldr	r3, .L14
 137              	.LBE5:
 138              	.LBE4:
  36:main.c        **** int count300ms;
 139              		.loc 1 36 0
 140              		@ sp needed
 141              	.LBB7:
 142              	.LBB6:
  31:main.c        **** }
 143              		.loc 1 31 0
 144 0002 0360     		str	r3, [r0]
 145              	.LVL4:
 146              	.LBE6:
 147              	.LBE7:
  36:main.c        **** int count300ms;
 148              		.loc 1 36 0
 149 0004 7047     		bx	lr
 150              	.L15:
 151 0006 C046     		.align	2
 152              	.L14:
 153 0008 00000000 		.word	println
 154              		.cfi_endproc
 155              	.LFE36:
 156              		.size	privateSetUp, .-privateSetUp
 157              		.global	__aeabi_idivmod
 158              		.section	.text.startup.main,"ax",%progbits
 159              		.align	1
 160              		.global	main
 161              		.code	16
 162              		.thumb_func
 163              		.type	main, %function
 164              	main:
 165              	.LFB38:
  45:main.c        **** 
  46:main.c        **** int main(void)
  47:main.c        **** {
 166              		.loc 1 47 0
 167              		.cfi_startproc
 168              		@ args = 0, pretend = 0, frame = 0
 169              		@ frame_needed = 0, uses_anonymous_args = 0
 170              	.LVL5:
 171 0000 F8B5     		push	{r3, r4, r5, r6, r7, lr}
 172              		.cfi_def_cfa_offset 24
ARM GAS  C:\Users\PC\AppData\Local\Temp\ccktR3hl.s 			page 5


 173              		.cfi_offset 3, -24
 174              		.cfi_offset 4, -20
 175              		.cfi_offset 5, -16
 176              		.cfi_offset 6, -12
 177              		.cfi_offset 7, -8
 178              		.cfi_offset 14, -4
  48:main.c        ****     int pos = 0, sw_Flag = 0;
  49:main.c        ****     system System;
  50:main.c        ****     CyGlobalIntEnable; /* Enable global interrupts. */
 179              		.loc 1 50 0
 180              		.syntax divided
 181              	@ 50 "main.c" 1
 182 0002 62B6     		CPSIE   i
 183              	@ 0 "" 2
  51:main.c        **** 
  52:main.c        ****     /* Place your initialization/startup code here (e.g. MyInst_Start()) */
  53:main.c        ****     mUART_Start();
 184              		.loc 1 53 0
 185              		.thumb
 186              		.syntax unified
 187 0004 FFF7FEFF 		bl	mUART_Start
 188              	.LVL6:
 189              	.LBB8:
  54:main.c        ****     CySysTickStart();
  55:main.c        ****     for (int i = 0; i < CY_SYS_SYST_NUM_OF_CALLBACKS; i++){
 190              		.loc 1 55 0
 191 0008 0024     		movs	r4, #0
 192              	.LBE8:
  54:main.c        ****     CySysTickStart();
 193              		.loc 1 54 0
 194 000a FFF7FEFF 		bl	CySysTickStart
 195              	.LVL7:
 196              	.L17:
 197              	.LBB9:
 198              		.loc 1 55 0 discriminator 1
 199 000e 052C     		cmp	r4, #5
 200 0010 08D0     		beq	.L21
  56:main.c        ****         if(CySysTickGetCallback(i) == NULL){
 201              		.loc 1 56 0
 202 0012 2000     		movs	r0, r4
 203 0014 FFF7FEFF 		bl	CySysTickGetCallback
 204              	.LVL8:
 205 0018 0028     		cmp	r0, #0
 206 001a 06D1     		bne	.L18
  57:main.c        ****             CySysTickSetCallback(i, CySysTickCallback);
 207              		.loc 1 57 0
 208 001c 2649     		ldr	r1, .L31
 209 001e 2000     		movs	r0, r4
 210 0020 FFF7FEFF 		bl	CySysTickSetCallback
 211              	.LVL9:
 212              	.L21:
  55:main.c        ****         if(CySysTickGetCallback(i) == NULL){
 213              		.loc 1 55 0
 214 0024 0024     		movs	r4, #0
 215              	.LVL10:
 216 0026 2500     		movs	r5, r4
 217 0028 24E0     		b	.L19
ARM GAS  C:\Users\PC\AppData\Local\Temp\ccktR3hl.s 			page 6


 218              	.LVL11:
 219              	.L18:
  55:main.c        ****         if(CySysTickGetCallback(i) == NULL){
 220              		.loc 1 55 0 is_stmt 0 discriminator 2
 221 002a 0134     		adds	r4, r4, #1
 222              	.LVL12:
 223 002c EFE7     		b	.L17
 224              	.LVL13:
 225              	.L22:
 226              	.LBE9:
  58:main.c        ****             break;
  59:main.c        ****         }
  60:main.c        ****     }
  61:main.c        ****     for(;;)
  62:main.c        ****     {    
  63:main.c        ****         if(count300ms == 0){
  64:main.c        ****             count400ms = 300;
  65:main.c        ****             System.out.println("this is 300 ms");
  66:main.c        ****         }
  67:main.c        ****         if(count400ms == 0){
 227              		.loc 1 67 0 is_stmt 1
 228 002e 3B68     		ldr	r3, [r7]
 229 0030 002B     		cmp	r3, #0
 230 0032 05D1     		bne	.L23
  68:main.c        ****             count400ms = 400;
 231              		.loc 1 68 0
 232 0034 9133     		adds	r3, r3, #145
 233 0036 FF33     		adds	r3, r3, #255
 234 0038 3B60     		str	r3, [r7]
  69:main.c        ****             System.out.println("this is 400 ms");
 235              		.loc 1 69 0
 236 003a 2048     		ldr	r0, .L31+4
 237 003c 0023     		movs	r3, #0
 238 003e 9847     		blx	r3
 239              	.LVL14:
 240              	.L23:
  70:main.c        ****         }
  71:main.c        ****         if(!BUTTON_Read()){
 241              		.loc 1 71 0
 242 0040 FFF7FEFF 		bl	BUTTON_Read
 243              	.LVL15:
 244 0044 0028     		cmp	r0, #0
 245 0046 21D1     		bne	.L24
  72:main.c        ****             if(!sw_Flag){
 246              		.loc 1 72 0
 247 0048 002C     		cmp	r4, #0
 248 004a 22D1     		bne	.L29
  73:main.c        ****                 pos++;
  74:main.c        ****                 count300ms = -1;
 249              		.loc 1 74 0
 250 004c 0123     		movs	r3, #1
 251 004e 5B42     		rsbs	r3, r3, #0
  73:main.c        ****                 pos++;
 252              		.loc 1 73 0
 253 0050 0135     		adds	r5, r5, #1
 254              	.LVL16:
 255              		.loc 1 74 0
ARM GAS  C:\Users\PC\AppData\Local\Temp\ccktR3hl.s 			page 7


 256 0052 3360     		str	r3, [r6]
  75:main.c        ****             }
  76:main.c        ****             sw_Flag = 1;
 257              		.loc 1 76 0
 258 0054 0134     		adds	r4, r4, #1
 259              	.LVL17:
 260              	.L25:
  77:main.c        ****         }else {
  78:main.c        ****             sw_Flag = 0;   
  79:main.c        ****             count300ms = 0;
  80:main.c        ****         }
  81:main.c        ****         
  82:main.c        ****         if(pos % 3 == 0){
 261              		.loc 1 82 0
 262 0056 0321     		movs	r1, #3
 263 0058 2800     		movs	r0, r5
 264 005a FFF7FEFF 		bl	__aeabi_idivmod
 265              	.LVL18:
 266 005e 0E1E     		subs	r6, r1, #0
 267 0060 19D1     		bne	.L26
  83:main.c        ****             LEDR_Write(1);
 268              		.loc 1 83 0
 269 0062 0120     		movs	r0, #1
 270 0064 FFF7FEFF 		bl	LEDR_Write
 271              	.LVL19:
  84:main.c        ****             LEDG_Write(0);
 272              		.loc 1 84 0
 273 0068 3000     		movs	r0, r6
 274 006a FFF7FEFF 		bl	LEDG_Write
 275              	.LVL20:
  85:main.c        ****             LEDB_Write(0);
 276              		.loc 1 85 0
 277 006e 3000     		movs	r0, r6
 278              	.L30:
  86:main.c        ****         }else if(pos % 3 == 1){
  87:main.c        ****             LEDR_Write(0);
  88:main.c        ****             LEDG_Write(1);
  89:main.c        ****             LEDB_Write(0);
 279              		.loc 1 89 0
 280 0070 FFF7FEFF 		bl	LEDB_Write
 281              	.LVL21:
 282              	.L19:
  63:main.c        ****             count400ms = 300;
 283              		.loc 1 63 0
 284 0074 124E     		ldr	r6, .L31+8
 285 0076 134F     		ldr	r7, .L31+12
 286 0078 3368     		ldr	r3, [r6]
 287 007a 002B     		cmp	r3, #0
 288 007c D7D1     		bne	.L22
  64:main.c        ****             System.out.println("this is 300 ms");
 289              		.loc 1 64 0
 290 007e 2D33     		adds	r3, r3, #45
 291 0080 FF33     		adds	r3, r3, #255
 292 0082 3B60     		str	r3, [r7]
  65:main.c        ****         }
 293              		.loc 1 65 0
 294 0084 1048     		ldr	r0, .L31+16
ARM GAS  C:\Users\PC\AppData\Local\Temp\ccktR3hl.s 			page 8


 295 0086 0023     		movs	r3, #0
 296 0088 9847     		blx	r3
 297              	.LVL22:
 298 008a D0E7     		b	.L22
 299              	.L24:
 300              	.LVL23:
  79:main.c        ****         }
 301              		.loc 1 79 0
 302 008c 0024     		movs	r4, #0
 303 008e 3460     		str	r4, [r6]
 304 0090 E1E7     		b	.L25
 305              	.LVL24:
 306              	.L29:
  76:main.c        ****         }else {
 307              		.loc 1 76 0
 308 0092 0124     		movs	r4, #1
 309              	.LVL25:
 310 0094 DFE7     		b	.L25
 311              	.LVL26:
 312              	.L26:
  87:main.c        ****             LEDG_Write(1);
 313              		.loc 1 87 0
 314 0096 0020     		movs	r0, #0
  86:main.c        ****             LEDR_Write(0);
 315              		.loc 1 86 0
 316 0098 0129     		cmp	r1, #1
 317 009a 06D1     		bne	.L28
  87:main.c        ****             LEDG_Write(1);
 318              		.loc 1 87 0
 319 009c FFF7FEFF 		bl	LEDR_Write
 320              	.LVL27:
  88:main.c        ****             LEDB_Write(0);
 321              		.loc 1 88 0
 322 00a0 3000     		movs	r0, r6
 323 00a2 FFF7FEFF 		bl	LEDG_Write
 324              	.LVL28:
 325              		.loc 1 89 0
 326 00a6 0020     		movs	r0, #0
 327 00a8 E2E7     		b	.L30
 328              	.L28:
  90:main.c        ****         }else {
  91:main.c        ****             LEDR_Write(0);
 329              		.loc 1 91 0
 330 00aa FFF7FEFF 		bl	LEDR_Write
 331              	.LVL29:
  92:main.c        ****             LEDG_Write(0);
 332              		.loc 1 92 0
 333 00ae 0020     		movs	r0, #0
 334 00b0 FFF7FEFF 		bl	LEDG_Write
 335              	.LVL30:
  93:main.c        ****             LEDB_Write(1);
 336              		.loc 1 93 0
 337 00b4 0120     		movs	r0, #1
 338 00b6 DBE7     		b	.L30
 339              	.L32:
 340              		.align	2
 341              	.L31:
ARM GAS  C:\Users\PC\AppData\Local\Temp\ccktR3hl.s 			page 9


 342 00b8 00000000 		.word	CySysTickCallback
 343 00bc 11000000 		.word	.LC11
 344 00c0 00000000 		.word	count300ms
 345 00c4 00000000 		.word	count400ms
 346 00c8 02000000 		.word	.LC9
 347              		.cfi_endproc
 348              	.LFE38:
 349              		.size	main, .-main
 350              		.comm	count400ms,4,4
 351              		.comm	count300ms,4,4
 352              		.section	.rodata.str1.1,"aMS",%progbits,1
 353              	.LC2:
 354 0000 0A00     		.ascii	"\012\000"
 355              	.LC9:
 356 0002 74686973 		.ascii	"this is 300 ms\000"
 356      20697320 
 356      33303020 
 356      6D7300
 357              	.LC11:
 358 0011 74686973 		.ascii	"this is 400 ms\000"
 358      20697320 
 358      34303020 
 358      6D7300
 359              		.text
 360              	.Letext0:
 361              		.file 2 "Generated_Source\\PSoC4/mUART_SPI_UART.h"
 362              		.file 3 "Generated_Source\\PSoC4/CyLib.h"
 363              		.file 4 "Generated_Source\\PSoC4/mUART.h"
 364              		.file 5 "Generated_Source\\PSoC4/BUTTON.h"
 365              		.file 6 "Generated_Source\\PSoC4/LEDR.h"
 366              		.file 7 "Generated_Source\\PSoC4/LEDG.h"
 367              		.file 8 "Generated_Source\\PSoC4/LEDB.h"