ARM GAS  C:\Users\PC\AppData\Local\Temp\ccCKGB6e.s 			page 1


   1              		.syntax unified
   2              		.cpu cortex-m0plus
   3              		.fpu softvfp
   4              		.eabi_attribute 20, 1
   5              		.eabi_attribute 21, 1
   6              		.eabi_attribute 23, 3
   7              		.eabi_attribute 24, 1
   8              		.eabi_attribute 25, 1
   9              		.eabi_attribute 26, 1
  10              		.eabi_attribute 30, 4
  11              		.eabi_attribute 34, 0
  12              		.eabi_attribute 18, 4
  13              		.thumb
  14              		.syntax unified
  15              		.file	"mUART_UART.c"
  16              		.text
  17              	.Ltext0:
  18              		.cfi_sections	.debug_frame
  19              		.section	.text.mUART_UartInit,"ax",%progbits
  20              		.align	1
  21              		.global	mUART_UartInit
  22              		.code	16
  23              		.thumb_func
  24              		.type	mUART_UartInit, %function
  25              	mUART_UartInit:
  26              	.LFB1:
  27              		.file 1 "Generated_Source\\PSoC4\\mUART_UART.c"
   1:Generated_Source\PSoC4/mUART_UART.c **** /***************************************************************************//**
   2:Generated_Source\PSoC4/mUART_UART.c **** * \file mUART_UART.c
   3:Generated_Source\PSoC4/mUART_UART.c **** * \version 4.0
   4:Generated_Source\PSoC4/mUART_UART.c **** *
   5:Generated_Source\PSoC4/mUART_UART.c **** * \brief
   6:Generated_Source\PSoC4/mUART_UART.c **** *  This file provides the source code to the API for the SCB Component in
   7:Generated_Source\PSoC4/mUART_UART.c **** *  UART mode.
   8:Generated_Source\PSoC4/mUART_UART.c **** *
   9:Generated_Source\PSoC4/mUART_UART.c **** * Note:
  10:Generated_Source\PSoC4/mUART_UART.c **** *
  11:Generated_Source\PSoC4/mUART_UART.c **** *******************************************************************************
  12:Generated_Source\PSoC4/mUART_UART.c **** * \copyright
  13:Generated_Source\PSoC4/mUART_UART.c **** * Copyright 2013-2017, Cypress Semiconductor Corporation.  All rights reserved.
  14:Generated_Source\PSoC4/mUART_UART.c **** * You may use this file only in accordance with the license, terms, conditions,
  15:Generated_Source\PSoC4/mUART_UART.c **** * disclaimers, and limitations in the end user license agreement accompanying
  16:Generated_Source\PSoC4/mUART_UART.c **** * the software package with which this file was provided.
  17:Generated_Source\PSoC4/mUART_UART.c **** *******************************************************************************/
  18:Generated_Source\PSoC4/mUART_UART.c **** 
  19:Generated_Source\PSoC4/mUART_UART.c **** #include "mUART_PVT.h"
  20:Generated_Source\PSoC4/mUART_UART.c **** #include "mUART_SPI_UART_PVT.h"
  21:Generated_Source\PSoC4/mUART_UART.c **** #include "cyapicallbacks.h"
  22:Generated_Source\PSoC4/mUART_UART.c **** 
  23:Generated_Source\PSoC4/mUART_UART.c **** #if (mUART_UART_WAKE_ENABLE_CONST && mUART_UART_RX_WAKEUP_IRQ)
  24:Generated_Source\PSoC4/mUART_UART.c ****     /**
  25:Generated_Source\PSoC4/mUART_UART.c ****     * \addtogroup group_globals
  26:Generated_Source\PSoC4/mUART_UART.c ****     * \{
  27:Generated_Source\PSoC4/mUART_UART.c ****     */
  28:Generated_Source\PSoC4/mUART_UART.c ****     /** This global variable determines whether to enable Skip Start
  29:Generated_Source\PSoC4/mUART_UART.c ****     * functionality when mUART_Sleep() function is called:
  30:Generated_Source\PSoC4/mUART_UART.c ****     * 0 – disable, other values – enable. Default value is 1.
ARM GAS  C:\Users\PC\AppData\Local\Temp\ccCKGB6e.s 			page 2


  31:Generated_Source\PSoC4/mUART_UART.c ****     * It is only available when Enable wakeup from Deep Sleep Mode is enabled.
  32:Generated_Source\PSoC4/mUART_UART.c ****     */
  33:Generated_Source\PSoC4/mUART_UART.c ****     uint8 mUART_skipStart = 1u;
  34:Generated_Source\PSoC4/mUART_UART.c ****     /** \} globals */
  35:Generated_Source\PSoC4/mUART_UART.c **** #endif /* (mUART_UART_WAKE_ENABLE_CONST && mUART_UART_RX_WAKEUP_IRQ) */
  36:Generated_Source\PSoC4/mUART_UART.c **** 
  37:Generated_Source\PSoC4/mUART_UART.c **** #if(mUART_SCB_MODE_UNCONFIG_CONST_CFG)
  38:Generated_Source\PSoC4/mUART_UART.c **** 
  39:Generated_Source\PSoC4/mUART_UART.c ****     /***************************************
  40:Generated_Source\PSoC4/mUART_UART.c ****     *  Configuration Structure Initialization
  41:Generated_Source\PSoC4/mUART_UART.c ****     ***************************************/
  42:Generated_Source\PSoC4/mUART_UART.c **** 
  43:Generated_Source\PSoC4/mUART_UART.c ****     const mUART_UART_INIT_STRUCT mUART_configUart =
  44:Generated_Source\PSoC4/mUART_UART.c ****     {
  45:Generated_Source\PSoC4/mUART_UART.c ****         mUART_UART_SUB_MODE,
  46:Generated_Source\PSoC4/mUART_UART.c ****         mUART_UART_DIRECTION,
  47:Generated_Source\PSoC4/mUART_UART.c ****         mUART_UART_DATA_BITS_NUM,
  48:Generated_Source\PSoC4/mUART_UART.c ****         mUART_UART_PARITY_TYPE,
  49:Generated_Source\PSoC4/mUART_UART.c ****         mUART_UART_STOP_BITS_NUM,
  50:Generated_Source\PSoC4/mUART_UART.c ****         mUART_UART_OVS_FACTOR,
  51:Generated_Source\PSoC4/mUART_UART.c ****         mUART_UART_IRDA_LOW_POWER,
  52:Generated_Source\PSoC4/mUART_UART.c ****         mUART_UART_MEDIAN_FILTER_ENABLE,
  53:Generated_Source\PSoC4/mUART_UART.c ****         mUART_UART_RETRY_ON_NACK,
  54:Generated_Source\PSoC4/mUART_UART.c ****         mUART_UART_IRDA_POLARITY,
  55:Generated_Source\PSoC4/mUART_UART.c ****         mUART_UART_DROP_ON_PARITY_ERR,
  56:Generated_Source\PSoC4/mUART_UART.c ****         mUART_UART_DROP_ON_FRAME_ERR,
  57:Generated_Source\PSoC4/mUART_UART.c ****         mUART_UART_WAKE_ENABLE,
  58:Generated_Source\PSoC4/mUART_UART.c ****         0u,
  59:Generated_Source\PSoC4/mUART_UART.c ****         NULL,
  60:Generated_Source\PSoC4/mUART_UART.c ****         0u,
  61:Generated_Source\PSoC4/mUART_UART.c ****         NULL,
  62:Generated_Source\PSoC4/mUART_UART.c ****         mUART_UART_MP_MODE_ENABLE,
  63:Generated_Source\PSoC4/mUART_UART.c ****         mUART_UART_MP_ACCEPT_ADDRESS,
  64:Generated_Source\PSoC4/mUART_UART.c ****         mUART_UART_MP_RX_ADDRESS,
  65:Generated_Source\PSoC4/mUART_UART.c ****         mUART_UART_MP_RX_ADDRESS_MASK,
  66:Generated_Source\PSoC4/mUART_UART.c ****         (uint32) mUART_SCB_IRQ_INTERNAL,
  67:Generated_Source\PSoC4/mUART_UART.c ****         mUART_UART_INTR_RX_MASK,
  68:Generated_Source\PSoC4/mUART_UART.c ****         mUART_UART_RX_TRIGGER_LEVEL,
  69:Generated_Source\PSoC4/mUART_UART.c ****         mUART_UART_INTR_TX_MASK,
  70:Generated_Source\PSoC4/mUART_UART.c ****         mUART_UART_TX_TRIGGER_LEVEL,
  71:Generated_Source\PSoC4/mUART_UART.c ****         (uint8) mUART_UART_BYTE_MODE_ENABLE,
  72:Generated_Source\PSoC4/mUART_UART.c ****         (uint8) mUART_UART_CTS_ENABLE,
  73:Generated_Source\PSoC4/mUART_UART.c ****         (uint8) mUART_UART_CTS_POLARITY,
  74:Generated_Source\PSoC4/mUART_UART.c ****         (uint8) mUART_UART_RTS_POLARITY,
  75:Generated_Source\PSoC4/mUART_UART.c ****         (uint8) mUART_UART_RTS_FIFO_LEVEL,
  76:Generated_Source\PSoC4/mUART_UART.c ****         (uint8) mUART_UART_RX_BREAK_WIDTH
  77:Generated_Source\PSoC4/mUART_UART.c ****     };
  78:Generated_Source\PSoC4/mUART_UART.c **** 
  79:Generated_Source\PSoC4/mUART_UART.c **** 
  80:Generated_Source\PSoC4/mUART_UART.c ****     /*******************************************************************************
  81:Generated_Source\PSoC4/mUART_UART.c ****     * Function Name: mUART_UartInit
  82:Generated_Source\PSoC4/mUART_UART.c ****     ****************************************************************************//**
  83:Generated_Source\PSoC4/mUART_UART.c ****     *
  84:Generated_Source\PSoC4/mUART_UART.c ****     *  Configures the mUART for UART operation.
  85:Generated_Source\PSoC4/mUART_UART.c ****     *
  86:Generated_Source\PSoC4/mUART_UART.c ****     *  This function is intended specifically to be used when the mUART
  87:Generated_Source\PSoC4/mUART_UART.c ****     *  configuration is set to “Unconfigured mUART” in the customizer.
ARM GAS  C:\Users\PC\AppData\Local\Temp\ccCKGB6e.s 			page 3


  88:Generated_Source\PSoC4/mUART_UART.c ****     *  After initializing the mUART in UART mode using this function,
  89:Generated_Source\PSoC4/mUART_UART.c ****     *  the component can be enabled using the mUART_Start() or
  90:Generated_Source\PSoC4/mUART_UART.c ****     * mUART_Enable() function.
  91:Generated_Source\PSoC4/mUART_UART.c ****     *  This function uses a pointer to a structure that provides the configuration
  92:Generated_Source\PSoC4/mUART_UART.c ****     *  settings. This structure contains the same information that would otherwise
  93:Generated_Source\PSoC4/mUART_UART.c ****     *  be provided by the customizer settings.
  94:Generated_Source\PSoC4/mUART_UART.c ****     *
  95:Generated_Source\PSoC4/mUART_UART.c ****     *  \param config: pointer to a structure that contains the following list of
  96:Generated_Source\PSoC4/mUART_UART.c ****     *   fields. These fields match the selections available in the customizer.
  97:Generated_Source\PSoC4/mUART_UART.c ****     *   Refer to the customizer for further description of the settings.
  98:Generated_Source\PSoC4/mUART_UART.c ****     *
  99:Generated_Source\PSoC4/mUART_UART.c ****     *******************************************************************************/
 100:Generated_Source\PSoC4/mUART_UART.c ****     void mUART_UartInit(const mUART_UART_INIT_STRUCT *config)
 101:Generated_Source\PSoC4/mUART_UART.c ****     {
 102:Generated_Source\PSoC4/mUART_UART.c ****         uint32 pinsConfig;
 103:Generated_Source\PSoC4/mUART_UART.c **** 
 104:Generated_Source\PSoC4/mUART_UART.c ****         if (NULL == config)
 105:Generated_Source\PSoC4/mUART_UART.c ****         {
 106:Generated_Source\PSoC4/mUART_UART.c ****             CYASSERT(0u != 0u); /* Halt execution due to bad function parameter */
 107:Generated_Source\PSoC4/mUART_UART.c ****         }
 108:Generated_Source\PSoC4/mUART_UART.c ****         else
 109:Generated_Source\PSoC4/mUART_UART.c ****         {
 110:Generated_Source\PSoC4/mUART_UART.c ****             /* Get direction to configure UART pins: TX, RX or TX+RX */
 111:Generated_Source\PSoC4/mUART_UART.c ****             pinsConfig  = config->direction;
 112:Generated_Source\PSoC4/mUART_UART.c **** 
 113:Generated_Source\PSoC4/mUART_UART.c ****         #if !(mUART_CY_SCBIP_V0 || mUART_CY_SCBIP_V1)
 114:Generated_Source\PSoC4/mUART_UART.c ****             /* Add RTS and CTS pins to configure */
 115:Generated_Source\PSoC4/mUART_UART.c ****             pinsConfig |= (0u != config->rtsRxFifoLevel) ? (mUART_UART_RTS_PIN_ENABLE) : (0u);
 116:Generated_Source\PSoC4/mUART_UART.c ****             pinsConfig |= (0u != config->enableCts)      ? (mUART_UART_CTS_PIN_ENABLE) : (0u);
 117:Generated_Source\PSoC4/mUART_UART.c ****         #endif /* !(mUART_CY_SCBIP_V0 || mUART_CY_SCBIP_V1) */
 118:Generated_Source\PSoC4/mUART_UART.c **** 
 119:Generated_Source\PSoC4/mUART_UART.c ****             /* Configure pins */
 120:Generated_Source\PSoC4/mUART_UART.c ****             mUART_SetPins(mUART_SCB_MODE_UART, config->mode, pinsConfig);
 121:Generated_Source\PSoC4/mUART_UART.c **** 
 122:Generated_Source\PSoC4/mUART_UART.c ****             /* Store internal configuration */
 123:Generated_Source\PSoC4/mUART_UART.c ****             mUART_scbMode       = (uint8) mUART_SCB_MODE_UART;
 124:Generated_Source\PSoC4/mUART_UART.c ****             mUART_scbEnableWake = (uint8) config->enableWake;
 125:Generated_Source\PSoC4/mUART_UART.c ****             mUART_scbEnableIntr = (uint8) config->enableInterrupt;
 126:Generated_Source\PSoC4/mUART_UART.c **** 
 127:Generated_Source\PSoC4/mUART_UART.c ****             /* Set RX direction internal variables */
 128:Generated_Source\PSoC4/mUART_UART.c ****             mUART_rxBuffer      =         config->rxBuffer;
 129:Generated_Source\PSoC4/mUART_UART.c ****             mUART_rxDataBits    = (uint8) config->dataBits;
 130:Generated_Source\PSoC4/mUART_UART.c ****             mUART_rxBufferSize  =         config->rxBufferSize;
 131:Generated_Source\PSoC4/mUART_UART.c **** 
 132:Generated_Source\PSoC4/mUART_UART.c ****             /* Set TX direction internal variables */
 133:Generated_Source\PSoC4/mUART_UART.c ****             mUART_txBuffer      =         config->txBuffer;
 134:Generated_Source\PSoC4/mUART_UART.c ****             mUART_txDataBits    = (uint8) config->dataBits;
 135:Generated_Source\PSoC4/mUART_UART.c ****             mUART_txBufferSize  =         config->txBufferSize;
 136:Generated_Source\PSoC4/mUART_UART.c **** 
 137:Generated_Source\PSoC4/mUART_UART.c ****             /* Configure UART interface */
 138:Generated_Source\PSoC4/mUART_UART.c ****             if(mUART_UART_MODE_IRDA == config->mode)
 139:Generated_Source\PSoC4/mUART_UART.c ****             {
 140:Generated_Source\PSoC4/mUART_UART.c ****                 /* OVS settings: IrDA */
 141:Generated_Source\PSoC4/mUART_UART.c ****                 mUART_CTRL_REG  = ((0u != config->enableIrdaLowPower) ?
 142:Generated_Source\PSoC4/mUART_UART.c ****                                                 (mUART_UART_GET_CTRL_OVS_IRDA_LP(config->oversample
 143:Generated_Source\PSoC4/mUART_UART.c ****                                                 (mUART_CTRL_OVS_IRDA_OVS16));
 144:Generated_Source\PSoC4/mUART_UART.c ****             }
ARM GAS  C:\Users\PC\AppData\Local\Temp\ccCKGB6e.s 			page 4


 145:Generated_Source\PSoC4/mUART_UART.c ****             else
 146:Generated_Source\PSoC4/mUART_UART.c ****             {
 147:Generated_Source\PSoC4/mUART_UART.c ****                 /* OVS settings: UART and SmartCard */
 148:Generated_Source\PSoC4/mUART_UART.c ****                 mUART_CTRL_REG  = mUART_GET_CTRL_OVS(config->oversample);
 149:Generated_Source\PSoC4/mUART_UART.c ****             }
 150:Generated_Source\PSoC4/mUART_UART.c **** 
 151:Generated_Source\PSoC4/mUART_UART.c ****             mUART_CTRL_REG     |= mUART_GET_CTRL_BYTE_MODE  (config->enableByteMode)      |
 152:Generated_Source\PSoC4/mUART_UART.c ****                                              mUART_GET_CTRL_ADDR_ACCEPT(config->multiprocAcceptAddr
 153:Generated_Source\PSoC4/mUART_UART.c ****                                              mUART_CTRL_UART;
 154:Generated_Source\PSoC4/mUART_UART.c **** 
 155:Generated_Source\PSoC4/mUART_UART.c ****             /* Configure sub-mode: UART, SmartCard or IrDA */
 156:Generated_Source\PSoC4/mUART_UART.c ****             mUART_UART_CTRL_REG = mUART_GET_UART_CTRL_MODE(config->mode);
 157:Generated_Source\PSoC4/mUART_UART.c **** 
 158:Generated_Source\PSoC4/mUART_UART.c ****             /* Configure RX direction */
 159:Generated_Source\PSoC4/mUART_UART.c ****             mUART_UART_RX_CTRL_REG = mUART_GET_UART_RX_CTRL_MODE(config->stopBits)              |
 160:Generated_Source\PSoC4/mUART_UART.c ****                                         mUART_GET_UART_RX_CTRL_POLARITY(config->enableInvertedRx)  
 161:Generated_Source\PSoC4/mUART_UART.c ****                                         mUART_GET_UART_RX_CTRL_MP_MODE(config->enableMultiproc)    
 162:Generated_Source\PSoC4/mUART_UART.c ****                                         mUART_GET_UART_RX_CTRL_DROP_ON_PARITY_ERR(config->dropOnPar
 163:Generated_Source\PSoC4/mUART_UART.c ****                                         mUART_GET_UART_RX_CTRL_DROP_ON_FRAME_ERR(config->dropOnFram
 164:Generated_Source\PSoC4/mUART_UART.c ****                                         mUART_GET_UART_RX_CTRL_BREAK_WIDTH(config->breakWidth);
 165:Generated_Source\PSoC4/mUART_UART.c **** 
 166:Generated_Source\PSoC4/mUART_UART.c ****             if(mUART_UART_PARITY_NONE != config->parity)
 167:Generated_Source\PSoC4/mUART_UART.c ****             {
 168:Generated_Source\PSoC4/mUART_UART.c ****                mUART_UART_RX_CTRL_REG |= mUART_GET_UART_RX_CTRL_PARITY(config->parity) |
 169:Generated_Source\PSoC4/mUART_UART.c ****                                                     mUART_UART_RX_CTRL_PARITY_ENABLED;
 170:Generated_Source\PSoC4/mUART_UART.c ****             }
 171:Generated_Source\PSoC4/mUART_UART.c **** 
 172:Generated_Source\PSoC4/mUART_UART.c ****             mUART_RX_CTRL_REG      = mUART_GET_RX_CTRL_DATA_WIDTH(config->dataBits)       |
 173:Generated_Source\PSoC4/mUART_UART.c ****                                                 mUART_GET_RX_CTRL_MEDIAN(config->enableMedianFilter
 174:Generated_Source\PSoC4/mUART_UART.c ****                                                 mUART_GET_UART_RX_CTRL_ENABLED(config->direction);
 175:Generated_Source\PSoC4/mUART_UART.c **** 
 176:Generated_Source\PSoC4/mUART_UART.c ****             mUART_RX_FIFO_CTRL_REG = mUART_GET_RX_FIFO_CTRL_TRIGGER_LEVEL(config->rxTriggerLevel);
 177:Generated_Source\PSoC4/mUART_UART.c **** 
 178:Generated_Source\PSoC4/mUART_UART.c ****             /* Configure MP address */
 179:Generated_Source\PSoC4/mUART_UART.c ****             mUART_RX_MATCH_REG     = mUART_GET_RX_MATCH_ADDR(config->multiprocAddr) |
 180:Generated_Source\PSoC4/mUART_UART.c ****                                                 mUART_GET_RX_MATCH_MASK(config->multiprocAddrMask);
 181:Generated_Source\PSoC4/mUART_UART.c **** 
 182:Generated_Source\PSoC4/mUART_UART.c ****             /* Configure RX direction */
 183:Generated_Source\PSoC4/mUART_UART.c ****             mUART_UART_TX_CTRL_REG = mUART_GET_UART_TX_CTRL_MODE(config->stopBits) |
 184:Generated_Source\PSoC4/mUART_UART.c ****                                                 mUART_GET_UART_TX_CTRL_RETRY_NACK(config->enableRet
 185:Generated_Source\PSoC4/mUART_UART.c **** 
 186:Generated_Source\PSoC4/mUART_UART.c ****             if(mUART_UART_PARITY_NONE != config->parity)
 187:Generated_Source\PSoC4/mUART_UART.c ****             {
 188:Generated_Source\PSoC4/mUART_UART.c ****                mUART_UART_TX_CTRL_REG |= mUART_GET_UART_TX_CTRL_PARITY(config->parity) |
 189:Generated_Source\PSoC4/mUART_UART.c ****                                                     mUART_UART_TX_CTRL_PARITY_ENABLED;
 190:Generated_Source\PSoC4/mUART_UART.c ****             }
 191:Generated_Source\PSoC4/mUART_UART.c **** 
 192:Generated_Source\PSoC4/mUART_UART.c ****             mUART_TX_CTRL_REG      = mUART_GET_TX_CTRL_DATA_WIDTH(config->dataBits)    |
 193:Generated_Source\PSoC4/mUART_UART.c ****                                                 mUART_GET_UART_TX_CTRL_ENABLED(config->direction);
 194:Generated_Source\PSoC4/mUART_UART.c **** 
 195:Generated_Source\PSoC4/mUART_UART.c ****             mUART_TX_FIFO_CTRL_REG = mUART_GET_TX_FIFO_CTRL_TRIGGER_LEVEL(config->txTriggerLevel);
 196:Generated_Source\PSoC4/mUART_UART.c **** 
 197:Generated_Source\PSoC4/mUART_UART.c ****         #if !(mUART_CY_SCBIP_V0 || mUART_CY_SCBIP_V1)
 198:Generated_Source\PSoC4/mUART_UART.c ****             mUART_UART_FLOW_CTRL_REG = mUART_GET_UART_FLOW_CTRL_CTS_ENABLE(config->enableCts) | \
 199:Generated_Source\PSoC4/mUART_UART.c ****                                             mUART_GET_UART_FLOW_CTRL_CTS_POLARITY (config->ctsPolar
 200:Generated_Source\PSoC4/mUART_UART.c ****                                             mUART_GET_UART_FLOW_CTRL_RTS_POLARITY (config->rtsPolar
 201:Generated_Source\PSoC4/mUART_UART.c ****                                             mUART_GET_UART_FLOW_CTRL_TRIGGER_LEVEL(config->rtsRxFif
ARM GAS  C:\Users\PC\AppData\Local\Temp\ccCKGB6e.s 			page 5


 202:Generated_Source\PSoC4/mUART_UART.c ****         #endif /* !(mUART_CY_SCBIP_V0 || mUART_CY_SCBIP_V1) */
 203:Generated_Source\PSoC4/mUART_UART.c **** 
 204:Generated_Source\PSoC4/mUART_UART.c ****             /* Configure interrupt with UART handler but do not enable it */
 205:Generated_Source\PSoC4/mUART_UART.c ****             CyIntDisable    (mUART_ISR_NUMBER);
 206:Generated_Source\PSoC4/mUART_UART.c ****             CyIntSetPriority(mUART_ISR_NUMBER, mUART_ISR_PRIORITY);
 207:Generated_Source\PSoC4/mUART_UART.c ****             (void) CyIntSetVector(mUART_ISR_NUMBER, &mUART_SPI_UART_ISR);
 208:Generated_Source\PSoC4/mUART_UART.c **** 
 209:Generated_Source\PSoC4/mUART_UART.c ****             /* Configure WAKE interrupt */
 210:Generated_Source\PSoC4/mUART_UART.c ****         #if(mUART_UART_RX_WAKEUP_IRQ)
 211:Generated_Source\PSoC4/mUART_UART.c ****             CyIntDisable    (mUART_RX_WAKE_ISR_NUMBER);
 212:Generated_Source\PSoC4/mUART_UART.c ****             CyIntSetPriority(mUART_RX_WAKE_ISR_NUMBER, mUART_RX_WAKE_ISR_PRIORITY);
 213:Generated_Source\PSoC4/mUART_UART.c ****             (void) CyIntSetVector(mUART_RX_WAKE_ISR_NUMBER, &mUART_UART_WAKEUP_ISR);
 214:Generated_Source\PSoC4/mUART_UART.c ****         #endif /* (mUART_UART_RX_WAKEUP_IRQ) */
 215:Generated_Source\PSoC4/mUART_UART.c **** 
 216:Generated_Source\PSoC4/mUART_UART.c ****             /* Configure interrupt sources */
 217:Generated_Source\PSoC4/mUART_UART.c ****             mUART_INTR_I2C_EC_MASK_REG = mUART_NO_INTR_SOURCES;
 218:Generated_Source\PSoC4/mUART_UART.c ****             mUART_INTR_SPI_EC_MASK_REG = mUART_NO_INTR_SOURCES;
 219:Generated_Source\PSoC4/mUART_UART.c ****             mUART_INTR_SLAVE_MASK_REG  = mUART_NO_INTR_SOURCES;
 220:Generated_Source\PSoC4/mUART_UART.c ****             mUART_INTR_MASTER_MASK_REG = mUART_NO_INTR_SOURCES;
 221:Generated_Source\PSoC4/mUART_UART.c ****             mUART_INTR_RX_MASK_REG     = config->rxInterruptMask;
 222:Generated_Source\PSoC4/mUART_UART.c ****             mUART_INTR_TX_MASK_REG     = config->txInterruptMask;
 223:Generated_Source\PSoC4/mUART_UART.c **** 
 224:Generated_Source\PSoC4/mUART_UART.c ****             /* Configure TX interrupt sources to restore. */
 225:Generated_Source\PSoC4/mUART_UART.c ****             mUART_IntrTxMask = LO16(mUART_INTR_TX_MASK_REG);
 226:Generated_Source\PSoC4/mUART_UART.c **** 
 227:Generated_Source\PSoC4/mUART_UART.c ****             /* Clear RX buffer indexes */
 228:Generated_Source\PSoC4/mUART_UART.c ****             mUART_rxBufferHead     = 0u;
 229:Generated_Source\PSoC4/mUART_UART.c ****             mUART_rxBufferTail     = 0u;
 230:Generated_Source\PSoC4/mUART_UART.c ****             mUART_rxBufferOverflow = 0u;
 231:Generated_Source\PSoC4/mUART_UART.c **** 
 232:Generated_Source\PSoC4/mUART_UART.c ****             /* Clear TX buffer indexes */
 233:Generated_Source\PSoC4/mUART_UART.c ****             mUART_txBufferHead = 0u;
 234:Generated_Source\PSoC4/mUART_UART.c ****             mUART_txBufferTail = 0u;
 235:Generated_Source\PSoC4/mUART_UART.c ****         }
 236:Generated_Source\PSoC4/mUART_UART.c ****     }
 237:Generated_Source\PSoC4/mUART_UART.c **** 
 238:Generated_Source\PSoC4/mUART_UART.c **** #else
 239:Generated_Source\PSoC4/mUART_UART.c **** 
 240:Generated_Source\PSoC4/mUART_UART.c ****     /*******************************************************************************
 241:Generated_Source\PSoC4/mUART_UART.c ****     * Function Name: mUART_UartInit
 242:Generated_Source\PSoC4/mUART_UART.c ****     ****************************************************************************//**
 243:Generated_Source\PSoC4/mUART_UART.c ****     *
 244:Generated_Source\PSoC4/mUART_UART.c ****     *  Configures the SCB for the UART operation.
 245:Generated_Source\PSoC4/mUART_UART.c ****     *
 246:Generated_Source\PSoC4/mUART_UART.c ****     *******************************************************************************/
 247:Generated_Source\PSoC4/mUART_UART.c ****     void mUART_UartInit(void)
 248:Generated_Source\PSoC4/mUART_UART.c ****     {
  28              		.loc 1 248 0
  29              		.cfi_startproc
  30              		@ args = 0, pretend = 0, frame = 0
  31              		@ frame_needed = 0, uses_anonymous_args = 0
  32 0000 70B5     		push	{r4, r5, r6, lr}
  33              		.cfi_def_cfa_offset 16
  34              		.cfi_offset 4, -16
  35              		.cfi_offset 5, -12
  36              		.cfi_offset 6, -8
  37              		.cfi_offset 14, -4
ARM GAS  C:\Users\PC\AppData\Local\Temp\ccCKGB6e.s 			page 6


 249:Generated_Source\PSoC4/mUART_UART.c ****         /* Configure UART interface */
 250:Generated_Source\PSoC4/mUART_UART.c ****         mUART_CTRL_REG = mUART_UART_DEFAULT_CTRL;
 251:Generated_Source\PSoC4/mUART_UART.c **** 
 252:Generated_Source\PSoC4/mUART_UART.c ****         /* Configure sub-mode: UART, SmartCard or IrDA */
 253:Generated_Source\PSoC4/mUART_UART.c ****         mUART_UART_CTRL_REG = mUART_UART_DEFAULT_UART_CTRL;
  38              		.loc 1 253 0
  39 0002 0024     		movs	r4, #0
 254:Generated_Source\PSoC4/mUART_UART.c **** 
 255:Generated_Source\PSoC4/mUART_UART.c ****         /* Configure RX direction */
 256:Generated_Source\PSoC4/mUART_UART.c ****         mUART_UART_RX_CTRL_REG = mUART_UART_DEFAULT_UART_RX_CTRL;
 257:Generated_Source\PSoC4/mUART_UART.c ****         mUART_RX_CTRL_REG      = mUART_UART_DEFAULT_RX_CTRL;
 258:Generated_Source\PSoC4/mUART_UART.c ****         mUART_RX_FIFO_CTRL_REG = mUART_UART_DEFAULT_RX_FIFO_CTRL;
  40              		.loc 1 258 0
  41 0004 0725     		movs	r5, #7
 259:Generated_Source\PSoC4/mUART_UART.c ****         mUART_RX_MATCH_REG     = mUART_UART_DEFAULT_RX_MATCH_REG;
 260:Generated_Source\PSoC4/mUART_UART.c **** 
 261:Generated_Source\PSoC4/mUART_UART.c ****         /* Configure TX direction */
 262:Generated_Source\PSoC4/mUART_UART.c ****         mUART_UART_TX_CTRL_REG = mUART_UART_DEFAULT_UART_TX_CTRL;
  42              		.loc 1 262 0
  43 0006 0121     		movs	r1, #1
 263:Generated_Source\PSoC4/mUART_UART.c ****         mUART_TX_CTRL_REG      = mUART_UART_DEFAULT_TX_CTRL;
 264:Generated_Source\PSoC4/mUART_UART.c ****         mUART_TX_FIFO_CTRL_REG = mUART_UART_DEFAULT_TX_FIFO_CTRL;
 265:Generated_Source\PSoC4/mUART_UART.c **** 
 266:Generated_Source\PSoC4/mUART_UART.c ****     #if !(mUART_CY_SCBIP_V0 || mUART_CY_SCBIP_V1)
 267:Generated_Source\PSoC4/mUART_UART.c ****         mUART_UART_FLOW_CTRL_REG = mUART_UART_DEFAULT_FLOW_CTRL;
  44              		.loc 1 267 0
  45 0008 0426     		movs	r6, #4
 250:Generated_Source\PSoC4/mUART_UART.c **** 
  46              		.loc 1 250 0
  47 000a 1E4A     		ldr	r2, .L2
  48 000c 1E4B     		ldr	r3, .L2+4
 268:Generated_Source\PSoC4/mUART_UART.c ****     #endif /* !(mUART_CY_SCBIP_V0 || mUART_CY_SCBIP_V1) */
 269:Generated_Source\PSoC4/mUART_UART.c **** 
 270:Generated_Source\PSoC4/mUART_UART.c ****         /* Configure interrupt with UART handler but do not enable it */
 271:Generated_Source\PSoC4/mUART_UART.c ****     #if(mUART_SCB_IRQ_INTERNAL)
 272:Generated_Source\PSoC4/mUART_UART.c ****         CyIntDisable    (mUART_ISR_NUMBER);
  49              		.loc 1 272 0
  50 000e 2800     		movs	r0, r5
 250:Generated_Source\PSoC4/mUART_UART.c **** 
  51              		.loc 1 250 0
  52 0010 1A60     		str	r2, [r3]
 253:Generated_Source\PSoC4/mUART_UART.c **** 
  53              		.loc 1 253 0
  54 0012 1E4B     		ldr	r3, .L2+8
 256:Generated_Source\PSoC4/mUART_UART.c ****         mUART_RX_CTRL_REG      = mUART_UART_DEFAULT_RX_CTRL;
  55              		.loc 1 256 0
  56 0014 1E4A     		ldr	r2, .L2+12
 253:Generated_Source\PSoC4/mUART_UART.c **** 
  57              		.loc 1 253 0
  58 0016 1C60     		str	r4, [r3]
 256:Generated_Source\PSoC4/mUART_UART.c ****         mUART_RX_CTRL_REG      = mUART_UART_DEFAULT_RX_CTRL;
  59              		.loc 1 256 0
  60 0018 1E4B     		ldr	r3, .L2+16
 273:Generated_Source\PSoC4/mUART_UART.c ****         CyIntSetPriority(mUART_ISR_NUMBER, mUART_ISR_PRIORITY);
 274:Generated_Source\PSoC4/mUART_UART.c ****         (void) CyIntSetVector(mUART_ISR_NUMBER, &mUART_SPI_UART_ISR);
 275:Generated_Source\PSoC4/mUART_UART.c ****     #endif /* (mUART_SCB_IRQ_INTERNAL) */
 276:Generated_Source\PSoC4/mUART_UART.c **** 
ARM GAS  C:\Users\PC\AppData\Local\Temp\ccCKGB6e.s 			page 7


 277:Generated_Source\PSoC4/mUART_UART.c ****         /* Configure WAKE interrupt */
 278:Generated_Source\PSoC4/mUART_UART.c ****     #if(mUART_UART_RX_WAKEUP_IRQ)
 279:Generated_Source\PSoC4/mUART_UART.c ****         CyIntDisable    (mUART_RX_WAKE_ISR_NUMBER);
 280:Generated_Source\PSoC4/mUART_UART.c ****         CyIntSetPriority(mUART_RX_WAKE_ISR_NUMBER, mUART_RX_WAKE_ISR_PRIORITY);
 281:Generated_Source\PSoC4/mUART_UART.c ****         (void) CyIntSetVector(mUART_RX_WAKE_ISR_NUMBER, &mUART_UART_WAKEUP_ISR);
 282:Generated_Source\PSoC4/mUART_UART.c ****     #endif /* (mUART_UART_RX_WAKEUP_IRQ) */
 283:Generated_Source\PSoC4/mUART_UART.c **** 
 284:Generated_Source\PSoC4/mUART_UART.c ****         /* Configure interrupt sources */
 285:Generated_Source\PSoC4/mUART_UART.c ****         mUART_INTR_I2C_EC_MASK_REG = mUART_UART_DEFAULT_INTR_I2C_EC_MASK;
 286:Generated_Source\PSoC4/mUART_UART.c ****         mUART_INTR_SPI_EC_MASK_REG = mUART_UART_DEFAULT_INTR_SPI_EC_MASK;
 287:Generated_Source\PSoC4/mUART_UART.c ****         mUART_INTR_SLAVE_MASK_REG  = mUART_UART_DEFAULT_INTR_SLAVE_MASK;
 288:Generated_Source\PSoC4/mUART_UART.c ****         mUART_INTR_MASTER_MASK_REG = mUART_UART_DEFAULT_INTR_MASTER_MASK;
 289:Generated_Source\PSoC4/mUART_UART.c ****         mUART_INTR_RX_MASK_REG     = mUART_UART_DEFAULT_INTR_RX_MASK;
 290:Generated_Source\PSoC4/mUART_UART.c ****         mUART_INTR_TX_MASK_REG     = mUART_UART_DEFAULT_INTR_TX_MASK;
 291:Generated_Source\PSoC4/mUART_UART.c **** 
 292:Generated_Source\PSoC4/mUART_UART.c ****         /* Configure TX interrupt sources to restore. */
 293:Generated_Source\PSoC4/mUART_UART.c ****         mUART_IntrTxMask = LO16(mUART_INTR_TX_MASK_REG);
 294:Generated_Source\PSoC4/mUART_UART.c **** 
 295:Generated_Source\PSoC4/mUART_UART.c ****     #if(mUART_INTERNAL_RX_SW_BUFFER_CONST)
 296:Generated_Source\PSoC4/mUART_UART.c ****         mUART_rxBufferHead     = 0u;
 297:Generated_Source\PSoC4/mUART_UART.c ****         mUART_rxBufferTail     = 0u;
 298:Generated_Source\PSoC4/mUART_UART.c ****         mUART_rxBufferOverflow = 0u;
 299:Generated_Source\PSoC4/mUART_UART.c ****     #endif /* (mUART_INTERNAL_RX_SW_BUFFER_CONST) */
 300:Generated_Source\PSoC4/mUART_UART.c **** 
 301:Generated_Source\PSoC4/mUART_UART.c ****     #if(mUART_INTERNAL_TX_SW_BUFFER_CONST)
 302:Generated_Source\PSoC4/mUART_UART.c ****         mUART_txBufferHead = 0u;
 303:Generated_Source\PSoC4/mUART_UART.c ****         mUART_txBufferTail = 0u;
 304:Generated_Source\PSoC4/mUART_UART.c ****     #endif /* (mUART_INTERNAL_TX_SW_BUFFER_CONST) */
 305:Generated_Source\PSoC4/mUART_UART.c ****     }
  61              		.loc 1 305 0
  62              		@ sp needed
 256:Generated_Source\PSoC4/mUART_UART.c ****         mUART_RX_CTRL_REG      = mUART_UART_DEFAULT_RX_CTRL;
  63              		.loc 1 256 0
  64 001a 1A60     		str	r2, [r3]
 257:Generated_Source\PSoC4/mUART_UART.c ****         mUART_RX_FIFO_CTRL_REG = mUART_UART_DEFAULT_RX_FIFO_CTRL;
  65              		.loc 1 257 0
  66 001c 1E4B     		ldr	r3, .L2+20
  67 001e 1F4A     		ldr	r2, .L2+24
  68 0020 1360     		str	r3, [r2]
 258:Generated_Source\PSoC4/mUART_UART.c ****         mUART_RX_MATCH_REG     = mUART_UART_DEFAULT_RX_MATCH_REG;
  69              		.loc 1 258 0
  70 0022 1F4A     		ldr	r2, .L2+28
  71 0024 1560     		str	r5, [r2]
 259:Generated_Source\PSoC4/mUART_UART.c **** 
  72              		.loc 1 259 0
  73 0026 1F4A     		ldr	r2, .L2+32
  74 0028 1460     		str	r4, [r2]
 262:Generated_Source\PSoC4/mUART_UART.c ****         mUART_TX_CTRL_REG      = mUART_UART_DEFAULT_TX_CTRL;
  75              		.loc 1 262 0
  76 002a 1F4A     		ldr	r2, .L2+36
  77 002c 1160     		str	r1, [r2]
 263:Generated_Source\PSoC4/mUART_UART.c ****         mUART_TX_FIFO_CTRL_REG = mUART_UART_DEFAULT_TX_FIFO_CTRL;
  78              		.loc 1 263 0
  79 002e 1F4A     		ldr	r2, .L2+40
  80 0030 1360     		str	r3, [r2]
 264:Generated_Source\PSoC4/mUART_UART.c **** 
  81              		.loc 1 264 0
ARM GAS  C:\Users\PC\AppData\Local\Temp\ccCKGB6e.s 			page 8


  82 0032 1F4B     		ldr	r3, .L2+44
  83 0034 1C60     		str	r4, [r3]
 267:Generated_Source\PSoC4/mUART_UART.c ****     #endif /* !(mUART_CY_SCBIP_V0 || mUART_CY_SCBIP_V1) */
  84              		.loc 1 267 0
  85 0036 1F4B     		ldr	r3, .L2+48
  86 0038 1E60     		str	r6, [r3]
 272:Generated_Source\PSoC4/mUART_UART.c ****         CyIntSetPriority(mUART_ISR_NUMBER, mUART_ISR_PRIORITY);
  87              		.loc 1 272 0
  88 003a FFF7FEFF 		bl	CyIntDisable
  89              	.LVL0:
 273:Generated_Source\PSoC4/mUART_UART.c ****         (void) CyIntSetVector(mUART_ISR_NUMBER, &mUART_SPI_UART_ISR);
  90              		.loc 1 273 0
  91 003e 2800     		movs	r0, r5
  92 0040 0321     		movs	r1, #3
  93 0042 FFF7FEFF 		bl	CyIntSetPriority
  94              	.LVL1:
 274:Generated_Source\PSoC4/mUART_UART.c ****     #endif /* (mUART_SCB_IRQ_INTERNAL) */
  95              		.loc 1 274 0
  96 0046 2800     		movs	r0, r5
  97 0048 1B49     		ldr	r1, .L2+52
  98 004a FFF7FEFF 		bl	CyIntSetVector
  99              	.LVL2:
 285:Generated_Source\PSoC4/mUART_UART.c ****         mUART_INTR_SPI_EC_MASK_REG = mUART_UART_DEFAULT_INTR_SPI_EC_MASK;
 100              		.loc 1 285 0
 101 004e 1B4B     		ldr	r3, .L2+56
 102 0050 1C60     		str	r4, [r3]
 286:Generated_Source\PSoC4/mUART_UART.c ****         mUART_INTR_SLAVE_MASK_REG  = mUART_UART_DEFAULT_INTR_SLAVE_MASK;
 103              		.loc 1 286 0
 104 0052 1B4B     		ldr	r3, .L2+60
 105 0054 1C60     		str	r4, [r3]
 287:Generated_Source\PSoC4/mUART_UART.c ****         mUART_INTR_MASTER_MASK_REG = mUART_UART_DEFAULT_INTR_MASTER_MASK;
 106              		.loc 1 287 0
 107 0056 1B4B     		ldr	r3, .L2+64
 108 0058 1C60     		str	r4, [r3]
 288:Generated_Source\PSoC4/mUART_UART.c ****         mUART_INTR_RX_MASK_REG     = mUART_UART_DEFAULT_INTR_RX_MASK;
 109              		.loc 1 288 0
 110 005a 1B4B     		ldr	r3, .L2+68
 111 005c 1C60     		str	r4, [r3]
 289:Generated_Source\PSoC4/mUART_UART.c ****         mUART_INTR_TX_MASK_REG     = mUART_UART_DEFAULT_INTR_TX_MASK;
 112              		.loc 1 289 0
 113 005e 1B4B     		ldr	r3, .L2+72
 114 0060 1E60     		str	r6, [r3]
 290:Generated_Source\PSoC4/mUART_UART.c **** 
 115              		.loc 1 290 0
 116 0062 1B4B     		ldr	r3, .L2+76
 117 0064 1C60     		str	r4, [r3]
 293:Generated_Source\PSoC4/mUART_UART.c **** 
 118              		.loc 1 293 0
 119 0066 1A68     		ldr	r2, [r3]
 120 0068 1A4B     		ldr	r3, .L2+80
 121 006a 1A80     		strh	r2, [r3]
 296:Generated_Source\PSoC4/mUART_UART.c ****         mUART_rxBufferTail     = 0u;
 122              		.loc 1 296 0
 123 006c 1A4B     		ldr	r3, .L2+84
 124 006e 1C60     		str	r4, [r3]
 297:Generated_Source\PSoC4/mUART_UART.c ****         mUART_rxBufferOverflow = 0u;
 125              		.loc 1 297 0
ARM GAS  C:\Users\PC\AppData\Local\Temp\ccCKGB6e.s 			page 9


 126 0070 1A4B     		ldr	r3, .L2+88
 127 0072 1C60     		str	r4, [r3]
 298:Generated_Source\PSoC4/mUART_UART.c ****     #endif /* (mUART_INTERNAL_RX_SW_BUFFER_CONST) */
 128              		.loc 1 298 0
 129 0074 1A4B     		ldr	r3, .L2+92
 130 0076 1C70     		strb	r4, [r3]
 302:Generated_Source\PSoC4/mUART_UART.c ****         mUART_txBufferTail = 0u;
 131              		.loc 1 302 0
 132 0078 1A4B     		ldr	r3, .L2+96
 133 007a 1C60     		str	r4, [r3]
 303:Generated_Source\PSoC4/mUART_UART.c ****     #endif /* (mUART_INTERNAL_TX_SW_BUFFER_CONST) */
 134              		.loc 1 303 0
 135 007c 1A4B     		ldr	r3, .L2+100
 136 007e 1C60     		str	r4, [r3]
 137              		.loc 1 305 0
 138 0080 70BD     		pop	{r4, r5, r6, pc}
 139              	.L3:
 140 0082 C046     		.align	2
 141              	.L2:
 142 0084 0B000002 		.word	33554443
 143 0088 00000840 		.word	1074266112
 144 008c 40000840 		.word	1074266176
 145 0090 01000A00 		.word	655361
 146 0094 48000840 		.word	1074266184
 147 0098 07000080 		.word	-2147483641
 148 009c 00030840 		.word	1074266880
 149 00a0 04030840 		.word	1074266884
 150 00a4 10030840 		.word	1074266896
 151 00a8 44000840 		.word	1074266180
 152 00ac 00020840 		.word	1074266624
 153 00b0 04020840 		.word	1074266628
 154 00b4 50000840 		.word	1074266192
 155 00b8 00000000 		.word	mUART_SPI_UART_ISR
 156 00bc 880E0840 		.word	1074269832
 157 00c0 C80E0840 		.word	1074269896
 158 00c4 480F0840 		.word	1074270024
 159 00c8 080F0840 		.word	1074269960
 160 00cc C80F0840 		.word	1074270152
 161 00d0 880F0840 		.word	1074270088
 162 00d4 00000000 		.word	mUART_IntrTxMask
 163 00d8 00000000 		.word	mUART_rxBufferHead
 164 00dc 00000000 		.word	mUART_rxBufferTail
 165 00e0 00000000 		.word	mUART_rxBufferOverflow
 166 00e4 00000000 		.word	mUART_txBufferHead
 167 00e8 00000000 		.word	mUART_txBufferTail
 168              		.cfi_endproc
 169              	.LFE1:
 170              		.size	mUART_UartInit, .-mUART_UartInit
 171              		.section	.text.mUART_UartPostEnable,"ax",%progbits
 172              		.align	1
 173              		.global	mUART_UartPostEnable
 174              		.code	16
 175              		.thumb_func
 176              		.type	mUART_UartPostEnable, %function
 177              	mUART_UartPostEnable:
 178              	.LFB2:
 306:Generated_Source\PSoC4/mUART_UART.c **** #endif /* (mUART_SCB_MODE_UNCONFIG_CONST_CFG) */
ARM GAS  C:\Users\PC\AppData\Local\Temp\ccCKGB6e.s 			page 10


 307:Generated_Source\PSoC4/mUART_UART.c **** 
 308:Generated_Source\PSoC4/mUART_UART.c **** 
 309:Generated_Source\PSoC4/mUART_UART.c **** /*******************************************************************************
 310:Generated_Source\PSoC4/mUART_UART.c **** * Function Name: mUART_UartPostEnable
 311:Generated_Source\PSoC4/mUART_UART.c **** ****************************************************************************//**
 312:Generated_Source\PSoC4/mUART_UART.c **** *
 313:Generated_Source\PSoC4/mUART_UART.c **** *  Restores HSIOM settings for the UART output pins (TX and/or RTS) to be
 314:Generated_Source\PSoC4/mUART_UART.c **** *  controlled by the SCB UART.
 315:Generated_Source\PSoC4/mUART_UART.c **** *
 316:Generated_Source\PSoC4/mUART_UART.c **** *******************************************************************************/
 317:Generated_Source\PSoC4/mUART_UART.c **** void mUART_UartPostEnable(void)
 318:Generated_Source\PSoC4/mUART_UART.c **** {
 179              		.loc 1 318 0
 180              		.cfi_startproc
 181              		@ args = 0, pretend = 0, frame = 0
 182              		@ frame_needed = 0, uses_anonymous_args = 0
 183              		@ link register save eliminated.
 319:Generated_Source\PSoC4/mUART_UART.c **** #if (mUART_SCB_MODE_UNCONFIG_CONST_CFG)
 320:Generated_Source\PSoC4/mUART_UART.c ****     #if (mUART_TX_SDA_MISO_PIN)
 321:Generated_Source\PSoC4/mUART_UART.c ****         if (mUART_CHECK_TX_SDA_MISO_PIN_USED)
 322:Generated_Source\PSoC4/mUART_UART.c ****         {
 323:Generated_Source\PSoC4/mUART_UART.c ****             /* Set SCB UART to drive the output pin */
 324:Generated_Source\PSoC4/mUART_UART.c ****             mUART_SET_HSIOM_SEL(mUART_TX_SDA_MISO_HSIOM_REG, mUART_TX_SDA_MISO_HSIOM_MASK,
 325:Generated_Source\PSoC4/mUART_UART.c ****                                            mUART_TX_SDA_MISO_HSIOM_POS, mUART_TX_SDA_MISO_HSIOM_SEL
 326:Generated_Source\PSoC4/mUART_UART.c ****         }
 327:Generated_Source\PSoC4/mUART_UART.c ****     #endif /* (mUART_TX_SDA_MISO_PIN_PIN) */
 328:Generated_Source\PSoC4/mUART_UART.c **** 
 329:Generated_Source\PSoC4/mUART_UART.c ****     #if !(mUART_CY_SCBIP_V0 || mUART_CY_SCBIP_V1)
 330:Generated_Source\PSoC4/mUART_UART.c ****         #if (mUART_RTS_SS0_PIN)
 331:Generated_Source\PSoC4/mUART_UART.c ****             if (mUART_CHECK_RTS_SS0_PIN_USED)
 332:Generated_Source\PSoC4/mUART_UART.c ****             {
 333:Generated_Source\PSoC4/mUART_UART.c ****                 /* Set SCB UART to drive the output pin */
 334:Generated_Source\PSoC4/mUART_UART.c ****                 mUART_SET_HSIOM_SEL(mUART_RTS_SS0_HSIOM_REG, mUART_RTS_SS0_HSIOM_MASK,
 335:Generated_Source\PSoC4/mUART_UART.c ****                                                mUART_RTS_SS0_HSIOM_POS, mUART_RTS_SS0_HSIOM_SEL_UAR
 336:Generated_Source\PSoC4/mUART_UART.c ****             }
 337:Generated_Source\PSoC4/mUART_UART.c ****         #endif /* (mUART_RTS_SS0_PIN) */
 338:Generated_Source\PSoC4/mUART_UART.c ****     #endif /* !(mUART_CY_SCBIP_V0 || mUART_CY_SCBIP_V1) */
 339:Generated_Source\PSoC4/mUART_UART.c **** 
 340:Generated_Source\PSoC4/mUART_UART.c **** #else
 341:Generated_Source\PSoC4/mUART_UART.c ****     #if (mUART_UART_TX_PIN)
 342:Generated_Source\PSoC4/mUART_UART.c ****          /* Set SCB UART to drive the output pin */
 343:Generated_Source\PSoC4/mUART_UART.c ****         mUART_SET_HSIOM_SEL(mUART_TX_HSIOM_REG, mUART_TX_HSIOM_MASK,
 184              		.loc 1 343 0
 185 0000 F021     		movs	r1, #240
 186 0002 054A     		ldr	r2, .L5
 344:Generated_Source\PSoC4/mUART_UART.c ****                                        mUART_TX_HSIOM_POS, mUART_TX_HSIOM_SEL_UART);
 345:Generated_Source\PSoC4/mUART_UART.c ****     #endif /* (mUART_UART_TX_PIN) */
 346:Generated_Source\PSoC4/mUART_UART.c **** 
 347:Generated_Source\PSoC4/mUART_UART.c ****     #if (mUART_UART_RTS_PIN)
 348:Generated_Source\PSoC4/mUART_UART.c ****         /* Set SCB UART to drive the output pin */
 349:Generated_Source\PSoC4/mUART_UART.c ****         mUART_SET_HSIOM_SEL(mUART_RTS_HSIOM_REG, mUART_RTS_HSIOM_MASK,
 350:Generated_Source\PSoC4/mUART_UART.c ****                                        mUART_RTS_HSIOM_POS, mUART_RTS_HSIOM_SEL_UART);
 351:Generated_Source\PSoC4/mUART_UART.c ****     #endif /* (mUART_UART_RTS_PIN) */
 352:Generated_Source\PSoC4/mUART_UART.c **** #endif /* (mUART_SCB_MODE_UNCONFIG_CONST_CFG) */
 353:Generated_Source\PSoC4/mUART_UART.c **** 
 354:Generated_Source\PSoC4/mUART_UART.c ****     /* Restore TX interrupt sources. */
 355:Generated_Source\PSoC4/mUART_UART.c ****     mUART_SetTxInterruptMode(mUART_IntrTxMask);
ARM GAS  C:\Users\PC\AppData\Local\Temp\ccCKGB6e.s 			page 11


 356:Generated_Source\PSoC4/mUART_UART.c **** }
 187              		.loc 1 356 0
 188              		@ sp needed
 343:Generated_Source\PSoC4/mUART_UART.c ****                                        mUART_TX_HSIOM_POS, mUART_TX_HSIOM_SEL_UART);
 189              		.loc 1 343 0
 190 0004 1368     		ldr	r3, [r2]
 191 0006 8B43     		bics	r3, r1
 192 0008 6039     		subs	r1, r1, #96
 193 000a 0B43     		orrs	r3, r1
 194 000c 1360     		str	r3, [r2]
 355:Generated_Source\PSoC4/mUART_UART.c **** }
 195              		.loc 1 355 0
 196 000e 034B     		ldr	r3, .L5+4
 197 0010 1A88     		ldrh	r2, [r3]
 198 0012 034B     		ldr	r3, .L5+8
 199 0014 1A60     		str	r2, [r3]
 200              		.loc 1 356 0
 201 0016 7047     		bx	lr
 202              	.L6:
 203              		.align	2
 204              	.L5:
 205 0018 00040240 		.word	1073873920
 206 001c 00000000 		.word	mUART_IntrTxMask
 207 0020 880F0840 		.word	1074270088
 208              		.cfi_endproc
 209              	.LFE2:
 210              		.size	mUART_UartPostEnable, .-mUART_UartPostEnable
 211              		.section	.text.mUART_UartStop,"ax",%progbits
 212              		.align	1
 213              		.global	mUART_UartStop
 214              		.code	16
 215              		.thumb_func
 216              		.type	mUART_UartStop, %function
 217              	mUART_UartStop:
 218              	.LFB3:
 357:Generated_Source\PSoC4/mUART_UART.c **** 
 358:Generated_Source\PSoC4/mUART_UART.c **** 
 359:Generated_Source\PSoC4/mUART_UART.c **** /*******************************************************************************
 360:Generated_Source\PSoC4/mUART_UART.c **** * Function Name: mUART_UartStop
 361:Generated_Source\PSoC4/mUART_UART.c **** ****************************************************************************//**
 362:Generated_Source\PSoC4/mUART_UART.c **** *
 363:Generated_Source\PSoC4/mUART_UART.c **** *  Changes the HSIOM settings for the UART output pins (TX and/or RTS) to keep
 364:Generated_Source\PSoC4/mUART_UART.c **** *  them inactive after the block is disabled. The output pins are controlled by
 365:Generated_Source\PSoC4/mUART_UART.c **** *  the GPIO data register. Also, the function disables the skip start feature
 366:Generated_Source\PSoC4/mUART_UART.c **** *  to not cause it to trigger after the component is enabled.
 367:Generated_Source\PSoC4/mUART_UART.c **** *
 368:Generated_Source\PSoC4/mUART_UART.c **** *******************************************************************************/
 369:Generated_Source\PSoC4/mUART_UART.c **** void mUART_UartStop(void)
 370:Generated_Source\PSoC4/mUART_UART.c **** {
 219              		.loc 1 370 0
 220              		.cfi_startproc
 221              		@ args = 0, pretend = 0, frame = 0
 222              		@ frame_needed = 0, uses_anonymous_args = 0
 223              		@ link register save eliminated.
 371:Generated_Source\PSoC4/mUART_UART.c **** #if(mUART_SCB_MODE_UNCONFIG_CONST_CFG)
 372:Generated_Source\PSoC4/mUART_UART.c ****     #if (mUART_TX_SDA_MISO_PIN)
 373:Generated_Source\PSoC4/mUART_UART.c ****         if (mUART_CHECK_TX_SDA_MISO_PIN_USED)
ARM GAS  C:\Users\PC\AppData\Local\Temp\ccCKGB6e.s 			page 12


 374:Generated_Source\PSoC4/mUART_UART.c ****         {
 375:Generated_Source\PSoC4/mUART_UART.c ****             /* Set GPIO to drive output pin */
 376:Generated_Source\PSoC4/mUART_UART.c ****             mUART_SET_HSIOM_SEL(mUART_TX_SDA_MISO_HSIOM_REG, mUART_TX_SDA_MISO_HSIOM_MASK,
 377:Generated_Source\PSoC4/mUART_UART.c ****                                            mUART_TX_SDA_MISO_HSIOM_POS, mUART_TX_SDA_MISO_HSIOM_SEL
 378:Generated_Source\PSoC4/mUART_UART.c ****         }
 379:Generated_Source\PSoC4/mUART_UART.c ****     #endif /* (mUART_TX_SDA_MISO_PIN_PIN) */
 380:Generated_Source\PSoC4/mUART_UART.c **** 
 381:Generated_Source\PSoC4/mUART_UART.c ****     #if !(mUART_CY_SCBIP_V0 || mUART_CY_SCBIP_V1)
 382:Generated_Source\PSoC4/mUART_UART.c ****         #if (mUART_RTS_SS0_PIN)
 383:Generated_Source\PSoC4/mUART_UART.c ****             if (mUART_CHECK_RTS_SS0_PIN_USED)
 384:Generated_Source\PSoC4/mUART_UART.c ****             {
 385:Generated_Source\PSoC4/mUART_UART.c ****                 /* Set output pin state after block is disabled */
 386:Generated_Source\PSoC4/mUART_UART.c ****                 mUART_uart_rts_spi_ss0_Write(mUART_GET_UART_RTS_INACTIVE);
 387:Generated_Source\PSoC4/mUART_UART.c **** 
 388:Generated_Source\PSoC4/mUART_UART.c ****                 /* Set GPIO to drive output pin */
 389:Generated_Source\PSoC4/mUART_UART.c ****                 mUART_SET_HSIOM_SEL(mUART_RTS_SS0_HSIOM_REG, mUART_RTS_SS0_HSIOM_MASK,
 390:Generated_Source\PSoC4/mUART_UART.c ****                                                mUART_RTS_SS0_HSIOM_POS, mUART_RTS_SS0_HSIOM_SEL_GPI
 391:Generated_Source\PSoC4/mUART_UART.c ****             }
 392:Generated_Source\PSoC4/mUART_UART.c ****         #endif /* (mUART_RTS_SS0_PIN) */
 393:Generated_Source\PSoC4/mUART_UART.c ****     #endif /* !(mUART_CY_SCBIP_V0 || mUART_CY_SCBIP_V1) */
 394:Generated_Source\PSoC4/mUART_UART.c **** 
 395:Generated_Source\PSoC4/mUART_UART.c **** #else
 396:Generated_Source\PSoC4/mUART_UART.c ****     #if (mUART_UART_TX_PIN)
 397:Generated_Source\PSoC4/mUART_UART.c ****         /* Set GPIO to drive output pin */
 398:Generated_Source\PSoC4/mUART_UART.c ****         mUART_SET_HSIOM_SEL(mUART_TX_HSIOM_REG, mUART_TX_HSIOM_MASK,
 224              		.loc 1 398 0
 225 0000 F021     		movs	r1, #240
 226 0002 064A     		ldr	r2, .L8
 399:Generated_Source\PSoC4/mUART_UART.c ****                                        mUART_TX_HSIOM_POS, mUART_TX_HSIOM_SEL_GPIO);
 400:Generated_Source\PSoC4/mUART_UART.c ****     #endif /* (mUART_UART_TX_PIN) */
 401:Generated_Source\PSoC4/mUART_UART.c **** 
 402:Generated_Source\PSoC4/mUART_UART.c ****     #if (mUART_UART_RTS_PIN)
 403:Generated_Source\PSoC4/mUART_UART.c ****         /* Set output pin state after block is disabled */
 404:Generated_Source\PSoC4/mUART_UART.c ****         mUART_rts_Write(mUART_GET_UART_RTS_INACTIVE);
 405:Generated_Source\PSoC4/mUART_UART.c **** 
 406:Generated_Source\PSoC4/mUART_UART.c ****         /* Set GPIO to drive output pin */
 407:Generated_Source\PSoC4/mUART_UART.c ****         mUART_SET_HSIOM_SEL(mUART_RTS_HSIOM_REG, mUART_RTS_HSIOM_MASK,
 408:Generated_Source\PSoC4/mUART_UART.c ****                                        mUART_RTS_HSIOM_POS, mUART_RTS_HSIOM_SEL_GPIO);
 409:Generated_Source\PSoC4/mUART_UART.c ****     #endif /* (mUART_UART_RTS_PIN) */
 410:Generated_Source\PSoC4/mUART_UART.c **** 
 411:Generated_Source\PSoC4/mUART_UART.c **** #endif /* (mUART_SCB_MODE_UNCONFIG_CONST_CFG) */
 412:Generated_Source\PSoC4/mUART_UART.c **** 
 413:Generated_Source\PSoC4/mUART_UART.c **** #if (mUART_UART_WAKE_ENABLE_CONST)
 414:Generated_Source\PSoC4/mUART_UART.c ****     /* Disable skip start feature used for wakeup */
 415:Generated_Source\PSoC4/mUART_UART.c ****     mUART_UART_RX_CTRL_REG &= (uint32) ~mUART_UART_RX_CTRL_SKIP_START;
 416:Generated_Source\PSoC4/mUART_UART.c **** #endif /* (mUART_UART_WAKE_ENABLE_CONST) */
 417:Generated_Source\PSoC4/mUART_UART.c **** 
 418:Generated_Source\PSoC4/mUART_UART.c ****     /* Store TX interrupt sources (exclude level triggered). */
 419:Generated_Source\PSoC4/mUART_UART.c ****     mUART_IntrTxMask = LO16(mUART_GetTxInterruptMode() & mUART_INTR_UART_TX_RESTORE);
 420:Generated_Source\PSoC4/mUART_UART.c **** }
 227              		.loc 1 420 0
 228              		@ sp needed
 398:Generated_Source\PSoC4/mUART_UART.c ****                                        mUART_TX_HSIOM_POS, mUART_TX_HSIOM_SEL_GPIO);
 229              		.loc 1 398 0
 230 0004 1368     		ldr	r3, [r2]
 231 0006 8B43     		bics	r3, r1
 232 0008 1360     		str	r3, [r2]
ARM GAS  C:\Users\PC\AppData\Local\Temp\ccCKGB6e.s 			page 13


 419:Generated_Source\PSoC4/mUART_UART.c **** }
 233              		.loc 1 419 0
 234 000a 054B     		ldr	r3, .L8+4
 235 000c 1A68     		ldr	r2, [r3]
 236 000e E423     		movs	r3, #228
 237 0010 DB00     		lsls	r3, r3, #3
 238 0012 1340     		ands	r3, r2
 239 0014 034A     		ldr	r2, .L8+8
 240 0016 1380     		strh	r3, [r2]
 241              		.loc 1 420 0
 242 0018 7047     		bx	lr
 243              	.L9:
 244 001a C046     		.align	2
 245              	.L8:
 246 001c 00040240 		.word	1073873920
 247 0020 880F0840 		.word	1074270088
 248 0024 00000000 		.word	mUART_IntrTxMask
 249              		.cfi_endproc
 250              	.LFE3:
 251              		.size	mUART_UartStop, .-mUART_UartStop
 252              		.section	.text.mUART_UartSetRxAddress,"ax",%progbits
 253              		.align	1
 254              		.global	mUART_UartSetRxAddress
 255              		.code	16
 256              		.thumb_func
 257              		.type	mUART_UartSetRxAddress, %function
 258              	mUART_UartSetRxAddress:
 259              	.LFB4:
 421:Generated_Source\PSoC4/mUART_UART.c **** 
 422:Generated_Source\PSoC4/mUART_UART.c **** 
 423:Generated_Source\PSoC4/mUART_UART.c **** /*******************************************************************************
 424:Generated_Source\PSoC4/mUART_UART.c **** * Function Name: mUART_UartSetRxAddress
 425:Generated_Source\PSoC4/mUART_UART.c **** ****************************************************************************//**
 426:Generated_Source\PSoC4/mUART_UART.c **** *
 427:Generated_Source\PSoC4/mUART_UART.c **** *  Sets the hardware detectable receiver address for the UART in the
 428:Generated_Source\PSoC4/mUART_UART.c **** *  Multiprocessor mode.
 429:Generated_Source\PSoC4/mUART_UART.c **** *
 430:Generated_Source\PSoC4/mUART_UART.c **** *  \param address: Address for hardware address detection.
 431:Generated_Source\PSoC4/mUART_UART.c **** *
 432:Generated_Source\PSoC4/mUART_UART.c **** *******************************************************************************/
 433:Generated_Source\PSoC4/mUART_UART.c **** void mUART_UartSetRxAddress(uint32 address)
 434:Generated_Source\PSoC4/mUART_UART.c **** {
 260              		.loc 1 434 0
 261              		.cfi_startproc
 262              		@ args = 0, pretend = 0, frame = 0
 263              		@ frame_needed = 0, uses_anonymous_args = 0
 264              		@ link register save eliminated.
 265              	.LVL3:
 435:Generated_Source\PSoC4/mUART_UART.c ****      uint32 matchReg;
 436:Generated_Source\PSoC4/mUART_UART.c **** 
 437:Generated_Source\PSoC4/mUART_UART.c ****     matchReg = mUART_RX_MATCH_REG;
 438:Generated_Source\PSoC4/mUART_UART.c **** 
 439:Generated_Source\PSoC4/mUART_UART.c ****     matchReg &= ((uint32) ~mUART_RX_MATCH_ADDR_MASK); /* Clear address bits */
 266              		.loc 1 439 0
 267 0000 FF22     		movs	r2, #255
 437:Generated_Source\PSoC4/mUART_UART.c **** 
 268              		.loc 1 437 0
ARM GAS  C:\Users\PC\AppData\Local\Temp\ccCKGB6e.s 			page 14


 269 0002 0349     		ldr	r1, .L11
 440:Generated_Source\PSoC4/mUART_UART.c ****     matchReg |= ((uint32)  (address & mUART_RX_MATCH_ADDR_MASK)); /* Set address  */
 270              		.loc 1 440 0
 271 0004 1040     		ands	r0, r2
 272              	.LVL4:
 437:Generated_Source\PSoC4/mUART_UART.c **** 
 273              		.loc 1 437 0
 274 0006 0B68     		ldr	r3, [r1]
 275              	.LVL5:
 441:Generated_Source\PSoC4/mUART_UART.c **** 
 442:Generated_Source\PSoC4/mUART_UART.c ****     mUART_RX_MATCH_REG = matchReg;
 443:Generated_Source\PSoC4/mUART_UART.c **** }
 276              		.loc 1 443 0
 277              		@ sp needed
 439:Generated_Source\PSoC4/mUART_UART.c ****     matchReg |= ((uint32)  (address & mUART_RX_MATCH_ADDR_MASK)); /* Set address  */
 278              		.loc 1 439 0
 279 0008 9343     		bics	r3, r2
 280              	.LVL6:
 440:Generated_Source\PSoC4/mUART_UART.c ****     matchReg |= ((uint32)  (address & mUART_RX_MATCH_ADDR_MASK)); /* Set address  */
 281              		.loc 1 440 0
 282 000a 1843     		orrs	r0, r3
 283              	.LVL7:
 442:Generated_Source\PSoC4/mUART_UART.c **** }
 284              		.loc 1 442 0
 285 000c 0860     		str	r0, [r1]
 286              		.loc 1 443 0
 287 000e 7047     		bx	lr
 288              	.L12:
 289              		.align	2
 290              	.L11:
 291 0010 10030840 		.word	1074266896
 292              		.cfi_endproc
 293              	.LFE4:
 294              		.size	mUART_UartSetRxAddress, .-mUART_UartSetRxAddress
 295              		.section	.text.mUART_UartSetRxAddressMask,"ax",%progbits
 296              		.align	1
 297              		.global	mUART_UartSetRxAddressMask
 298              		.code	16
 299              		.thumb_func
 300              		.type	mUART_UartSetRxAddressMask, %function
 301              	mUART_UartSetRxAddressMask:
 302              	.LFB5:
 444:Generated_Source\PSoC4/mUART_UART.c **** 
 445:Generated_Source\PSoC4/mUART_UART.c **** 
 446:Generated_Source\PSoC4/mUART_UART.c **** /*******************************************************************************
 447:Generated_Source\PSoC4/mUART_UART.c **** * Function Name: mUART_UartSetRxAddressMask
 448:Generated_Source\PSoC4/mUART_UART.c **** ****************************************************************************//**
 449:Generated_Source\PSoC4/mUART_UART.c **** *
 450:Generated_Source\PSoC4/mUART_UART.c **** *  Sets the hardware address mask for the UART in the Multiprocessor mode.
 451:Generated_Source\PSoC4/mUART_UART.c **** *
 452:Generated_Source\PSoC4/mUART_UART.c **** *  \param addressMask: Address mask.
 453:Generated_Source\PSoC4/mUART_UART.c **** *   - Bit value 0 – excludes bit from address comparison.
 454:Generated_Source\PSoC4/mUART_UART.c **** *   - Bit value 1 – the bit needs to match with the corresponding bit
 455:Generated_Source\PSoC4/mUART_UART.c **** *     of the address.
 456:Generated_Source\PSoC4/mUART_UART.c **** *
 457:Generated_Source\PSoC4/mUART_UART.c **** *******************************************************************************/
 458:Generated_Source\PSoC4/mUART_UART.c **** void mUART_UartSetRxAddressMask(uint32 addressMask)
ARM GAS  C:\Users\PC\AppData\Local\Temp\ccCKGB6e.s 			page 15


 459:Generated_Source\PSoC4/mUART_UART.c **** {
 303              		.loc 1 459 0
 304              		.cfi_startproc
 305              		@ args = 0, pretend = 0, frame = 0
 306              		@ frame_needed = 0, uses_anonymous_args = 0
 307              		@ link register save eliminated.
 308              	.LVL8:
 460:Generated_Source\PSoC4/mUART_UART.c ****     uint32 matchReg;
 461:Generated_Source\PSoC4/mUART_UART.c **** 
 462:Generated_Source\PSoC4/mUART_UART.c ****     matchReg = mUART_RX_MATCH_REG;
 309              		.loc 1 462 0
 310 0000 034A     		ldr	r2, .L14
 463:Generated_Source\PSoC4/mUART_UART.c **** 
 464:Generated_Source\PSoC4/mUART_UART.c ****     matchReg &= ((uint32) ~mUART_RX_MATCH_MASK_MASK); /* Clear address mask bits */
 311              		.loc 1 464 0
 312 0002 044B     		ldr	r3, .L14+4
 462:Generated_Source\PSoC4/mUART_UART.c **** 
 313              		.loc 1 462 0
 314 0004 1168     		ldr	r1, [r2]
 315              	.LVL9:
 465:Generated_Source\PSoC4/mUART_UART.c ****     matchReg |= ((uint32) (addressMask << mUART_RX_MATCH_MASK_POS));
 316              		.loc 1 465 0
 317 0006 0004     		lsls	r0, r0, #16
 318              	.LVL10:
 464:Generated_Source\PSoC4/mUART_UART.c ****     matchReg |= ((uint32) (addressMask << mUART_RX_MATCH_MASK_POS));
 319              		.loc 1 464 0
 320 0008 0B40     		ands	r3, r1
 321              	.LVL11:
 322              		.loc 1 465 0
 323 000a 1843     		orrs	r0, r3
 324              	.LVL12:
 466:Generated_Source\PSoC4/mUART_UART.c **** 
 467:Generated_Source\PSoC4/mUART_UART.c ****     mUART_RX_MATCH_REG = matchReg;
 325              		.loc 1 467 0
 326 000c 1060     		str	r0, [r2]
 468:Generated_Source\PSoC4/mUART_UART.c **** }
 327              		.loc 1 468 0
 328              		@ sp needed
 329 000e 7047     		bx	lr
 330              	.L15:
 331              		.align	2
 332              	.L14:
 333 0010 10030840 		.word	1074266896
 334 0014 FFFF00FF 		.word	-16711681
 335              		.cfi_endproc
 336              	.LFE5:
 337              		.size	mUART_UartSetRxAddressMask, .-mUART_UartSetRxAddressMask
 338              		.section	.text.mUART_UartGetChar,"ax",%progbits
 339              		.align	1
 340              		.global	mUART_UartGetChar
 341              		.code	16
 342              		.thumb_func
 343              		.type	mUART_UartGetChar, %function
 344              	mUART_UartGetChar:
 345              	.LFB6:
 469:Generated_Source\PSoC4/mUART_UART.c **** 
 470:Generated_Source\PSoC4/mUART_UART.c **** 
ARM GAS  C:\Users\PC\AppData\Local\Temp\ccCKGB6e.s 			page 16


 471:Generated_Source\PSoC4/mUART_UART.c **** #if(mUART_UART_RX_DIRECTION)
 472:Generated_Source\PSoC4/mUART_UART.c ****     /*******************************************************************************
 473:Generated_Source\PSoC4/mUART_UART.c ****     * Function Name: mUART_UartGetChar
 474:Generated_Source\PSoC4/mUART_UART.c ****     ****************************************************************************//**
 475:Generated_Source\PSoC4/mUART_UART.c ****     *
 476:Generated_Source\PSoC4/mUART_UART.c ****     *  Retrieves next data element from receive buffer.
 477:Generated_Source\PSoC4/mUART_UART.c ****     *  This function is designed for ASCII characters and returns a char where
 478:Generated_Source\PSoC4/mUART_UART.c ****     *  1 to 255 are valid characters and 0 indicates an error occurred or no data
 479:Generated_Source\PSoC4/mUART_UART.c ****     *  is present.
 480:Generated_Source\PSoC4/mUART_UART.c ****     *  - RX software buffer is disabled: Returns data element retrieved from RX
 481:Generated_Source\PSoC4/mUART_UART.c ****     *    FIFO.
 482:Generated_Source\PSoC4/mUART_UART.c ****     *  - RX software buffer is enabled: Returns data element from the software
 483:Generated_Source\PSoC4/mUART_UART.c ****     *    receive buffer.
 484:Generated_Source\PSoC4/mUART_UART.c ****     *
 485:Generated_Source\PSoC4/mUART_UART.c ****     *  \return
 486:Generated_Source\PSoC4/mUART_UART.c ****     *   Next data element from the receive buffer. ASCII character values from
 487:Generated_Source\PSoC4/mUART_UART.c ****     *   1 to 255 are valid. A returned zero signifies an error condition or no
 488:Generated_Source\PSoC4/mUART_UART.c ****     *   data available.
 489:Generated_Source\PSoC4/mUART_UART.c ****     *
 490:Generated_Source\PSoC4/mUART_UART.c ****     *  \sideeffect
 491:Generated_Source\PSoC4/mUART_UART.c ****     *   The errors bits may not correspond with reading characters due to
 492:Generated_Source\PSoC4/mUART_UART.c ****     *   RX FIFO and software buffer usage.
 493:Generated_Source\PSoC4/mUART_UART.c ****     *   RX software buffer is enabled: The internal software buffer overflow
 494:Generated_Source\PSoC4/mUART_UART.c ****     *   is not treated as an error condition.
 495:Generated_Source\PSoC4/mUART_UART.c ****     *   Check mUART_rxBufferOverflow to capture that error condition.
 496:Generated_Source\PSoC4/mUART_UART.c ****     *
 497:Generated_Source\PSoC4/mUART_UART.c ****     *******************************************************************************/
 498:Generated_Source\PSoC4/mUART_UART.c ****     uint32 mUART_UartGetChar(void)
 499:Generated_Source\PSoC4/mUART_UART.c ****     {
 346              		.loc 1 499 0
 347              		.cfi_startproc
 348              		@ args = 0, pretend = 0, frame = 0
 349              		@ frame_needed = 0, uses_anonymous_args = 0
 350              	.LVL13:
 351 0000 10B5     		push	{r4, lr}
 352              		.cfi_def_cfa_offset 8
 353              		.cfi_offset 4, -8
 354              		.cfi_offset 14, -4
 500:Generated_Source\PSoC4/mUART_UART.c ****         uint32 rxData = 0u;
 501:Generated_Source\PSoC4/mUART_UART.c **** 
 502:Generated_Source\PSoC4/mUART_UART.c ****         /* Reads data only if there is data to read */
 503:Generated_Source\PSoC4/mUART_UART.c ****         if (0u != mUART_SpiUartGetRxBufferSize())
 355              		.loc 1 503 0
 356 0002 FFF7FEFF 		bl	mUART_SpiUartGetRxBufferSize
 357              	.LVL14:
 358 0006 0300     		movs	r3, r0
 500:Generated_Source\PSoC4/mUART_UART.c ****         uint32 rxData = 0u;
 359              		.loc 1 500 0
 360 0008 0020     		movs	r0, #0
 361              		.loc 1 503 0
 362 000a 8342     		cmp	r3, r0
 363 000c 01D0     		beq	.L17
 504:Generated_Source\PSoC4/mUART_UART.c ****         {
 505:Generated_Source\PSoC4/mUART_UART.c ****             rxData = mUART_SpiUartReadRxData();
 364              		.loc 1 505 0
 365 000e FFF7FEFF 		bl	mUART_SpiUartReadRxData
 366              	.LVL15:
ARM GAS  C:\Users\PC\AppData\Local\Temp\ccCKGB6e.s 			page 17


 367              	.L17:
 506:Generated_Source\PSoC4/mUART_UART.c ****         }
 507:Generated_Source\PSoC4/mUART_UART.c **** 
 508:Generated_Source\PSoC4/mUART_UART.c ****         if (mUART_CHECK_INTR_RX(mUART_INTR_RX_ERR))
 368              		.loc 1 508 0
 369 0012 D822     		movs	r2, #216
 370 0014 034B     		ldr	r3, .L25
 371 0016 9200     		lsls	r2, r2, #2
 372 0018 1968     		ldr	r1, [r3]
 373 001a 1142     		tst	r1, r2
 374 001c 01D0     		beq	.L18
 375              	.LVL16:
 509:Generated_Source\PSoC4/mUART_UART.c ****         {
 510:Generated_Source\PSoC4/mUART_UART.c ****             rxData = 0u; /* Error occurred: returns zero */
 376              		.loc 1 510 0
 377 001e 0020     		movs	r0, #0
 511:Generated_Source\PSoC4/mUART_UART.c ****             mUART_ClearRxInterruptSource(mUART_INTR_RX_ERR);
 378              		.loc 1 511 0
 379 0020 1A60     		str	r2, [r3]
 380              	.LVL17:
 381              	.L18:
 512:Generated_Source\PSoC4/mUART_UART.c ****         }
 513:Generated_Source\PSoC4/mUART_UART.c **** 
 514:Generated_Source\PSoC4/mUART_UART.c ****         return (rxData);
 515:Generated_Source\PSoC4/mUART_UART.c ****     }
 382              		.loc 1 515 0
 383              		@ sp needed
 384 0022 10BD     		pop	{r4, pc}
 385              	.L26:
 386              		.align	2
 387              	.L25:
 388 0024 C00F0840 		.word	1074270144
 389              		.cfi_endproc
 390              	.LFE6:
 391              		.size	mUART_UartGetChar, .-mUART_UartGetChar
 392              		.section	.text.mUART_UartGetByte,"ax",%progbits
 393              		.align	1
 394              		.global	mUART_UartGetByte
 395              		.code	16
 396              		.thumb_func
 397              		.type	mUART_UartGetByte, %function
 398              	mUART_UartGetByte:
 399              	.LFB7:
 516:Generated_Source\PSoC4/mUART_UART.c **** 
 517:Generated_Source\PSoC4/mUART_UART.c **** 
 518:Generated_Source\PSoC4/mUART_UART.c ****     /*******************************************************************************
 519:Generated_Source\PSoC4/mUART_UART.c ****     * Function Name: mUART_UartGetByte
 520:Generated_Source\PSoC4/mUART_UART.c ****     ****************************************************************************//**
 521:Generated_Source\PSoC4/mUART_UART.c ****     *
 522:Generated_Source\PSoC4/mUART_UART.c ****     *  Retrieves the next data element from the receive buffer, returns the
 523:Generated_Source\PSoC4/mUART_UART.c ****     *  received byte and error condition.
 524:Generated_Source\PSoC4/mUART_UART.c ****     *   - The RX software buffer is disabled: returns the data element retrieved
 525:Generated_Source\PSoC4/mUART_UART.c ****     *     from the RX FIFO. Undefined data will be returned if the RX FIFO is
 526:Generated_Source\PSoC4/mUART_UART.c ****     *     empty.
 527:Generated_Source\PSoC4/mUART_UART.c ****     *   - The RX software buffer is enabled: returns data element from the
 528:Generated_Source\PSoC4/mUART_UART.c ****     *     software receive buffer.
 529:Generated_Source\PSoC4/mUART_UART.c ****     *
ARM GAS  C:\Users\PC\AppData\Local\Temp\ccCKGB6e.s 			page 18


 530:Generated_Source\PSoC4/mUART_UART.c ****     *  \return
 531:Generated_Source\PSoC4/mUART_UART.c ****     *   Bits 7-0 contain the next data element from the receive buffer and
 532:Generated_Source\PSoC4/mUART_UART.c ****     *   other bits contain the error condition.
 533:Generated_Source\PSoC4/mUART_UART.c ****     *   - mUART_UART_RX_OVERFLOW - Attempt to write to a full
 534:Generated_Source\PSoC4/mUART_UART.c ****     *     receiver FIFO.
 535:Generated_Source\PSoC4/mUART_UART.c ****     *   - mUART_UART_RX_UNDERFLOW    Attempt to read from an empty
 536:Generated_Source\PSoC4/mUART_UART.c ****     *     receiver FIFO.
 537:Generated_Source\PSoC4/mUART_UART.c ****     *   - mUART_UART_RX_FRAME_ERROR - UART framing error detected.
 538:Generated_Source\PSoC4/mUART_UART.c ****     *   - mUART_UART_RX_PARITY_ERROR - UART parity error detected.
 539:Generated_Source\PSoC4/mUART_UART.c ****     *
 540:Generated_Source\PSoC4/mUART_UART.c ****     *  \sideeffect
 541:Generated_Source\PSoC4/mUART_UART.c ****     *   The errors bits may not correspond with reading characters due to
 542:Generated_Source\PSoC4/mUART_UART.c ****     *   RX FIFO and software buffer usage.
 543:Generated_Source\PSoC4/mUART_UART.c ****     *   RX software buffer is enabled: The internal software buffer overflow
 544:Generated_Source\PSoC4/mUART_UART.c ****     *   is not treated as an error condition.
 545:Generated_Source\PSoC4/mUART_UART.c ****     *   Check mUART_rxBufferOverflow to capture that error condition.
 546:Generated_Source\PSoC4/mUART_UART.c ****     *
 547:Generated_Source\PSoC4/mUART_UART.c ****     *******************************************************************************/
 548:Generated_Source\PSoC4/mUART_UART.c ****     uint32 mUART_UartGetByte(void)
 549:Generated_Source\PSoC4/mUART_UART.c ****     {
 400              		.loc 1 549 0
 401              		.cfi_startproc
 402              		@ args = 0, pretend = 0, frame = 0
 403              		@ frame_needed = 0, uses_anonymous_args = 0
 404 0000 70B5     		push	{r4, r5, r6, lr}
 405              		.cfi_def_cfa_offset 16
 406              		.cfi_offset 4, -16
 407              		.cfi_offset 5, -12
 408              		.cfi_offset 6, -8
 409              		.cfi_offset 14, -4
 550:Generated_Source\PSoC4/mUART_UART.c ****         uint32 rxData;
 551:Generated_Source\PSoC4/mUART_UART.c ****         uint32 tmpStatus;
 552:Generated_Source\PSoC4/mUART_UART.c **** 
 553:Generated_Source\PSoC4/mUART_UART.c ****         #if (mUART_CHECK_RX_SW_BUFFER)
 554:Generated_Source\PSoC4/mUART_UART.c ****         {
 555:Generated_Source\PSoC4/mUART_UART.c ****             mUART_DisableInt();
 410              		.loc 1 555 0
 411 0002 0720     		movs	r0, #7
 412 0004 FFF7FEFF 		bl	CyIntDisable
 413              	.LVL18:
 556:Generated_Source\PSoC4/mUART_UART.c ****         }
 557:Generated_Source\PSoC4/mUART_UART.c ****         #endif
 558:Generated_Source\PSoC4/mUART_UART.c **** 
 559:Generated_Source\PSoC4/mUART_UART.c ****         if (0u != mUART_SpiUartGetRxBufferSize())
 414              		.loc 1 559 0
 415 0008 FFF7FEFF 		bl	mUART_SpiUartGetRxBufferSize
 416              	.LVL19:
 417 000c 0D4D     		ldr	r5, .L30
 418 000e 0028     		cmp	r0, #0
 419 0010 06D0     		beq	.L28
 560:Generated_Source\PSoC4/mUART_UART.c ****         {
 561:Generated_Source\PSoC4/mUART_UART.c ****             /* Enables interrupt to receive more bytes: at least one byte is in
 562:Generated_Source\PSoC4/mUART_UART.c ****             * buffer.
 563:Generated_Source\PSoC4/mUART_UART.c ****             */
 564:Generated_Source\PSoC4/mUART_UART.c ****             #if (mUART_CHECK_RX_SW_BUFFER)
 565:Generated_Source\PSoC4/mUART_UART.c ****             {
 566:Generated_Source\PSoC4/mUART_UART.c ****                 mUART_EnableInt();
ARM GAS  C:\Users\PC\AppData\Local\Temp\ccCKGB6e.s 			page 19


 420              		.loc 1 566 0
 421 0012 0720     		movs	r0, #7
 422 0014 FFF7FEFF 		bl	CyIntEnable
 423              	.LVL20:
 567:Generated_Source\PSoC4/mUART_UART.c ****             }
 568:Generated_Source\PSoC4/mUART_UART.c ****             #endif
 569:Generated_Source\PSoC4/mUART_UART.c **** 
 570:Generated_Source\PSoC4/mUART_UART.c ****             /* Get received byte */
 571:Generated_Source\PSoC4/mUART_UART.c ****             rxData = mUART_SpiUartReadRxData();
 424              		.loc 1 571 0
 425 0018 FFF7FEFF 		bl	mUART_SpiUartReadRxData
 426              	.LVL21:
 427 001c 0400     		movs	r4, r0
 428              	.LVL22:
 429 001e 06E0     		b	.L29
 430              	.LVL23:
 431              	.L28:
 572:Generated_Source\PSoC4/mUART_UART.c ****         }
 573:Generated_Source\PSoC4/mUART_UART.c ****         else
 574:Generated_Source\PSoC4/mUART_UART.c ****         {
 575:Generated_Source\PSoC4/mUART_UART.c ****             /* Reads a byte directly from RX FIFO: underflow is raised in the
 576:Generated_Source\PSoC4/mUART_UART.c ****             * case of empty. Otherwise the first received byte will be read.
 577:Generated_Source\PSoC4/mUART_UART.c ****             */
 578:Generated_Source\PSoC4/mUART_UART.c ****             rxData = mUART_RX_FIFO_RD_REG;
 432              		.loc 1 578 0
 433 0020 094B     		ldr	r3, .L30+4
 579:Generated_Source\PSoC4/mUART_UART.c **** 
 580:Generated_Source\PSoC4/mUART_UART.c **** 
 581:Generated_Source\PSoC4/mUART_UART.c ****             /* Enables interrupt to receive more bytes. */
 582:Generated_Source\PSoC4/mUART_UART.c ****             #if (mUART_CHECK_RX_SW_BUFFER)
 583:Generated_Source\PSoC4/mUART_UART.c ****             {
 584:Generated_Source\PSoC4/mUART_UART.c **** 
 585:Generated_Source\PSoC4/mUART_UART.c ****                 /* The byte has been read from RX FIFO. Clear RX interrupt to
 586:Generated_Source\PSoC4/mUART_UART.c ****                 * not involve interrupt handler when RX FIFO is empty.
 587:Generated_Source\PSoC4/mUART_UART.c ****                 */
 588:Generated_Source\PSoC4/mUART_UART.c ****                 mUART_ClearRxInterruptSource(mUART_INTR_RX_NOT_EMPTY);
 589:Generated_Source\PSoC4/mUART_UART.c **** 
 590:Generated_Source\PSoC4/mUART_UART.c ****                 mUART_EnableInt();
 434              		.loc 1 590 0
 435 0022 0720     		movs	r0, #7
 578:Generated_Source\PSoC4/mUART_UART.c **** 
 436              		.loc 1 578 0
 437 0024 1C68     		ldr	r4, [r3]
 438              	.LVL24:
 588:Generated_Source\PSoC4/mUART_UART.c **** 
 439              		.loc 1 588 0
 440 0026 0423     		movs	r3, #4
 441 0028 2B60     		str	r3, [r5]
 442              		.loc 1 590 0
 443 002a FFF7FEFF 		bl	CyIntEnable
 444              	.LVL25:
 445              	.L29:
 591:Generated_Source\PSoC4/mUART_UART.c ****             }
 592:Generated_Source\PSoC4/mUART_UART.c ****             #endif
 593:Generated_Source\PSoC4/mUART_UART.c ****         }
 594:Generated_Source\PSoC4/mUART_UART.c **** 
 595:Generated_Source\PSoC4/mUART_UART.c ****         /* Get and clear RX error mask */
ARM GAS  C:\Users\PC\AppData\Local\Temp\ccCKGB6e.s 			page 20


 596:Generated_Source\PSoC4/mUART_UART.c ****         tmpStatus = (mUART_GetRxInterruptSource() & mUART_INTR_RX_ERR);
 597:Generated_Source\PSoC4/mUART_UART.c ****         mUART_ClearRxInterruptSource(mUART_INTR_RX_ERR);
 446              		.loc 1 597 0
 447 002e D823     		movs	r3, #216
 448 0030 9B00     		lsls	r3, r3, #2
 596:Generated_Source\PSoC4/mUART_UART.c ****         mUART_ClearRxInterruptSource(mUART_INTR_RX_ERR);
 449              		.loc 1 596 0
 450 0032 2868     		ldr	r0, [r5]
 451              	.LVL26:
 452              		.loc 1 597 0
 453 0034 2B60     		str	r3, [r5]
 454              	.LVL27:
 598:Generated_Source\PSoC4/mUART_UART.c **** 
 599:Generated_Source\PSoC4/mUART_UART.c ****         /* Puts together data and error status:
 600:Generated_Source\PSoC4/mUART_UART.c ****         * MP mode and accept address: 9th bit is set to notify mark.
 601:Generated_Source\PSoC4/mUART_UART.c ****         */
 602:Generated_Source\PSoC4/mUART_UART.c ****         rxData |= ((uint32) (tmpStatus << 8u));
 603:Generated_Source\PSoC4/mUART_UART.c **** 
 604:Generated_Source\PSoC4/mUART_UART.c ****         return (rxData);
 455              		.loc 1 604 0
 456 0036 D823     		movs	r3, #216
 457 0038 0002     		lsls	r0, r0, #8
 458              	.LVL28:
 459 003a 9B02     		lsls	r3, r3, #10
 460 003c 1840     		ands	r0, r3
 461 003e 2043     		orrs	r0, r4
 605:Generated_Source\PSoC4/mUART_UART.c ****     }
 462              		.loc 1 605 0
 463              		@ sp needed
 464 0040 70BD     		pop	{r4, r5, r6, pc}
 465              	.L31:
 466 0042 C046     		.align	2
 467              	.L30:
 468 0044 C00F0840 		.word	1074270144
 469 0048 40030840 		.word	1074266944
 470              		.cfi_endproc
 471              	.LFE7:
 472              		.size	mUART_UartGetByte, .-mUART_UartGetByte
 473              		.section	.text.mUART_UartSetRtsPolarity,"ax",%progbits
 474              		.align	1
 475              		.global	mUART_UartSetRtsPolarity
 476              		.code	16
 477              		.thumb_func
 478              		.type	mUART_UartSetRtsPolarity, %function
 479              	mUART_UartSetRtsPolarity:
 480              	.LFB8:
 606:Generated_Source\PSoC4/mUART_UART.c **** 
 607:Generated_Source\PSoC4/mUART_UART.c **** 
 608:Generated_Source\PSoC4/mUART_UART.c ****     #if !(mUART_CY_SCBIP_V0 || mUART_CY_SCBIP_V1)
 609:Generated_Source\PSoC4/mUART_UART.c ****         /*******************************************************************************
 610:Generated_Source\PSoC4/mUART_UART.c ****         * Function Name: mUART_UartSetRtsPolarity
 611:Generated_Source\PSoC4/mUART_UART.c ****         ****************************************************************************//**
 612:Generated_Source\PSoC4/mUART_UART.c ****         *
 613:Generated_Source\PSoC4/mUART_UART.c ****         *  Sets active polarity of RTS output signal.
 614:Generated_Source\PSoC4/mUART_UART.c ****         *  Only available for PSoC 4100 BLE / PSoC 4200 BLE / PSoC 4100M / PSoC 4200M /
 615:Generated_Source\PSoC4/mUART_UART.c ****         *  PSoC 4200L / PSoC 4000S / PSoC 4100S / PSoC Analog Coprocessor devices.
 616:Generated_Source\PSoC4/mUART_UART.c ****         *
ARM GAS  C:\Users\PC\AppData\Local\Temp\ccCKGB6e.s 			page 21


 617:Generated_Source\PSoC4/mUART_UART.c ****         *  \param polarity: Active polarity of RTS output signal.
 618:Generated_Source\PSoC4/mUART_UART.c ****         *   - mUART_UART_RTS_ACTIVE_LOW  - RTS signal is active low.
 619:Generated_Source\PSoC4/mUART_UART.c ****         *   - mUART_UART_RTS_ACTIVE_HIGH - RTS signal is active high.
 620:Generated_Source\PSoC4/mUART_UART.c ****         *
 621:Generated_Source\PSoC4/mUART_UART.c ****         *******************************************************************************/
 622:Generated_Source\PSoC4/mUART_UART.c ****         void mUART_UartSetRtsPolarity(uint32 polarity)
 623:Generated_Source\PSoC4/mUART_UART.c ****         {
 481              		.loc 1 623 0
 482              		.cfi_startproc
 483              		@ args = 0, pretend = 0, frame = 0
 484              		@ frame_needed = 0, uses_anonymous_args = 0
 485              		@ link register save eliminated.
 486              	.LVL29:
 487 0000 064B     		ldr	r3, .L36
 624:Generated_Source\PSoC4/mUART_UART.c ****             if(0u != polarity)
 488              		.loc 1 624 0
 489 0002 0028     		cmp	r0, #0
 490 0004 04D0     		beq	.L33
 625:Generated_Source\PSoC4/mUART_UART.c ****             {
 626:Generated_Source\PSoC4/mUART_UART.c ****                 mUART_UART_FLOW_CTRL_REG |= (uint32)  mUART_UART_FLOW_CTRL_RTS_POLARITY;
 491              		.loc 1 626 0
 492 0006 8021     		movs	r1, #128
 493 0008 1A68     		ldr	r2, [r3]
 494 000a 4902     		lsls	r1, r1, #9
 495 000c 0A43     		orrs	r2, r1
 496 000e 02E0     		b	.L35
 497              	.L33:
 627:Generated_Source\PSoC4/mUART_UART.c ****             }
 628:Generated_Source\PSoC4/mUART_UART.c ****             else
 629:Generated_Source\PSoC4/mUART_UART.c ****             {
 630:Generated_Source\PSoC4/mUART_UART.c ****                 mUART_UART_FLOW_CTRL_REG &= (uint32) ~mUART_UART_FLOW_CTRL_RTS_POLARITY;
 498              		.loc 1 630 0
 499 0010 1968     		ldr	r1, [r3]
 500 0012 034A     		ldr	r2, .L36+4
 501 0014 0A40     		ands	r2, r1
 502              	.L35:
 503 0016 1A60     		str	r2, [r3]
 631:Generated_Source\PSoC4/mUART_UART.c ****             }
 632:Generated_Source\PSoC4/mUART_UART.c ****         }
 504              		.loc 1 632 0
 505              		@ sp needed
 506 0018 7047     		bx	lr
 507              	.L37:
 508 001a C046     		.align	2
 509              	.L36:
 510 001c 50000840 		.word	1074266192
 511 0020 FFFFFEFF 		.word	-65537
 512              		.cfi_endproc
 513              	.LFE8:
 514              		.size	mUART_UartSetRtsPolarity, .-mUART_UartSetRtsPolarity
 515              		.section	.text.mUART_UartSetRtsFifoLevel,"ax",%progbits
 516              		.align	1
 517              		.global	mUART_UartSetRtsFifoLevel
 518              		.code	16
 519              		.thumb_func
 520              		.type	mUART_UartSetRtsFifoLevel, %function
 521              	mUART_UartSetRtsFifoLevel:
ARM GAS  C:\Users\PC\AppData\Local\Temp\ccCKGB6e.s 			page 22


 522              	.LFB9:
 633:Generated_Source\PSoC4/mUART_UART.c **** 
 634:Generated_Source\PSoC4/mUART_UART.c **** 
 635:Generated_Source\PSoC4/mUART_UART.c ****         /*******************************************************************************
 636:Generated_Source\PSoC4/mUART_UART.c ****         * Function Name: mUART_UartSetRtsFifoLevel
 637:Generated_Source\PSoC4/mUART_UART.c ****         ****************************************************************************//**
 638:Generated_Source\PSoC4/mUART_UART.c ****         *
 639:Generated_Source\PSoC4/mUART_UART.c ****         *  Sets level in the RX FIFO for RTS signal activation.
 640:Generated_Source\PSoC4/mUART_UART.c ****         *  While the RX FIFO has fewer entries than the RX FIFO level the RTS signal
 641:Generated_Source\PSoC4/mUART_UART.c ****         *  remains active, otherwise the RTS signal becomes inactive.
 642:Generated_Source\PSoC4/mUART_UART.c ****         *  Only available for PSoC 4100 BLE / PSoC 4200 BLE / PSoC 4100M / PSoC 4200M /
 643:Generated_Source\PSoC4/mUART_UART.c ****         *  PSoC 4200L / PSoC 4000S / PSoC 4100S / PSoC Analog Coprocessor devices.
 644:Generated_Source\PSoC4/mUART_UART.c ****         *
 645:Generated_Source\PSoC4/mUART_UART.c ****         *  \param level: Level in the RX FIFO for RTS signal activation.
 646:Generated_Source\PSoC4/mUART_UART.c ****         *   The range of valid level values is between 0 and RX FIFO depth - 1.
 647:Generated_Source\PSoC4/mUART_UART.c ****         *   Setting level value to 0 disables RTS signal activation.
 648:Generated_Source\PSoC4/mUART_UART.c ****         *
 649:Generated_Source\PSoC4/mUART_UART.c ****         *******************************************************************************/
 650:Generated_Source\PSoC4/mUART_UART.c ****         void mUART_UartSetRtsFifoLevel(uint32 level)
 651:Generated_Source\PSoC4/mUART_UART.c ****         {
 523              		.loc 1 651 0
 524              		.cfi_startproc
 525              		@ args = 0, pretend = 0, frame = 0
 526              		@ frame_needed = 0, uses_anonymous_args = 0
 527              		@ link register save eliminated.
 528              	.LVL30:
 652:Generated_Source\PSoC4/mUART_UART.c ****             uint32 uartFlowCtrl;
 653:Generated_Source\PSoC4/mUART_UART.c **** 
 654:Generated_Source\PSoC4/mUART_UART.c ****             uartFlowCtrl = mUART_UART_FLOW_CTRL_REG;
 655:Generated_Source\PSoC4/mUART_UART.c **** 
 656:Generated_Source\PSoC4/mUART_UART.c ****             uartFlowCtrl &= ((uint32) ~mUART_UART_FLOW_CTRL_TRIGGER_LEVEL_MASK); /* Clear level mas
 529              		.loc 1 656 0
 530 0000 0F22     		movs	r2, #15
 654:Generated_Source\PSoC4/mUART_UART.c **** 
 531              		.loc 1 654 0
 532 0002 0349     		ldr	r1, .L39
 657:Generated_Source\PSoC4/mUART_UART.c ****             uartFlowCtrl |= ((uint32) (mUART_UART_FLOW_CTRL_TRIGGER_LEVEL_MASK & level));
 533              		.loc 1 657 0
 534 0004 1040     		ands	r0, r2
 535              	.LVL31:
 654:Generated_Source\PSoC4/mUART_UART.c **** 
 536              		.loc 1 654 0
 537 0006 0B68     		ldr	r3, [r1]
 538              	.LVL32:
 658:Generated_Source\PSoC4/mUART_UART.c **** 
 659:Generated_Source\PSoC4/mUART_UART.c ****             mUART_UART_FLOW_CTRL_REG = uartFlowCtrl;
 660:Generated_Source\PSoC4/mUART_UART.c ****         }
 539              		.loc 1 660 0
 540              		@ sp needed
 656:Generated_Source\PSoC4/mUART_UART.c ****             uartFlowCtrl |= ((uint32) (mUART_UART_FLOW_CTRL_TRIGGER_LEVEL_MASK & level));
 541              		.loc 1 656 0
 542 0008 9343     		bics	r3, r2
 543              	.LVL33:
 657:Generated_Source\PSoC4/mUART_UART.c ****             uartFlowCtrl |= ((uint32) (mUART_UART_FLOW_CTRL_TRIGGER_LEVEL_MASK & level));
 544              		.loc 1 657 0
 545 000a 1843     		orrs	r0, r3
 546              	.LVL34:
ARM GAS  C:\Users\PC\AppData\Local\Temp\ccCKGB6e.s 			page 23


 659:Generated_Source\PSoC4/mUART_UART.c ****         }
 547              		.loc 1 659 0
 548 000c 0860     		str	r0, [r1]
 549              		.loc 1 660 0
 550 000e 7047     		bx	lr
 551              	.L40:
 552              		.align	2
 553              	.L39:
 554 0010 50000840 		.word	1074266192
 555              		.cfi_endproc
 556              	.LFE9:
 557              		.size	mUART_UartSetRtsFifoLevel, .-mUART_UartSetRtsFifoLevel
 558              		.section	.text.mUART_UartPutString,"ax",%progbits
 559              		.align	1
 560              		.global	mUART_UartPutString
 561              		.code	16
 562              		.thumb_func
 563              		.type	mUART_UartPutString, %function
 564              	mUART_UartPutString:
 565              	.LFB10:
 661:Generated_Source\PSoC4/mUART_UART.c ****     #endif /* !(mUART_CY_SCBIP_V0 || mUART_CY_SCBIP_V1) */
 662:Generated_Source\PSoC4/mUART_UART.c **** 
 663:Generated_Source\PSoC4/mUART_UART.c **** #endif /* (mUART_UART_RX_DIRECTION) */
 664:Generated_Source\PSoC4/mUART_UART.c **** 
 665:Generated_Source\PSoC4/mUART_UART.c **** 
 666:Generated_Source\PSoC4/mUART_UART.c **** #if(mUART_UART_TX_DIRECTION)
 667:Generated_Source\PSoC4/mUART_UART.c ****     /*******************************************************************************
 668:Generated_Source\PSoC4/mUART_UART.c ****     * Function Name: mUART_UartPutString
 669:Generated_Source\PSoC4/mUART_UART.c ****     ****************************************************************************//**
 670:Generated_Source\PSoC4/mUART_UART.c ****     *
 671:Generated_Source\PSoC4/mUART_UART.c ****     *  Places a NULL terminated string in the transmit buffer to be sent at the
 672:Generated_Source\PSoC4/mUART_UART.c ****     *  next available bus time.
 673:Generated_Source\PSoC4/mUART_UART.c ****     *  This function is blocking and waits until there is a space available to put
 674:Generated_Source\PSoC4/mUART_UART.c ****     *  requested data in transmit buffer.
 675:Generated_Source\PSoC4/mUART_UART.c ****     *
 676:Generated_Source\PSoC4/mUART_UART.c ****     *  \param string: pointer to the null terminated string array to be placed in the
 677:Generated_Source\PSoC4/mUART_UART.c ****     *   transmit buffer.
 678:Generated_Source\PSoC4/mUART_UART.c ****     *
 679:Generated_Source\PSoC4/mUART_UART.c ****     *******************************************************************************/
 680:Generated_Source\PSoC4/mUART_UART.c ****     void mUART_UartPutString(const char8 string[])
 681:Generated_Source\PSoC4/mUART_UART.c ****     {
 566              		.loc 1 681 0
 567              		.cfi_startproc
 568              		@ args = 0, pretend = 0, frame = 0
 569              		@ frame_needed = 0, uses_anonymous_args = 0
 570              	.LVL35:
 571 0000 10B5     		push	{r4, lr}
 572              		.cfi_def_cfa_offset 8
 573              		.cfi_offset 4, -8
 574              		.cfi_offset 14, -4
 575 0002 0400     		movs	r4, r0
 576              	.LVL36:
 577              	.L42:
 578 0004 0134     		adds	r4, r4, #1
 579              	.LVL37:
 682:Generated_Source\PSoC4/mUART_UART.c ****         uint32 bufIndex;
 683:Generated_Source\PSoC4/mUART_UART.c **** 
ARM GAS  C:\Users\PC\AppData\Local\Temp\ccCKGB6e.s 			page 24


 684:Generated_Source\PSoC4/mUART_UART.c ****         bufIndex = 0u;
 685:Generated_Source\PSoC4/mUART_UART.c **** 
 686:Generated_Source\PSoC4/mUART_UART.c ****         /* Blocks the control flow until all data has been sent */
 687:Generated_Source\PSoC4/mUART_UART.c ****         while(string[bufIndex] != ((char8) 0))
 580              		.loc 1 687 0
 581 0006 631E     		subs	r3, r4, #1
 582 0008 1878     		ldrb	r0, [r3]
 583 000a 0028     		cmp	r0, #0
 584 000c 02D0     		beq	.L44
 688:Generated_Source\PSoC4/mUART_UART.c ****         {
 689:Generated_Source\PSoC4/mUART_UART.c ****             mUART_UartPutChar((uint32) string[bufIndex]);
 585              		.loc 1 689 0
 586 000e FFF7FEFF 		bl	mUART_SpiUartWriteTxData
 587              	.LVL38:
 588 0012 F7E7     		b	.L42
 589              	.LVL39:
 590              	.L44:
 690:Generated_Source\PSoC4/mUART_UART.c ****             bufIndex++;
 691:Generated_Source\PSoC4/mUART_UART.c ****         }
 692:Generated_Source\PSoC4/mUART_UART.c ****     }
 591              		.loc 1 692 0
 592              		@ sp needed
 593              	.LVL40:
 594 0014 10BD     		pop	{r4, pc}
 595              		.cfi_endproc
 596              	.LFE10:
 597              		.size	mUART_UartPutString, .-mUART_UartPutString
 598              		.section	.text.mUART_UartPutCRLF,"ax",%progbits
 599              		.align	1
 600              		.global	mUART_UartPutCRLF
 601              		.code	16
 602              		.thumb_func
 603              		.type	mUART_UartPutCRLF, %function
 604              	mUART_UartPutCRLF:
 605              	.LFB11:
 693:Generated_Source\PSoC4/mUART_UART.c **** 
 694:Generated_Source\PSoC4/mUART_UART.c **** 
 695:Generated_Source\PSoC4/mUART_UART.c ****     /*******************************************************************************
 696:Generated_Source\PSoC4/mUART_UART.c ****     * Function Name: mUART_UartPutCRLF
 697:Generated_Source\PSoC4/mUART_UART.c ****     ****************************************************************************//**
 698:Generated_Source\PSoC4/mUART_UART.c ****     *
 699:Generated_Source\PSoC4/mUART_UART.c ****     *  Places byte of data followed by a carriage return (0x0D) and line feed
 700:Generated_Source\PSoC4/mUART_UART.c ****     *  (0x0A) in the transmit buffer.
 701:Generated_Source\PSoC4/mUART_UART.c ****     *  This function is blocking and waits until there is a space available to put
 702:Generated_Source\PSoC4/mUART_UART.c ****     *  all requested data in transmit buffer.
 703:Generated_Source\PSoC4/mUART_UART.c ****     *
 704:Generated_Source\PSoC4/mUART_UART.c ****     *  \param txDataByte: the data to be transmitted.
 705:Generated_Source\PSoC4/mUART_UART.c ****     *
 706:Generated_Source\PSoC4/mUART_UART.c ****     *******************************************************************************/
 707:Generated_Source\PSoC4/mUART_UART.c ****     void mUART_UartPutCRLF(uint32 txDataByte)
 708:Generated_Source\PSoC4/mUART_UART.c ****     {
 606              		.loc 1 708 0
 607              		.cfi_startproc
 608              		@ args = 0, pretend = 0, frame = 0
 609              		@ frame_needed = 0, uses_anonymous_args = 0
 610              	.LVL41:
 611 0000 10B5     		push	{r4, lr}
ARM GAS  C:\Users\PC\AppData\Local\Temp\ccCKGB6e.s 			page 25


 612              		.cfi_def_cfa_offset 8
 613              		.cfi_offset 4, -8
 614              		.cfi_offset 14, -4
 709:Generated_Source\PSoC4/mUART_UART.c ****         mUART_UartPutChar(txDataByte);  /* Blocks control flow until all data has been sent */
 615              		.loc 1 709 0
 616 0002 FFF7FEFF 		bl	mUART_SpiUartWriteTxData
 617              	.LVL42:
 710:Generated_Source\PSoC4/mUART_UART.c ****         mUART_UartPutChar(0x0Du);       /* Blocks control flow until all data has been sent */
 618              		.loc 1 710 0
 619 0006 0D20     		movs	r0, #13
 620 0008 FFF7FEFF 		bl	mUART_SpiUartWriteTxData
 621              	.LVL43:
 711:Generated_Source\PSoC4/mUART_UART.c ****         mUART_UartPutChar(0x0Au);       /* Blocks control flow until all data has been sent */
 622              		.loc 1 711 0
 623 000c 0A20     		movs	r0, #10
 624 000e FFF7FEFF 		bl	mUART_SpiUartWriteTxData
 625              	.LVL44:
 712:Generated_Source\PSoC4/mUART_UART.c ****     }
 626              		.loc 1 712 0
 627              		@ sp needed
 628 0012 10BD     		pop	{r4, pc}
 629              		.cfi_endproc
 630              	.LFE11:
 631              		.size	mUART_UartPutCRLF, .-mUART_UartPutCRLF
 632              		.section	.text.mUART_UartEnableCts,"ax",%progbits
 633              		.align	1
 634              		.global	mUART_UartEnableCts
 635              		.code	16
 636              		.thumb_func
 637              		.type	mUART_UartEnableCts, %function
 638              	mUART_UartEnableCts:
 639              	.LFB12:
 713:Generated_Source\PSoC4/mUART_UART.c **** 
 714:Generated_Source\PSoC4/mUART_UART.c **** 
 715:Generated_Source\PSoC4/mUART_UART.c ****     #if !(mUART_CY_SCBIP_V0 || mUART_CY_SCBIP_V1)
 716:Generated_Source\PSoC4/mUART_UART.c ****         /*******************************************************************************
 717:Generated_Source\PSoC4/mUART_UART.c ****         * Function Name: mUARTSCB_UartEnableCts
 718:Generated_Source\PSoC4/mUART_UART.c ****         ****************************************************************************//**
 719:Generated_Source\PSoC4/mUART_UART.c ****         *
 720:Generated_Source\PSoC4/mUART_UART.c ****         *  Enables usage of CTS input signal by the UART transmitter.
 721:Generated_Source\PSoC4/mUART_UART.c ****         *  Only available for PSoC 4100 BLE / PSoC 4200 BLE / PSoC 4100M / PSoC 4200M /
 722:Generated_Source\PSoC4/mUART_UART.c ****         *  PSoC 4200L / PSoC 4000S / PSoC 4100S / PSoC Analog Coprocessor devices.
 723:Generated_Source\PSoC4/mUART_UART.c ****         *
 724:Generated_Source\PSoC4/mUART_UART.c ****         *******************************************************************************/
 725:Generated_Source\PSoC4/mUART_UART.c ****         void mUART_UartEnableCts(void)
 726:Generated_Source\PSoC4/mUART_UART.c ****         {
 640              		.loc 1 726 0
 641              		.cfi_startproc
 642              		@ args = 0, pretend = 0, frame = 0
 643              		@ frame_needed = 0, uses_anonymous_args = 0
 644              		@ link register save eliminated.
 727:Generated_Source\PSoC4/mUART_UART.c ****             mUART_UART_FLOW_CTRL_REG |= (uint32)  mUART_UART_FLOW_CTRL_CTS_ENABLE;
 645              		.loc 1 727 0
 646 0000 8021     		movs	r1, #128
 647 0002 034A     		ldr	r2, .L47
 648 0004 8904     		lsls	r1, r1, #18
 649 0006 1368     		ldr	r3, [r2]
ARM GAS  C:\Users\PC\AppData\Local\Temp\ccCKGB6e.s 			page 26


 728:Generated_Source\PSoC4/mUART_UART.c ****         }
 650              		.loc 1 728 0
 651              		@ sp needed
 727:Generated_Source\PSoC4/mUART_UART.c ****             mUART_UART_FLOW_CTRL_REG |= (uint32)  mUART_UART_FLOW_CTRL_CTS_ENABLE;
 652              		.loc 1 727 0
 653 0008 0B43     		orrs	r3, r1
 654 000a 1360     		str	r3, [r2]
 655              		.loc 1 728 0
 656 000c 7047     		bx	lr
 657              	.L48:
 658 000e C046     		.align	2
 659              	.L47:
 660 0010 50000840 		.word	1074266192
 661              		.cfi_endproc
 662              	.LFE12:
 663              		.size	mUART_UartEnableCts, .-mUART_UartEnableCts
 664              		.section	.text.mUART_UartDisableCts,"ax",%progbits
 665              		.align	1
 666              		.global	mUART_UartDisableCts
 667              		.code	16
 668              		.thumb_func
 669              		.type	mUART_UartDisableCts, %function
 670              	mUART_UartDisableCts:
 671              	.LFB13:
 729:Generated_Source\PSoC4/mUART_UART.c **** 
 730:Generated_Source\PSoC4/mUART_UART.c **** 
 731:Generated_Source\PSoC4/mUART_UART.c ****         /*******************************************************************************
 732:Generated_Source\PSoC4/mUART_UART.c ****         * Function Name: mUART_UartDisableCts
 733:Generated_Source\PSoC4/mUART_UART.c ****         ****************************************************************************//**
 734:Generated_Source\PSoC4/mUART_UART.c ****         *
 735:Generated_Source\PSoC4/mUART_UART.c ****         *  Disables usage of CTS input signal by the UART transmitter.
 736:Generated_Source\PSoC4/mUART_UART.c ****         *  Only available for PSoC 4100 BLE / PSoC 4200 BLE / PSoC 4100M / PSoC 4200M /
 737:Generated_Source\PSoC4/mUART_UART.c ****         *  PSoC 4200L / PSoC 4000S / PSoC 4100S / PSoC Analog Coprocessor devices.
 738:Generated_Source\PSoC4/mUART_UART.c ****         *
 739:Generated_Source\PSoC4/mUART_UART.c ****         *******************************************************************************/
 740:Generated_Source\PSoC4/mUART_UART.c ****         void mUART_UartDisableCts(void)
 741:Generated_Source\PSoC4/mUART_UART.c ****         {
 672              		.loc 1 741 0
 673              		.cfi_startproc
 674              		@ args = 0, pretend = 0, frame = 0
 675              		@ frame_needed = 0, uses_anonymous_args = 0
 676              		@ link register save eliminated.
 742:Generated_Source\PSoC4/mUART_UART.c ****             mUART_UART_FLOW_CTRL_REG &= (uint32) ~mUART_UART_FLOW_CTRL_CTS_ENABLE;
 677              		.loc 1 742 0
 678 0000 024A     		ldr	r2, .L50
 679 0002 034B     		ldr	r3, .L50+4
 680 0004 1168     		ldr	r1, [r2]
 743:Generated_Source\PSoC4/mUART_UART.c ****         }
 681              		.loc 1 743 0
 682              		@ sp needed
 742:Generated_Source\PSoC4/mUART_UART.c ****             mUART_UART_FLOW_CTRL_REG &= (uint32) ~mUART_UART_FLOW_CTRL_CTS_ENABLE;
 683              		.loc 1 742 0
 684 0006 0B40     		ands	r3, r1
 685 0008 1360     		str	r3, [r2]
 686              		.loc 1 743 0
 687 000a 7047     		bx	lr
 688              	.L51:
ARM GAS  C:\Users\PC\AppData\Local\Temp\ccCKGB6e.s 			page 27


 689              		.align	2
 690              	.L50:
 691 000c 50000840 		.word	1074266192
 692 0010 FFFFFFFD 		.word	-33554433
 693              		.cfi_endproc
 694              	.LFE13:
 695              		.size	mUART_UartDisableCts, .-mUART_UartDisableCts
 696              		.section	.text.mUART_UartSetCtsPolarity,"ax",%progbits
 697              		.align	1
 698              		.global	mUART_UartSetCtsPolarity
 699              		.code	16
 700              		.thumb_func
 701              		.type	mUART_UartSetCtsPolarity, %function
 702              	mUART_UartSetCtsPolarity:
 703              	.LFB14:
 744:Generated_Source\PSoC4/mUART_UART.c **** 
 745:Generated_Source\PSoC4/mUART_UART.c **** 
 746:Generated_Source\PSoC4/mUART_UART.c ****         /*******************************************************************************
 747:Generated_Source\PSoC4/mUART_UART.c ****         * Function Name: mUART_UartSetCtsPolarity
 748:Generated_Source\PSoC4/mUART_UART.c ****         ****************************************************************************//**
 749:Generated_Source\PSoC4/mUART_UART.c ****         *
 750:Generated_Source\PSoC4/mUART_UART.c ****         *  Sets active polarity of CTS input signal.
 751:Generated_Source\PSoC4/mUART_UART.c ****         *  Only available for PSoC 4100 BLE / PSoC 4200 BLE / PSoC 4100M / PSoC 4200M /
 752:Generated_Source\PSoC4/mUART_UART.c ****         *  PSoC 4200L / PSoC 4000S / PSoC 4100S / PSoC Analog Coprocessor devices.
 753:Generated_Source\PSoC4/mUART_UART.c ****         *
 754:Generated_Source\PSoC4/mUART_UART.c ****         * \param
 755:Generated_Source\PSoC4/mUART_UART.c ****         * polarity: Active polarity of CTS output signal.
 756:Generated_Source\PSoC4/mUART_UART.c ****         *   - mUART_UART_CTS_ACTIVE_LOW  - CTS signal is active low.
 757:Generated_Source\PSoC4/mUART_UART.c ****         *   - mUART_UART_CTS_ACTIVE_HIGH - CTS signal is active high.
 758:Generated_Source\PSoC4/mUART_UART.c ****         *
 759:Generated_Source\PSoC4/mUART_UART.c ****         *******************************************************************************/
 760:Generated_Source\PSoC4/mUART_UART.c ****         void mUART_UartSetCtsPolarity(uint32 polarity)
 761:Generated_Source\PSoC4/mUART_UART.c ****         {
 704              		.loc 1 761 0
 705              		.cfi_startproc
 706              		@ args = 0, pretend = 0, frame = 0
 707              		@ frame_needed = 0, uses_anonymous_args = 0
 708              		@ link register save eliminated.
 709              	.LVL45:
 710 0000 064B     		ldr	r3, .L56
 762:Generated_Source\PSoC4/mUART_UART.c ****             if (0u != polarity)
 711              		.loc 1 762 0
 712 0002 0028     		cmp	r0, #0
 713 0004 04D0     		beq	.L53
 763:Generated_Source\PSoC4/mUART_UART.c ****             {
 764:Generated_Source\PSoC4/mUART_UART.c ****                 mUART_UART_FLOW_CTRL_REG |= (uint32)  mUART_UART_FLOW_CTRL_CTS_POLARITY;
 714              		.loc 1 764 0
 715 0006 8021     		movs	r1, #128
 716 0008 1A68     		ldr	r2, [r3]
 717 000a 4904     		lsls	r1, r1, #17
 718 000c 0A43     		orrs	r2, r1
 719 000e 02E0     		b	.L55
 720              	.L53:
 765:Generated_Source\PSoC4/mUART_UART.c ****             }
 766:Generated_Source\PSoC4/mUART_UART.c ****             else
 767:Generated_Source\PSoC4/mUART_UART.c ****             {
 768:Generated_Source\PSoC4/mUART_UART.c ****                 mUART_UART_FLOW_CTRL_REG &= (uint32) ~mUART_UART_FLOW_CTRL_CTS_POLARITY;
ARM GAS  C:\Users\PC\AppData\Local\Temp\ccCKGB6e.s 			page 28


 721              		.loc 1 768 0
 722 0010 1968     		ldr	r1, [r3]
 723 0012 034A     		ldr	r2, .L56+4
 724 0014 0A40     		ands	r2, r1
 725              	.L55:
 726 0016 1A60     		str	r2, [r3]
 769:Generated_Source\PSoC4/mUART_UART.c ****             }
 770:Generated_Source\PSoC4/mUART_UART.c ****         }
 727              		.loc 1 770 0
 728              		@ sp needed
 729 0018 7047     		bx	lr
 730              	.L57:
 731 001a C046     		.align	2
 732              	.L56:
 733 001c 50000840 		.word	1074266192
 734 0020 FFFFFFFE 		.word	-16777217
 735              		.cfi_endproc
 736              	.LFE14:
 737              		.size	mUART_UartSetCtsPolarity, .-mUART_UartSetCtsPolarity
 738              		.section	.text.mUART_UartSendBreakBlocking,"ax",%progbits
 739              		.align	1
 740              		.global	mUART_UartSendBreakBlocking
 741              		.code	16
 742              		.thumb_func
 743              		.type	mUART_UartSendBreakBlocking, %function
 744              	mUART_UartSendBreakBlocking:
 745              	.LFB15:
 771:Generated_Source\PSoC4/mUART_UART.c ****     #endif /* !(mUART_CY_SCBIP_V0 || mUART_CY_SCBIP_V1) */
 772:Generated_Source\PSoC4/mUART_UART.c **** 
 773:Generated_Source\PSoC4/mUART_UART.c **** 
 774:Generated_Source\PSoC4/mUART_UART.c ****     /*******************************************************************************
 775:Generated_Source\PSoC4/mUART_UART.c ****     * Function Name: mUART_UartSendBreakBlocking
 776:Generated_Source\PSoC4/mUART_UART.c ****     ****************************************************************************//**
 777:Generated_Source\PSoC4/mUART_UART.c ****     *
 778:Generated_Source\PSoC4/mUART_UART.c ****     * Sends a break condition (logic low) of specified width on UART TX line.
 779:Generated_Source\PSoC4/mUART_UART.c ****     * Blocks until break is completed. Only call this function when UART TX FIFO
 780:Generated_Source\PSoC4/mUART_UART.c ****     * and shifter are empty.
 781:Generated_Source\PSoC4/mUART_UART.c ****     *
 782:Generated_Source\PSoC4/mUART_UART.c ****     * \param breakWidth
 783:Generated_Source\PSoC4/mUART_UART.c ****     * Width of break condition. Valid range is 4 to 16 bits.
 784:Generated_Source\PSoC4/mUART_UART.c ****     *
 785:Generated_Source\PSoC4/mUART_UART.c ****     * \note
 786:Generated_Source\PSoC4/mUART_UART.c ****     * Before sending break all UART TX interrupt sources are disabled. The state
 787:Generated_Source\PSoC4/mUART_UART.c ****     * of UART TX interrupt sources is restored before function returns.
 788:Generated_Source\PSoC4/mUART_UART.c ****     *
 789:Generated_Source\PSoC4/mUART_UART.c ****     * \sideeffect
 790:Generated_Source\PSoC4/mUART_UART.c ****     * If this function is called while there is data in the TX FIFO or shifter that
 791:Generated_Source\PSoC4/mUART_UART.c ****     * data will be shifted out in packets the size of breakWidth.
 792:Generated_Source\PSoC4/mUART_UART.c ****     *
 793:Generated_Source\PSoC4/mUART_UART.c ****     *******************************************************************************/
 794:Generated_Source\PSoC4/mUART_UART.c ****     void mUART_UartSendBreakBlocking(uint32 breakWidth)
 795:Generated_Source\PSoC4/mUART_UART.c ****     {
 746              		.loc 1 795 0
 747              		.cfi_startproc
 748              		@ args = 0, pretend = 0, frame = 8
 749              		@ frame_needed = 0, uses_anonymous_args = 0
 750              	.LVL46:
ARM GAS  C:\Users\PC\AppData\Local\Temp\ccCKGB6e.s 			page 29


 751 0000 F7B5     		push	{r0, r1, r2, r4, r5, r6, r7, lr}
 752              		.cfi_def_cfa_offset 32
 753              		.cfi_offset 0, -32
 754              		.cfi_offset 1, -28
 755              		.cfi_offset 2, -24
 756              		.cfi_offset 4, -20
 757              		.cfi_offset 5, -16
 758              		.cfi_offset 6, -12
 759              		.cfi_offset 7, -8
 760              		.cfi_offset 14, -4
 796:Generated_Source\PSoC4/mUART_UART.c ****         uint32 txCtrlReg;
 797:Generated_Source\PSoC4/mUART_UART.c ****         uint32 txIntrReg;
 798:Generated_Source\PSoC4/mUART_UART.c **** 
 799:Generated_Source\PSoC4/mUART_UART.c ****         /* Disable all UART TX interrupt source and clear UART TX Done history */
 800:Generated_Source\PSoC4/mUART_UART.c ****         txIntrReg = mUART_GetTxInterruptMode();
 801:Generated_Source\PSoC4/mUART_UART.c ****         mUART_SetTxInterruptMode(0u);
 802:Generated_Source\PSoC4/mUART_UART.c ****         mUART_ClearTxInterruptSource(mUART_INTR_TX_UART_DONE);
 761              		.loc 1 802 0
 762 0002 8024     		movs	r4, #128
 801:Generated_Source\PSoC4/mUART_UART.c ****         mUART_ClearTxInterruptSource(mUART_INTR_TX_UART_DONE);
 763              		.loc 1 801 0
 764 0004 0026     		movs	r6, #0
 803:Generated_Source\PSoC4/mUART_UART.c **** 
 804:Generated_Source\PSoC4/mUART_UART.c ****         /* Store TX CTRL configuration */
 805:Generated_Source\PSoC4/mUART_UART.c ****         txCtrlReg = mUART_TX_CTRL_REG;
 806:Generated_Source\PSoC4/mUART_UART.c **** 
 807:Generated_Source\PSoC4/mUART_UART.c ****         /* Set break width */
 808:Generated_Source\PSoC4/mUART_UART.c ****         mUART_TX_CTRL_REG = (mUART_TX_CTRL_REG & (uint32) ~mUART_TX_CTRL_DATA_WIDTH_MASK) |
 765              		.loc 1 808 0
 766 0006 0F27     		movs	r7, #15
 800:Generated_Source\PSoC4/mUART_UART.c ****         mUART_SetTxInterruptMode(0u);
 767              		.loc 1 800 0
 768 0008 0E4A     		ldr	r2, .L62
 802:Generated_Source\PSoC4/mUART_UART.c **** 
 769              		.loc 1 802 0
 770 000a 0F4D     		ldr	r5, .L62+4
 800:Generated_Source\PSoC4/mUART_UART.c ****         mUART_SetTxInterruptMode(0u);
 771              		.loc 1 800 0
 772 000c 1368     		ldr	r3, [r2]
 802:Generated_Source\PSoC4/mUART_UART.c **** 
 773              		.loc 1 802 0
 774 000e A400     		lsls	r4, r4, #2
 800:Generated_Source\PSoC4/mUART_UART.c ****         mUART_SetTxInterruptMode(0u);
 775              		.loc 1 800 0
 776 0010 0193     		str	r3, [sp, #4]
 777              	.LVL47:
 805:Generated_Source\PSoC4/mUART_UART.c **** 
 778              		.loc 1 805 0
 779 0012 0E4B     		ldr	r3, .L62+8
 780              	.LVL48:
 801:Generated_Source\PSoC4/mUART_UART.c ****         mUART_ClearTxInterruptSource(mUART_INTR_TX_UART_DONE);
 781              		.loc 1 801 0
 782 0014 1660     		str	r6, [r2]
 802:Generated_Source\PSoC4/mUART_UART.c **** 
 783              		.loc 1 802 0
 784 0016 2C60     		str	r4, [r5]
 805:Generated_Source\PSoC4/mUART_UART.c **** 
ARM GAS  C:\Users\PC\AppData\Local\Temp\ccCKGB6e.s 			page 30


 785              		.loc 1 805 0
 786 0018 1968     		ldr	r1, [r3]
 787              		.loc 1 808 0
 788 001a 0138     		subs	r0, r0, #1
 789              	.LVL49:
 805:Generated_Source\PSoC4/mUART_UART.c **** 
 790              		.loc 1 805 0
 791 001c 8C46     		mov	ip, r1
 792              	.LVL50:
 793              		.loc 1 808 0
 794 001e 1968     		ldr	r1, [r3]
 795              	.LVL51:
 796 0020 3840     		ands	r0, r7
 797              	.LVL52:
 798 0022 B943     		bics	r1, r7
 799 0024 0843     		orrs	r0, r1
 809:Generated_Source\PSoC4/mUART_UART.c ****                                         mUART_GET_TX_CTRL_DATA_WIDTH(breakWidth);
 810:Generated_Source\PSoC4/mUART_UART.c **** 
 811:Generated_Source\PSoC4/mUART_UART.c ****         /* Generate break */
 812:Generated_Source\PSoC4/mUART_UART.c ****         mUART_TX_FIFO_WR_REG = 0u;
 800              		.loc 1 812 0
 801 0026 0A49     		ldr	r1, .L62+12
 808:Generated_Source\PSoC4/mUART_UART.c ****                                         mUART_GET_TX_CTRL_DATA_WIDTH(breakWidth);
 802              		.loc 1 808 0
 803 0028 1860     		str	r0, [r3]
 804              		.loc 1 812 0
 805 002a 0E60     		str	r6, [r1]
 806              	.L59:
 813:Generated_Source\PSoC4/mUART_UART.c **** 
 814:Generated_Source\PSoC4/mUART_UART.c ****         /* Wait for break completion */
 815:Generated_Source\PSoC4/mUART_UART.c ****         while (0u == (mUART_GetTxInterruptSource() & mUART_INTR_TX_UART_DONE))
 807              		.loc 1 815 0 discriminator 1
 808 002c 2968     		ldr	r1, [r5]
 809 002e 2142     		tst	r1, r4
 810 0030 FCD0     		beq	.L59
 816:Generated_Source\PSoC4/mUART_UART.c ****         {
 817:Generated_Source\PSoC4/mUART_UART.c ****         }
 818:Generated_Source\PSoC4/mUART_UART.c **** 
 819:Generated_Source\PSoC4/mUART_UART.c ****         /* Clear all UART TX interrupt sources to  */
 820:Generated_Source\PSoC4/mUART_UART.c ****         mUART_ClearTxInterruptSource(mUART_INTR_TX_ALL);
 811              		.loc 1 820 0
 812 0032 0848     		ldr	r0, .L62+16
 813 0034 0449     		ldr	r1, .L62+4
 821:Generated_Source\PSoC4/mUART_UART.c **** 
 822:Generated_Source\PSoC4/mUART_UART.c ****         /* Restore TX interrupt sources and data width */
 823:Generated_Source\PSoC4/mUART_UART.c ****         mUART_TX_CTRL_REG = txCtrlReg;
 824:Generated_Source\PSoC4/mUART_UART.c ****         mUART_SetTxInterruptMode(txIntrReg);
 825:Generated_Source\PSoC4/mUART_UART.c ****     }
 814              		.loc 1 825 0
 815              		@ sp needed
 820:Generated_Source\PSoC4/mUART_UART.c **** 
 816              		.loc 1 820 0
 817 0036 0860     		str	r0, [r1]
 823:Generated_Source\PSoC4/mUART_UART.c ****         mUART_SetTxInterruptMode(txIntrReg);
 818              		.loc 1 823 0
 819 0038 6146     		mov	r1, ip
 820 003a 1960     		str	r1, [r3]
ARM GAS  C:\Users\PC\AppData\Local\Temp\ccCKGB6e.s 			page 31


 824:Generated_Source\PSoC4/mUART_UART.c ****     }
 821              		.loc 1 824 0
 822 003c 019B     		ldr	r3, [sp, #4]
 823 003e 1360     		str	r3, [r2]
 824              		.loc 1 825 0
 825 0040 F7BD     		pop	{r0, r1, r2, r4, r5, r6, r7, pc}
 826              	.L63:
 827 0042 C046     		.align	2
 828              	.L62:
 829 0044 880F0840 		.word	1074270088
 830 0048 800F0840 		.word	1074270080
 831 004c 00020840 		.word	1074266624
 832 0050 40020840 		.word	1074266688
 833 0054 F3070000 		.word	2035
 834              		.cfi_endproc
 835              	.LFE15:
 836              		.size	mUART_UartSendBreakBlocking, .-mUART_UartSendBreakBlocking
 837              		.text
 838              	.Letext0:
 839              		.file 2 "Generated_Source\\PSoC4/cytypes.h"
 840              		.file 3 "Generated_Source\\PSoC4\\mUART_PVT.h"
 841              		.file 4 "Generated_Source\\PSoC4\\mUART_SPI_UART_PVT.h"
 842              		.file 5 "Generated_Source\\PSoC4/CyLib.h"
 843              		.file 6 "Generated_Source\\PSoC4\\mUART_SPI_UART.h"