ARM GAS  C:\Users\PC\AppData\Local\Temp\ccqkgTmA.s 			page 1


   1              		.syntax unified
   2              		.cpu cortex-m0plus
   3              		.fpu softvfp
   4              		.eabi_attribute 20, 1
   5              		.eabi_attribute 21, 1
   6              		.eabi_attribute 23, 3
   7              		.eabi_attribute 24, 1
   8              		.eabi_attribute 25, 1
   9              		.eabi_attribute 26, 1
  10              		.eabi_attribute 30, 4
  11              		.eabi_attribute 34, 0
  12              		.eabi_attribute 18, 4
  13              		.thumb
  14              		.syntax unified
  15              		.file	"mUART_UART_BOOT.c"
  16              		.text
  17              	.Ltext0:
  18              		.cfi_sections	.debug_frame
  19              		.section	.text.mUART_UartCyBtldrCommStart,"ax",%progbits
  20              		.align	1
  21              		.global	mUART_UartCyBtldrCommStart
  22              		.code	16
  23              		.thumb_func
  24              		.type	mUART_UartCyBtldrCommStart, %function
  25              	mUART_UartCyBtldrCommStart:
  26              	.LFB1:
  27              		.file 1 "Generated_Source\\PSoC4\\mUART_UART_BOOT.c"
   1:Generated_Source\PSoC4/mUART_UART_BOOT.c **** /***************************************************************************//**
   2:Generated_Source\PSoC4/mUART_UART_BOOT.c **** * \file mUART_UART_BOOT.c
   3:Generated_Source\PSoC4/mUART_UART_BOOT.c **** * \version 4.0
   4:Generated_Source\PSoC4/mUART_UART_BOOT.c **** *
   5:Generated_Source\PSoC4/mUART_UART_BOOT.c **** * \brief
   6:Generated_Source\PSoC4/mUART_UART_BOOT.c **** *  This file provides the source code of the bootloader communication APIs
   7:Generated_Source\PSoC4/mUART_UART_BOOT.c **** *  for the SCB Component UART mode.
   8:Generated_Source\PSoC4/mUART_UART_BOOT.c **** *
   9:Generated_Source\PSoC4/mUART_UART_BOOT.c **** * Note:
  10:Generated_Source\PSoC4/mUART_UART_BOOT.c **** *
  11:Generated_Source\PSoC4/mUART_UART_BOOT.c **** ********************************************************************************
  12:Generated_Source\PSoC4/mUART_UART_BOOT.c **** * \copyright
  13:Generated_Source\PSoC4/mUART_UART_BOOT.c **** * Copyright 2013-2017, Cypress Semiconductor Corporation.  All rights reserved.
  14:Generated_Source\PSoC4/mUART_UART_BOOT.c **** * You may use this file only in accordance with the license, terms, conditions,
  15:Generated_Source\PSoC4/mUART_UART_BOOT.c **** * disclaimers, and limitations in the end user license agreement accompanying
  16:Generated_Source\PSoC4/mUART_UART_BOOT.c **** * the software package with which this file was provided.
  17:Generated_Source\PSoC4/mUART_UART_BOOT.c **** *******************************************************************************/
  18:Generated_Source\PSoC4/mUART_UART_BOOT.c **** 
  19:Generated_Source\PSoC4/mUART_UART_BOOT.c **** #include "mUART_BOOT.h"
  20:Generated_Source\PSoC4/mUART_UART_BOOT.c **** #include "mUART_SPI_UART.h"
  21:Generated_Source\PSoC4/mUART_UART_BOOT.c **** 
  22:Generated_Source\PSoC4/mUART_UART_BOOT.c **** #if defined(CYDEV_BOOTLOADER_IO_COMP) && (mUART_UART_BTLDR_COMM_ENABLED)
  23:Generated_Source\PSoC4/mUART_UART_BOOT.c **** 
  24:Generated_Source\PSoC4/mUART_UART_BOOT.c **** /*******************************************************************************
  25:Generated_Source\PSoC4/mUART_UART_BOOT.c **** * Function Name: mUART_UartCyBtldrCommStart
  26:Generated_Source\PSoC4/mUART_UART_BOOT.c **** ****************************************************************************//**
  27:Generated_Source\PSoC4/mUART_UART_BOOT.c **** *
  28:Generated_Source\PSoC4/mUART_UART_BOOT.c **** *  Starts the UART component.
  29:Generated_Source\PSoC4/mUART_UART_BOOT.c **** *
  30:Generated_Source\PSoC4/mUART_UART_BOOT.c **** *******************************************************************************/
ARM GAS  C:\Users\PC\AppData\Local\Temp\ccqkgTmA.s 			page 2


  31:Generated_Source\PSoC4/mUART_UART_BOOT.c **** void mUART_UartCyBtldrCommStart(void)
  32:Generated_Source\PSoC4/mUART_UART_BOOT.c **** {
  28              		.loc 1 32 0
  29              		.cfi_startproc
  30              		@ args = 0, pretend = 0, frame = 0
  31              		@ frame_needed = 0, uses_anonymous_args = 0
  32 0000 10B5     		push	{r4, lr}
  33              		.cfi_def_cfa_offset 8
  34              		.cfi_offset 4, -8
  35              		.cfi_offset 14, -4
  33:Generated_Source\PSoC4/mUART_UART_BOOT.c ****     mUART_Start();
  36              		.loc 1 33 0
  37 0002 FFF7FEFF 		bl	mUART_Start
  38              	.LVL0:
  34:Generated_Source\PSoC4/mUART_UART_BOOT.c **** }
  39              		.loc 1 34 0
  40              		@ sp needed
  41 0006 10BD     		pop	{r4, pc}
  42              		.cfi_endproc
  43              	.LFE1:
  44              		.size	mUART_UartCyBtldrCommStart, .-mUART_UartCyBtldrCommStart
  45              		.section	.text.mUART_UartCyBtldrCommStop,"ax",%progbits
  46              		.align	1
  47              		.global	mUART_UartCyBtldrCommStop
  48              		.code	16
  49              		.thumb_func
  50              		.type	mUART_UartCyBtldrCommStop, %function
  51              	mUART_UartCyBtldrCommStop:
  52              	.LFB2:
  35:Generated_Source\PSoC4/mUART_UART_BOOT.c **** 
  36:Generated_Source\PSoC4/mUART_UART_BOOT.c **** 
  37:Generated_Source\PSoC4/mUART_UART_BOOT.c **** /*******************************************************************************
  38:Generated_Source\PSoC4/mUART_UART_BOOT.c **** * Function Name: mUART_UartCyBtldrCommStop
  39:Generated_Source\PSoC4/mUART_UART_BOOT.c **** ****************************************************************************//**
  40:Generated_Source\PSoC4/mUART_UART_BOOT.c **** *
  41:Generated_Source\PSoC4/mUART_UART_BOOT.c **** *  Disables the UART component.
  42:Generated_Source\PSoC4/mUART_UART_BOOT.c **** *
  43:Generated_Source\PSoC4/mUART_UART_BOOT.c **** *******************************************************************************/
  44:Generated_Source\PSoC4/mUART_UART_BOOT.c **** void mUART_UartCyBtldrCommStop(void)
  45:Generated_Source\PSoC4/mUART_UART_BOOT.c **** {
  53              		.loc 1 45 0
  54              		.cfi_startproc
  55              		@ args = 0, pretend = 0, frame = 0
  56              		@ frame_needed = 0, uses_anonymous_args = 0
  57 0000 10B5     		push	{r4, lr}
  58              		.cfi_def_cfa_offset 8
  59              		.cfi_offset 4, -8
  60              		.cfi_offset 14, -4
  46:Generated_Source\PSoC4/mUART_UART_BOOT.c ****     mUART_Stop();
  61              		.loc 1 46 0
  62 0002 FFF7FEFF 		bl	mUART_Stop
  63              	.LVL1:
  47:Generated_Source\PSoC4/mUART_UART_BOOT.c **** }
  64              		.loc 1 47 0
  65              		@ sp needed
  66 0006 10BD     		pop	{r4, pc}
  67              		.cfi_endproc
ARM GAS  C:\Users\PC\AppData\Local\Temp\ccqkgTmA.s 			page 3


  68              	.LFE2:
  69              		.size	mUART_UartCyBtldrCommStop, .-mUART_UartCyBtldrCommStop
  70              		.section	.text.mUART_UartCyBtldrCommReset,"ax",%progbits
  71              		.align	1
  72              		.global	mUART_UartCyBtldrCommReset
  73              		.code	16
  74              		.thumb_func
  75              		.type	mUART_UartCyBtldrCommReset, %function
  76              	mUART_UartCyBtldrCommReset:
  77              	.LFB3:
  48:Generated_Source\PSoC4/mUART_UART_BOOT.c **** 
  49:Generated_Source\PSoC4/mUART_UART_BOOT.c **** 
  50:Generated_Source\PSoC4/mUART_UART_BOOT.c **** /*******************************************************************************
  51:Generated_Source\PSoC4/mUART_UART_BOOT.c **** * Function Name: mUART_UartCyBtldrCommReset
  52:Generated_Source\PSoC4/mUART_UART_BOOT.c **** ****************************************************************************//**
  53:Generated_Source\PSoC4/mUART_UART_BOOT.c **** *
  54:Generated_Source\PSoC4/mUART_UART_BOOT.c **** *  Resets the receive and transmit communication buffers.
  55:Generated_Source\PSoC4/mUART_UART_BOOT.c **** *
  56:Generated_Source\PSoC4/mUART_UART_BOOT.c **** *******************************************************************************/
  57:Generated_Source\PSoC4/mUART_UART_BOOT.c **** void mUART_UartCyBtldrCommReset(void)
  58:Generated_Source\PSoC4/mUART_UART_BOOT.c **** {
  78              		.loc 1 58 0
  79              		.cfi_startproc
  80              		@ args = 0, pretend = 0, frame = 0
  81              		@ frame_needed = 0, uses_anonymous_args = 0
  82 0000 10B5     		push	{r4, lr}
  83              		.cfi_def_cfa_offset 8
  84              		.cfi_offset 4, -8
  85              		.cfi_offset 14, -4
  59:Generated_Source\PSoC4/mUART_UART_BOOT.c ****     /* Clear RX and TX buffers */
  60:Generated_Source\PSoC4/mUART_UART_BOOT.c ****     mUART_SpiUartClearRxBuffer();
  86              		.loc 1 60 0
  87 0002 FFF7FEFF 		bl	mUART_SpiUartClearRxBuffer
  88              	.LVL2:
  61:Generated_Source\PSoC4/mUART_UART_BOOT.c ****     mUART_SpiUartClearTxBuffer();
  62:Generated_Source\PSoC4/mUART_UART_BOOT.c **** }
  89              		.loc 1 62 0
  90              		@ sp needed
  61:Generated_Source\PSoC4/mUART_UART_BOOT.c ****     mUART_SpiUartClearTxBuffer();
  91              		.loc 1 61 0
  92 0006 FFF7FEFF 		bl	mUART_SpiUartClearTxBuffer
  93              	.LVL3:
  94              		.loc 1 62 0
  95 000a 10BD     		pop	{r4, pc}
  96              		.cfi_endproc
  97              	.LFE3:
  98              		.size	mUART_UartCyBtldrCommReset, .-mUART_UartCyBtldrCommReset
  99              		.section	.text.mUART_UartCyBtldrCommRead,"ax",%progbits
 100              		.align	1
 101              		.global	mUART_UartCyBtldrCommRead
 102              		.code	16
 103              		.thumb_func
 104              		.type	mUART_UartCyBtldrCommRead, %function
 105              	mUART_UartCyBtldrCommRead:
 106              	.LFB4:
  63:Generated_Source\PSoC4/mUART_UART_BOOT.c **** 
  64:Generated_Source\PSoC4/mUART_UART_BOOT.c **** 
ARM GAS  C:\Users\PC\AppData\Local\Temp\ccqkgTmA.s 			page 4


  65:Generated_Source\PSoC4/mUART_UART_BOOT.c **** /*******************************************************************************
  66:Generated_Source\PSoC4/mUART_UART_BOOT.c **** * Function Name: mUART_UartCyBtldrCommRead
  67:Generated_Source\PSoC4/mUART_UART_BOOT.c **** ****************************************************************************//**
  68:Generated_Source\PSoC4/mUART_UART_BOOT.c **** *
  69:Generated_Source\PSoC4/mUART_UART_BOOT.c **** *  Allows the caller to read data from the bootloader host (the host writes the
  70:Generated_Source\PSoC4/mUART_UART_BOOT.c **** *  data). The function handles polling to allow a block of data to be completely
  71:Generated_Source\PSoC4/mUART_UART_BOOT.c **** *  received from the host device.
  72:Generated_Source\PSoC4/mUART_UART_BOOT.c **** *
  73:Generated_Source\PSoC4/mUART_UART_BOOT.c **** *  \param pData: Pointer to storage for the block of data to be read from the
  74:Generated_Source\PSoC4/mUART_UART_BOOT.c **** *   bootloader host
  75:Generated_Source\PSoC4/mUART_UART_BOOT.c **** *  \param size: Number of bytes to be read.
  76:Generated_Source\PSoC4/mUART_UART_BOOT.c **** *  \param count: Pointer to the variable to write the number of bytes actually
  77:Generated_Source\PSoC4/mUART_UART_BOOT.c **** *   read.
  78:Generated_Source\PSoC4/mUART_UART_BOOT.c **** *  \param timeOut Number of units in 10 ms to wait before returning
  79:Generated_Source\PSoC4/mUART_UART_BOOT.c **** *   because of a timeout.
  80:Generated_Source\PSoC4/mUART_UART_BOOT.c **** *
  81:Generated_Source\PSoC4/mUART_UART_BOOT.c **** *  \return
  82:Generated_Source\PSoC4/mUART_UART_BOOT.c **** *   Returns CYRET_SUCCESS if no problem was encountered or returns the value
  83:Generated_Source\PSoC4/mUART_UART_BOOT.c **** *   that best describes the problem. For more information refer to the
  84:Generated_Source\PSoC4/mUART_UART_BOOT.c **** *   "Return Codes" section of the System Reference Guide.
  85:Generated_Source\PSoC4/mUART_UART_BOOT.c **** *
  86:Generated_Source\PSoC4/mUART_UART_BOOT.c **** *******************************************************************************/
  87:Generated_Source\PSoC4/mUART_UART_BOOT.c **** cystatus mUART_UartCyBtldrCommRead(uint8 pData[], uint16 size, uint16 * count, uint8 timeOut)
  88:Generated_Source\PSoC4/mUART_UART_BOOT.c **** {
 107              		.loc 1 88 0
 108              		.cfi_startproc
 109              		@ args = 0, pretend = 0, frame = 0
 110              		@ frame_needed = 0, uses_anonymous_args = 0
 111              	.LVL4:
 112 0000 F8B5     		push	{r3, r4, r5, r6, r7, lr}
 113              		.cfi_def_cfa_offset 24
 114              		.cfi_offset 3, -24
 115              		.cfi_offset 4, -20
 116              		.cfi_offset 5, -16
 117              		.cfi_offset 6, -12
 118              		.cfi_offset 7, -8
 119              		.cfi_offset 14, -4
 120              		.loc 1 88 0
 121 0002 0400     		movs	r4, r0
 122 0004 0F00     		movs	r7, r1
 123 0006 1600     		movs	r6, r2
  89:Generated_Source\PSoC4/mUART_UART_BOOT.c ****     cystatus status;
  90:Generated_Source\PSoC4/mUART_UART_BOOT.c ****     uint32 byteCount;
  91:Generated_Source\PSoC4/mUART_UART_BOOT.c ****     uint32 timeoutMs;
  92:Generated_Source\PSoC4/mUART_UART_BOOT.c ****     uint32 i;
  93:Generated_Source\PSoC4/mUART_UART_BOOT.c **** 
  94:Generated_Source\PSoC4/mUART_UART_BOOT.c ****     status = CYRET_BAD_PARAM;
 124              		.loc 1 94 0
 125 0008 0120     		movs	r0, #1
 126              	.LVL5:
  95:Generated_Source\PSoC4/mUART_UART_BOOT.c **** 
  96:Generated_Source\PSoC4/mUART_UART_BOOT.c ****     if ((NULL != pData) && (size > 0u))
 127              		.loc 1 96 0
 128 000a 002C     		cmp	r4, #0
 129 000c 28D0     		beq	.L5
 130              		.loc 1 96 0 is_stmt 0 discriminator 1
 131 000e 0029     		cmp	r1, #0
ARM GAS  C:\Users\PC\AppData\Local\Temp\ccqkgTmA.s 			page 5


 132 0010 26D0     		beq	.L5
 133              	.LVL6:
  97:Generated_Source\PSoC4/mUART_UART_BOOT.c ****     {
  98:Generated_Source\PSoC4/mUART_UART_BOOT.c ****         status = CYRET_TIMEOUT;
  99:Generated_Source\PSoC4/mUART_UART_BOOT.c ****         timeoutMs = ((uint32) 10u * timeOut); /* Convert from 10mS check to 1mS checks */
 134              		.loc 1 99 0 is_stmt 1
 135 0012 0A25     		movs	r5, #10
 136 0014 5D43     		muls	r5, r3
 137              	.LVL7:
 138              	.L10:
 100:Generated_Source\PSoC4/mUART_UART_BOOT.c **** 
 101:Generated_Source\PSoC4/mUART_UART_BOOT.c ****         /* Wait with timeout 1mS for packet end */
 102:Generated_Source\PSoC4/mUART_UART_BOOT.c ****         byteCount = 0u;
 103:Generated_Source\PSoC4/mUART_UART_BOOT.c ****         do
 104:Generated_Source\PSoC4/mUART_UART_BOOT.c ****         {
 105:Generated_Source\PSoC4/mUART_UART_BOOT.c ****             /* Check packet start */
 106:Generated_Source\PSoC4/mUART_UART_BOOT.c ****             if (0u != mUART_SpiUartGetRxBufferSize())
 139              		.loc 1 106 0
 140 0016 FFF7FEFF 		bl	mUART_SpiUartGetRxBufferSize
 141              	.LVL8:
 142 001a 0028     		cmp	r0, #0
 143 001c 10D0     		beq	.L6
 144              	.LVL9:
 145              	.L14:
 107:Generated_Source\PSoC4/mUART_UART_BOOT.c ****             {
 108:Generated_Source\PSoC4/mUART_UART_BOOT.c ****                 /* Wait for end of packet */
 109:Generated_Source\PSoC4/mUART_UART_BOOT.c ****                 do
 110:Generated_Source\PSoC4/mUART_UART_BOOT.c ****                 {
 111:Generated_Source\PSoC4/mUART_UART_BOOT.c ****                     byteCount = mUART_SpiUartGetRxBufferSize();
 146              		.loc 1 111 0 discriminator 1
 147 001e FFF7FEFF 		bl	mUART_SpiUartGetRxBufferSize
 148              	.LVL10:
 149 0022 0500     		movs	r5, r0
 150              	.LVL11:
 112:Generated_Source\PSoC4/mUART_UART_BOOT.c ****                     CyDelayUs(mUART_UART_BYTE_TO_BYTE);
 151              		.loc 1 112 0 discriminator 1
 152 0024 AB20     		movs	r0, #171
 153              	.LVL12:
 154 0026 FFF7FEFF 		bl	CyDelayUs
 155              	.LVL13:
 113:Generated_Source\PSoC4/mUART_UART_BOOT.c ****                 }
 114:Generated_Source\PSoC4/mUART_UART_BOOT.c ****                 while (byteCount != mUART_SpiUartGetRxBufferSize());
 156              		.loc 1 114 0 discriminator 1
 157 002a FFF7FEFF 		bl	mUART_SpiUartGetRxBufferSize
 158              	.LVL14:
 159 002e 8542     		cmp	r5, r0
 160 0030 F5D1     		bne	.L14
 115:Generated_Source\PSoC4/mUART_UART_BOOT.c **** 
 116:Generated_Source\PSoC4/mUART_UART_BOOT.c ****                 byteCount = mUART_BYTES_TO_COPY(byteCount, size);
 161              		.loc 1 116 0
 162 0032 3900     		movs	r1, r7
 163 0034 AF42     		cmp	r7, r5
 164 0036 00D9     		bls	.L8
 165 0038 2900     		movs	r1, r5
 166              	.L8:
 167              	.LVL15:
 117:Generated_Source\PSoC4/mUART_UART_BOOT.c ****                 *count = (uint16) byteCount;
ARM GAS  C:\Users\PC\AppData\Local\Temp\ccqkgTmA.s 			page 6


 168              		.loc 1 117 0
 169 003a 3180     		strh	r1, [r6]
 170              	.LVL16:
 171 003c 6518     		adds	r5, r4, r1
 118:Generated_Source\PSoC4/mUART_UART_BOOT.c ****                 status = CYRET_SUCCESS;
 119:Generated_Source\PSoC4/mUART_UART_BOOT.c **** 
 120:Generated_Source\PSoC4/mUART_UART_BOOT.c ****                 break;
 121:Generated_Source\PSoC4/mUART_UART_BOOT.c ****             }
 122:Generated_Source\PSoC4/mUART_UART_BOOT.c **** 
 123:Generated_Source\PSoC4/mUART_UART_BOOT.c ****             CyDelay(mUART_WAIT_1_MS);
 124:Generated_Source\PSoC4/mUART_UART_BOOT.c ****             --timeoutMs;
 125:Generated_Source\PSoC4/mUART_UART_BOOT.c ****         }
 126:Generated_Source\PSoC4/mUART_UART_BOOT.c ****         while (0u != timeoutMs);
 127:Generated_Source\PSoC4/mUART_UART_BOOT.c **** 
 128:Generated_Source\PSoC4/mUART_UART_BOOT.c ****         /* Get data from RX buffer into bootloader buffer */
 129:Generated_Source\PSoC4/mUART_UART_BOOT.c ****         for (i = 0u; i < byteCount; ++i)
 172              		.loc 1 129 0
 173 003e 07E0     		b	.L9
 174              	.LVL17:
 175              	.L6:
 123:Generated_Source\PSoC4/mUART_UART_BOOT.c ****             --timeoutMs;
 176              		.loc 1 123 0
 177 0040 0120     		movs	r0, #1
 124:Generated_Source\PSoC4/mUART_UART_BOOT.c ****         }
 178              		.loc 1 124 0
 179 0042 013D     		subs	r5, r5, #1
 180              	.LVL18:
 123:Generated_Source\PSoC4/mUART_UART_BOOT.c ****             --timeoutMs;
 181              		.loc 1 123 0
 182 0044 FFF7FEFF 		bl	CyDelay
 183              	.LVL19:
 126:Generated_Source\PSoC4/mUART_UART_BOOT.c **** 
 184              		.loc 1 126 0
 185 0048 002D     		cmp	r5, #0
 186 004a E4D1     		bne	.L10
  98:Generated_Source\PSoC4/mUART_UART_BOOT.c ****         timeoutMs = ((uint32) 10u * timeOut); /* Convert from 10mS check to 1mS checks */
 187              		.loc 1 98 0
 188 004c 1020     		movs	r0, #16
 189 004e 07E0     		b	.L5
 190              	.LVL20:
 191              	.L9:
 192              		.loc 1 129 0 discriminator 1
 193 0050 AC42     		cmp	r4, r5
 194 0052 04D0     		beq	.L19
 130:Generated_Source\PSoC4/mUART_UART_BOOT.c ****         {
 131:Generated_Source\PSoC4/mUART_UART_BOOT.c ****             pData[i] = (uint8) mUART_SpiUartReadRxData();
 195              		.loc 1 131 0 discriminator 3
 196 0054 FFF7FEFF 		bl	mUART_SpiUartReadRxData
 197              	.LVL21:
 198 0058 2070     		strb	r0, [r4]
 199              	.LVL22:
 200 005a 0134     		adds	r4, r4, #1
 201              	.LVL23:
 202 005c F8E7     		b	.L9
 203              	.L19:
 118:Generated_Source\PSoC4/mUART_UART_BOOT.c **** 
 204              		.loc 1 118 0
ARM GAS  C:\Users\PC\AppData\Local\Temp\ccqkgTmA.s 			page 7


 205 005e 0020     		movs	r0, #0
 206              	.LVL24:
 207              	.L5:
 132:Generated_Source\PSoC4/mUART_UART_BOOT.c ****         }
 133:Generated_Source\PSoC4/mUART_UART_BOOT.c ****     }
 134:Generated_Source\PSoC4/mUART_UART_BOOT.c **** 
 135:Generated_Source\PSoC4/mUART_UART_BOOT.c ****     return (status);
 136:Generated_Source\PSoC4/mUART_UART_BOOT.c **** }
 208              		.loc 1 136 0
 209              		@ sp needed
 210              	.LVL25:
 211 0060 F8BD     		pop	{r3, r4, r5, r6, r7, pc}
 212              		.cfi_endproc
 213              	.LFE4:
 214              		.size	mUART_UartCyBtldrCommRead, .-mUART_UartCyBtldrCommRead
 215              		.section	.text.mUART_UartCyBtldrCommWrite,"ax",%progbits
 216              		.align	1
 217              		.global	mUART_UartCyBtldrCommWrite
 218              		.code	16
 219              		.thumb_func
 220              		.type	mUART_UartCyBtldrCommWrite, %function
 221              	mUART_UartCyBtldrCommWrite:
 222              	.LFB5:
 137:Generated_Source\PSoC4/mUART_UART_BOOT.c **** 
 138:Generated_Source\PSoC4/mUART_UART_BOOT.c **** 
 139:Generated_Source\PSoC4/mUART_UART_BOOT.c **** /*******************************************************************************
 140:Generated_Source\PSoC4/mUART_UART_BOOT.c **** * Function Name: mUART_UartCyBtldrCommWrite
 141:Generated_Source\PSoC4/mUART_UART_BOOT.c **** ****************************************************************************//**
 142:Generated_Source\PSoC4/mUART_UART_BOOT.c **** *
 143:Generated_Source\PSoC4/mUART_UART_BOOT.c **** *  Allows the caller to write data to the bootloader host (the host reads the
 144:Generated_Source\PSoC4/mUART_UART_BOOT.c **** *  data). The function does not use timeout and returns after data has been
 145:Generated_Source\PSoC4/mUART_UART_BOOT.c **** *  copied into the transmit buffer. The data transmission starts immediately
 146:Generated_Source\PSoC4/mUART_UART_BOOT.c **** *  after the first data element is written into the buffer and lasts until all
 147:Generated_Source\PSoC4/mUART_UART_BOOT.c **** *  data elements from the buffer are sent.
 148:Generated_Source\PSoC4/mUART_UART_BOOT.c **** *
 149:Generated_Source\PSoC4/mUART_UART_BOOT.c **** *  \param pData: Pointer to the block of data to be written to the bootloader
 150:Generated_Source\PSoC4/mUART_UART_BOOT.c **** *   host.
 151:Generated_Source\PSoC4/mUART_UART_BOOT.c **** *  \param size: Number of bytes to be written.
 152:Generated_Source\PSoC4/mUART_UART_BOOT.c **** *  \param count: Pointer to the variable to write the number of bytes actually
 153:Generated_Source\PSoC4/mUART_UART_BOOT.c **** *   written.
 154:Generated_Source\PSoC4/mUART_UART_BOOT.c **** *  \param timeOut: The timeout is not used by this function.
 155:Generated_Source\PSoC4/mUART_UART_BOOT.c **** *   The function returns as soon as data is copied into the transmit buffer.
 156:Generated_Source\PSoC4/mUART_UART_BOOT.c **** *
 157:Generated_Source\PSoC4/mUART_UART_BOOT.c **** *  \return
 158:Generated_Source\PSoC4/mUART_UART_BOOT.c **** *   Returns CYRET_SUCCESS if no problem was encountered or returns the value
 159:Generated_Source\PSoC4/mUART_UART_BOOT.c **** *   that best describes the problem. For more information refer to the
 160:Generated_Source\PSoC4/mUART_UART_BOOT.c **** *   "Return Codes" section of the System Reference Guide.
 161:Generated_Source\PSoC4/mUART_UART_BOOT.c **** *
 162:Generated_Source\PSoC4/mUART_UART_BOOT.c **** *******************************************************************************/
 163:Generated_Source\PSoC4/mUART_UART_BOOT.c **** cystatus mUART_UartCyBtldrCommWrite(const uint8 pData[], uint16 size, uint16 * count, uint8 timeOut
 164:Generated_Source\PSoC4/mUART_UART_BOOT.c **** {
 223              		.loc 1 164 0
 224              		.cfi_startproc
 225              		@ args = 0, pretend = 0, frame = 0
 226              		@ frame_needed = 0, uses_anonymous_args = 0
 227              	.LVL26:
 228 0000 70B5     		push	{r4, r5, r6, lr}
ARM GAS  C:\Users\PC\AppData\Local\Temp\ccqkgTmA.s 			page 8


 229              		.cfi_def_cfa_offset 16
 230              		.cfi_offset 4, -16
 231              		.cfi_offset 5, -12
 232              		.cfi_offset 6, -8
 233              		.cfi_offset 14, -4
 165:Generated_Source\PSoC4/mUART_UART_BOOT.c ****     cystatus status;
 166:Generated_Source\PSoC4/mUART_UART_BOOT.c **** 
 167:Generated_Source\PSoC4/mUART_UART_BOOT.c ****     status = CYRET_BAD_PARAM;
 234              		.loc 1 167 0
 235 0002 0123     		movs	r3, #1
 236              	.LVL27:
 164:Generated_Source\PSoC4/mUART_UART_BOOT.c ****     cystatus status;
 237              		.loc 1 164 0
 238 0004 0C00     		movs	r4, r1
 239 0006 1500     		movs	r5, r2
 168:Generated_Source\PSoC4/mUART_UART_BOOT.c **** 
 169:Generated_Source\PSoC4/mUART_UART_BOOT.c ****     if ((NULL != pData) && (size > 0u))
 240              		.loc 1 169 0
 241 0008 0028     		cmp	r0, #0
 242 000a 05D0     		beq	.L21
 243              		.loc 1 169 0 is_stmt 0 discriminator 1
 244 000c 0029     		cmp	r1, #0
 245 000e 03D0     		beq	.L21
 170:Generated_Source\PSoC4/mUART_UART_BOOT.c ****     {
 171:Generated_Source\PSoC4/mUART_UART_BOOT.c ****         /* Transmit data. This function does not wait until data is sent. */
 172:Generated_Source\PSoC4/mUART_UART_BOOT.c ****         mUART_SpiUartPutArray(pData, (uint32) size);
 246              		.loc 1 172 0 is_stmt 1
 247 0010 FFF7FEFF 		bl	mUART_SpiUartPutArray
 248              	.LVL28:
 173:Generated_Source\PSoC4/mUART_UART_BOOT.c **** 
 174:Generated_Source\PSoC4/mUART_UART_BOOT.c ****         *count = size;
 175:Generated_Source\PSoC4/mUART_UART_BOOT.c ****         status = CYRET_SUCCESS;
 249              		.loc 1 175 0
 250 0014 0023     		movs	r3, #0
 174:Generated_Source\PSoC4/mUART_UART_BOOT.c ****         status = CYRET_SUCCESS;
 251              		.loc 1 174 0
 252 0016 2C80     		strh	r4, [r5]
 253              	.LVL29:
 254              	.L21:
 176:Generated_Source\PSoC4/mUART_UART_BOOT.c **** 
 177:Generated_Source\PSoC4/mUART_UART_BOOT.c ****         if (0u != timeOut)
 178:Generated_Source\PSoC4/mUART_UART_BOOT.c ****         {
 179:Generated_Source\PSoC4/mUART_UART_BOOT.c ****             /* Suppress compiler warning */
 180:Generated_Source\PSoC4/mUART_UART_BOOT.c ****         }
 181:Generated_Source\PSoC4/mUART_UART_BOOT.c ****     }
 182:Generated_Source\PSoC4/mUART_UART_BOOT.c **** 
 183:Generated_Source\PSoC4/mUART_UART_BOOT.c ****     return (status);
 184:Generated_Source\PSoC4/mUART_UART_BOOT.c **** }
 255              		.loc 1 184 0
 256 0018 1800     		movs	r0, r3
 257              		@ sp needed
 258              	.LVL30:
 259 001a 70BD     		pop	{r4, r5, r6, pc}
 260              		.cfi_endproc
 261              	.LFE5:
 262              		.size	mUART_UartCyBtldrCommWrite, .-mUART_UartCyBtldrCommWrite
 263              		.text
ARM GAS  C:\Users\PC\AppData\Local\Temp\ccqkgTmA.s 			page 9


 264              	.Letext0:
 265              		.file 2 "Generated_Source\\PSoC4/cytypes.h"
 266              		.file 3 "Generated_Source\\PSoC4\\mUART.h"
 267              		.file 4 "Generated_Source\\PSoC4\\mUART_SPI_UART.h"
 268              		.file 5 "Generated_Source\\PSoC4/CyLib.h"