ARM GAS  C:\Users\PC\AppData\Local\Temp\ccTGidwY.s 			page 1


   1              		.syntax unified
   2              		.cpu cortex-m0plus
   3              		.fpu softvfp
   4              		.eabi_attribute 20, 1
   5              		.eabi_attribute 21, 1
   6              		.eabi_attribute 23, 3
   7              		.eabi_attribute 24, 1
   8              		.eabi_attribute 25, 1
   9              		.eabi_attribute 26, 1
  10              		.eabi_attribute 30, 4
  11              		.eabi_attribute 34, 0
  12              		.eabi_attribute 18, 4
  13              		.thumb
  14              		.syntax unified
  15              		.file	"main.c"
  16              		.text
  17              	.Ltext0:
  18              		.cfi_sections	.debug_frame
  19              		.section	.text.println,"ax",%progbits
  20              		.align	1
  21              		.global	println
  22              		.code	16
  23              		.thumb_func
  24              		.type	println, %function
  25              	println:
  26              	.LFB34:
  27              		.file 1 "main.c"
   1:main.c        **** /* ========================================
   2:main.c        ****  *
   3:main.c        ****  * Copyright YOUR COMPANY, THE YEAR
   4:main.c        ****  * All Rights Reserved
   5:main.c        ****  * UNPUBLISHED, LICENSED SOFTWARE.
   6:main.c        ****  *
   7:main.c        ****  * CONFIDENTIAL AND PROPRIETARY INFORMATION
   8:main.c        ****  * WHICH IS THE PROPERTY OF your company.
   9:main.c        ****  *
  10:main.c        ****  * ========================================
  11:main.c        **** */
  12:main.c        **** #include <stdio.h>
  13:main.c        **** #include "project.h"
  14:main.c        **** typedef char *String;
  15:main.c        **** 
  16:main.c        **** void println(String str){
  28              		.loc 1 16 0
  29              		.cfi_startproc
  30              		@ args = 0, pretend = 0, frame = 0
  31              		@ frame_needed = 0, uses_anonymous_args = 0
  32              	.LVL0:
  33 0000 10B5     		push	{r4, lr}
  34              		.cfi_def_cfa_offset 8
  35              		.cfi_offset 4, -8
  36              		.cfi_offset 14, -4
  17:main.c        ****     mUART_UartPutString(str);
  37              		.loc 1 17 0
  38 0002 FFF7FEFF 		bl	mUART_UartPutString
  39              	.LVL1:
  18:main.c        ****     mUART_UartPutString("\n");
ARM GAS  C:\Users\PC\AppData\Local\Temp\ccTGidwY.s 			page 2


  40              		.loc 1 18 0
  41 0006 0248     		ldr	r0, .L2
  42 0008 FFF7FEFF 		bl	mUART_UartPutString
  43              	.LVL2:
  19:main.c        **** }
  44              		.loc 1 19 0
  45              		@ sp needed
  46 000c 10BD     		pop	{r4, pc}
  47              	.L3:
  48 000e C046     		.align	2
  49              	.L2:
  50 0010 00000000 		.word	.LC0
  51              		.cfi_endproc
  52              	.LFE34:
  53              		.size	println, .-println
  54              		.section	.text.publicSetUp,"ax",%progbits
  55              		.align	1
  56              		.global	publicSetUp
  57              		.code	16
  58              		.thumb_func
  59              		.type	publicSetUp, %function
  60              	publicSetUp:
  61              	.LFB39:
  62              		.cfi_startproc
  63              		@ args = 0, pretend = 0, frame = 0
  64              		@ frame_needed = 0, uses_anonymous_args = 0
  65              		@ link register save eliminated.
  66 0000 024B     		ldr	r3, .L5
  67              		@ sp needed
  68 0002 0360     		str	r3, [r0]
  69 0004 024B     		ldr	r3, .L5+4
  70 0006 4360     		str	r3, [r0, #4]
  71 0008 7047     		bx	lr
  72              	.L6:
  73 000a C046     		.align	2
  74              	.L5:
  75 000c 00000000 		.word	println
  76 0010 00000000 		.word	pLed_Write
  77              		.cfi_endproc
  78              	.LFE39:
  79              		.size	publicSetUp, .-publicSetUp
  80              		.section	.text.privateSetUp,"ax",%progbits
  81              		.align	1
  82              		.global	privateSetUp
  83              		.code	16
  84              		.thumb_func
  85              		.type	privateSetUp, %function
  86              	privateSetUp:
  87              	.LFB36:
  20:main.c        **** 
  21:main.c        **** typedef struct _System{
  22:main.c        ****     struct _IN{   
  23:main.c        ****     
  24:main.c        ****     }in;
  25:main.c        ****     struct _OUT{
  26:main.c        ****         void (*println)(String);
  27:main.c        ****         void (*pLed_Writr)(int);
ARM GAS  C:\Users\PC\AppData\Local\Temp\ccTGidwY.s 			page 3


  28:main.c        ****     }out;
  29:main.c        **** }system;
  30:main.c        **** 
  31:main.c        **** void publicSetUp(system *System){
  32:main.c        ****     System->out.println = println;
  33:main.c        ****     System->out.pLed_Writr = pLed_Write;
  34:main.c        **** }
  35:main.c        **** 
  36:main.c        **** void privateSetUp(system *System){
  88              		.loc 1 36 0
  89              		.cfi_startproc
  90              		@ args = 0, pretend = 0, frame = 0
  91              		@ frame_needed = 0, uses_anonymous_args = 0
  92              		@ link register save eliminated.
  93              	.LVL3:
  94              	.LBB6:
  95              	.LBB7:
  32:main.c        ****     System->out.pLed_Writr = pLed_Write;
  96              		.loc 1 32 0
  97 0000 024B     		ldr	r3, .L8
  98              	.LBE7:
  99              	.LBE6:
  37:main.c        ****     publicSetUp(System);
  38:main.c        **** }
 100              		.loc 1 38 0
 101              		@ sp needed
 102              	.LBB9:
 103              	.LBB8:
  32:main.c        ****     System->out.pLed_Writr = pLed_Write;
 104              		.loc 1 32 0
 105 0002 0360     		str	r3, [r0]
  33:main.c        **** }
 106              		.loc 1 33 0
 107 0004 024B     		ldr	r3, .L8+4
 108 0006 4360     		str	r3, [r0, #4]
 109              	.LVL4:
 110              	.LBE8:
 111              	.LBE9:
 112              		.loc 1 38 0
 113 0008 7047     		bx	lr
 114              	.L9:
 115 000a C046     		.align	2
 116              	.L8:
 117 000c 00000000 		.word	println
 118 0010 00000000 		.word	pLed_Write
 119              		.cfi_endproc
 120              	.LFE36:
 121              		.size	privateSetUp, .-privateSetUp
 122              		.section	.text.startup.main,"ax",%progbits
 123              		.align	1
 124              		.global	main
 125              		.code	16
 126              		.thumb_func
 127              		.type	main, %function
 128              	main:
 129              	.LFB37:
  39:main.c        **** 
ARM GAS  C:\Users\PC\AppData\Local\Temp\ccTGidwY.s 			page 4


  40:main.c        **** int main(void) {
 130              		.loc 1 40 0
 131              		.cfi_startproc
 132              		@ args = 0, pretend = 0, frame = 0
 133              		@ frame_needed = 0, uses_anonymous_args = 0
 134 0000 10B5     		push	{r4, lr}
 135              		.cfi_def_cfa_offset 8
 136              		.cfi_offset 4, -8
 137              		.cfi_offset 14, -4
  41:main.c        ****     system System;
  42:main.c        ****     CyGlobalIntEnable; /* Enable global interrupts. */
 138              		.loc 1 42 0
 139              		.syntax divided
 140              	@ 42 "main.c" 1
 141 0002 62B6     		CPSIE   i
 142              	@ 0 "" 2
 143              	.LVL5:
  43:main.c        **** 
  44:main.c        ****     /* Place your initialization/startup code here (e.g. MyInst_Start()) */
  45:main.c        ****     publicSetUp(&System);
  46:main.c        ****     mUART_Start();
 144              		.loc 1 46 0
 145              		.thumb
 146              		.syntax unified
 147 0004 FFF7FEFF 		bl	mUART_Start
 148              	.LVL6:
 149              	.L11:
  47:main.c        ****     for(;;) {
  48:main.c        ****         /* Place your application code here. */
  49:main.c        ****         System.out.pLed_Writr(1);
 150              		.loc 1 49 0 discriminator 1
 151 0008 0120     		movs	r0, #1
 152 000a FFF7FEFF 		bl	pLed_Write
 153              	.LVL7:
  50:main.c        ****         CyDelay(500);
 154              		.loc 1 50 0 discriminator 1
 155 000e FA20     		movs	r0, #250
 156 0010 4000     		lsls	r0, r0, #1
 157 0012 FFF7FEFF 		bl	CyDelay
 158              	.LVL8:
  51:main.c        ****         System.out.pLed_Writr(0);
 159              		.loc 1 51 0 discriminator 1
 160 0016 0020     		movs	r0, #0
 161 0018 FFF7FEFF 		bl	pLed_Write
 162              	.LVL9:
  52:main.c        ****         CyDelay(500);
 163              		.loc 1 52 0 discriminator 1
 164 001c FA20     		movs	r0, #250
 165 001e 4000     		lsls	r0, r0, #1
 166 0020 FFF7FEFF 		bl	CyDelay
 167              	.LVL10:
 168 0024 F0E7     		b	.L11
 169              		.cfi_endproc
 170              	.LFE37:
 171              		.size	main, .-main
 172              		.section	.rodata.str1.1,"aMS",%progbits,1
 173              	.LC0:
ARM GAS  C:\Users\PC\AppData\Local\Temp\ccTGidwY.s 			page 5


 174 0000 0A00     		.ascii	"\012\000"
 175              		.text
 176              	.Letext0:
 177              		.file 2 "Generated_Source\\PSoC4/mUART_SPI_UART.h"
 178              		.file 3 "Generated_Source\\PSoC4/mUART.h"
 179              		.file 4 "Generated_Source\\PSoC4/pLed.h"
 180              		.file 5 "Generated_Source\\PSoC4/CyLib.h"