ARM GAS  C:\Users\PC\AppData\Local\Temp\ccHVpSuh.s 			page 1


   1              		.syntax unified
   2              		.cpu cortex-m0plus
   3              		.fpu softvfp
   4              		.eabi_attribute 20, 1
   5              		.eabi_attribute 21, 1
   6              		.eabi_attribute 23, 3
   7              		.eabi_attribute 24, 1
   8              		.eabi_attribute 25, 1
   9              		.eabi_attribute 26, 1
  10              		.eabi_attribute 30, 4
  11              		.eabi_attribute 34, 0
  12              		.eabi_attribute 18, 4
  13              		.thumb
  14              		.syntax unified
  15              		.file	"mSPI_SPI.c"
  16              		.text
  17              	.Ltext0:
  18              		.cfi_sections	.debug_frame
  19              		.section	.text.mSPI_SpiPostEnable,"ax",%progbits
  20              		.align	1
  21              		.global	mSPI_SpiPostEnable
  22              		.code	16
  23              		.thumb_func
  24              		.type	mSPI_SpiPostEnable, %function
  25              	mSPI_SpiPostEnable:
  26              	.LFB2:
  27              		.file 1 "Generated_Source\\PSoC4\\mSPI_SPI.c"
   1:Generated_Source\PSoC4/mSPI_SPI.c **** /***************************************************************************//**
   2:Generated_Source\PSoC4/mSPI_SPI.c **** * \file mSPI_SPI.c
   3:Generated_Source\PSoC4/mSPI_SPI.c **** * \version 4.0
   4:Generated_Source\PSoC4/mSPI_SPI.c **** *
   5:Generated_Source\PSoC4/mSPI_SPI.c **** * \brief
   6:Generated_Source\PSoC4/mSPI_SPI.c **** *  This file provides the source code to the API for the SCB Component in
   7:Generated_Source\PSoC4/mSPI_SPI.c **** *  SPI mode.
   8:Generated_Source\PSoC4/mSPI_SPI.c **** *
   9:Generated_Source\PSoC4/mSPI_SPI.c **** * Note:
  10:Generated_Source\PSoC4/mSPI_SPI.c **** *
  11:Generated_Source\PSoC4/mSPI_SPI.c **** *******************************************************************************
  12:Generated_Source\PSoC4/mSPI_SPI.c **** * \copyright
  13:Generated_Source\PSoC4/mSPI_SPI.c **** * Copyright 2013-2017, Cypress Semiconductor Corporation.  All rights reserved.
  14:Generated_Source\PSoC4/mSPI_SPI.c **** * You may use this file only in accordance with the license, terms, conditions,
  15:Generated_Source\PSoC4/mSPI_SPI.c **** * disclaimers, and limitations in the end user license agreement accompanying
  16:Generated_Source\PSoC4/mSPI_SPI.c **** * the software package with which this file was provided.
  17:Generated_Source\PSoC4/mSPI_SPI.c **** *******************************************************************************/
  18:Generated_Source\PSoC4/mSPI_SPI.c **** 
  19:Generated_Source\PSoC4/mSPI_SPI.c **** #include "mSPI_PVT.h"
  20:Generated_Source\PSoC4/mSPI_SPI.c **** #include "mSPI_SPI_UART_PVT.h"
  21:Generated_Source\PSoC4/mSPI_SPI.c **** 
  22:Generated_Source\PSoC4/mSPI_SPI.c **** #if(mSPI_SCB_MODE_UNCONFIG_CONST_CFG)
  23:Generated_Source\PSoC4/mSPI_SPI.c **** 
  24:Generated_Source\PSoC4/mSPI_SPI.c ****     /***************************************
  25:Generated_Source\PSoC4/mSPI_SPI.c ****     *  Configuration Structure Initialization
  26:Generated_Source\PSoC4/mSPI_SPI.c ****     ***************************************/
  27:Generated_Source\PSoC4/mSPI_SPI.c **** 
  28:Generated_Source\PSoC4/mSPI_SPI.c ****     const mSPI_SPI_INIT_STRUCT mSPI_configSpi =
  29:Generated_Source\PSoC4/mSPI_SPI.c ****     {
  30:Generated_Source\PSoC4/mSPI_SPI.c ****         mSPI_SPI_MODE,
ARM GAS  C:\Users\PC\AppData\Local\Temp\ccHVpSuh.s 			page 2


  31:Generated_Source\PSoC4/mSPI_SPI.c ****         mSPI_SPI_SUB_MODE,
  32:Generated_Source\PSoC4/mSPI_SPI.c ****         mSPI_SPI_CLOCK_MODE,
  33:Generated_Source\PSoC4/mSPI_SPI.c ****         mSPI_SPI_OVS_FACTOR,
  34:Generated_Source\PSoC4/mSPI_SPI.c ****         mSPI_SPI_MEDIAN_FILTER_ENABLE,
  35:Generated_Source\PSoC4/mSPI_SPI.c ****         mSPI_SPI_LATE_MISO_SAMPLE_ENABLE,
  36:Generated_Source\PSoC4/mSPI_SPI.c ****         mSPI_SPI_WAKE_ENABLE,
  37:Generated_Source\PSoC4/mSPI_SPI.c ****         mSPI_SPI_RX_DATA_BITS_NUM,
  38:Generated_Source\PSoC4/mSPI_SPI.c ****         mSPI_SPI_TX_DATA_BITS_NUM,
  39:Generated_Source\PSoC4/mSPI_SPI.c ****         mSPI_SPI_BITS_ORDER,
  40:Generated_Source\PSoC4/mSPI_SPI.c ****         mSPI_SPI_TRANSFER_SEPARATION,
  41:Generated_Source\PSoC4/mSPI_SPI.c ****         0u,
  42:Generated_Source\PSoC4/mSPI_SPI.c ****         NULL,
  43:Generated_Source\PSoC4/mSPI_SPI.c ****         0u,
  44:Generated_Source\PSoC4/mSPI_SPI.c ****         NULL,
  45:Generated_Source\PSoC4/mSPI_SPI.c ****         (uint32) mSPI_SCB_IRQ_INTERNAL,
  46:Generated_Source\PSoC4/mSPI_SPI.c ****         mSPI_SPI_INTR_RX_MASK,
  47:Generated_Source\PSoC4/mSPI_SPI.c ****         mSPI_SPI_RX_TRIGGER_LEVEL,
  48:Generated_Source\PSoC4/mSPI_SPI.c ****         mSPI_SPI_INTR_TX_MASK,
  49:Generated_Source\PSoC4/mSPI_SPI.c ****         mSPI_SPI_TX_TRIGGER_LEVEL,
  50:Generated_Source\PSoC4/mSPI_SPI.c ****         (uint8) mSPI_SPI_BYTE_MODE_ENABLE,
  51:Generated_Source\PSoC4/mSPI_SPI.c ****         (uint8) mSPI_SPI_FREE_RUN_SCLK_ENABLE,
  52:Generated_Source\PSoC4/mSPI_SPI.c ****         (uint8) mSPI_SPI_SS_POLARITY
  53:Generated_Source\PSoC4/mSPI_SPI.c ****     };
  54:Generated_Source\PSoC4/mSPI_SPI.c **** 
  55:Generated_Source\PSoC4/mSPI_SPI.c **** 
  56:Generated_Source\PSoC4/mSPI_SPI.c ****     /*******************************************************************************
  57:Generated_Source\PSoC4/mSPI_SPI.c ****     * Function Name: mSPI_SpiInit
  58:Generated_Source\PSoC4/mSPI_SPI.c ****     ****************************************************************************//**
  59:Generated_Source\PSoC4/mSPI_SPI.c ****     *
  60:Generated_Source\PSoC4/mSPI_SPI.c ****     *  Configures the mSPI for SPI operation.
  61:Generated_Source\PSoC4/mSPI_SPI.c ****     *
  62:Generated_Source\PSoC4/mSPI_SPI.c ****     *  This function is intended specifically to be used when the mSPI 
  63:Generated_Source\PSoC4/mSPI_SPI.c ****     *  configuration is set to “Unconfigured mSPI” in the customizer. 
  64:Generated_Source\PSoC4/mSPI_SPI.c ****     *  After initializing the mSPI in SPI mode using this function, 
  65:Generated_Source\PSoC4/mSPI_SPI.c ****     *  the component can be enabled using the mSPI_Start() or 
  66:Generated_Source\PSoC4/mSPI_SPI.c ****     * mSPI_Enable() function.
  67:Generated_Source\PSoC4/mSPI_SPI.c ****     *  This function uses a pointer to a structure that provides the configuration 
  68:Generated_Source\PSoC4/mSPI_SPI.c ****     *  settings. This structure contains the same information that would otherwise 
  69:Generated_Source\PSoC4/mSPI_SPI.c ****     *  be provided by the customizer settings.
  70:Generated_Source\PSoC4/mSPI_SPI.c ****     *
  71:Generated_Source\PSoC4/mSPI_SPI.c ****     *  \param config: pointer to a structure that contains the following list of 
  72:Generated_Source\PSoC4/mSPI_SPI.c ****     *   fields. These fields match the selections available in the customizer. 
  73:Generated_Source\PSoC4/mSPI_SPI.c ****     *   Refer to the customizer for further description of the settings.
  74:Generated_Source\PSoC4/mSPI_SPI.c ****     *
  75:Generated_Source\PSoC4/mSPI_SPI.c ****     *******************************************************************************/
  76:Generated_Source\PSoC4/mSPI_SPI.c ****     void mSPI_SpiInit(const mSPI_SPI_INIT_STRUCT *config)
  77:Generated_Source\PSoC4/mSPI_SPI.c ****     {
  78:Generated_Source\PSoC4/mSPI_SPI.c ****         if(NULL == config)
  79:Generated_Source\PSoC4/mSPI_SPI.c ****         {
  80:Generated_Source\PSoC4/mSPI_SPI.c ****             CYASSERT(0u != 0u); /* Halt execution due to bad function parameter */
  81:Generated_Source\PSoC4/mSPI_SPI.c ****         }
  82:Generated_Source\PSoC4/mSPI_SPI.c ****         else
  83:Generated_Source\PSoC4/mSPI_SPI.c ****         {
  84:Generated_Source\PSoC4/mSPI_SPI.c ****             /* Configure pins */
  85:Generated_Source\PSoC4/mSPI_SPI.c ****             mSPI_SetPins(mSPI_SCB_MODE_SPI, config->mode, mSPI_DUMMY_PARAM);
  86:Generated_Source\PSoC4/mSPI_SPI.c **** 
  87:Generated_Source\PSoC4/mSPI_SPI.c ****             /* Store internal configuration */
ARM GAS  C:\Users\PC\AppData\Local\Temp\ccHVpSuh.s 			page 3


  88:Generated_Source\PSoC4/mSPI_SPI.c ****             mSPI_scbMode       = (uint8) mSPI_SCB_MODE_SPI;
  89:Generated_Source\PSoC4/mSPI_SPI.c ****             mSPI_scbEnableWake = (uint8) config->enableWake;
  90:Generated_Source\PSoC4/mSPI_SPI.c ****             mSPI_scbEnableIntr = (uint8) config->enableInterrupt;
  91:Generated_Source\PSoC4/mSPI_SPI.c **** 
  92:Generated_Source\PSoC4/mSPI_SPI.c ****             /* Set RX direction internal variables */
  93:Generated_Source\PSoC4/mSPI_SPI.c ****             mSPI_rxBuffer      =         config->rxBuffer;
  94:Generated_Source\PSoC4/mSPI_SPI.c ****             mSPI_rxDataBits    = (uint8) config->rxDataBits;
  95:Generated_Source\PSoC4/mSPI_SPI.c ****             mSPI_rxBufferSize  =         config->rxBufferSize;
  96:Generated_Source\PSoC4/mSPI_SPI.c **** 
  97:Generated_Source\PSoC4/mSPI_SPI.c ****             /* Set TX direction internal variables */
  98:Generated_Source\PSoC4/mSPI_SPI.c ****             mSPI_txBuffer      =         config->txBuffer;
  99:Generated_Source\PSoC4/mSPI_SPI.c ****             mSPI_txDataBits    = (uint8) config->txDataBits;
 100:Generated_Source\PSoC4/mSPI_SPI.c ****             mSPI_txBufferSize  =         config->txBufferSize;
 101:Generated_Source\PSoC4/mSPI_SPI.c **** 
 102:Generated_Source\PSoC4/mSPI_SPI.c ****             /* Configure SPI interface */
 103:Generated_Source\PSoC4/mSPI_SPI.c ****             mSPI_CTRL_REG     = mSPI_GET_CTRL_OVS(config->oversample)           |
 104:Generated_Source\PSoC4/mSPI_SPI.c ****                                             mSPI_GET_CTRL_BYTE_MODE(config->enableByteMode) |
 105:Generated_Source\PSoC4/mSPI_SPI.c ****                                             mSPI_GET_CTRL_EC_AM_MODE(config->enableWake)    |
 106:Generated_Source\PSoC4/mSPI_SPI.c ****                                             mSPI_CTRL_SPI;
 107:Generated_Source\PSoC4/mSPI_SPI.c **** 
 108:Generated_Source\PSoC4/mSPI_SPI.c ****             mSPI_SPI_CTRL_REG = mSPI_GET_SPI_CTRL_CONTINUOUS    (config->transferSeperation)  |
 109:Generated_Source\PSoC4/mSPI_SPI.c ****                                             mSPI_GET_SPI_CTRL_SELECT_PRECEDE(config->submode &
 110:Generated_Source\PSoC4/mSPI_SPI.c ****                                                                           mSPI_SPI_MODE_TI_PRECEDES
 111:Generated_Source\PSoC4/mSPI_SPI.c ****                                             mSPI_GET_SPI_CTRL_SCLK_MODE     (config->sclkMode)     
 112:Generated_Source\PSoC4/mSPI_SPI.c ****                                             mSPI_GET_SPI_CTRL_LATE_MISO_SAMPLE(config->enableLateSa
 113:Generated_Source\PSoC4/mSPI_SPI.c ****                                             mSPI_GET_SPI_CTRL_SCLK_CONTINUOUS(config->enableFreeRun
 114:Generated_Source\PSoC4/mSPI_SPI.c ****                                             mSPI_GET_SPI_CTRL_SSEL_POLARITY (config->polaritySs)   
 115:Generated_Source\PSoC4/mSPI_SPI.c ****                                             mSPI_GET_SPI_CTRL_SUB_MODE      (config->submode)      
 116:Generated_Source\PSoC4/mSPI_SPI.c ****                                             mSPI_GET_SPI_CTRL_MASTER_MODE   (config->mode);
 117:Generated_Source\PSoC4/mSPI_SPI.c **** 
 118:Generated_Source\PSoC4/mSPI_SPI.c ****             /* Configure RX direction */
 119:Generated_Source\PSoC4/mSPI_SPI.c ****             mSPI_RX_CTRL_REG     =  mSPI_GET_RX_CTRL_DATA_WIDTH(config->rxDataBits)         |
 120:Generated_Source\PSoC4/mSPI_SPI.c ****                                                 mSPI_GET_RX_CTRL_BIT_ORDER (config->bitOrder)      
 121:Generated_Source\PSoC4/mSPI_SPI.c ****                                                 mSPI_GET_RX_CTRL_MEDIAN    (config->enableMedianFil
 122:Generated_Source\PSoC4/mSPI_SPI.c ****                                                 mSPI_SPI_RX_CTRL;
 123:Generated_Source\PSoC4/mSPI_SPI.c **** 
 124:Generated_Source\PSoC4/mSPI_SPI.c ****             mSPI_RX_FIFO_CTRL_REG = mSPI_GET_RX_FIFO_CTRL_TRIGGER_LEVEL(config->rxTriggerLevel);
 125:Generated_Source\PSoC4/mSPI_SPI.c **** 
 126:Generated_Source\PSoC4/mSPI_SPI.c ****             /* Configure TX direction */
 127:Generated_Source\PSoC4/mSPI_SPI.c ****             mSPI_TX_CTRL_REG      = mSPI_GET_TX_CTRL_DATA_WIDTH(config->txDataBits) |
 128:Generated_Source\PSoC4/mSPI_SPI.c ****                                                 mSPI_GET_TX_CTRL_BIT_ORDER (config->bitOrder)   |
 129:Generated_Source\PSoC4/mSPI_SPI.c ****                                                 mSPI_SPI_TX_CTRL;
 130:Generated_Source\PSoC4/mSPI_SPI.c **** 
 131:Generated_Source\PSoC4/mSPI_SPI.c ****             mSPI_TX_FIFO_CTRL_REG = mSPI_GET_TX_FIFO_CTRL_TRIGGER_LEVEL(config->txTriggerLevel);
 132:Generated_Source\PSoC4/mSPI_SPI.c **** 
 133:Generated_Source\PSoC4/mSPI_SPI.c ****             /* Configure interrupt with SPI handler but do not enable it */
 134:Generated_Source\PSoC4/mSPI_SPI.c ****             CyIntDisable    (mSPI_ISR_NUMBER);
 135:Generated_Source\PSoC4/mSPI_SPI.c ****             CyIntSetPriority(mSPI_ISR_NUMBER, mSPI_ISR_PRIORITY);
 136:Generated_Source\PSoC4/mSPI_SPI.c ****             (void) CyIntSetVector(mSPI_ISR_NUMBER, &mSPI_SPI_UART_ISR);
 137:Generated_Source\PSoC4/mSPI_SPI.c **** 
 138:Generated_Source\PSoC4/mSPI_SPI.c ****             /* Configure interrupt sources */
 139:Generated_Source\PSoC4/mSPI_SPI.c ****             mSPI_INTR_I2C_EC_MASK_REG = mSPI_NO_INTR_SOURCES;
 140:Generated_Source\PSoC4/mSPI_SPI.c ****             mSPI_INTR_SPI_EC_MASK_REG = mSPI_NO_INTR_SOURCES;
 141:Generated_Source\PSoC4/mSPI_SPI.c ****             mSPI_INTR_SLAVE_MASK_REG  = mSPI_GET_SPI_INTR_SLAVE_MASK(config->rxInterruptMask);
 142:Generated_Source\PSoC4/mSPI_SPI.c ****             mSPI_INTR_MASTER_MASK_REG = mSPI_GET_SPI_INTR_MASTER_MASK(config->txInterruptMask);
 143:Generated_Source\PSoC4/mSPI_SPI.c ****             mSPI_INTR_RX_MASK_REG     = mSPI_GET_SPI_INTR_RX_MASK(config->rxInterruptMask);
 144:Generated_Source\PSoC4/mSPI_SPI.c ****             mSPI_INTR_TX_MASK_REG     = mSPI_GET_SPI_INTR_TX_MASK(config->txInterruptMask);
ARM GAS  C:\Users\PC\AppData\Local\Temp\ccHVpSuh.s 			page 4


 145:Generated_Source\PSoC4/mSPI_SPI.c ****             
 146:Generated_Source\PSoC4/mSPI_SPI.c ****             /* Configure TX interrupt sources to restore. */
 147:Generated_Source\PSoC4/mSPI_SPI.c ****             mSPI_IntrTxMask = LO16(mSPI_INTR_TX_MASK_REG);
 148:Generated_Source\PSoC4/mSPI_SPI.c **** 
 149:Generated_Source\PSoC4/mSPI_SPI.c ****             /* Set active SS0 */
 150:Generated_Source\PSoC4/mSPI_SPI.c ****             mSPI_SpiSetActiveSlaveSelect(mSPI_SPI_SLAVE_SELECT0);
 151:Generated_Source\PSoC4/mSPI_SPI.c **** 
 152:Generated_Source\PSoC4/mSPI_SPI.c ****             /* Clear RX buffer indexes */
 153:Generated_Source\PSoC4/mSPI_SPI.c ****             mSPI_rxBufferHead     = 0u;
 154:Generated_Source\PSoC4/mSPI_SPI.c ****             mSPI_rxBufferTail     = 0u;
 155:Generated_Source\PSoC4/mSPI_SPI.c ****             mSPI_rxBufferOverflow = 0u;
 156:Generated_Source\PSoC4/mSPI_SPI.c **** 
 157:Generated_Source\PSoC4/mSPI_SPI.c ****             /* Clear TX buffer indexes */
 158:Generated_Source\PSoC4/mSPI_SPI.c ****             mSPI_txBufferHead = 0u;
 159:Generated_Source\PSoC4/mSPI_SPI.c ****             mSPI_txBufferTail = 0u;
 160:Generated_Source\PSoC4/mSPI_SPI.c ****         }
 161:Generated_Source\PSoC4/mSPI_SPI.c ****     }
 162:Generated_Source\PSoC4/mSPI_SPI.c **** 
 163:Generated_Source\PSoC4/mSPI_SPI.c **** #else
 164:Generated_Source\PSoC4/mSPI_SPI.c **** 
 165:Generated_Source\PSoC4/mSPI_SPI.c ****     /*******************************************************************************
 166:Generated_Source\PSoC4/mSPI_SPI.c ****     * Function Name: mSPI_SpiInit
 167:Generated_Source\PSoC4/mSPI_SPI.c ****     ****************************************************************************//**
 168:Generated_Source\PSoC4/mSPI_SPI.c ****     *
 169:Generated_Source\PSoC4/mSPI_SPI.c ****     *  Configures the SCB for the SPI operation.
 170:Generated_Source\PSoC4/mSPI_SPI.c ****     *
 171:Generated_Source\PSoC4/mSPI_SPI.c ****     *******************************************************************************/
 172:Generated_Source\PSoC4/mSPI_SPI.c ****     void mSPI_SpiInit(void)
 173:Generated_Source\PSoC4/mSPI_SPI.c ****     {
 174:Generated_Source\PSoC4/mSPI_SPI.c ****         /* Configure SPI interface */
 175:Generated_Source\PSoC4/mSPI_SPI.c ****         mSPI_CTRL_REG     = mSPI_SPI_DEFAULT_CTRL;
 176:Generated_Source\PSoC4/mSPI_SPI.c ****         mSPI_SPI_CTRL_REG = mSPI_SPI_DEFAULT_SPI_CTRL;
 177:Generated_Source\PSoC4/mSPI_SPI.c **** 
 178:Generated_Source\PSoC4/mSPI_SPI.c ****         /* Configure TX and RX direction */
 179:Generated_Source\PSoC4/mSPI_SPI.c ****         mSPI_RX_CTRL_REG      = mSPI_SPI_DEFAULT_RX_CTRL;
 180:Generated_Source\PSoC4/mSPI_SPI.c ****         mSPI_RX_FIFO_CTRL_REG = mSPI_SPI_DEFAULT_RX_FIFO_CTRL;
 181:Generated_Source\PSoC4/mSPI_SPI.c **** 
 182:Generated_Source\PSoC4/mSPI_SPI.c ****         /* Configure TX and RX direction */
 183:Generated_Source\PSoC4/mSPI_SPI.c ****         mSPI_TX_CTRL_REG      = mSPI_SPI_DEFAULT_TX_CTRL;
 184:Generated_Source\PSoC4/mSPI_SPI.c ****         mSPI_TX_FIFO_CTRL_REG = mSPI_SPI_DEFAULT_TX_FIFO_CTRL;
 185:Generated_Source\PSoC4/mSPI_SPI.c **** 
 186:Generated_Source\PSoC4/mSPI_SPI.c ****         /* Configure interrupt with SPI handler but do not enable it */
 187:Generated_Source\PSoC4/mSPI_SPI.c ****     #if(mSPI_SCB_IRQ_INTERNAL)
 188:Generated_Source\PSoC4/mSPI_SPI.c ****             CyIntDisable    (mSPI_ISR_NUMBER);
 189:Generated_Source\PSoC4/mSPI_SPI.c ****             CyIntSetPriority(mSPI_ISR_NUMBER, mSPI_ISR_PRIORITY);
 190:Generated_Source\PSoC4/mSPI_SPI.c ****             (void) CyIntSetVector(mSPI_ISR_NUMBER, &mSPI_SPI_UART_ISR);
 191:Generated_Source\PSoC4/mSPI_SPI.c ****     #endif /* (mSPI_SCB_IRQ_INTERNAL) */
 192:Generated_Source\PSoC4/mSPI_SPI.c **** 
 193:Generated_Source\PSoC4/mSPI_SPI.c ****         /* Configure interrupt sources */
 194:Generated_Source\PSoC4/mSPI_SPI.c ****         mSPI_INTR_I2C_EC_MASK_REG = mSPI_SPI_DEFAULT_INTR_I2C_EC_MASK;
 195:Generated_Source\PSoC4/mSPI_SPI.c ****         mSPI_INTR_SPI_EC_MASK_REG = mSPI_SPI_DEFAULT_INTR_SPI_EC_MASK;
 196:Generated_Source\PSoC4/mSPI_SPI.c ****         mSPI_INTR_SLAVE_MASK_REG  = mSPI_SPI_DEFAULT_INTR_SLAVE_MASK;
 197:Generated_Source\PSoC4/mSPI_SPI.c ****         mSPI_INTR_MASTER_MASK_REG = mSPI_SPI_DEFAULT_INTR_MASTER_MASK;
 198:Generated_Source\PSoC4/mSPI_SPI.c ****         mSPI_INTR_RX_MASK_REG     = mSPI_SPI_DEFAULT_INTR_RX_MASK;
 199:Generated_Source\PSoC4/mSPI_SPI.c ****         mSPI_INTR_TX_MASK_REG     = mSPI_SPI_DEFAULT_INTR_TX_MASK;
 200:Generated_Source\PSoC4/mSPI_SPI.c **** 
 201:Generated_Source\PSoC4/mSPI_SPI.c ****         /* Configure TX interrupt sources to restore. */
ARM GAS  C:\Users\PC\AppData\Local\Temp\ccHVpSuh.s 			page 5


 202:Generated_Source\PSoC4/mSPI_SPI.c ****         mSPI_IntrTxMask = LO16(mSPI_INTR_TX_MASK_REG);
 203:Generated_Source\PSoC4/mSPI_SPI.c ****             
 204:Generated_Source\PSoC4/mSPI_SPI.c ****         /* Set active SS0 for master */
 205:Generated_Source\PSoC4/mSPI_SPI.c ****     #if (mSPI_SPI_MASTER_CONST)
 206:Generated_Source\PSoC4/mSPI_SPI.c ****         mSPI_SpiSetActiveSlaveSelect(mSPI_SPI_SLAVE_SELECT0);
 207:Generated_Source\PSoC4/mSPI_SPI.c ****     #endif /* (mSPI_SPI_MASTER_CONST) */
 208:Generated_Source\PSoC4/mSPI_SPI.c **** 
 209:Generated_Source\PSoC4/mSPI_SPI.c ****     #if(mSPI_INTERNAL_RX_SW_BUFFER_CONST)
 210:Generated_Source\PSoC4/mSPI_SPI.c ****         mSPI_rxBufferHead     = 0u;
 211:Generated_Source\PSoC4/mSPI_SPI.c ****         mSPI_rxBufferTail     = 0u;
 212:Generated_Source\PSoC4/mSPI_SPI.c ****         mSPI_rxBufferOverflow = 0u;
 213:Generated_Source\PSoC4/mSPI_SPI.c ****     #endif /* (mSPI_INTERNAL_RX_SW_BUFFER_CONST) */
 214:Generated_Source\PSoC4/mSPI_SPI.c **** 
 215:Generated_Source\PSoC4/mSPI_SPI.c ****     #if(mSPI_INTERNAL_TX_SW_BUFFER_CONST)
 216:Generated_Source\PSoC4/mSPI_SPI.c ****         mSPI_txBufferHead = 0u;
 217:Generated_Source\PSoC4/mSPI_SPI.c ****         mSPI_txBufferTail = 0u;
 218:Generated_Source\PSoC4/mSPI_SPI.c ****     #endif /* (mSPI_INTERNAL_TX_SW_BUFFER_CONST) */
 219:Generated_Source\PSoC4/mSPI_SPI.c ****     }
 220:Generated_Source\PSoC4/mSPI_SPI.c **** #endif /* (mSPI_SCB_MODE_UNCONFIG_CONST_CFG) */
 221:Generated_Source\PSoC4/mSPI_SPI.c **** 
 222:Generated_Source\PSoC4/mSPI_SPI.c **** 
 223:Generated_Source\PSoC4/mSPI_SPI.c **** /*******************************************************************************
 224:Generated_Source\PSoC4/mSPI_SPI.c **** * Function Name: mSPI_SpiPostEnable
 225:Generated_Source\PSoC4/mSPI_SPI.c **** ****************************************************************************//**
 226:Generated_Source\PSoC4/mSPI_SPI.c **** *
 227:Generated_Source\PSoC4/mSPI_SPI.c **** *  Restores HSIOM settings for the SPI master output pins (SCLK and/or SS0-SS3) 
 228:Generated_Source\PSoC4/mSPI_SPI.c **** *  to be controlled by the SCB SPI.
 229:Generated_Source\PSoC4/mSPI_SPI.c **** *
 230:Generated_Source\PSoC4/mSPI_SPI.c **** *******************************************************************************/
 231:Generated_Source\PSoC4/mSPI_SPI.c **** void mSPI_SpiPostEnable(void)
 232:Generated_Source\PSoC4/mSPI_SPI.c **** {
  28              		.loc 1 232 0
  29              		.cfi_startproc
  30              		@ args = 0, pretend = 0, frame = 0
  31              		@ frame_needed = 0, uses_anonymous_args = 0
  32              		@ link register save eliminated.
 233:Generated_Source\PSoC4/mSPI_SPI.c **** #if(mSPI_SCB_MODE_UNCONFIG_CONST_CFG)
 234:Generated_Source\PSoC4/mSPI_SPI.c **** 
 235:Generated_Source\PSoC4/mSPI_SPI.c ****     if (mSPI_CHECK_SPI_MASTER)
 236:Generated_Source\PSoC4/mSPI_SPI.c ****     {
 237:Generated_Source\PSoC4/mSPI_SPI.c ****     #if (mSPI_CTS_SCLK_PIN)
 238:Generated_Source\PSoC4/mSPI_SPI.c ****         /* Set SCB SPI to drive output pin */
 239:Generated_Source\PSoC4/mSPI_SPI.c ****         mSPI_SET_HSIOM_SEL(mSPI_CTS_SCLK_HSIOM_REG, mSPI_CTS_SCLK_HSIOM_MASK,
 240:Generated_Source\PSoC4/mSPI_SPI.c ****                                        mSPI_CTS_SCLK_HSIOM_POS, mSPI_CTS_SCLK_HSIOM_SEL_SPI);
 241:Generated_Source\PSoC4/mSPI_SPI.c ****     #endif /* (mSPI_CTS_SCLK_PIN) */
 242:Generated_Source\PSoC4/mSPI_SPI.c **** 
 243:Generated_Source\PSoC4/mSPI_SPI.c ****     #if (mSPI_RTS_SS0_PIN)
 244:Generated_Source\PSoC4/mSPI_SPI.c ****         /* Set SCB SPI to drive output pin */
 245:Generated_Source\PSoC4/mSPI_SPI.c ****         mSPI_SET_HSIOM_SEL(mSPI_RTS_SS0_HSIOM_REG, mSPI_RTS_SS0_HSIOM_MASK,
 246:Generated_Source\PSoC4/mSPI_SPI.c ****                                        mSPI_RTS_SS0_HSIOM_POS, mSPI_RTS_SS0_HSIOM_SEL_SPI);
 247:Generated_Source\PSoC4/mSPI_SPI.c ****     #endif /* (mSPI_RTS_SS0_PIN) */
 248:Generated_Source\PSoC4/mSPI_SPI.c **** 
 249:Generated_Source\PSoC4/mSPI_SPI.c ****     #if (mSPI_SS1_PIN)
 250:Generated_Source\PSoC4/mSPI_SPI.c ****         /* Set SCB SPI to drive output pin */
 251:Generated_Source\PSoC4/mSPI_SPI.c ****         mSPI_SET_HSIOM_SEL(mSPI_SS1_HSIOM_REG, mSPI_SS1_HSIOM_MASK,
 252:Generated_Source\PSoC4/mSPI_SPI.c ****                                        mSPI_SS1_HSIOM_POS, mSPI_SS1_HSIOM_SEL_SPI);
 253:Generated_Source\PSoC4/mSPI_SPI.c ****     #endif /* (mSPI_SS1_PIN) */
ARM GAS  C:\Users\PC\AppData\Local\Temp\ccHVpSuh.s 			page 6


 254:Generated_Source\PSoC4/mSPI_SPI.c **** 
 255:Generated_Source\PSoC4/mSPI_SPI.c ****     #if (mSPI_SS2_PIN)
 256:Generated_Source\PSoC4/mSPI_SPI.c ****         /* Set SCB SPI to drive output pin */
 257:Generated_Source\PSoC4/mSPI_SPI.c ****         mSPI_SET_HSIOM_SEL(mSPI_SS2_HSIOM_REG, mSPI_SS2_HSIOM_MASK,
 258:Generated_Source\PSoC4/mSPI_SPI.c ****                                        mSPI_SS2_HSIOM_POS, mSPI_SS2_HSIOM_SEL_SPI);
 259:Generated_Source\PSoC4/mSPI_SPI.c ****     #endif /* (mSPI_SS2_PIN) */
 260:Generated_Source\PSoC4/mSPI_SPI.c **** 
 261:Generated_Source\PSoC4/mSPI_SPI.c ****     #if (mSPI_SS3_PIN)
 262:Generated_Source\PSoC4/mSPI_SPI.c ****         /* Set SCB SPI to drive output pin */
 263:Generated_Source\PSoC4/mSPI_SPI.c ****         mSPI_SET_HSIOM_SEL(mSPI_SS3_HSIOM_REG, mSPI_SS3_HSIOM_MASK,
 264:Generated_Source\PSoC4/mSPI_SPI.c ****                                        mSPI_SS3_HSIOM_POS, mSPI_SS3_HSIOM_SEL_SPI);
 265:Generated_Source\PSoC4/mSPI_SPI.c ****     #endif /* (mSPI_SS3_PIN) */
 266:Generated_Source\PSoC4/mSPI_SPI.c ****     }
 267:Generated_Source\PSoC4/mSPI_SPI.c **** 
 268:Generated_Source\PSoC4/mSPI_SPI.c **** #else
 269:Generated_Source\PSoC4/mSPI_SPI.c **** 
 270:Generated_Source\PSoC4/mSPI_SPI.c ****     #if (mSPI_SPI_MASTER_SCLK_PIN)
 271:Generated_Source\PSoC4/mSPI_SPI.c ****         /* Set SCB SPI to drive output pin */
 272:Generated_Source\PSoC4/mSPI_SPI.c ****         mSPI_SET_HSIOM_SEL(mSPI_SCLK_M_HSIOM_REG, mSPI_SCLK_M_HSIOM_MASK,
  33              		.loc 1 272 0
  34 0000 F021     		movs	r1, #240
  35 0002 074B     		ldr	r3, .L2
  36 0004 0901     		lsls	r1, r1, #4
  37 0006 1A68     		ldr	r2, [r3]
 273:Generated_Source\PSoC4/mSPI_SPI.c ****                                        mSPI_SCLK_M_HSIOM_POS, mSPI_SCLK_M_HSIOM_SEL_SPI);
 274:Generated_Source\PSoC4/mSPI_SPI.c ****     #endif /* (mSPI_MISO_SDA_TX_PIN_PIN) */
 275:Generated_Source\PSoC4/mSPI_SPI.c **** 
 276:Generated_Source\PSoC4/mSPI_SPI.c ****     #if (mSPI_SPI_MASTER_SS0_PIN)
 277:Generated_Source\PSoC4/mSPI_SPI.c ****         /* Set SCB SPI to drive output pin */
 278:Generated_Source\PSoC4/mSPI_SPI.c ****         mSPI_SET_HSIOM_SEL(mSPI_SS0_M_HSIOM_REG, mSPI_SS0_M_HSIOM_MASK,
 279:Generated_Source\PSoC4/mSPI_SPI.c ****                                        mSPI_SS0_M_HSIOM_POS, mSPI_SS0_M_HSIOM_SEL_SPI);
 280:Generated_Source\PSoC4/mSPI_SPI.c ****     #endif /* (mSPI_SPI_MASTER_SS0_PIN) */
 281:Generated_Source\PSoC4/mSPI_SPI.c **** 
 282:Generated_Source\PSoC4/mSPI_SPI.c ****     #if (mSPI_SPI_MASTER_SS1_PIN)
 283:Generated_Source\PSoC4/mSPI_SPI.c ****         /* Set SCB SPI to drive output pin */
 284:Generated_Source\PSoC4/mSPI_SPI.c ****         mSPI_SET_HSIOM_SEL(mSPI_SS1_M_HSIOM_REG, mSPI_SS1_M_HSIOM_MASK,
 285:Generated_Source\PSoC4/mSPI_SPI.c ****                                        mSPI_SS1_M_HSIOM_POS, mSPI_SS1_M_HSIOM_SEL_SPI);
 286:Generated_Source\PSoC4/mSPI_SPI.c ****     #endif /* (mSPI_SPI_MASTER_SS1_PIN) */
 287:Generated_Source\PSoC4/mSPI_SPI.c **** 
 288:Generated_Source\PSoC4/mSPI_SPI.c ****     #if (mSPI_SPI_MASTER_SS2_PIN)
 289:Generated_Source\PSoC4/mSPI_SPI.c ****         /* Set SCB SPI to drive output pin */
 290:Generated_Source\PSoC4/mSPI_SPI.c ****         mSPI_SET_HSIOM_SEL(mSPI_SS2_M_HSIOM_REG, mSPI_SS2_M_HSIOM_MASK,
 291:Generated_Source\PSoC4/mSPI_SPI.c ****                                        mSPI_SS2_M_HSIOM_POS, mSPI_SS2_M_HSIOM_SEL_SPI);
 292:Generated_Source\PSoC4/mSPI_SPI.c ****     #endif /* (mSPI_SPI_MASTER_SS2_PIN) */
 293:Generated_Source\PSoC4/mSPI_SPI.c **** 
 294:Generated_Source\PSoC4/mSPI_SPI.c ****     #if (mSPI_SPI_MASTER_SS3_PIN)
 295:Generated_Source\PSoC4/mSPI_SPI.c ****         /* Set SCB SPI to drive output pin */
 296:Generated_Source\PSoC4/mSPI_SPI.c ****         mSPI_SET_HSIOM_SEL(mSPI_SS3_M_HSIOM_REG, mSPI_SS3_M_HSIOM_MASK,
 297:Generated_Source\PSoC4/mSPI_SPI.c ****                                        mSPI_SS3_M_HSIOM_POS, mSPI_SS3_M_HSIOM_SEL_SPI);
 298:Generated_Source\PSoC4/mSPI_SPI.c ****     #endif /* (mSPI_SPI_MASTER_SS3_PIN) */
 299:Generated_Source\PSoC4/mSPI_SPI.c **** 
 300:Generated_Source\PSoC4/mSPI_SPI.c **** #endif /* (mSPI_SCB_MODE_UNCONFIG_CONST_CFG) */
 301:Generated_Source\PSoC4/mSPI_SPI.c **** 
 302:Generated_Source\PSoC4/mSPI_SPI.c ****     /* Restore TX interrupt sources. */
 303:Generated_Source\PSoC4/mSPI_SPI.c ****     mSPI_SetTxInterruptMode(mSPI_IntrTxMask);
 304:Generated_Source\PSoC4/mSPI_SPI.c **** }
  38              		.loc 1 304 0
ARM GAS  C:\Users\PC\AppData\Local\Temp\ccHVpSuh.s 			page 7


  39              		@ sp needed
 272:Generated_Source\PSoC4/mSPI_SPI.c ****                                        mSPI_SCLK_M_HSIOM_POS, mSPI_SCLK_M_HSIOM_SEL_SPI);
  40              		.loc 1 272 0
  41 0008 0A43     		orrs	r2, r1
 278:Generated_Source\PSoC4/mSPI_SPI.c ****                                        mSPI_SS0_M_HSIOM_POS, mSPI_SS0_M_HSIOM_SEL_SPI);
  42              		.loc 1 278 0
  43 000a F021     		movs	r1, #240
 272:Generated_Source\PSoC4/mSPI_SPI.c ****                                        mSPI_SCLK_M_HSIOM_POS, mSPI_SCLK_M_HSIOM_SEL_SPI);
  44              		.loc 1 272 0
  45 000c 1A60     		str	r2, [r3]
 278:Generated_Source\PSoC4/mSPI_SPI.c ****                                        mSPI_SS0_M_HSIOM_POS, mSPI_SS0_M_HSIOM_SEL_SPI);
  46              		.loc 1 278 0
  47 000e 1A68     		ldr	r2, [r3]
  48 0010 0902     		lsls	r1, r1, #8
  49 0012 0A43     		orrs	r2, r1
  50 0014 1A60     		str	r2, [r3]
 303:Generated_Source\PSoC4/mSPI_SPI.c **** }
  51              		.loc 1 303 0
  52 0016 034B     		ldr	r3, .L2+4
  53 0018 1A88     		ldrh	r2, [r3]
  54 001a 034B     		ldr	r3, .L2+8
  55 001c 1A60     		str	r2, [r3]
  56              		.loc 1 304 0
  57 001e 7047     		bx	lr
  58              	.L3:
  59              		.align	2
  60              	.L2:
  61 0020 00020240 		.word	1073873408
  62 0024 00000000 		.word	mSPI_IntrTxMask
  63 0028 880F0940 		.word	1074335624
  64              		.cfi_endproc
  65              	.LFE2:
  66              		.size	mSPI_SpiPostEnable, .-mSPI_SpiPostEnable
  67              		.section	.text.mSPI_SpiStop,"ax",%progbits
  68              		.align	1
  69              		.global	mSPI_SpiStop
  70              		.code	16
  71              		.thumb_func
  72              		.type	mSPI_SpiStop, %function
  73              	mSPI_SpiStop:
  74              	.LFB3:
 305:Generated_Source\PSoC4/mSPI_SPI.c **** 
 306:Generated_Source\PSoC4/mSPI_SPI.c **** 
 307:Generated_Source\PSoC4/mSPI_SPI.c **** /*******************************************************************************
 308:Generated_Source\PSoC4/mSPI_SPI.c **** * Function Name: mSPI_SpiStop
 309:Generated_Source\PSoC4/mSPI_SPI.c **** ****************************************************************************//**
 310:Generated_Source\PSoC4/mSPI_SPI.c **** *
 311:Generated_Source\PSoC4/mSPI_SPI.c **** *  Changes the HSIOM settings for the SPI master output pins 
 312:Generated_Source\PSoC4/mSPI_SPI.c **** *  (SCLK and/or SS0-SS3) to keep them inactive after the block is disabled. 
 313:Generated_Source\PSoC4/mSPI_SPI.c **** *  The output pins are controlled by the GPIO data register.
 314:Generated_Source\PSoC4/mSPI_SPI.c **** *
 315:Generated_Source\PSoC4/mSPI_SPI.c **** *******************************************************************************/
 316:Generated_Source\PSoC4/mSPI_SPI.c **** void mSPI_SpiStop(void)
 317:Generated_Source\PSoC4/mSPI_SPI.c **** {
  75              		.loc 1 317 0
  76              		.cfi_startproc
  77              		@ args = 0, pretend = 0, frame = 0
ARM GAS  C:\Users\PC\AppData\Local\Temp\ccHVpSuh.s 			page 8


  78              		@ frame_needed = 0, uses_anonymous_args = 0
  79 0000 70B5     		push	{r4, r5, r6, lr}
  80              		.cfi_def_cfa_offset 16
  81              		.cfi_offset 4, -16
  82              		.cfi_offset 5, -12
  83              		.cfi_offset 6, -8
  84              		.cfi_offset 14, -4
 318:Generated_Source\PSoC4/mSPI_SPI.c **** #if(mSPI_SCB_MODE_UNCONFIG_CONST_CFG)
 319:Generated_Source\PSoC4/mSPI_SPI.c **** 
 320:Generated_Source\PSoC4/mSPI_SPI.c ****     if (mSPI_CHECK_SPI_MASTER)
 321:Generated_Source\PSoC4/mSPI_SPI.c ****     {
 322:Generated_Source\PSoC4/mSPI_SPI.c ****     #if (mSPI_CTS_SCLK_PIN)
 323:Generated_Source\PSoC4/mSPI_SPI.c ****         /* Set output pin state after block is disabled */
 324:Generated_Source\PSoC4/mSPI_SPI.c ****         mSPI_uart_cts_spi_sclk_Write(mSPI_GET_SPI_SCLK_INACTIVE);
 325:Generated_Source\PSoC4/mSPI_SPI.c **** 
 326:Generated_Source\PSoC4/mSPI_SPI.c ****         /* Set GPIO to drive output pin */
 327:Generated_Source\PSoC4/mSPI_SPI.c ****         mSPI_SET_HSIOM_SEL(mSPI_CTS_SCLK_HSIOM_REG, mSPI_CTS_SCLK_HSIOM_MASK,
 328:Generated_Source\PSoC4/mSPI_SPI.c ****                                        mSPI_CTS_SCLK_HSIOM_POS, mSPI_CTS_SCLK_HSIOM_SEL_GPIO);
 329:Generated_Source\PSoC4/mSPI_SPI.c ****     #endif /* (mSPI_uart_cts_spi_sclk_PIN) */
 330:Generated_Source\PSoC4/mSPI_SPI.c **** 
 331:Generated_Source\PSoC4/mSPI_SPI.c ****     #if (mSPI_RTS_SS0_PIN)
 332:Generated_Source\PSoC4/mSPI_SPI.c ****         /* Set output pin state after block is disabled */
 333:Generated_Source\PSoC4/mSPI_SPI.c ****         mSPI_uart_rts_spi_ss0_Write(mSPI_GET_SPI_SS0_INACTIVE);
 334:Generated_Source\PSoC4/mSPI_SPI.c **** 
 335:Generated_Source\PSoC4/mSPI_SPI.c ****         /* Set GPIO to drive output pin */
 336:Generated_Source\PSoC4/mSPI_SPI.c ****         mSPI_SET_HSIOM_SEL(mSPI_RTS_SS0_HSIOM_REG, mSPI_RTS_SS0_HSIOM_MASK,
 337:Generated_Source\PSoC4/mSPI_SPI.c ****                                        mSPI_RTS_SS0_HSIOM_POS, mSPI_RTS_SS0_HSIOM_SEL_GPIO);
 338:Generated_Source\PSoC4/mSPI_SPI.c ****     #endif /* (mSPI_uart_rts_spi_ss0_PIN) */
 339:Generated_Source\PSoC4/mSPI_SPI.c **** 
 340:Generated_Source\PSoC4/mSPI_SPI.c ****     #if (mSPI_SS1_PIN)
 341:Generated_Source\PSoC4/mSPI_SPI.c ****         /* Set output pin state after block is disabled */
 342:Generated_Source\PSoC4/mSPI_SPI.c ****         mSPI_spi_ss1_Write(mSPI_GET_SPI_SS1_INACTIVE);
 343:Generated_Source\PSoC4/mSPI_SPI.c **** 
 344:Generated_Source\PSoC4/mSPI_SPI.c ****         /* Set GPIO to drive output pin */
 345:Generated_Source\PSoC4/mSPI_SPI.c ****         mSPI_SET_HSIOM_SEL(mSPI_SS1_HSIOM_REG, mSPI_SS1_HSIOM_MASK,
 346:Generated_Source\PSoC4/mSPI_SPI.c ****                                        mSPI_SS1_HSIOM_POS, mSPI_SS1_HSIOM_SEL_GPIO);
 347:Generated_Source\PSoC4/mSPI_SPI.c ****     #endif /* (mSPI_SS1_PIN) */
 348:Generated_Source\PSoC4/mSPI_SPI.c **** 
 349:Generated_Source\PSoC4/mSPI_SPI.c ****     #if (mSPI_SS2_PIN)
 350:Generated_Source\PSoC4/mSPI_SPI.c ****         /* Set output pin state after block is disabled */
 351:Generated_Source\PSoC4/mSPI_SPI.c ****         mSPI_spi_ss2_Write(mSPI_GET_SPI_SS2_INACTIVE);
 352:Generated_Source\PSoC4/mSPI_SPI.c **** 
 353:Generated_Source\PSoC4/mSPI_SPI.c ****         /* Set GPIO to drive output pin */
 354:Generated_Source\PSoC4/mSPI_SPI.c ****         mSPI_SET_HSIOM_SEL(mSPI_SS2_HSIOM_REG, mSPI_SS2_HSIOM_MASK,
 355:Generated_Source\PSoC4/mSPI_SPI.c ****                                        mSPI_SS2_HSIOM_POS, mSPI_SS2_HSIOM_SEL_GPIO);
 356:Generated_Source\PSoC4/mSPI_SPI.c ****     #endif /* (mSPI_SS2_PIN) */
 357:Generated_Source\PSoC4/mSPI_SPI.c **** 
 358:Generated_Source\PSoC4/mSPI_SPI.c ****     #if (mSPI_SS3_PIN)
 359:Generated_Source\PSoC4/mSPI_SPI.c ****         /* Set output pin state after block is disabled */
 360:Generated_Source\PSoC4/mSPI_SPI.c ****         mSPI_spi_ss3_Write(mSPI_GET_SPI_SS3_INACTIVE);
 361:Generated_Source\PSoC4/mSPI_SPI.c **** 
 362:Generated_Source\PSoC4/mSPI_SPI.c ****         /* Set GPIO to drive output pin */
 363:Generated_Source\PSoC4/mSPI_SPI.c ****         mSPI_SET_HSIOM_SEL(mSPI_SS3_HSIOM_REG, mSPI_SS3_HSIOM_MASK,
 364:Generated_Source\PSoC4/mSPI_SPI.c ****                                        mSPI_SS3_HSIOM_POS, mSPI_SS3_HSIOM_SEL_GPIO);
 365:Generated_Source\PSoC4/mSPI_SPI.c ****     #endif /* (mSPI_SS3_PIN) */
 366:Generated_Source\PSoC4/mSPI_SPI.c ****     
 367:Generated_Source\PSoC4/mSPI_SPI.c ****         /* Store TX interrupt sources (exclude level triggered) for master. */
ARM GAS  C:\Users\PC\AppData\Local\Temp\ccHVpSuh.s 			page 9


 368:Generated_Source\PSoC4/mSPI_SPI.c ****         mSPI_IntrTxMask = LO16(mSPI_GetTxInterruptMode() & mSPI_INTR_SPIM_TX_RESTORE);
 369:Generated_Source\PSoC4/mSPI_SPI.c ****     }
 370:Generated_Source\PSoC4/mSPI_SPI.c ****     else
 371:Generated_Source\PSoC4/mSPI_SPI.c ****     {
 372:Generated_Source\PSoC4/mSPI_SPI.c ****         /* Store TX interrupt sources (exclude level triggered) for slave. */
 373:Generated_Source\PSoC4/mSPI_SPI.c ****         mSPI_IntrTxMask = LO16(mSPI_GetTxInterruptMode() & mSPI_INTR_SPIS_TX_RESTORE);
 374:Generated_Source\PSoC4/mSPI_SPI.c ****     }
 375:Generated_Source\PSoC4/mSPI_SPI.c **** 
 376:Generated_Source\PSoC4/mSPI_SPI.c **** #else
 377:Generated_Source\PSoC4/mSPI_SPI.c **** 
 378:Generated_Source\PSoC4/mSPI_SPI.c **** #if (mSPI_SPI_MASTER_SCLK_PIN)
 379:Generated_Source\PSoC4/mSPI_SPI.c ****     /* Set output pin state after block is disabled */
 380:Generated_Source\PSoC4/mSPI_SPI.c ****     mSPI_sclk_m_Write(mSPI_GET_SPI_SCLK_INACTIVE);
  85              		.loc 1 380 0
  86 0002 0125     		movs	r5, #1
  87 0004 0D4C     		ldr	r4, .L5
 381:Generated_Source\PSoC4/mSPI_SPI.c **** 
 382:Generated_Source\PSoC4/mSPI_SPI.c ****     /* Set GPIO to drive output pin */
 383:Generated_Source\PSoC4/mSPI_SPI.c ****     mSPI_SET_HSIOM_SEL(mSPI_SCLK_M_HSIOM_REG, mSPI_SCLK_M_HSIOM_MASK,
  88              		.loc 1 383 0
  89 0006 0E4E     		ldr	r6, .L5+4
 380:Generated_Source\PSoC4/mSPI_SPI.c **** 
  90              		.loc 1 380 0
  91 0008 2068     		ldr	r0, [r4]
 384:Generated_Source\PSoC4/mSPI_SPI.c ****                                    mSPI_SCLK_M_HSIOM_POS, mSPI_SCLK_M_HSIOM_SEL_GPIO);
 385:Generated_Source\PSoC4/mSPI_SPI.c **** #endif /* (mSPI_MISO_SDA_TX_PIN_PIN) */
 386:Generated_Source\PSoC4/mSPI_SPI.c **** 
 387:Generated_Source\PSoC4/mSPI_SPI.c **** #if (mSPI_SPI_MASTER_SS0_PIN)
 388:Generated_Source\PSoC4/mSPI_SPI.c ****     /* Set output pin state after block is disabled */
 389:Generated_Source\PSoC4/mSPI_SPI.c ****     mSPI_ss0_m_Write(mSPI_GET_SPI_SS0_INACTIVE);
 390:Generated_Source\PSoC4/mSPI_SPI.c **** 
 391:Generated_Source\PSoC4/mSPI_SPI.c ****     /* Set GPIO to drive output pin */
 392:Generated_Source\PSoC4/mSPI_SPI.c ****     mSPI_SET_HSIOM_SEL(mSPI_SS0_M_HSIOM_REG, mSPI_SS0_M_HSIOM_MASK,
 393:Generated_Source\PSoC4/mSPI_SPI.c ****                                    mSPI_SS0_M_HSIOM_POS, mSPI_SS0_M_HSIOM_SEL_GPIO);
 394:Generated_Source\PSoC4/mSPI_SPI.c **** #endif /* (mSPI_SPI_MASTER_SS0_PIN) */
 395:Generated_Source\PSoC4/mSPI_SPI.c **** 
 396:Generated_Source\PSoC4/mSPI_SPI.c **** #if (mSPI_SPI_MASTER_SS1_PIN)
 397:Generated_Source\PSoC4/mSPI_SPI.c ****     /* Set output pin state after block is disabled */
 398:Generated_Source\PSoC4/mSPI_SPI.c ****     mSPI_ss1_m_Write(mSPI_GET_SPI_SS1_INACTIVE);
 399:Generated_Source\PSoC4/mSPI_SPI.c **** 
 400:Generated_Source\PSoC4/mSPI_SPI.c ****     /* Set GPIO to drive output pin */
 401:Generated_Source\PSoC4/mSPI_SPI.c ****     mSPI_SET_HSIOM_SEL(mSPI_SS1_M_HSIOM_REG, mSPI_SS1_M_HSIOM_MASK,
 402:Generated_Source\PSoC4/mSPI_SPI.c ****                                    mSPI_SS1_M_HSIOM_POS, mSPI_SS1_M_HSIOM_SEL_GPIO);
 403:Generated_Source\PSoC4/mSPI_SPI.c **** #endif /* (mSPI_SPI_MASTER_SS1_PIN) */
 404:Generated_Source\PSoC4/mSPI_SPI.c **** 
 405:Generated_Source\PSoC4/mSPI_SPI.c **** #if (mSPI_SPI_MASTER_SS2_PIN)
 406:Generated_Source\PSoC4/mSPI_SPI.c ****     /* Set output pin state after block is disabled */
 407:Generated_Source\PSoC4/mSPI_SPI.c ****     mSPI_ss2_m_Write(mSPI_GET_SPI_SS2_INACTIVE);
 408:Generated_Source\PSoC4/mSPI_SPI.c **** 
 409:Generated_Source\PSoC4/mSPI_SPI.c ****     /* Set GPIO to drive output pin */
 410:Generated_Source\PSoC4/mSPI_SPI.c ****     mSPI_SET_HSIOM_SEL(mSPI_SS2_M_HSIOM_REG, mSPI_SS2_M_HSIOM_MASK,
 411:Generated_Source\PSoC4/mSPI_SPI.c ****                                    mSPI_SS2_M_HSIOM_POS, mSPI_SS2_M_HSIOM_SEL_GPIO);
 412:Generated_Source\PSoC4/mSPI_SPI.c **** #endif /* (mSPI_SPI_MASTER_SS2_PIN) */
 413:Generated_Source\PSoC4/mSPI_SPI.c **** 
 414:Generated_Source\PSoC4/mSPI_SPI.c **** #if (mSPI_SPI_MASTER_SS3_PIN)
 415:Generated_Source\PSoC4/mSPI_SPI.c ****     /* Set output pin state after block is disabled */
 416:Generated_Source\PSoC4/mSPI_SPI.c ****     mSPI_ss3_m_Write(mSPI_GET_SPI_SS3_INACTIVE);
ARM GAS  C:\Users\PC\AppData\Local\Temp\ccHVpSuh.s 			page 10


 417:Generated_Source\PSoC4/mSPI_SPI.c **** 
 418:Generated_Source\PSoC4/mSPI_SPI.c ****     /* Set GPIO to drive output pin */
 419:Generated_Source\PSoC4/mSPI_SPI.c ****     mSPI_SET_HSIOM_SEL(mSPI_SS3_M_HSIOM_REG, mSPI_SS3_M_HSIOM_MASK,
 420:Generated_Source\PSoC4/mSPI_SPI.c ****                                    mSPI_SS3_M_HSIOM_POS, mSPI_SS3_M_HSIOM_SEL_GPIO);
 421:Generated_Source\PSoC4/mSPI_SPI.c **** #endif /* (mSPI_SPI_MASTER_SS3_PIN) */
 422:Generated_Source\PSoC4/mSPI_SPI.c **** 
 423:Generated_Source\PSoC4/mSPI_SPI.c ****     #if (mSPI_SPI_MASTER_CONST)
 424:Generated_Source\PSoC4/mSPI_SPI.c ****         /* Store TX interrupt sources (exclude level triggered). */
 425:Generated_Source\PSoC4/mSPI_SPI.c ****         mSPI_IntrTxMask = LO16(mSPI_GetTxInterruptMode() & mSPI_INTR_SPIM_TX_RESTORE);
 426:Generated_Source\PSoC4/mSPI_SPI.c ****     #else
 427:Generated_Source\PSoC4/mSPI_SPI.c ****         /* Store TX interrupt sources (exclude level triggered). */
 428:Generated_Source\PSoC4/mSPI_SPI.c ****         mSPI_IntrTxMask = LO16(mSPI_GetTxInterruptMode() & mSPI_INTR_SPIS_TX_RESTORE);
 429:Generated_Source\PSoC4/mSPI_SPI.c ****     #endif /* (mSPI_SPI_MASTER_CONST) */
 430:Generated_Source\PSoC4/mSPI_SPI.c **** 
 431:Generated_Source\PSoC4/mSPI_SPI.c **** #endif /* (mSPI_SCB_MODE_UNCONFIG_CONST_CFG) */
 432:Generated_Source\PSoC4/mSPI_SPI.c **** }
  92              		.loc 1 432 0
  93              		@ sp needed
 380:Generated_Source\PSoC4/mSPI_SPI.c **** 
  94              		.loc 1 380 0
  95 000a C008     		lsrs	r0, r0, #3
  96 000c 2840     		ands	r0, r5
  97 000e FFF7FEFF 		bl	mSPI_sclk_m_Write
  98              	.LVL0:
 389:Generated_Source\PSoC4/mSPI_SPI.c **** 
  99              		.loc 1 389 0
 100 0012 2800     		movs	r0, r5
 383:Generated_Source\PSoC4/mSPI_SPI.c ****                                    mSPI_SCLK_M_HSIOM_POS, mSPI_SCLK_M_HSIOM_SEL_GPIO);
 101              		.loc 1 383 0
 102 0014 3268     		ldr	r2, [r6]
 103 0016 0B4B     		ldr	r3, .L5+8
 104 0018 1340     		ands	r3, r2
 105 001a 3360     		str	r3, [r6]
 389:Generated_Source\PSoC4/mSPI_SPI.c **** 
 106              		.loc 1 389 0
 107 001c 2368     		ldr	r3, [r4]
 108 001e 1B0A     		lsrs	r3, r3, #8
 109 0020 9843     		bics	r0, r3
 110 0022 FFF7FEFF 		bl	mSPI_ss0_m_Write
 111              	.LVL1:
 392:Generated_Source\PSoC4/mSPI_SPI.c ****                                    mSPI_SS0_M_HSIOM_POS, mSPI_SS0_M_HSIOM_SEL_GPIO);
 112              		.loc 1 392 0
 113 0026 3268     		ldr	r2, [r6]
 114 0028 074B     		ldr	r3, .L5+12
 115 002a 1340     		ands	r3, r2
 116 002c 3360     		str	r3, [r6]
 425:Generated_Source\PSoC4/mSPI_SPI.c ****     #else
 117              		.loc 1 425 0
 118 002e 074B     		ldr	r3, .L5+16
 119 0030 1A68     		ldr	r2, [r3]
 120 0032 2023     		movs	r3, #32
 121 0034 1340     		ands	r3, r2
 122 0036 064A     		ldr	r2, .L5+20
 123 0038 1380     		strh	r3, [r2]
 124              		.loc 1 432 0
 125 003a 70BD     		pop	{r4, r5, r6, pc}
 126              	.L6:
ARM GAS  C:\Users\PC\AppData\Local\Temp\ccHVpSuh.s 			page 11


 127              		.align	2
 128              	.L5:
 129 003c 20000940 		.word	1074331680
 130 0040 00020240 		.word	1073873408
 131 0044 FFF0FFFF 		.word	-3841
 132 0048 FF0FFFFF 		.word	-61441
 133 004c 880F0940 		.word	1074335624
 134 0050 00000000 		.word	mSPI_IntrTxMask
 135              		.cfi_endproc
 136              	.LFE3:
 137              		.size	mSPI_SpiStop, .-mSPI_SpiStop
 138              		.section	.text.mSPI_SpiSetActiveSlaveSelect,"ax",%progbits
 139              		.align	1
 140              		.global	mSPI_SpiSetActiveSlaveSelect
 141              		.code	16
 142              		.thumb_func
 143              		.type	mSPI_SpiSetActiveSlaveSelect, %function
 144              	mSPI_SpiSetActiveSlaveSelect:
 145              	.LFB4:
 433:Generated_Source\PSoC4/mSPI_SPI.c **** 
 434:Generated_Source\PSoC4/mSPI_SPI.c **** 
 435:Generated_Source\PSoC4/mSPI_SPI.c **** #if (mSPI_SPI_MASTER_CONST)
 436:Generated_Source\PSoC4/mSPI_SPI.c ****     /*******************************************************************************
 437:Generated_Source\PSoC4/mSPI_SPI.c ****     * Function Name: mSPI_SetActiveSlaveSelect
 438:Generated_Source\PSoC4/mSPI_SPI.c ****     ****************************************************************************//**
 439:Generated_Source\PSoC4/mSPI_SPI.c ****     *
 440:Generated_Source\PSoC4/mSPI_SPI.c ****     *  Selects one of the four slave select lines to be active during the transfer.
 441:Generated_Source\PSoC4/mSPI_SPI.c ****     *  After initialization the active slave select line is 0.
 442:Generated_Source\PSoC4/mSPI_SPI.c ****     *  The component should be in one of the following states to change the active
 443:Generated_Source\PSoC4/mSPI_SPI.c ****     *  slave select signal source correctly:
 444:Generated_Source\PSoC4/mSPI_SPI.c ****     *   - The component is disabled.
 445:Generated_Source\PSoC4/mSPI_SPI.c ****     *   - The component has completed transfer (TX FIFO is empty and the
 446:Generated_Source\PSoC4/mSPI_SPI.c ****     *     SCB_INTR_MASTER_SPI_DONE status is set).
 447:Generated_Source\PSoC4/mSPI_SPI.c ****     *
 448:Generated_Source\PSoC4/mSPI_SPI.c ****     *  This function does not check that these conditions are met.
 449:Generated_Source\PSoC4/mSPI_SPI.c ****     *  This function is only applicable to SPI Master mode of operation.
 450:Generated_Source\PSoC4/mSPI_SPI.c ****     *
 451:Generated_Source\PSoC4/mSPI_SPI.c ****     *  \param slaveSelect: slave select line which will be active while the following
 452:Generated_Source\PSoC4/mSPI_SPI.c ****     *   transfer.
 453:Generated_Source\PSoC4/mSPI_SPI.c ****     *   - mSPI_SPI_SLAVE_SELECT0 - Slave select 0.
 454:Generated_Source\PSoC4/mSPI_SPI.c ****     *   - mSPI_SPI_SLAVE_SELECT1 - Slave select 1.
 455:Generated_Source\PSoC4/mSPI_SPI.c ****     *   - mSPI_SPI_SLAVE_SELECT2 - Slave select 2.
 456:Generated_Source\PSoC4/mSPI_SPI.c ****     *   - mSPI_SPI_SLAVE_SELECT3 - Slave select 3.
 457:Generated_Source\PSoC4/mSPI_SPI.c ****     *
 458:Generated_Source\PSoC4/mSPI_SPI.c ****     *******************************************************************************/
 459:Generated_Source\PSoC4/mSPI_SPI.c ****     void mSPI_SpiSetActiveSlaveSelect(uint32 slaveSelect)
 460:Generated_Source\PSoC4/mSPI_SPI.c ****     {
 146              		.loc 1 460 0
 147              		.cfi_startproc
 148              		@ args = 0, pretend = 0, frame = 0
 149              		@ frame_needed = 0, uses_anonymous_args = 0
 150              		@ link register save eliminated.
 151              	.LVL2:
 461:Generated_Source\PSoC4/mSPI_SPI.c ****         uint32 spiCtrl;
 462:Generated_Source\PSoC4/mSPI_SPI.c **** 
 463:Generated_Source\PSoC4/mSPI_SPI.c ****         spiCtrl = mSPI_SPI_CTRL_REG;
 152              		.loc 1 463 0
ARM GAS  C:\Users\PC\AppData\Local\Temp\ccHVpSuh.s 			page 12


 153 0000 0549     		ldr	r1, .L8
 464:Generated_Source\PSoC4/mSPI_SPI.c **** 
 465:Generated_Source\PSoC4/mSPI_SPI.c ****         spiCtrl &= (uint32) ~mSPI_SPI_CTRL_SLAVE_SELECT_MASK;
 154              		.loc 1 465 0
 155 0002 064B     		ldr	r3, .L8+4
 463:Generated_Source\PSoC4/mSPI_SPI.c **** 
 156              		.loc 1 463 0
 157 0004 0A68     		ldr	r2, [r1]
 158              	.LVL3:
 466:Generated_Source\PSoC4/mSPI_SPI.c ****         spiCtrl |= (uint32)  mSPI_GET_SPI_CTRL_SS(slaveSelect);
 159              		.loc 1 466 0
 160 0006 8006     		lsls	r0, r0, #26
 161              	.LVL4:
 465:Generated_Source\PSoC4/mSPI_SPI.c ****         spiCtrl |= (uint32)  mSPI_GET_SPI_CTRL_SS(slaveSelect);
 162              		.loc 1 465 0
 163 0008 1340     		ands	r3, r2
 164              	.LVL5:
 165              		.loc 1 466 0
 166 000a C022     		movs	r2, #192
 167 000c 1205     		lsls	r2, r2, #20
 168 000e 1040     		ands	r0, r2
 169 0010 1843     		orrs	r0, r3
 170              	.LVL6:
 467:Generated_Source\PSoC4/mSPI_SPI.c **** 
 468:Generated_Source\PSoC4/mSPI_SPI.c ****         mSPI_SPI_CTRL_REG = spiCtrl;
 171              		.loc 1 468 0
 172 0012 0860     		str	r0, [r1]
 469:Generated_Source\PSoC4/mSPI_SPI.c ****     }
 173              		.loc 1 469 0
 174              		@ sp needed
 175 0014 7047     		bx	lr
 176              	.L9:
 177 0016 C046     		.align	2
 178              	.L8:
 179 0018 20000940 		.word	1074331680
 180 001c FFFFFFF3 		.word	-201326593
 181              		.cfi_endproc
 182              	.LFE4:
 183              		.size	mSPI_SpiSetActiveSlaveSelect, .-mSPI_SpiSetActiveSlaveSelect
 184              		.section	.text.mSPI_SpiInit,"ax",%progbits
 185              		.align	1
 186              		.global	mSPI_SpiInit
 187              		.code	16
 188              		.thumb_func
 189              		.type	mSPI_SpiInit, %function
 190              	mSPI_SpiInit:
 191              	.LFB1:
 173:Generated_Source\PSoC4/mSPI_SPI.c ****         /* Configure SPI interface */
 192              		.loc 1 173 0
 193              		.cfi_startproc
 194              		@ args = 0, pretend = 0, frame = 0
 195              		@ frame_needed = 0, uses_anonymous_args = 0
 180:Generated_Source\PSoC4/mSPI_SPI.c **** 
 196              		.loc 1 180 0
 197 0000 0721     		movs	r1, #7
 184:Generated_Source\PSoC4/mSPI_SPI.c **** 
 198              		.loc 1 184 0
ARM GAS  C:\Users\PC\AppData\Local\Temp\ccHVpSuh.s 			page 13


 199 0002 0020     		movs	r0, #0
 175:Generated_Source\PSoC4/mSPI_SPI.c ****         mSPI_SPI_CTRL_REG = mSPI_SPI_DEFAULT_SPI_CTRL;
 200              		.loc 1 175 0
 201 0004 104A     		ldr	r2, .L11
 202 0006 114B     		ldr	r3, .L11+4
 173:Generated_Source\PSoC4/mSPI_SPI.c ****         /* Configure SPI interface */
 203              		.loc 1 173 0
 204 0008 10B5     		push	{r4, lr}
 205              		.cfi_def_cfa_offset 8
 206              		.cfi_offset 4, -8
 207              		.cfi_offset 14, -4
 175:Generated_Source\PSoC4/mSPI_SPI.c ****         mSPI_SPI_CTRL_REG = mSPI_SPI_DEFAULT_SPI_CTRL;
 208              		.loc 1 175 0
 209 000a 1A60     		str	r2, [r3]
 176:Generated_Source\PSoC4/mSPI_SPI.c **** 
 210              		.loc 1 176 0
 211 000c 104A     		ldr	r2, .L11+8
 212 000e 114B     		ldr	r3, .L11+12
 219:Generated_Source\PSoC4/mSPI_SPI.c **** #endif /* (mSPI_SCB_MODE_UNCONFIG_CONST_CFG) */
 213              		.loc 1 219 0
 214              		@ sp needed
 176:Generated_Source\PSoC4/mSPI_SPI.c **** 
 215              		.loc 1 176 0
 216 0010 1A60     		str	r2, [r3]
 179:Generated_Source\PSoC4/mSPI_SPI.c ****         mSPI_RX_FIFO_CTRL_REG = mSPI_SPI_DEFAULT_RX_FIFO_CTRL;
 217              		.loc 1 179 0
 218 0012 114B     		ldr	r3, .L11+16
 219 0014 114A     		ldr	r2, .L11+20
 220 0016 1360     		str	r3, [r2]
 180:Generated_Source\PSoC4/mSPI_SPI.c **** 
 221              		.loc 1 180 0
 222 0018 114A     		ldr	r2, .L11+24
 223 001a 1160     		str	r1, [r2]
 183:Generated_Source\PSoC4/mSPI_SPI.c ****         mSPI_TX_FIFO_CTRL_REG = mSPI_SPI_DEFAULT_TX_FIFO_CTRL;
 224              		.loc 1 183 0
 225 001c 114A     		ldr	r2, .L11+28
 226 001e 1360     		str	r3, [r2]
 184:Generated_Source\PSoC4/mSPI_SPI.c **** 
 227              		.loc 1 184 0
 228 0020 114B     		ldr	r3, .L11+32
 229 0022 1860     		str	r0, [r3]
 194:Generated_Source\PSoC4/mSPI_SPI.c ****         mSPI_INTR_SPI_EC_MASK_REG = mSPI_SPI_DEFAULT_INTR_SPI_EC_MASK;
 230              		.loc 1 194 0
 231 0024 114B     		ldr	r3, .L11+36
 232 0026 1860     		str	r0, [r3]
 195:Generated_Source\PSoC4/mSPI_SPI.c ****         mSPI_INTR_SLAVE_MASK_REG  = mSPI_SPI_DEFAULT_INTR_SLAVE_MASK;
 233              		.loc 1 195 0
 234 0028 114B     		ldr	r3, .L11+40
 235 002a 1860     		str	r0, [r3]
 196:Generated_Source\PSoC4/mSPI_SPI.c ****         mSPI_INTR_MASTER_MASK_REG = mSPI_SPI_DEFAULT_INTR_MASTER_MASK;
 236              		.loc 1 196 0
 237 002c 114B     		ldr	r3, .L11+44
 238 002e 1860     		str	r0, [r3]
 197:Generated_Source\PSoC4/mSPI_SPI.c ****         mSPI_INTR_RX_MASK_REG     = mSPI_SPI_DEFAULT_INTR_RX_MASK;
 239              		.loc 1 197 0
 240 0030 114B     		ldr	r3, .L11+48
 241 0032 1860     		str	r0, [r3]
ARM GAS  C:\Users\PC\AppData\Local\Temp\ccHVpSuh.s 			page 14


 198:Generated_Source\PSoC4/mSPI_SPI.c ****         mSPI_INTR_TX_MASK_REG     = mSPI_SPI_DEFAULT_INTR_TX_MASK;
 242              		.loc 1 198 0
 243 0034 114B     		ldr	r3, .L11+52
 244 0036 1860     		str	r0, [r3]
 199:Generated_Source\PSoC4/mSPI_SPI.c **** 
 245              		.loc 1 199 0
 246 0038 114B     		ldr	r3, .L11+56
 247 003a 1860     		str	r0, [r3]
 202:Generated_Source\PSoC4/mSPI_SPI.c ****             
 248              		.loc 1 202 0
 249 003c 1A68     		ldr	r2, [r3]
 250 003e 114B     		ldr	r3, .L11+60
 251 0040 1A80     		strh	r2, [r3]
 206:Generated_Source\PSoC4/mSPI_SPI.c ****     #endif /* (mSPI_SPI_MASTER_CONST) */
 252              		.loc 1 206 0
 253 0042 FFF7FEFF 		bl	mSPI_SpiSetActiveSlaveSelect
 254              	.LVL7:
 219:Generated_Source\PSoC4/mSPI_SPI.c **** #endif /* (mSPI_SCB_MODE_UNCONFIG_CONST_CFG) */
 255              		.loc 1 219 0
 256 0046 10BD     		pop	{r4, pc}
 257              	.L12:
 258              		.align	2
 259              	.L11:
 260 0048 0F000001 		.word	16777231
 261 004c 00000940 		.word	1074331648
 262 0050 0D000080 		.word	-2147483635
 263 0054 20000940 		.word	1074331680
 264 0058 07010080 		.word	-2147483385
 265 005c 00030940 		.word	1074332416
 266 0060 04030940 		.word	1074332420
 267 0064 00020940 		.word	1074332160
 268 0068 04020940 		.word	1074332164
 269 006c 880E0940 		.word	1074335368
 270 0070 C80E0940 		.word	1074335432
 271 0074 480F0940 		.word	1074335560
 272 0078 080F0940 		.word	1074335496
 273 007c C80F0940 		.word	1074335688
 274 0080 880F0940 		.word	1074335624
 275 0084 00000000 		.word	mSPI_IntrTxMask
 276              		.cfi_endproc
 277              	.LFE1:
 278              		.size	mSPI_SpiInit, .-mSPI_SpiInit
 279              		.section	.text.mSPI_SpiSetSlaveSelectPolarity,"ax",%progbits
 280              		.align	1
 281              		.global	mSPI_SpiSetSlaveSelectPolarity
 282              		.code	16
 283              		.thumb_func
 284              		.type	mSPI_SpiSetSlaveSelectPolarity, %function
 285              	mSPI_SpiSetSlaveSelectPolarity:
 286              	.LFB5:
 470:Generated_Source\PSoC4/mSPI_SPI.c **** #endif /* (mSPI_SPI_MASTER_CONST) */
 471:Generated_Source\PSoC4/mSPI_SPI.c **** 
 472:Generated_Source\PSoC4/mSPI_SPI.c **** 
 473:Generated_Source\PSoC4/mSPI_SPI.c **** #if !(mSPI_CY_SCBIP_V0 || mSPI_CY_SCBIP_V1)
 474:Generated_Source\PSoC4/mSPI_SPI.c ****     /*******************************************************************************
 475:Generated_Source\PSoC4/mSPI_SPI.c ****     * Function Name: mSPI_SpiSetSlaveSelectPolarity
 476:Generated_Source\PSoC4/mSPI_SPI.c ****     ****************************************************************************//**
ARM GAS  C:\Users\PC\AppData\Local\Temp\ccHVpSuh.s 			page 15


 477:Generated_Source\PSoC4/mSPI_SPI.c ****     *
 478:Generated_Source\PSoC4/mSPI_SPI.c ****     *  Sets active polarity for slave select line.
 479:Generated_Source\PSoC4/mSPI_SPI.c ****     *  The component should be in one of the following states to change the active
 480:Generated_Source\PSoC4/mSPI_SPI.c ****     *  slave select signal source correctly:
 481:Generated_Source\PSoC4/mSPI_SPI.c ****     *   - The component is disabled.
 482:Generated_Source\PSoC4/mSPI_SPI.c ****     *   - The component has completed transfer.
 483:Generated_Source\PSoC4/mSPI_SPI.c ****     *  
 484:Generated_Source\PSoC4/mSPI_SPI.c ****     *  This function does not check that these conditions are met.
 485:Generated_Source\PSoC4/mSPI_SPI.c ****     *
 486:Generated_Source\PSoC4/mSPI_SPI.c ****     *  \param slaveSelect: slave select line to change active polarity.
 487:Generated_Source\PSoC4/mSPI_SPI.c ****     *   - mSPI_SPI_SLAVE_SELECT0 - Slave select 0.
 488:Generated_Source\PSoC4/mSPI_SPI.c ****     *   - mSPI_SPI_SLAVE_SELECT1 - Slave select 1.
 489:Generated_Source\PSoC4/mSPI_SPI.c ****     *   - mSPI_SPI_SLAVE_SELECT2 - Slave select 2.
 490:Generated_Source\PSoC4/mSPI_SPI.c ****     *   - mSPI_SPI_SLAVE_SELECT3 - Slave select 3.
 491:Generated_Source\PSoC4/mSPI_SPI.c ****     *
 492:Generated_Source\PSoC4/mSPI_SPI.c ****     *  \param polarity: active polarity of slave select line.
 493:Generated_Source\PSoC4/mSPI_SPI.c ****     *   - mSPI_SPI_SS_ACTIVE_LOW  - Slave select is active low.
 494:Generated_Source\PSoC4/mSPI_SPI.c ****     *   - mSPI_SPI_SS_ACTIVE_HIGH - Slave select is active high.
 495:Generated_Source\PSoC4/mSPI_SPI.c ****     *
 496:Generated_Source\PSoC4/mSPI_SPI.c ****     *******************************************************************************/
 497:Generated_Source\PSoC4/mSPI_SPI.c ****     void mSPI_SpiSetSlaveSelectPolarity(uint32 slaveSelect, uint32 polarity)
 498:Generated_Source\PSoC4/mSPI_SPI.c ****     {
 287              		.loc 1 498 0
 288              		.cfi_startproc
 289              		@ args = 0, pretend = 0, frame = 0
 290              		@ frame_needed = 0, uses_anonymous_args = 0
 291              		@ link register save eliminated.
 292              	.LVL8:
 499:Generated_Source\PSoC4/mSPI_SPI.c ****         uint32 ssPolarity;
 500:Generated_Source\PSoC4/mSPI_SPI.c **** 
 501:Generated_Source\PSoC4/mSPI_SPI.c ****         /* Get position of the polarity bit associated with slave select line */
 502:Generated_Source\PSoC4/mSPI_SPI.c ****         ssPolarity = mSPI_GET_SPI_CTRL_SSEL_POLARITY((uint32) 1u << slaveSelect);
 293              		.loc 1 502 0
 294 0000 8022     		movs	r2, #128
 295 0002 F023     		movs	r3, #240
 296 0004 5200     		lsls	r2, r2, #1
 297 0006 8240     		lsls	r2, r2, r0
 298 0008 1B01     		lsls	r3, r3, #4
 299 000a 1A40     		ands	r2, r3
 300              	.LVL9:
 301 000c 054B     		ldr	r3, .L18
 503:Generated_Source\PSoC4/mSPI_SPI.c **** 
 504:Generated_Source\PSoC4/mSPI_SPI.c ****         if (0u != polarity)
 302              		.loc 1 504 0
 303 000e 0029     		cmp	r1, #0
 304 0010 02D0     		beq	.L14
 505:Generated_Source\PSoC4/mSPI_SPI.c ****         {
 506:Generated_Source\PSoC4/mSPI_SPI.c ****             mSPI_SPI_CTRL_REG |= (uint32)  ssPolarity;
 305              		.loc 1 506 0
 306 0012 1968     		ldr	r1, [r3]
 307              	.LVL10:
 308 0014 0A43     		orrs	r2, r1
 309              	.LVL11:
 310 0016 02E0     		b	.L16
 311              	.LVL12:
 312              	.L14:
 507:Generated_Source\PSoC4/mSPI_SPI.c ****         }
ARM GAS  C:\Users\PC\AppData\Local\Temp\ccHVpSuh.s 			page 16


 508:Generated_Source\PSoC4/mSPI_SPI.c ****         else
 509:Generated_Source\PSoC4/mSPI_SPI.c ****         {
 510:Generated_Source\PSoC4/mSPI_SPI.c ****             mSPI_SPI_CTRL_REG &= (uint32) ~ssPolarity;
 313              		.loc 1 510 0
 314 0018 1968     		ldr	r1, [r3]
 315              	.LVL13:
 316 001a 9143     		bics	r1, r2
 317 001c 0A00     		movs	r2, r1
 318              	.LVL14:
 319              	.L16:
 320 001e 1A60     		str	r2, [r3]
 511:Generated_Source\PSoC4/mSPI_SPI.c ****         }
 512:Generated_Source\PSoC4/mSPI_SPI.c ****     }
 321              		.loc 1 512 0
 322              		@ sp needed
 323 0020 7047     		bx	lr
 324              	.L19:
 325 0022 C046     		.align	2
 326              	.L18:
 327 0024 20000940 		.word	1074331680
 328              		.cfi_endproc
 329              	.LFE5:
 330              		.size	mSPI_SpiSetSlaveSelectPolarity, .-mSPI_SpiSetSlaveSelectPolarity
 331              		.text
 332              	.Letext0:
 333              		.file 2 "Generated_Source\\PSoC4/cytypes.h"
 334              		.file 3 "Generated_Source\\PSoC4\\mSPI_sclk_m.h"
 335              		.file 4 "Generated_Source\\PSoC4\\mSPI_ss0_m.h"
 336              		.file 5 "Generated_Source\\PSoC4\\mSPI_PVT.h"