ARM GAS  C:\Users\PC\AppData\Local\Temp\cclaNwN1.s 			page 1


   1              		.syntax unified
   2              		.cpu cortex-m0plus
   3              		.fpu softvfp
   4              		.eabi_attribute 20, 1
   5              		.eabi_attribute 21, 1
   6              		.eabi_attribute 23, 3
   7              		.eabi_attribute 24, 1
   8              		.eabi_attribute 25, 1
   9              		.eabi_attribute 26, 1
  10              		.eabi_attribute 30, 4
  11              		.eabi_attribute 34, 0
  12              		.eabi_attribute 18, 4
  13              		.thumb
  14              		.syntax unified
  15              		.file	"mSPI.c"
  16              		.text
  17              	.Ltext0:
  18              		.cfi_sections	.debug_frame
  19              		.section	.text.mSPI_Init,"ax",%progbits
  20              		.align	1
  21              		.global	mSPI_Init
  22              		.code	16
  23              		.thumb_func
  24              		.type	mSPI_Init, %function
  25              	mSPI_Init:
  26              	.LFB1:
  27              		.file 1 "Generated_Source\\PSoC4\\mSPI.c"
   1:Generated_Source\PSoC4/mSPI.c **** /***************************************************************************//**
   2:Generated_Source\PSoC4/mSPI.c **** * \file mSPI.c
   3:Generated_Source\PSoC4/mSPI.c **** * \version 4.0
   4:Generated_Source\PSoC4/mSPI.c **** *
   5:Generated_Source\PSoC4/mSPI.c **** * \brief
   6:Generated_Source\PSoC4/mSPI.c **** *  This file provides the source code to the API for the SCB Component.
   7:Generated_Source\PSoC4/mSPI.c **** *
   8:Generated_Source\PSoC4/mSPI.c **** * Note:
   9:Generated_Source\PSoC4/mSPI.c **** *
  10:Generated_Source\PSoC4/mSPI.c **** *******************************************************************************
  11:Generated_Source\PSoC4/mSPI.c **** * \copyright
  12:Generated_Source\PSoC4/mSPI.c **** * Copyright 2013-2017, Cypress Semiconductor Corporation.  All rights reserved.
  13:Generated_Source\PSoC4/mSPI.c **** * You may use this file only in accordance with the license, terms, conditions,
  14:Generated_Source\PSoC4/mSPI.c **** * disclaimers, and limitations in the end user license agreement accompanying
  15:Generated_Source\PSoC4/mSPI.c **** * the software package with which this file was provided.
  16:Generated_Source\PSoC4/mSPI.c **** *******************************************************************************/
  17:Generated_Source\PSoC4/mSPI.c **** 
  18:Generated_Source\PSoC4/mSPI.c **** #include "mSPI_PVT.h"
  19:Generated_Source\PSoC4/mSPI.c **** 
  20:Generated_Source\PSoC4/mSPI.c **** #if (mSPI_SCB_MODE_I2C_INC)
  21:Generated_Source\PSoC4/mSPI.c ****     #include "mSPI_I2C_PVT.h"
  22:Generated_Source\PSoC4/mSPI.c **** #endif /* (mSPI_SCB_MODE_I2C_INC) */
  23:Generated_Source\PSoC4/mSPI.c **** 
  24:Generated_Source\PSoC4/mSPI.c **** #if (mSPI_SCB_MODE_EZI2C_INC)
  25:Generated_Source\PSoC4/mSPI.c ****     #include "mSPI_EZI2C_PVT.h"
  26:Generated_Source\PSoC4/mSPI.c **** #endif /* (mSPI_SCB_MODE_EZI2C_INC) */
  27:Generated_Source\PSoC4/mSPI.c **** 
  28:Generated_Source\PSoC4/mSPI.c **** #if (mSPI_SCB_MODE_SPI_INC || mSPI_SCB_MODE_UART_INC)
  29:Generated_Source\PSoC4/mSPI.c ****     #include "mSPI_SPI_UART_PVT.h"
  30:Generated_Source\PSoC4/mSPI.c **** #endif /* (mSPI_SCB_MODE_SPI_INC || mSPI_SCB_MODE_UART_INC) */
ARM GAS  C:\Users\PC\AppData\Local\Temp\cclaNwN1.s 			page 2


  31:Generated_Source\PSoC4/mSPI.c **** 
  32:Generated_Source\PSoC4/mSPI.c **** 
  33:Generated_Source\PSoC4/mSPI.c **** /***************************************
  34:Generated_Source\PSoC4/mSPI.c **** *    Run Time Configuration Vars
  35:Generated_Source\PSoC4/mSPI.c **** ***************************************/
  36:Generated_Source\PSoC4/mSPI.c **** 
  37:Generated_Source\PSoC4/mSPI.c **** /* Stores internal component configuration for Unconfigured mode */
  38:Generated_Source\PSoC4/mSPI.c **** #if (mSPI_SCB_MODE_UNCONFIG_CONST_CFG)
  39:Generated_Source\PSoC4/mSPI.c ****     /* Common configuration variables */
  40:Generated_Source\PSoC4/mSPI.c ****     uint8 mSPI_scbMode = mSPI_SCB_MODE_UNCONFIG;
  41:Generated_Source\PSoC4/mSPI.c ****     uint8 mSPI_scbEnableWake;
  42:Generated_Source\PSoC4/mSPI.c ****     uint8 mSPI_scbEnableIntr;
  43:Generated_Source\PSoC4/mSPI.c **** 
  44:Generated_Source\PSoC4/mSPI.c ****     /* I2C configuration variables */
  45:Generated_Source\PSoC4/mSPI.c ****     uint8 mSPI_mode;
  46:Generated_Source\PSoC4/mSPI.c ****     uint8 mSPI_acceptAddr;
  47:Generated_Source\PSoC4/mSPI.c **** 
  48:Generated_Source\PSoC4/mSPI.c ****     /* SPI/UART configuration variables */
  49:Generated_Source\PSoC4/mSPI.c ****     volatile uint8 * mSPI_rxBuffer;
  50:Generated_Source\PSoC4/mSPI.c ****     uint8  mSPI_rxDataBits;
  51:Generated_Source\PSoC4/mSPI.c ****     uint32 mSPI_rxBufferSize;
  52:Generated_Source\PSoC4/mSPI.c **** 
  53:Generated_Source\PSoC4/mSPI.c ****     volatile uint8 * mSPI_txBuffer;
  54:Generated_Source\PSoC4/mSPI.c ****     uint8  mSPI_txDataBits;
  55:Generated_Source\PSoC4/mSPI.c ****     uint32 mSPI_txBufferSize;
  56:Generated_Source\PSoC4/mSPI.c **** 
  57:Generated_Source\PSoC4/mSPI.c ****     /* EZI2C configuration variables */
  58:Generated_Source\PSoC4/mSPI.c ****     uint8 mSPI_numberOfAddr;
  59:Generated_Source\PSoC4/mSPI.c ****     uint8 mSPI_subAddrSize;
  60:Generated_Source\PSoC4/mSPI.c **** #endif /* (mSPI_SCB_MODE_UNCONFIG_CONST_CFG) */
  61:Generated_Source\PSoC4/mSPI.c **** 
  62:Generated_Source\PSoC4/mSPI.c **** 
  63:Generated_Source\PSoC4/mSPI.c **** /***************************************
  64:Generated_Source\PSoC4/mSPI.c **** *     Common SCB Vars
  65:Generated_Source\PSoC4/mSPI.c **** ***************************************/
  66:Generated_Source\PSoC4/mSPI.c **** /**
  67:Generated_Source\PSoC4/mSPI.c **** * \addtogroup group_general
  68:Generated_Source\PSoC4/mSPI.c **** * \{
  69:Generated_Source\PSoC4/mSPI.c **** */
  70:Generated_Source\PSoC4/mSPI.c **** 
  71:Generated_Source\PSoC4/mSPI.c **** /** mSPI_initVar indicates whether the mSPI 
  72:Generated_Source\PSoC4/mSPI.c **** *  component has been initialized. The variable is initialized to 0 
  73:Generated_Source\PSoC4/mSPI.c **** *  and set to 1 the first time SCB_Start() is called. This allows 
  74:Generated_Source\PSoC4/mSPI.c **** *  the component to restart without reinitialization after the first 
  75:Generated_Source\PSoC4/mSPI.c **** *  call to the mSPI_Start() routine.
  76:Generated_Source\PSoC4/mSPI.c **** *
  77:Generated_Source\PSoC4/mSPI.c **** *  If re-initialization of the component is required, then the 
  78:Generated_Source\PSoC4/mSPI.c **** *  mSPI_Init() function can be called before the 
  79:Generated_Source\PSoC4/mSPI.c **** *  mSPI_Start() or mSPI_Enable() function.
  80:Generated_Source\PSoC4/mSPI.c **** */
  81:Generated_Source\PSoC4/mSPI.c **** uint8 mSPI_initVar = 0u;
  82:Generated_Source\PSoC4/mSPI.c **** 
  83:Generated_Source\PSoC4/mSPI.c **** 
  84:Generated_Source\PSoC4/mSPI.c **** #if (! (mSPI_SCB_MODE_I2C_CONST_CFG || \
  85:Generated_Source\PSoC4/mSPI.c ****         mSPI_SCB_MODE_EZI2C_CONST_CFG))
  86:Generated_Source\PSoC4/mSPI.c ****     /** This global variable stores TX interrupt sources after 
  87:Generated_Source\PSoC4/mSPI.c ****     * mSPI_Stop() is called. Only these TX interrupt sources 
ARM GAS  C:\Users\PC\AppData\Local\Temp\cclaNwN1.s 			page 3


  88:Generated_Source\PSoC4/mSPI.c ****     * will be restored on a subsequent mSPI_Enable() call.
  89:Generated_Source\PSoC4/mSPI.c ****     */
  90:Generated_Source\PSoC4/mSPI.c ****     uint16 mSPI_IntrTxMask = 0u;
  91:Generated_Source\PSoC4/mSPI.c **** #endif /* (! (mSPI_SCB_MODE_I2C_CONST_CFG || \
  92:Generated_Source\PSoC4/mSPI.c ****               mSPI_SCB_MODE_EZI2C_CONST_CFG)) */
  93:Generated_Source\PSoC4/mSPI.c **** /** \} globals */
  94:Generated_Source\PSoC4/mSPI.c **** 
  95:Generated_Source\PSoC4/mSPI.c **** #if (mSPI_SCB_IRQ_INTERNAL)
  96:Generated_Source\PSoC4/mSPI.c **** #if !defined (CY_REMOVE_mSPI_CUSTOM_INTR_HANDLER)
  97:Generated_Source\PSoC4/mSPI.c ****     void (*mSPI_customIntrHandler)(void) = NULL;
  98:Generated_Source\PSoC4/mSPI.c **** #endif /* !defined (CY_REMOVE_mSPI_CUSTOM_INTR_HANDLER) */
  99:Generated_Source\PSoC4/mSPI.c **** #endif /* (mSPI_SCB_IRQ_INTERNAL) */
 100:Generated_Source\PSoC4/mSPI.c **** 
 101:Generated_Source\PSoC4/mSPI.c **** 
 102:Generated_Source\PSoC4/mSPI.c **** /***************************************
 103:Generated_Source\PSoC4/mSPI.c **** *    Private Function Prototypes
 104:Generated_Source\PSoC4/mSPI.c **** ***************************************/
 105:Generated_Source\PSoC4/mSPI.c **** 
 106:Generated_Source\PSoC4/mSPI.c **** static void mSPI_ScbEnableIntr(void);
 107:Generated_Source\PSoC4/mSPI.c **** static void mSPI_ScbModeStop(void);
 108:Generated_Source\PSoC4/mSPI.c **** static void mSPI_ScbModePostEnable(void);
 109:Generated_Source\PSoC4/mSPI.c **** 
 110:Generated_Source\PSoC4/mSPI.c **** 
 111:Generated_Source\PSoC4/mSPI.c **** /*******************************************************************************
 112:Generated_Source\PSoC4/mSPI.c **** * Function Name: mSPI_Init
 113:Generated_Source\PSoC4/mSPI.c **** ****************************************************************************//**
 114:Generated_Source\PSoC4/mSPI.c **** *
 115:Generated_Source\PSoC4/mSPI.c **** *  Initializes the mSPI component to operate in one of the selected
 116:Generated_Source\PSoC4/mSPI.c **** *  configurations: I2C, SPI, UART or EZI2C.
 117:Generated_Source\PSoC4/mSPI.c **** *  When the configuration is set to "Unconfigured SCB", this function does
 118:Generated_Source\PSoC4/mSPI.c **** *  not do any initialization. Use mode-specific initialization APIs instead:
 119:Generated_Source\PSoC4/mSPI.c **** *  mSPI_I2CInit, mSPI_SpiInit, 
 120:Generated_Source\PSoC4/mSPI.c **** *  mSPI_UartInit or mSPI_EzI2CInit.
 121:Generated_Source\PSoC4/mSPI.c **** *
 122:Generated_Source\PSoC4/mSPI.c **** *******************************************************************************/
 123:Generated_Source\PSoC4/mSPI.c **** void mSPI_Init(void)
 124:Generated_Source\PSoC4/mSPI.c **** {
  28              		.loc 1 124 0
  29              		.cfi_startproc
  30              		@ args = 0, pretend = 0, frame = 0
  31              		@ frame_needed = 0, uses_anonymous_args = 0
  32 0000 10B5     		push	{r4, lr}
  33              		.cfi_def_cfa_offset 8
  34              		.cfi_offset 4, -8
  35              		.cfi_offset 14, -4
 125:Generated_Source\PSoC4/mSPI.c **** #if (mSPI_SCB_MODE_UNCONFIG_CONST_CFG)
 126:Generated_Source\PSoC4/mSPI.c ****     if (mSPI_SCB_MODE_UNCONFIG_RUNTM_CFG)
 127:Generated_Source\PSoC4/mSPI.c ****     {
 128:Generated_Source\PSoC4/mSPI.c ****         mSPI_initVar = 0u;
 129:Generated_Source\PSoC4/mSPI.c ****     }
 130:Generated_Source\PSoC4/mSPI.c ****     else
 131:Generated_Source\PSoC4/mSPI.c ****     {
 132:Generated_Source\PSoC4/mSPI.c ****         /* Initialization was done before this function call */
 133:Generated_Source\PSoC4/mSPI.c ****     }
 134:Generated_Source\PSoC4/mSPI.c **** 
 135:Generated_Source\PSoC4/mSPI.c **** #elif (mSPI_SCB_MODE_I2C_CONST_CFG)
 136:Generated_Source\PSoC4/mSPI.c ****     mSPI_I2CInit();
ARM GAS  C:\Users\PC\AppData\Local\Temp\cclaNwN1.s 			page 4


 137:Generated_Source\PSoC4/mSPI.c **** 
 138:Generated_Source\PSoC4/mSPI.c **** #elif (mSPI_SCB_MODE_SPI_CONST_CFG)
 139:Generated_Source\PSoC4/mSPI.c ****     mSPI_SpiInit();
  36              		.loc 1 139 0
  37 0002 FFF7FEFF 		bl	mSPI_SpiInit
  38              	.LVL0:
 140:Generated_Source\PSoC4/mSPI.c **** 
 141:Generated_Source\PSoC4/mSPI.c **** #elif (mSPI_SCB_MODE_UART_CONST_CFG)
 142:Generated_Source\PSoC4/mSPI.c ****     mSPI_UartInit();
 143:Generated_Source\PSoC4/mSPI.c **** 
 144:Generated_Source\PSoC4/mSPI.c **** #elif (mSPI_SCB_MODE_EZI2C_CONST_CFG)
 145:Generated_Source\PSoC4/mSPI.c ****     mSPI_EzI2CInit();
 146:Generated_Source\PSoC4/mSPI.c **** 
 147:Generated_Source\PSoC4/mSPI.c **** #endif /* (mSPI_SCB_MODE_UNCONFIG_CONST_CFG) */
 148:Generated_Source\PSoC4/mSPI.c **** }
  39              		.loc 1 148 0
  40              		@ sp needed
  41 0006 10BD     		pop	{r4, pc}
  42              		.cfi_endproc
  43              	.LFE1:
  44              		.size	mSPI_Init, .-mSPI_Init
  45              		.section	.text.mSPI_Enable,"ax",%progbits
  46              		.align	1
  47              		.global	mSPI_Enable
  48              		.code	16
  49              		.thumb_func
  50              		.type	mSPI_Enable, %function
  51              	mSPI_Enable:
  52              	.LFB2:
 149:Generated_Source\PSoC4/mSPI.c **** 
 150:Generated_Source\PSoC4/mSPI.c **** 
 151:Generated_Source\PSoC4/mSPI.c **** /*******************************************************************************
 152:Generated_Source\PSoC4/mSPI.c **** * Function Name: mSPI_Enable
 153:Generated_Source\PSoC4/mSPI.c **** ****************************************************************************//**
 154:Generated_Source\PSoC4/mSPI.c **** *
 155:Generated_Source\PSoC4/mSPI.c **** *  Enables mSPI component operation: activates the hardware and 
 156:Generated_Source\PSoC4/mSPI.c **** *  internal interrupt. It also restores TX interrupt sources disabled after the 
 157:Generated_Source\PSoC4/mSPI.c **** *  mSPI_Stop() function was called (note that level-triggered TX 
 158:Generated_Source\PSoC4/mSPI.c **** *  interrupt sources remain disabled to not cause code lock-up).
 159:Generated_Source\PSoC4/mSPI.c **** *  For I2C and EZI2C modes the interrupt is internal and mandatory for 
 160:Generated_Source\PSoC4/mSPI.c **** *  operation. For SPI and UART modes the interrupt can be configured as none, 
 161:Generated_Source\PSoC4/mSPI.c **** *  internal or external.
 162:Generated_Source\PSoC4/mSPI.c **** *  The mSPI configuration should be not changed when the component
 163:Generated_Source\PSoC4/mSPI.c **** *  is enabled. Any configuration changes should be made after disabling the 
 164:Generated_Source\PSoC4/mSPI.c **** *  component.
 165:Generated_Source\PSoC4/mSPI.c **** *  When configuration is set to “Unconfigured mSPI”, the component 
 166:Generated_Source\PSoC4/mSPI.c **** *  must first be initialized to operate in one of the following configurations: 
 167:Generated_Source\PSoC4/mSPI.c **** *  I2C, SPI, UART or EZ I2C, using the mode-specific initialization API. 
 168:Generated_Source\PSoC4/mSPI.c **** *  Otherwise this function does not enable the component.
 169:Generated_Source\PSoC4/mSPI.c **** *
 170:Generated_Source\PSoC4/mSPI.c **** *******************************************************************************/
 171:Generated_Source\PSoC4/mSPI.c **** void mSPI_Enable(void)
 172:Generated_Source\PSoC4/mSPI.c **** {
  53              		.loc 1 172 0
  54              		.cfi_startproc
  55              		@ args = 0, pretend = 0, frame = 0
  56              		@ frame_needed = 0, uses_anonymous_args = 0
ARM GAS  C:\Users\PC\AppData\Local\Temp\cclaNwN1.s 			page 5


 173:Generated_Source\PSoC4/mSPI.c **** #if (mSPI_SCB_MODE_UNCONFIG_CONST_CFG)
 174:Generated_Source\PSoC4/mSPI.c ****     /* Enable SCB block, only if it is already configured */
 175:Generated_Source\PSoC4/mSPI.c ****     if (!mSPI_SCB_MODE_UNCONFIG_RUNTM_CFG)
 176:Generated_Source\PSoC4/mSPI.c ****     {
 177:Generated_Source\PSoC4/mSPI.c ****         mSPI_CTRL_REG |= mSPI_CTRL_ENABLED;
 178:Generated_Source\PSoC4/mSPI.c **** 
 179:Generated_Source\PSoC4/mSPI.c ****         mSPI_ScbEnableIntr();
 180:Generated_Source\PSoC4/mSPI.c **** 
 181:Generated_Source\PSoC4/mSPI.c ****         /* Call PostEnable function specific to current operation mode */
 182:Generated_Source\PSoC4/mSPI.c ****         mSPI_ScbModePostEnable();
 183:Generated_Source\PSoC4/mSPI.c ****     }
 184:Generated_Source\PSoC4/mSPI.c **** #else
 185:Generated_Source\PSoC4/mSPI.c ****     mSPI_CTRL_REG |= mSPI_CTRL_ENABLED;
  57              		.loc 1 185 0
  58 0000 8021     		movs	r1, #128
  59 0002 044A     		ldr	r2, .L3
 172:Generated_Source\PSoC4/mSPI.c **** #if (mSPI_SCB_MODE_UNCONFIG_CONST_CFG)
  60              		.loc 1 172 0
  61 0004 10B5     		push	{r4, lr}
  62              		.cfi_def_cfa_offset 8
  63              		.cfi_offset 4, -8
  64              		.cfi_offset 14, -4
  65              		.loc 1 185 0
  66 0006 1368     		ldr	r3, [r2]
  67 0008 0906     		lsls	r1, r1, #24
  68 000a 0B43     		orrs	r3, r1
  69 000c 1360     		str	r3, [r2]
  70              	.LBB10:
  71              	.LBB11:
 186:Generated_Source\PSoC4/mSPI.c **** 
 187:Generated_Source\PSoC4/mSPI.c ****     mSPI_ScbEnableIntr();
 188:Generated_Source\PSoC4/mSPI.c **** 
 189:Generated_Source\PSoC4/mSPI.c ****     /* Call PostEnable function specific to current operation mode */
 190:Generated_Source\PSoC4/mSPI.c ****     mSPI_ScbModePostEnable();
 191:Generated_Source\PSoC4/mSPI.c **** #endif /* (mSPI_SCB_MODE_UNCONFIG_CONST_CFG) */
 192:Generated_Source\PSoC4/mSPI.c **** }
 193:Generated_Source\PSoC4/mSPI.c **** 
 194:Generated_Source\PSoC4/mSPI.c **** 
 195:Generated_Source\PSoC4/mSPI.c **** /*******************************************************************************
 196:Generated_Source\PSoC4/mSPI.c **** * Function Name: mSPI_Start
 197:Generated_Source\PSoC4/mSPI.c **** ****************************************************************************//**
 198:Generated_Source\PSoC4/mSPI.c **** *
 199:Generated_Source\PSoC4/mSPI.c **** *  Invokes mSPI_Init() and mSPI_Enable().
 200:Generated_Source\PSoC4/mSPI.c **** *  After this function call, the component is enabled and ready for operation.
 201:Generated_Source\PSoC4/mSPI.c **** *  When configuration is set to "Unconfigured SCB", the component must first be
 202:Generated_Source\PSoC4/mSPI.c **** *  initialized to operate in one of the following configurations: I2C, SPI, UART
 203:Generated_Source\PSoC4/mSPI.c **** *  or EZI2C. Otherwise this function does not enable the component.
 204:Generated_Source\PSoC4/mSPI.c **** *
 205:Generated_Source\PSoC4/mSPI.c **** * \globalvars
 206:Generated_Source\PSoC4/mSPI.c **** *  mSPI_initVar - used to check initial configuration, modified
 207:Generated_Source\PSoC4/mSPI.c **** *  on first function call.
 208:Generated_Source\PSoC4/mSPI.c **** *
 209:Generated_Source\PSoC4/mSPI.c **** *******************************************************************************/
 210:Generated_Source\PSoC4/mSPI.c **** void mSPI_Start(void)
 211:Generated_Source\PSoC4/mSPI.c **** {
 212:Generated_Source\PSoC4/mSPI.c ****     if (0u == mSPI_initVar)
 213:Generated_Source\PSoC4/mSPI.c ****     {
ARM GAS  C:\Users\PC\AppData\Local\Temp\cclaNwN1.s 			page 6


 214:Generated_Source\PSoC4/mSPI.c ****         mSPI_Init();
 215:Generated_Source\PSoC4/mSPI.c ****         mSPI_initVar = 1u; /* Component was initialized */
 216:Generated_Source\PSoC4/mSPI.c ****     }
 217:Generated_Source\PSoC4/mSPI.c **** 
 218:Generated_Source\PSoC4/mSPI.c ****     mSPI_Enable();
 219:Generated_Source\PSoC4/mSPI.c **** }
 220:Generated_Source\PSoC4/mSPI.c **** 
 221:Generated_Source\PSoC4/mSPI.c **** 
 222:Generated_Source\PSoC4/mSPI.c **** /*******************************************************************************
 223:Generated_Source\PSoC4/mSPI.c **** * Function Name: mSPI_Stop
 224:Generated_Source\PSoC4/mSPI.c **** ****************************************************************************//**
 225:Generated_Source\PSoC4/mSPI.c **** *
 226:Generated_Source\PSoC4/mSPI.c **** *  Disables the mSPI component: disable the hardware and internal 
 227:Generated_Source\PSoC4/mSPI.c **** *  interrupt. It also disables all TX interrupt sources so as not to cause an 
 228:Generated_Source\PSoC4/mSPI.c **** *  unexpected interrupt trigger because after the component is enabled, the 
 229:Generated_Source\PSoC4/mSPI.c **** *  TX FIFO is empty.
 230:Generated_Source\PSoC4/mSPI.c **** *  Refer to the function mSPI_Enable() for the interrupt 
 231:Generated_Source\PSoC4/mSPI.c **** *  configuration details.
 232:Generated_Source\PSoC4/mSPI.c **** *  This function disables the SCB component without checking to see if 
 233:Generated_Source\PSoC4/mSPI.c **** *  communication is in progress. Before calling this function it may be 
 234:Generated_Source\PSoC4/mSPI.c **** *  necessary to check the status of communication to make sure communication 
 235:Generated_Source\PSoC4/mSPI.c **** *  is complete. If this is not done then communication could be stopped mid 
 236:Generated_Source\PSoC4/mSPI.c **** *  byte and corrupted data could result.
 237:Generated_Source\PSoC4/mSPI.c **** *
 238:Generated_Source\PSoC4/mSPI.c **** *******************************************************************************/
 239:Generated_Source\PSoC4/mSPI.c **** void mSPI_Stop(void)
 240:Generated_Source\PSoC4/mSPI.c **** {
 241:Generated_Source\PSoC4/mSPI.c **** #if (mSPI_SCB_IRQ_INTERNAL)
 242:Generated_Source\PSoC4/mSPI.c ****     mSPI_DisableInt();
 243:Generated_Source\PSoC4/mSPI.c **** #endif /* (mSPI_SCB_IRQ_INTERNAL) */
 244:Generated_Source\PSoC4/mSPI.c **** 
 245:Generated_Source\PSoC4/mSPI.c ****     /* Call Stop function specific to current operation mode */
 246:Generated_Source\PSoC4/mSPI.c ****     mSPI_ScbModeStop();
 247:Generated_Source\PSoC4/mSPI.c **** 
 248:Generated_Source\PSoC4/mSPI.c ****     /* Disable SCB IP */
 249:Generated_Source\PSoC4/mSPI.c ****     mSPI_CTRL_REG &= (uint32) ~mSPI_CTRL_ENABLED;
 250:Generated_Source\PSoC4/mSPI.c **** 
 251:Generated_Source\PSoC4/mSPI.c ****     /* Disable all TX interrupt sources so as not to cause an unexpected
 252:Generated_Source\PSoC4/mSPI.c ****     * interrupt trigger after the component will be enabled because the 
 253:Generated_Source\PSoC4/mSPI.c ****     * TX FIFO is empty.
 254:Generated_Source\PSoC4/mSPI.c ****     * For SCB IP v0, it is critical as it does not mask-out interrupt
 255:Generated_Source\PSoC4/mSPI.c ****     * sources when it is disabled. This can cause a code lock-up in the
 256:Generated_Source\PSoC4/mSPI.c ****     * interrupt handler because TX FIFO cannot be loaded after the block
 257:Generated_Source\PSoC4/mSPI.c ****     * is disabled.
 258:Generated_Source\PSoC4/mSPI.c ****     */
 259:Generated_Source\PSoC4/mSPI.c ****     mSPI_SetTxInterruptMode(mSPI_NO_INTR_SOURCES);
 260:Generated_Source\PSoC4/mSPI.c **** 
 261:Generated_Source\PSoC4/mSPI.c **** #if (mSPI_SCB_IRQ_INTERNAL)
 262:Generated_Source\PSoC4/mSPI.c ****     mSPI_ClearPendingInt();
 263:Generated_Source\PSoC4/mSPI.c **** #endif /* (mSPI_SCB_IRQ_INTERNAL) */
 264:Generated_Source\PSoC4/mSPI.c **** }
 265:Generated_Source\PSoC4/mSPI.c **** 
 266:Generated_Source\PSoC4/mSPI.c **** 
 267:Generated_Source\PSoC4/mSPI.c **** /*******************************************************************************
 268:Generated_Source\PSoC4/mSPI.c **** * Function Name: mSPI_SetRxFifoLevel
 269:Generated_Source\PSoC4/mSPI.c **** ****************************************************************************//**
 270:Generated_Source\PSoC4/mSPI.c **** *
ARM GAS  C:\Users\PC\AppData\Local\Temp\cclaNwN1.s 			page 7


 271:Generated_Source\PSoC4/mSPI.c **** *  Sets level in the RX FIFO to generate a RX level interrupt.
 272:Generated_Source\PSoC4/mSPI.c **** *  When the RX FIFO has more entries than the RX FIFO level an RX level
 273:Generated_Source\PSoC4/mSPI.c **** *  interrupt request is generated.
 274:Generated_Source\PSoC4/mSPI.c **** *
 275:Generated_Source\PSoC4/mSPI.c **** *  \param level: Level in the RX FIFO to generate RX level interrupt.
 276:Generated_Source\PSoC4/mSPI.c **** *   The range of valid level values is between 0 and RX FIFO depth - 1.
 277:Generated_Source\PSoC4/mSPI.c **** *
 278:Generated_Source\PSoC4/mSPI.c **** *******************************************************************************/
 279:Generated_Source\PSoC4/mSPI.c **** void mSPI_SetRxFifoLevel(uint32 level)
 280:Generated_Source\PSoC4/mSPI.c **** {
 281:Generated_Source\PSoC4/mSPI.c ****     uint32 rxFifoCtrl;
 282:Generated_Source\PSoC4/mSPI.c **** 
 283:Generated_Source\PSoC4/mSPI.c ****     rxFifoCtrl = mSPI_RX_FIFO_CTRL_REG;
 284:Generated_Source\PSoC4/mSPI.c **** 
 285:Generated_Source\PSoC4/mSPI.c ****     rxFifoCtrl &= ((uint32) ~mSPI_RX_FIFO_CTRL_TRIGGER_LEVEL_MASK); /* Clear level mask bits */
 286:Generated_Source\PSoC4/mSPI.c ****     rxFifoCtrl |= ((uint32) (mSPI_RX_FIFO_CTRL_TRIGGER_LEVEL_MASK & level));
 287:Generated_Source\PSoC4/mSPI.c **** 
 288:Generated_Source\PSoC4/mSPI.c ****     mSPI_RX_FIFO_CTRL_REG = rxFifoCtrl;
 289:Generated_Source\PSoC4/mSPI.c **** }
 290:Generated_Source\PSoC4/mSPI.c **** 
 291:Generated_Source\PSoC4/mSPI.c **** 
 292:Generated_Source\PSoC4/mSPI.c **** /*******************************************************************************
 293:Generated_Source\PSoC4/mSPI.c **** * Function Name: mSPI_SetTxFifoLevel
 294:Generated_Source\PSoC4/mSPI.c **** ****************************************************************************//**
 295:Generated_Source\PSoC4/mSPI.c **** *
 296:Generated_Source\PSoC4/mSPI.c **** *  Sets level in the TX FIFO to generate a TX level interrupt.
 297:Generated_Source\PSoC4/mSPI.c **** *  When the TX FIFO has less entries than the TX FIFO level an TX level
 298:Generated_Source\PSoC4/mSPI.c **** *  interrupt request is generated.
 299:Generated_Source\PSoC4/mSPI.c **** *
 300:Generated_Source\PSoC4/mSPI.c **** *  \param level: Level in the TX FIFO to generate TX level interrupt.
 301:Generated_Source\PSoC4/mSPI.c **** *   The range of valid level values is between 0 and TX FIFO depth - 1.
 302:Generated_Source\PSoC4/mSPI.c **** *
 303:Generated_Source\PSoC4/mSPI.c **** *******************************************************************************/
 304:Generated_Source\PSoC4/mSPI.c **** void mSPI_SetTxFifoLevel(uint32 level)
 305:Generated_Source\PSoC4/mSPI.c **** {
 306:Generated_Source\PSoC4/mSPI.c ****     uint32 txFifoCtrl;
 307:Generated_Source\PSoC4/mSPI.c **** 
 308:Generated_Source\PSoC4/mSPI.c ****     txFifoCtrl = mSPI_TX_FIFO_CTRL_REG;
 309:Generated_Source\PSoC4/mSPI.c **** 
 310:Generated_Source\PSoC4/mSPI.c ****     txFifoCtrl &= ((uint32) ~mSPI_TX_FIFO_CTRL_TRIGGER_LEVEL_MASK); /* Clear level mask bits */
 311:Generated_Source\PSoC4/mSPI.c ****     txFifoCtrl |= ((uint32) (mSPI_TX_FIFO_CTRL_TRIGGER_LEVEL_MASK & level));
 312:Generated_Source\PSoC4/mSPI.c **** 
 313:Generated_Source\PSoC4/mSPI.c ****     mSPI_TX_FIFO_CTRL_REG = txFifoCtrl;
 314:Generated_Source\PSoC4/mSPI.c **** }
 315:Generated_Source\PSoC4/mSPI.c **** 
 316:Generated_Source\PSoC4/mSPI.c **** 
 317:Generated_Source\PSoC4/mSPI.c **** #if (mSPI_SCB_IRQ_INTERNAL)
 318:Generated_Source\PSoC4/mSPI.c ****     /*******************************************************************************
 319:Generated_Source\PSoC4/mSPI.c ****     * Function Name: mSPI_SetCustomInterruptHandler
 320:Generated_Source\PSoC4/mSPI.c ****     ****************************************************************************//**
 321:Generated_Source\PSoC4/mSPI.c ****     *
 322:Generated_Source\PSoC4/mSPI.c ****     *  Registers a function to be called by the internal interrupt handler.
 323:Generated_Source\PSoC4/mSPI.c ****     *  First the function that is registered is called, then the internal interrupt
 324:Generated_Source\PSoC4/mSPI.c ****     *  handler performs any operation such as software buffer management functions
 325:Generated_Source\PSoC4/mSPI.c ****     *  before the interrupt returns.  It is the user's responsibility not to break
 326:Generated_Source\PSoC4/mSPI.c ****     *  the software buffer operations. Only one custom handler is supported, which
 327:Generated_Source\PSoC4/mSPI.c ****     *  is the function provided by the most recent call.
ARM GAS  C:\Users\PC\AppData\Local\Temp\cclaNwN1.s 			page 8


 328:Generated_Source\PSoC4/mSPI.c ****     *  At the initialization time no custom handler is registered.
 329:Generated_Source\PSoC4/mSPI.c ****     *
 330:Generated_Source\PSoC4/mSPI.c ****     *  \param func: Pointer to the function to register.
 331:Generated_Source\PSoC4/mSPI.c ****     *        The value NULL indicates to remove the current custom interrupt
 332:Generated_Source\PSoC4/mSPI.c ****     *        handler.
 333:Generated_Source\PSoC4/mSPI.c ****     *
 334:Generated_Source\PSoC4/mSPI.c ****     *******************************************************************************/
 335:Generated_Source\PSoC4/mSPI.c ****     void mSPI_SetCustomInterruptHandler(void (*func)(void))
 336:Generated_Source\PSoC4/mSPI.c ****     {
 337:Generated_Source\PSoC4/mSPI.c ****     #if !defined (CY_REMOVE_mSPI_CUSTOM_INTR_HANDLER)
 338:Generated_Source\PSoC4/mSPI.c ****         mSPI_customIntrHandler = func; /* Register interrupt handler */
 339:Generated_Source\PSoC4/mSPI.c ****     #else
 340:Generated_Source\PSoC4/mSPI.c ****         if (NULL != func)
 341:Generated_Source\PSoC4/mSPI.c ****         {
 342:Generated_Source\PSoC4/mSPI.c ****             /* Suppress compiler warning */
 343:Generated_Source\PSoC4/mSPI.c ****         }
 344:Generated_Source\PSoC4/mSPI.c ****     #endif /* !defined (CY_REMOVE_mSPI_CUSTOM_INTR_HANDLER) */
 345:Generated_Source\PSoC4/mSPI.c ****     }
 346:Generated_Source\PSoC4/mSPI.c **** #endif /* (mSPI_SCB_IRQ_INTERNAL) */
 347:Generated_Source\PSoC4/mSPI.c **** 
 348:Generated_Source\PSoC4/mSPI.c **** 
 349:Generated_Source\PSoC4/mSPI.c **** /*******************************************************************************
 350:Generated_Source\PSoC4/mSPI.c **** * Function Name: mSPI_ScbModeEnableIntr
 351:Generated_Source\PSoC4/mSPI.c **** ****************************************************************************//**
 352:Generated_Source\PSoC4/mSPI.c **** *
 353:Generated_Source\PSoC4/mSPI.c **** *  Enables an interrupt for a specific mode.
 354:Generated_Source\PSoC4/mSPI.c **** *
 355:Generated_Source\PSoC4/mSPI.c **** *******************************************************************************/
 356:Generated_Source\PSoC4/mSPI.c **** static void mSPI_ScbEnableIntr(void)
 357:Generated_Source\PSoC4/mSPI.c **** {
 358:Generated_Source\PSoC4/mSPI.c **** #if (mSPI_SCB_IRQ_INTERNAL)
 359:Generated_Source\PSoC4/mSPI.c ****     /* Enable interrupt in NVIC */
 360:Generated_Source\PSoC4/mSPI.c ****     #if (mSPI_SCB_MODE_UNCONFIG_CONST_CFG)
 361:Generated_Source\PSoC4/mSPI.c ****         if (0u != mSPI_scbEnableIntr)
 362:Generated_Source\PSoC4/mSPI.c ****         {
 363:Generated_Source\PSoC4/mSPI.c ****             mSPI_EnableInt();
 364:Generated_Source\PSoC4/mSPI.c ****         }
 365:Generated_Source\PSoC4/mSPI.c **** 
 366:Generated_Source\PSoC4/mSPI.c ****     #else
 367:Generated_Source\PSoC4/mSPI.c ****         mSPI_EnableInt();
 368:Generated_Source\PSoC4/mSPI.c **** 
 369:Generated_Source\PSoC4/mSPI.c ****     #endif /* (mSPI_SCB_MODE_UNCONFIG_CONST_CFG) */
 370:Generated_Source\PSoC4/mSPI.c **** #endif /* (mSPI_SCB_IRQ_INTERNAL) */
 371:Generated_Source\PSoC4/mSPI.c **** }
 372:Generated_Source\PSoC4/mSPI.c **** 
 373:Generated_Source\PSoC4/mSPI.c **** 
 374:Generated_Source\PSoC4/mSPI.c **** /*******************************************************************************
 375:Generated_Source\PSoC4/mSPI.c **** * Function Name: mSPI_ScbModePostEnable
 376:Generated_Source\PSoC4/mSPI.c **** ****************************************************************************//**
 377:Generated_Source\PSoC4/mSPI.c **** *
 378:Generated_Source\PSoC4/mSPI.c **** *  Calls the PostEnable function for a specific operation mode.
 379:Generated_Source\PSoC4/mSPI.c **** *
 380:Generated_Source\PSoC4/mSPI.c **** *******************************************************************************/
 381:Generated_Source\PSoC4/mSPI.c **** static void mSPI_ScbModePostEnable(void)
 382:Generated_Source\PSoC4/mSPI.c **** {
 383:Generated_Source\PSoC4/mSPI.c **** #if (mSPI_SCB_MODE_UNCONFIG_CONST_CFG)
 384:Generated_Source\PSoC4/mSPI.c **** #if (!mSPI_CY_SCBIP_V1)
ARM GAS  C:\Users\PC\AppData\Local\Temp\cclaNwN1.s 			page 9


 385:Generated_Source\PSoC4/mSPI.c ****     if (mSPI_SCB_MODE_SPI_RUNTM_CFG)
 386:Generated_Source\PSoC4/mSPI.c ****     {
 387:Generated_Source\PSoC4/mSPI.c ****         mSPI_SpiPostEnable();
 388:Generated_Source\PSoC4/mSPI.c ****     }
 389:Generated_Source\PSoC4/mSPI.c ****     else if (mSPI_SCB_MODE_UART_RUNTM_CFG)
 390:Generated_Source\PSoC4/mSPI.c ****     {
 391:Generated_Source\PSoC4/mSPI.c ****         mSPI_UartPostEnable();
 392:Generated_Source\PSoC4/mSPI.c ****     }
 393:Generated_Source\PSoC4/mSPI.c ****     else
 394:Generated_Source\PSoC4/mSPI.c ****     {
 395:Generated_Source\PSoC4/mSPI.c ****         /* Unknown mode: do nothing */
 396:Generated_Source\PSoC4/mSPI.c ****     }
 397:Generated_Source\PSoC4/mSPI.c **** #endif /* (!mSPI_CY_SCBIP_V1) */
 398:Generated_Source\PSoC4/mSPI.c **** 
 399:Generated_Source\PSoC4/mSPI.c **** #elif (mSPI_SCB_MODE_SPI_CONST_CFG)
 400:Generated_Source\PSoC4/mSPI.c ****     mSPI_SpiPostEnable();
  72              		.loc 1 400 0
  73 000e FFF7FEFF 		bl	mSPI_SpiPostEnable
  74              	.LVL1:
  75              	.LBE11:
  76              	.LBE10:
 192:Generated_Source\PSoC4/mSPI.c **** 
  77              		.loc 1 192 0
  78              		@ sp needed
  79 0012 10BD     		pop	{r4, pc}
  80              	.L4:
  81              		.align	2
  82              	.L3:
  83 0014 00000940 		.word	1074331648
  84              		.cfi_endproc
  85              	.LFE2:
  86              		.size	mSPI_Enable, .-mSPI_Enable
  87              		.section	.text.mSPI_Start,"ax",%progbits
  88              		.align	1
  89              		.global	mSPI_Start
  90              		.code	16
  91              		.thumb_func
  92              		.type	mSPI_Start, %function
  93              	mSPI_Start:
  94              	.LFB3:
 211:Generated_Source\PSoC4/mSPI.c ****     if (0u == mSPI_initVar)
  95              		.loc 1 211 0
  96              		.cfi_startproc
  97              		@ args = 0, pretend = 0, frame = 0
  98              		@ frame_needed = 0, uses_anonymous_args = 0
  99 0000 10B5     		push	{r4, lr}
 100              		.cfi_def_cfa_offset 8
 101              		.cfi_offset 4, -8
 102              		.cfi_offset 14, -4
 212:Generated_Source\PSoC4/mSPI.c ****     {
 103              		.loc 1 212 0
 104 0002 054C     		ldr	r4, .L8
 105 0004 2378     		ldrb	r3, [r4]
 106 0006 002B     		cmp	r3, #0
 107 0008 03D1     		bne	.L6
 108              	.LBB12:
 109              	.LBB13:
ARM GAS  C:\Users\PC\AppData\Local\Temp\cclaNwN1.s 			page 10


 139:Generated_Source\PSoC4/mSPI.c **** 
 110              		.loc 1 139 0
 111 000a FFF7FEFF 		bl	mSPI_SpiInit
 112              	.LVL2:
 113              	.LBE13:
 114              	.LBE12:
 215:Generated_Source\PSoC4/mSPI.c ****     }
 115              		.loc 1 215 0
 116 000e 0123     		movs	r3, #1
 117 0010 2370     		strb	r3, [r4]
 118              	.L6:
 218:Generated_Source\PSoC4/mSPI.c **** }
 119              		.loc 1 218 0
 120 0012 FFF7FEFF 		bl	mSPI_Enable
 121              	.LVL3:
 219:Generated_Source\PSoC4/mSPI.c **** 
 122              		.loc 1 219 0
 123              		@ sp needed
 124 0016 10BD     		pop	{r4, pc}
 125              	.L9:
 126              		.align	2
 127              	.L8:
 128 0018 00000000 		.word	.LANCHOR0
 129              		.cfi_endproc
 130              	.LFE3:
 131              		.size	mSPI_Start, .-mSPI_Start
 132              		.section	.text.mSPI_Stop,"ax",%progbits
 133              		.align	1
 134              		.global	mSPI_Stop
 135              		.code	16
 136              		.thumb_func
 137              		.type	mSPI_Stop, %function
 138              	mSPI_Stop:
 139              	.LFB4:
 240:Generated_Source\PSoC4/mSPI.c **** #if (mSPI_SCB_IRQ_INTERNAL)
 140              		.loc 1 240 0
 141              		.cfi_startproc
 142              		@ args = 0, pretend = 0, frame = 0
 143              		@ frame_needed = 0, uses_anonymous_args = 0
 144 0000 10B5     		push	{r4, lr}
 145              		.cfi_def_cfa_offset 8
 146              		.cfi_offset 4, -8
 147              		.cfi_offset 14, -4
 148              	.LBB14:
 149              	.LBB15:
 401:Generated_Source\PSoC4/mSPI.c **** 
 402:Generated_Source\PSoC4/mSPI.c **** #elif (mSPI_SCB_MODE_UART_CONST_CFG)
 403:Generated_Source\PSoC4/mSPI.c ****     mSPI_UartPostEnable();
 404:Generated_Source\PSoC4/mSPI.c **** 
 405:Generated_Source\PSoC4/mSPI.c **** #else
 406:Generated_Source\PSoC4/mSPI.c ****     /* Unknown mode: do nothing */
 407:Generated_Source\PSoC4/mSPI.c **** #endif /* (mSPI_SCB_MODE_UNCONFIG_CONST_CFG) */
 408:Generated_Source\PSoC4/mSPI.c **** }
 409:Generated_Source\PSoC4/mSPI.c **** 
 410:Generated_Source\PSoC4/mSPI.c **** 
 411:Generated_Source\PSoC4/mSPI.c **** /*******************************************************************************
 412:Generated_Source\PSoC4/mSPI.c **** * Function Name: mSPI_ScbModeStop
ARM GAS  C:\Users\PC\AppData\Local\Temp\cclaNwN1.s 			page 11


 413:Generated_Source\PSoC4/mSPI.c **** ****************************************************************************//**
 414:Generated_Source\PSoC4/mSPI.c **** *
 415:Generated_Source\PSoC4/mSPI.c **** *  Calls the Stop function for a specific operation mode.
 416:Generated_Source\PSoC4/mSPI.c **** *
 417:Generated_Source\PSoC4/mSPI.c **** *******************************************************************************/
 418:Generated_Source\PSoC4/mSPI.c **** static void mSPI_ScbModeStop(void)
 419:Generated_Source\PSoC4/mSPI.c **** {
 420:Generated_Source\PSoC4/mSPI.c **** #if (mSPI_SCB_MODE_UNCONFIG_CONST_CFG)
 421:Generated_Source\PSoC4/mSPI.c ****     if (mSPI_SCB_MODE_I2C_RUNTM_CFG)
 422:Generated_Source\PSoC4/mSPI.c ****     {
 423:Generated_Source\PSoC4/mSPI.c ****         mSPI_I2CStop();
 424:Generated_Source\PSoC4/mSPI.c ****     }
 425:Generated_Source\PSoC4/mSPI.c ****     else if (mSPI_SCB_MODE_EZI2C_RUNTM_CFG)
 426:Generated_Source\PSoC4/mSPI.c ****     {
 427:Generated_Source\PSoC4/mSPI.c ****         mSPI_EzI2CStop();
 428:Generated_Source\PSoC4/mSPI.c ****     }
 429:Generated_Source\PSoC4/mSPI.c **** #if (!mSPI_CY_SCBIP_V1)
 430:Generated_Source\PSoC4/mSPI.c ****     else if (mSPI_SCB_MODE_SPI_RUNTM_CFG)
 431:Generated_Source\PSoC4/mSPI.c ****     {
 432:Generated_Source\PSoC4/mSPI.c ****         mSPI_SpiStop();
 433:Generated_Source\PSoC4/mSPI.c ****     }
 434:Generated_Source\PSoC4/mSPI.c ****     else if (mSPI_SCB_MODE_UART_RUNTM_CFG)
 435:Generated_Source\PSoC4/mSPI.c ****     {
 436:Generated_Source\PSoC4/mSPI.c ****         mSPI_UartStop();
 437:Generated_Source\PSoC4/mSPI.c ****     }
 438:Generated_Source\PSoC4/mSPI.c **** #endif /* (!mSPI_CY_SCBIP_V1) */
 439:Generated_Source\PSoC4/mSPI.c ****     else
 440:Generated_Source\PSoC4/mSPI.c ****     {
 441:Generated_Source\PSoC4/mSPI.c ****         /* Unknown mode: do nothing */
 442:Generated_Source\PSoC4/mSPI.c ****     }
 443:Generated_Source\PSoC4/mSPI.c **** #elif (mSPI_SCB_MODE_I2C_CONST_CFG)
 444:Generated_Source\PSoC4/mSPI.c ****     mSPI_I2CStop();
 445:Generated_Source\PSoC4/mSPI.c **** 
 446:Generated_Source\PSoC4/mSPI.c **** #elif (mSPI_SCB_MODE_EZI2C_CONST_CFG)
 447:Generated_Source\PSoC4/mSPI.c ****     mSPI_EzI2CStop();
 448:Generated_Source\PSoC4/mSPI.c **** 
 449:Generated_Source\PSoC4/mSPI.c **** #elif (mSPI_SCB_MODE_SPI_CONST_CFG)
 450:Generated_Source\PSoC4/mSPI.c ****     mSPI_SpiStop();
 150              		.loc 1 450 0
 151 0002 FFF7FEFF 		bl	mSPI_SpiStop
 152              	.LVL4:
 153              	.LBE15:
 154              	.LBE14:
 249:Generated_Source\PSoC4/mSPI.c **** 
 155              		.loc 1 249 0
 156 0006 044A     		ldr	r2, .L11
 264:Generated_Source\PSoC4/mSPI.c **** 
 157              		.loc 1 264 0
 158              		@ sp needed
 249:Generated_Source\PSoC4/mSPI.c **** 
 159              		.loc 1 249 0
 160 0008 1368     		ldr	r3, [r2]
 161 000a 5B00     		lsls	r3, r3, #1
 162 000c 5B08     		lsrs	r3, r3, #1
 163 000e 1360     		str	r3, [r2]
 259:Generated_Source\PSoC4/mSPI.c **** 
 164              		.loc 1 259 0
ARM GAS  C:\Users\PC\AppData\Local\Temp\cclaNwN1.s 			page 12


 165 0010 0022     		movs	r2, #0
 166 0012 024B     		ldr	r3, .L11+4
 167 0014 1A60     		str	r2, [r3]
 264:Generated_Source\PSoC4/mSPI.c **** 
 168              		.loc 1 264 0
 169 0016 10BD     		pop	{r4, pc}
 170              	.L12:
 171              		.align	2
 172              	.L11:
 173 0018 00000940 		.word	1074331648
 174 001c 880F0940 		.word	1074335624
 175              		.cfi_endproc
 176              	.LFE4:
 177              		.size	mSPI_Stop, .-mSPI_Stop
 178              		.section	.text.mSPI_SetRxFifoLevel,"ax",%progbits
 179              		.align	1
 180              		.global	mSPI_SetRxFifoLevel
 181              		.code	16
 182              		.thumb_func
 183              		.type	mSPI_SetRxFifoLevel, %function
 184              	mSPI_SetRxFifoLevel:
 185              	.LFB5:
 280:Generated_Source\PSoC4/mSPI.c ****     uint32 rxFifoCtrl;
 186              		.loc 1 280 0
 187              		.cfi_startproc
 188              		@ args = 0, pretend = 0, frame = 0
 189              		@ frame_needed = 0, uses_anonymous_args = 0
 190              		@ link register save eliminated.
 191              	.LVL5:
 285:Generated_Source\PSoC4/mSPI.c ****     rxFifoCtrl |= ((uint32) (mSPI_RX_FIFO_CTRL_TRIGGER_LEVEL_MASK & level));
 192              		.loc 1 285 0
 193 0000 0F22     		movs	r2, #15
 283:Generated_Source\PSoC4/mSPI.c **** 
 194              		.loc 1 283 0
 195 0002 0349     		ldr	r1, .L14
 286:Generated_Source\PSoC4/mSPI.c **** 
 196              		.loc 1 286 0
 197 0004 1040     		ands	r0, r2
 198              	.LVL6:
 283:Generated_Source\PSoC4/mSPI.c **** 
 199              		.loc 1 283 0
 200 0006 0B68     		ldr	r3, [r1]
 201              	.LVL7:
 289:Generated_Source\PSoC4/mSPI.c **** 
 202              		.loc 1 289 0
 203              		@ sp needed
 285:Generated_Source\PSoC4/mSPI.c ****     rxFifoCtrl |= ((uint32) (mSPI_RX_FIFO_CTRL_TRIGGER_LEVEL_MASK & level));
 204              		.loc 1 285 0
 205 0008 9343     		bics	r3, r2
 206              	.LVL8:
 286:Generated_Source\PSoC4/mSPI.c **** 
 207              		.loc 1 286 0
 208 000a 1843     		orrs	r0, r3
 209              	.LVL9:
 288:Generated_Source\PSoC4/mSPI.c **** }
 210              		.loc 1 288 0
 211 000c 0860     		str	r0, [r1]
ARM GAS  C:\Users\PC\AppData\Local\Temp\cclaNwN1.s 			page 13


 289:Generated_Source\PSoC4/mSPI.c **** 
 212              		.loc 1 289 0
 213 000e 7047     		bx	lr
 214              	.L15:
 215              		.align	2
 216              	.L14:
 217 0010 04030940 		.word	1074332420
 218              		.cfi_endproc
 219              	.LFE5:
 220              		.size	mSPI_SetRxFifoLevel, .-mSPI_SetRxFifoLevel
 221              		.section	.text.mSPI_SetTxFifoLevel,"ax",%progbits
 222              		.align	1
 223              		.global	mSPI_SetTxFifoLevel
 224              		.code	16
 225              		.thumb_func
 226              		.type	mSPI_SetTxFifoLevel, %function
 227              	mSPI_SetTxFifoLevel:
 228              	.LFB6:
 305:Generated_Source\PSoC4/mSPI.c ****     uint32 txFifoCtrl;
 229              		.loc 1 305 0
 230              		.cfi_startproc
 231              		@ args = 0, pretend = 0, frame = 0
 232              		@ frame_needed = 0, uses_anonymous_args = 0
 233              		@ link register save eliminated.
 234              	.LVL10:
 310:Generated_Source\PSoC4/mSPI.c ****     txFifoCtrl |= ((uint32) (mSPI_TX_FIFO_CTRL_TRIGGER_LEVEL_MASK & level));
 235              		.loc 1 310 0
 236 0000 0F22     		movs	r2, #15
 308:Generated_Source\PSoC4/mSPI.c **** 
 237              		.loc 1 308 0
 238 0002 0349     		ldr	r1, .L17
 311:Generated_Source\PSoC4/mSPI.c **** 
 239              		.loc 1 311 0
 240 0004 1040     		ands	r0, r2
 241              	.LVL11:
 308:Generated_Source\PSoC4/mSPI.c **** 
 242              		.loc 1 308 0
 243 0006 0B68     		ldr	r3, [r1]
 244              	.LVL12:
 314:Generated_Source\PSoC4/mSPI.c **** 
 245              		.loc 1 314 0
 246              		@ sp needed
 310:Generated_Source\PSoC4/mSPI.c ****     txFifoCtrl |= ((uint32) (mSPI_TX_FIFO_CTRL_TRIGGER_LEVEL_MASK & level));
 247              		.loc 1 310 0
 248 0008 9343     		bics	r3, r2
 249              	.LVL13:
 311:Generated_Source\PSoC4/mSPI.c **** 
 250              		.loc 1 311 0
 251 000a 1843     		orrs	r0, r3
 252              	.LVL14:
 313:Generated_Source\PSoC4/mSPI.c **** }
 253              		.loc 1 313 0
 254 000c 0860     		str	r0, [r1]
 314:Generated_Source\PSoC4/mSPI.c **** 
 255              		.loc 1 314 0
 256 000e 7047     		bx	lr
 257              	.L18:
ARM GAS  C:\Users\PC\AppData\Local\Temp\cclaNwN1.s 			page 14


 258              		.align	2
 259              	.L17:
 260 0010 04020940 		.word	1074332164
 261              		.cfi_endproc
 262              	.LFE6:
 263              		.size	mSPI_SetTxFifoLevel, .-mSPI_SetTxFifoLevel
 264              		.global	mSPI_IntrTxMask
 265              		.global	mSPI_initVar
 266              		.bss
 267              		.align	1
 268              		.set	.LANCHOR0,. + 0
 269              		.type	mSPI_initVar, %object
 270              		.size	mSPI_initVar, 1
 271              	mSPI_initVar:
 272 0000 00       		.space	1
 273 0001 00       		.space	1
 274              		.type	mSPI_IntrTxMask, %object
 275              		.size	mSPI_IntrTxMask, 2
 276              	mSPI_IntrTxMask:
 277 0002 0000     		.space	2
 278              		.text
 279              	.Letext0:
 280              		.file 2 "Generated_Source\\PSoC4/cytypes.h"
 281              		.file 3 "Generated_Source\\PSoC4\\mSPI_SPI_UART_PVT.h"