ARM GAS  C:\Users\PC\AppData\Local\Temp\cccpd4eb.s 			page 1


   1              		.syntax unified
   2              		.cpu cortex-m0plus
   3              		.fpu softvfp
   4              		.eabi_attribute 20, 1
   5              		.eabi_attribute 21, 1
   6              		.eabi_attribute 23, 3
   7              		.eabi_attribute 24, 1
   8              		.eabi_attribute 25, 1
   9              		.eabi_attribute 26, 1
  10              		.eabi_attribute 30, 4
  11              		.eabi_attribute 34, 0
  12              		.eabi_attribute 18, 4
  13              		.thumb
  14              		.syntax unified
  15              		.file	"ssd1306.c"
  16              		.text
  17              	.Ltext0:
  18              		.cfi_sections	.debug_frame
  19              		.section	.text.ssd1306_command,"ax",%progbits
  20              		.align	1
  21              		.global	ssd1306_command
  22              		.code	16
  23              		.thumb_func
  24              		.type	ssd1306_command, %function
  25              	ssd1306_command:
  26              	.LFB33:
  27              		.file 1 "ssd1306.c"
   1:ssd1306.c     **** 
   2:ssd1306.c     **** /******************************************************************************
   3:ssd1306.c     ****                                   SSD1306.c                                   *
   4:ssd1306.c     ****                    SSD1306 OLED driver for CCS PIC C compiler                 *
   5:ssd1306.c     ****                                                                               *
   6:ssd1306.c     ****  This driver supports SPI mode and I2C mode (default).                        *
   7:ssd1306.c     ****  For the SPI mode and before the include of the driver file, add:             *
   8:ssd1306.c     ****    #define SSD1306_SPI_MODE                                                   *
   9:ssd1306.c     ****                                                                               *
  10:ssd1306.c     ****  https://simple-circuit.com/                                                  *
  11:ssd1306.c     ****                                                                               *
  12:ssd1306.c     **** *******************************************************************************
  13:ssd1306.c     **** *******************************************************************************
  14:ssd1306.c     ****  This is a library for our Monochrome OLEDs based on SSD1306 drivers          *
  15:ssd1306.c     ****                                                                               *
  16:ssd1306.c     ****   Pick one up today in the adafruit shop!                                     *
  17:ssd1306.c     ****   ------> http://www.adafruit.com/category/63_98                              *
  18:ssd1306.c     ****                                                                               *
  19:ssd1306.c     ****  Adafruit invests time and resources providing this open source code,         *
  20:ssd1306.c     ****  please support Adafruit and open-source hardware by purchasing               *
  21:ssd1306.c     ****  products from Adafruit!                                                      *
  22:ssd1306.c     ****                                                                               *
  23:ssd1306.c     ****  Written by Limor Fried/Ladyada  for Adafruit Industries.                     *
  24:ssd1306.c     ****  BSD license, check license.txt for more information                          *
  25:ssd1306.c     ****  All text above, and the splash screen must be included in any redistribution *
  26:ssd1306.c     **** *******************************************************************************/
  27:ssd1306.c     **** 
  28:ssd1306.c     **** #include "ssd1306.h"
  29:ssd1306.c     **** 
  30:ssd1306.c     **** #define HWSPIDELAY  25
ARM GAS  C:\Users\PC\AppData\Local\Temp\cccpd4eb.s 			page 2


  31:ssd1306.c     **** #define ssd1306_swap(a, b) { uint8_t t = a; a = b; b = t; }
  32:ssd1306.c     **** 
  33:ssd1306.c     **** //*************************** User Functions ***************************//
  34:ssd1306.c     **** 
  35:ssd1306.c     **** 
  36:ssd1306.c     **** 
  37:ssd1306.c     **** //--------------------------------------------------------------------------//
  38:ssd1306.c     **** void ssd1306_command(uint8_t c);
  39:ssd1306.c     **** 
  40:ssd1306.c     **** 
  41:ssd1306.c     **** static uint8_t ssd1306_buffer[SSD1306_LCDHEIGHT * SSD1306_LCDWIDTH / 8] = {
  42:ssd1306.c     **** 0x00, 0x00, 0x00, 0x00, 0x00, 0x00, 0x00, 0x00, 0x00, 0x00, 0x00, 0x00, 0x00, 0x00, 0x00, 0x00,
  43:ssd1306.c     **** 0x00, 0x00, 0x00, 0x00, 0x00, 0x00, 0x00, 0x00, 0x00, 0x00, 0x00, 0x00, 0x00, 0x00, 0x00, 0x00,
  44:ssd1306.c     **** 0x00, 0x00, 0x00, 0x00, 0x00, 0x00, 0x00, 0x00, 0x00, 0x00, 0x00, 0x00, 0x00, 0x00, 0x00, 0x00,
  45:ssd1306.c     **** 0x00, 0x00, 0x00, 0x00, 0x00, 0x00, 0x00, 0x00, 0x00, 0x00, 0x00, 0x00, 0x00, 0x00, 0x00, 0x80,
  46:ssd1306.c     **** 0x80, 0x80, 0x00, 0x00, 0x00, 0x00, 0x00, 0x00, 0x00, 0x00, 0x00, 0x00, 0x00, 0x00, 0x00, 0x00,
  47:ssd1306.c     **** 0x00, 0x80, 0x80, 0xC0, 0xC0, 0x00, 0x00, 0x00, 0x00, 0x00, 0x00, 0x00, 0x00, 0x00, 0x00, 0x00,
  48:ssd1306.c     **** 0x00, 0x00, 0x00, 0x00, 0x00, 0x00, 0x00, 0x00, 0x00, 0x00, 0x00, 0x00, 0x00, 0x00, 0x00, 0x00,
  49:ssd1306.c     **** 0x00, 0x00, 0x00, 0x00, 0x00, 0x00, 0x00, 0x00, 0x00, 0x00, 0x00, 0x00, 0x00, 0x00, 0x00, 0x00,
  50:ssd1306.c     **** 0x00, 0x00, 0x00, 0x00, 0x00, 0x00, 0x00, 0x00, 0x00, 0x00, 0x00, 0x00, 0x00, 0x00, 0x00, 0x00,
  51:ssd1306.c     **** 0x00, 0x00, 0x00, 0x00, 0x80, 0xC0, 0xE0, 0xF0, 0xF8, 0xFC, 0xF8, 0xE0, 0x00, 0x00, 0x00, 0x00,
  52:ssd1306.c     **** 0x00, 0x00, 0x00, 0x00, 0x00, 0x00, 0x00, 0x00, 0x00, 0x00, 0x00, 0x00, 0x00, 0x80, 0x80, 0x80,
  53:ssd1306.c     **** 0x80, 0x80, 0x00, 0x80, 0x80, 0x00, 0x00, 0x00, 0x00, 0x80, 0x80, 0x80, 0x80, 0x80, 0x00, 0xFF
  54:ssd1306.c     **** #if (SSD1306_LCDHEIGHT * SSD1306_LCDWIDTH > 96*16)
  55:ssd1306.c     **** ,
  56:ssd1306.c     **** 0xFF, 0xFF, 0x00, 0x00, 0x00, 0x00, 0x80, 0x80, 0x80, 0x80, 0x00, 0x00, 0x80, 0x80, 0x00, 0x00,
  57:ssd1306.c     **** 0x80, 0xFF, 0xFF, 0x80, 0x80, 0x00, 0x80, 0x80, 0x00, 0x80, 0x80, 0x80, 0x80, 0x00, 0x80, 0x80,
  58:ssd1306.c     **** 0x00, 0x00, 0x00, 0x00, 0x00, 0x80, 0x80, 0x00, 0x00, 0x8C, 0x8E, 0x84, 0x00, 0x00, 0x80, 0xF8,
  59:ssd1306.c     **** 0xF8, 0xF8, 0x80, 0x00, 0x00, 0x00, 0x00, 0x00, 0x00, 0x00, 0x00, 0x00, 0x00, 0x00, 0x00, 0x00,
  60:ssd1306.c     **** 0xF0, 0xF0, 0xF0, 0xF0, 0xF0, 0xF0, 0xF0, 0xF0, 0xF0, 0xF0, 0xF0, 0xF0, 0xE0, 0xE0, 0xC0, 0x80,
  61:ssd1306.c     **** 0x00, 0xE0, 0xFC, 0xFE, 0xFF, 0xFF, 0xFF, 0x7F, 0xFF, 0xFF, 0xFF, 0xFF, 0xFF, 0x00, 0x00, 0x00,
  62:ssd1306.c     **** 0x00, 0x00, 0x00, 0x00, 0x00, 0x00, 0x00, 0x00, 0x00, 0x00, 0x00, 0xFE, 0xFF, 0xC7, 0x01, 0x01,
  63:ssd1306.c     **** 0x01, 0x01, 0x83, 0xFF, 0xFF, 0x00, 0x00, 0x7C, 0xFE, 0xC7, 0x01, 0x01, 0x01, 0x01, 0x83, 0xFF,
  64:ssd1306.c     **** 0xFF, 0xFF, 0x00, 0x38, 0xFE, 0xC7, 0x83, 0x01, 0x01, 0x01, 0x83, 0xC7, 0xFF, 0xFF, 0x00, 0x00,
  65:ssd1306.c     **** 0x01, 0xFF, 0xFF, 0x01, 0x01, 0x00, 0xFF, 0xFF, 0x07, 0x01, 0x01, 0x01, 0x00, 0x00, 0x7F, 0xFF,
  66:ssd1306.c     **** 0x80, 0x00, 0x00, 0x00, 0xFF, 0xFF, 0x7F, 0x00, 0x00, 0xFF, 0xFF, 0xFF, 0x00, 0x00, 0x01, 0xFF,
  67:ssd1306.c     **** 0xFF, 0xFF, 0x01, 0x00, 0x00, 0x00, 0x00, 0x00, 0x00, 0x00, 0x00, 0x00, 0x00, 0x00, 0x00, 0x00,
  68:ssd1306.c     **** 0x03, 0x0F, 0x3F, 0x7F, 0x7F, 0xFF, 0xFF, 0xFF, 0xFF, 0xFF, 0xFF, 0xFF, 0xE7, 0xC7, 0xC7, 0x8F,
  69:ssd1306.c     **** 0x8F, 0x9F, 0xBF, 0xFF, 0xFF, 0xC3, 0xC0, 0xF0, 0xFF, 0xFF, 0xFF, 0xFF, 0xFF, 0xFC, 0xFC, 0xFC,
  70:ssd1306.c     **** 0xFC, 0xFC, 0xFC, 0xFC, 0xFC, 0xF8, 0xF8, 0xF0, 0xF0, 0xE0, 0xC0, 0x00, 0x01, 0x03, 0x03, 0x03,
  71:ssd1306.c     **** 0x03, 0x03, 0x01, 0x03, 0x03, 0x00, 0x00, 0x00, 0x00, 0x01, 0x03, 0x03, 0x03, 0x03, 0x01, 0x01,
  72:ssd1306.c     **** 0x03, 0x01, 0x00, 0x00, 0x00, 0x01, 0x03, 0x03, 0x03, 0x03, 0x01, 0x01, 0x03, 0x03, 0x00, 0x00,
  73:ssd1306.c     **** 0x00, 0x03, 0x03, 0x00, 0x00, 0x00, 0x03, 0x03, 0x00, 0x00, 0x00, 0x00, 0x00, 0x00, 0x00, 0x01,
  74:ssd1306.c     **** 0x03, 0x03, 0x03, 0x03, 0x03, 0x01, 0x00, 0x00, 0x00, 0x01, 0x03, 0x01, 0x00, 0x00, 0x00, 0x03,
  75:ssd1306.c     **** 0x03, 0x01, 0x00, 0x00, 0x00, 0x00, 0x00, 0x00, 0x00, 0x00, 0x00, 0x00, 0x00, 0x00, 0x00, 0x00
  76:ssd1306.c     **** #if (SSD1306_LCDHEIGHT == 64)
  77:ssd1306.c     **** ,
  78:ssd1306.c     **** 0x00, 0x00, 0x00, 0x80, 0xC0, 0xE0, 0xF0, 0xF9, 0xFF, 0xFF, 0xFF, 0xFF, 0xFF, 0x3F, 0x1F, 0x0F,
  79:ssd1306.c     **** 0x87, 0xC7, 0xF7, 0xFF, 0xFF, 0x1F, 0x1F, 0x3D, 0xFC, 0xF8, 0xF8, 0xF8, 0xF8, 0x7C, 0x7D, 0xFF,
  80:ssd1306.c     **** 0xFF, 0xFF, 0xFF, 0xFF, 0xFF, 0xFF, 0xFF, 0x7F, 0x3F, 0x0F, 0x07, 0x00, 0x30, 0x30, 0x00, 0x00,
  81:ssd1306.c     **** 0x00, 0x00, 0x00, 0x00, 0x00, 0x00, 0x00, 0x00, 0x00, 0x00, 0x00, 0x00, 0x00, 0x00, 0x00, 0x00,
  82:ssd1306.c     **** 0x00, 0x00, 0x00, 0x00, 0xFE, 0xFE, 0xFC, 0x00, 0x00, 0x00, 0x00, 0x00, 0x00, 0x00, 0x00, 0x00,
  83:ssd1306.c     **** 0x00, 0x00, 0x00, 0x00, 0x00, 0x00, 0x00, 0x00, 0x00, 0x00, 0x00, 0x00, 0x00, 0xE0, 0xC0, 0x00,
  84:ssd1306.c     **** 0x00, 0x00, 0x00, 0x00, 0x00, 0x00, 0x00, 0x00, 0x00, 0x00, 0x30, 0x30, 0x00, 0x00, 0x00, 0x00,
  85:ssd1306.c     **** 0x00, 0x00, 0x00, 0x00, 0x00, 0x00, 0x00, 0x00, 0x00, 0x00, 0x00, 0x00, 0x00, 0x00, 0x00, 0x00,
  86:ssd1306.c     **** 0x00, 0xC0, 0xFE, 0xFF, 0xFF, 0xFF, 0xFF, 0xFF, 0xFF, 0xFF, 0xFF, 0xFF, 0x7F, 0x7F, 0x3F, 0x1F,
  87:ssd1306.c     **** 0x0F, 0x07, 0x1F, 0x7F, 0xFF, 0xFF, 0xF8, 0xF8, 0xFF, 0xFF, 0xFF, 0xFF, 0xFF, 0xFE, 0xF8, 0xE0,
ARM GAS  C:\Users\PC\AppData\Local\Temp\cccpd4eb.s 			page 3


  88:ssd1306.c     **** 0x00, 0x00, 0x00, 0x01, 0x00, 0x00, 0x00, 0x00, 0x00, 0x00, 0x00, 0x00, 0xFE, 0xFE, 0x00, 0x00,
  89:ssd1306.c     **** 0x00, 0xFC, 0xFE, 0xFC, 0x0C, 0x06, 0x06, 0x0E, 0xFC, 0xF8, 0x00, 0x00, 0xF0, 0xF8, 0x1C, 0x0E,
  90:ssd1306.c     **** 0x06, 0x06, 0x06, 0x0C, 0xFF, 0xFF, 0xFF, 0x00, 0x00, 0xFE, 0xFE, 0x00, 0x00, 0x00, 0x00, 0xFC,
  91:ssd1306.c     **** 0xFE, 0xFC, 0x00, 0x18, 0x3C, 0x7E, 0x66, 0xE6, 0xCE, 0x84, 0x00, 0x00, 0x06, 0xFF, 0xFF, 0x06,
  92:ssd1306.c     **** 0x06, 0xFC, 0xFE, 0xFC, 0x0C, 0x06, 0x06, 0x06, 0x00, 0x00, 0xFE, 0xFE, 0x00, 0x00, 0xC0, 0xF8,
  93:ssd1306.c     **** 0xFC, 0x4E, 0x46, 0x46, 0x46, 0x4E, 0x7C, 0x78, 0x40, 0x18, 0x3C, 0x76, 0xE6, 0xCE, 0xCC, 0x80,
  94:ssd1306.c     **** 0x00, 0x00, 0x00, 0x00, 0x00, 0x00, 0x00, 0x00, 0x00, 0x00, 0x00, 0x00, 0x00, 0x00, 0x00, 0x00,
  95:ssd1306.c     **** 0x00, 0x00, 0x00, 0x00, 0x01, 0x07, 0x0F, 0x1F, 0x1F, 0x3F, 0x3F, 0x3F, 0x3F, 0x1F, 0x0F, 0x03,
  96:ssd1306.c     **** 0x00, 0x00, 0x00, 0x00, 0x00, 0x00, 0x00, 0x00, 0x00, 0x00, 0x00, 0x00, 0x0F, 0x0F, 0x00, 0x00,
  97:ssd1306.c     **** 0x00, 0x0F, 0x0F, 0x0F, 0x00, 0x00, 0x00, 0x00, 0x0F, 0x0F, 0x00, 0x00, 0x03, 0x07, 0x0E, 0x0C,
  98:ssd1306.c     **** 0x18, 0x18, 0x0C, 0x06, 0x0F, 0x0F, 0x0F, 0x00, 0x00, 0x01, 0x0F, 0x0E, 0x0C, 0x18, 0x0C, 0x0F,
  99:ssd1306.c     **** 0x07, 0x01, 0x00, 0x04, 0x0E, 0x0C, 0x18, 0x0C, 0x0F, 0x07, 0x00, 0x00, 0x00, 0x0F, 0x0F, 0x00,
 100:ssd1306.c     **** 0x00, 0x0F, 0x0F, 0x0F, 0x00, 0x00, 0x00, 0x00, 0x00, 0x00, 0x0F, 0x0F, 0x00, 0x00, 0x00, 0x07,
 101:ssd1306.c     **** 0x07, 0x0C, 0x0C, 0x18, 0x1C, 0x0C, 0x06, 0x06, 0x00, 0x04, 0x0E, 0x0C, 0x18, 0x0C, 0x0F, 0x07,
 102:ssd1306.c     **** 0x00, 0x00, 0x00, 0x00, 0x00, 0x00, 0x00, 0x00, 0x00, 0x00, 0x00, 0x00, 0x00, 0x00, 0x00, 0x00,
 103:ssd1306.c     **** 0x00, 0x00, 0x00, 0x00, 0x00, 0x00, 0x00, 0x00, 0x00, 0x00, 0x00, 0x00, 0x00, 0x00, 0x00, 0x00,
 104:ssd1306.c     **** 0x00, 0x00, 0x00, 0x00, 0x00, 0x00, 0x00, 0x00, 0x00, 0x00, 0x00, 0x00, 0x00, 0x00, 0x00, 0x00,
 105:ssd1306.c     **** 0x00, 0x00, 0x00, 0x00, 0x00, 0x00, 0x00, 0x00, 0x00, 0x00, 0x00, 0x00, 0x00, 0x00, 0x00, 0x00,
 106:ssd1306.c     **** 0x00, 0x00, 0x00, 0x00, 0x00, 0x00, 0x00, 0x00, 0x00, 0x00, 0x00, 0x00, 0x00, 0x00, 0x00, 0x00,
 107:ssd1306.c     **** 0x00, 0x00, 0x00, 0x00, 0x00, 0x00, 0x00, 0x00, 0x00, 0x00, 0x00, 0x00, 0x00, 0x00, 0x00, 0x00,
 108:ssd1306.c     **** 0x00, 0x00, 0x00, 0x00, 0x00, 0x00, 0x00, 0x00, 0x00, 0x00, 0x00, 0x00, 0x00, 0x00, 0x00, 0x00,
 109:ssd1306.c     **** 0x00, 0x00, 0x00, 0x00, 0x00, 0x00, 0x00, 0x00, 0x00, 0x00, 0x00, 0x00, 0x00, 0x00, 0x00, 0x00
 110:ssd1306.c     **** #endif
 111:ssd1306.c     **** #endif
 112:ssd1306.c     **** };
 113:ssd1306.c     **** 
 114:ssd1306.c     **** void ssd1306_command(uint8_t c) {
  28              		.loc 1 114 0
  29              		.cfi_startproc
  30              		@ args = 0, pretend = 0, frame = 8
  31              		@ frame_needed = 0, uses_anonymous_args = 0
  32              	.LVL0:
  33 0000 13B5     		push	{r0, r1, r4, lr}
  34              		.cfi_def_cfa_offset 16
  35              		.cfi_offset 0, -16
  36              		.cfi_offset 1, -12
  37              		.cfi_offset 4, -8
  38              		.cfi_offset 14, -4
  39              		.loc 1 114 0
  40 0002 6B46     		mov	r3, sp
  41 0004 DC1D     		adds	r4, r3, #7
  42 0006 D871     		strb	r0, [r3, #7]
 115:ssd1306.c     ****     #ifdef SSD1306_SPI_MODE
 116:ssd1306.c     ****     pOledDc_Write(0);
  43              		.loc 1 116 0
  44 0008 0020     		movs	r0, #0
  45              	.LVL1:
  46 000a FFF7FEFF 		bl	pOledDc_Write
  47              	.LVL2:
 117:ssd1306.c     ****     mSPI_SpiUartPutArray(&c, 1);
  48              		.loc 1 117 0
  49 000e 2000     		movs	r0, r4
  50 0010 0121     		movs	r1, #1
  51 0012 FFF7FEFF 		bl	mSPI_SpiUartPutArray
  52              	.LVL3:
 118:ssd1306.c     ****     while (0u != (mSPI_SpiUartGetTxBufferSize() + mSPI_GET_TX_FIFO_SR_VALID));
  53              		.loc 1 118 0
ARM GAS  C:\Users\PC\AppData\Local\Temp\cccpd4eb.s 			page 4


  54 0016 0124     		movs	r4, #1
  55              	.LVL4:
  56              	.L2:
  57              		.loc 1 118 0 is_stmt 0 discriminator 5
  58 0018 FFF7FEFF 		bl	mSPI_SpiUartGetTxBufferSize
  59              	.LVL5:
  60 001c 054B     		ldr	r3, .L5
  61 001e 1B68     		ldr	r3, [r3]
  62 0020 DB0B     		lsrs	r3, r3, #15
  63 0022 2340     		ands	r3, r4
  64 0024 1B18     		adds	r3, r3, r0
  65 0026 002B     		cmp	r3, #0
  66 0028 F6D1     		bne	.L2
 119:ssd1306.c     ****     pOledDc_Write(1);
  67              		.loc 1 119 0 is_stmt 1
  68 002a 0120     		movs	r0, #1
  69 002c FFF7FEFF 		bl	pOledDc_Write
  70              	.LVL6:
 120:ssd1306.c     ****     #else
 121:ssd1306.c     ****     uint8_t control = 0x00;   // Co = 0, D/C = 0
 122:ssd1306.c     ****     SSD1306_I2C_Start;
 123:ssd1306.c     ****     SSD1306_I2C_Write(_i2caddr);
 124:ssd1306.c     ****     SSD1306_I2C_Write(control);
 125:ssd1306.c     ****     SSD1306_I2C_Write(c);
 126:ssd1306.c     ****     SSD1306_I2C_Stop;
 127:ssd1306.c     ****     #endif
 128:ssd1306.c     **** }
  71              		.loc 1 128 0
  72              		@ sp needed
  73 0030 13BD     		pop	{r0, r1, r4, pc}
  74              	.L6:
  75 0032 C046     		.align	2
  76              	.L5:
  77 0034 08020940 		.word	1074332168
  78              		.cfi_endproc
  79              	.LFE33:
  80              		.size	ssd1306_command, .-ssd1306_command
  81              		.section	.text.SSD1306_begin,"ax",%progbits
  82              		.align	1
  83              		.global	SSD1306_begin
  84              		.code	16
  85              		.thumb_func
  86              		.type	SSD1306_begin, %function
  87              	SSD1306_begin:
  88              	.LFB34:
 129:ssd1306.c     **** 
 130:ssd1306.c     **** #ifdef SSD1306_SPI_MODE
 131:ssd1306.c     **** void SSD1306_begin(uint8_t vccstate) {
  89              		.loc 1 131 0
  90              		.cfi_startproc
  91              		@ args = 0, pretend = 0, frame = 0
  92              		@ frame_needed = 0, uses_anonymous_args = 0
  93              	.LVL7:
 132:ssd1306.c     **** #else
 133:ssd1306.c     **** void SSD1306_begin(uint8_t vccstate, uint8_t i2caddr) {
 134:ssd1306.c     ****     _i2caddr  = i2caddr;
 135:ssd1306.c     **** #endif
ARM GAS  C:\Users\PC\AppData\Local\Temp\cccpd4eb.s 			page 5


 136:ssd1306.c     ****     _vccstate = vccstate;
  94              		.loc 1 136 0
  95 0000 384B     		ldr	r3, .L17
 131:ssd1306.c     **** #else
  96              		.loc 1 131 0
  97 0002 10B5     		push	{r4, lr}
  98              		.cfi_def_cfa_offset 8
  99              		.cfi_offset 4, -8
 100              		.cfi_offset 14, -4
 101              		.loc 1 136 0
 102 0004 1870     		strb	r0, [r3]
 131:ssd1306.c     **** #else
 103              		.loc 1 131 0
 104 0006 0400     		movs	r4, r0
 137:ssd1306.c     ****     CyDelay(10);//delay_ms(10);
 105              		.loc 1 137 0
 106 0008 0A20     		movs	r0, #10
 107              	.LVL8:
 108 000a FFF7FEFF 		bl	CyDelay
 109              	.LVL9:
 138:ssd1306.c     **** 
 139:ssd1306.c     ****   #ifdef SSD1306_SPI_MODE
 140:ssd1306.c     ****     //pOledDc_Write(HIGH);//output_high(SSD1306_DC);
 141:ssd1306.c     ****     //pOledSs_Write(HIGH);//output_high(SSD1306_CS);
 142:ssd1306.c     ****     pOledDc_Write(1);
 110              		.loc 1 142 0
 111 000e 0120     		movs	r0, #1
 112 0010 FFF7FEFF 		bl	pOledDc_Write
 113              	.LVL10:
 143:ssd1306.c     ****     //output_drive(SSD1306_DC);
 144:ssd1306.c     ****     //output_drive(SSD1306_CS);
 145:ssd1306.c     ****   #endif
 146:ssd1306.c     **** 
 147:ssd1306.c     ****   #ifdef SSD1306_RST
 148:ssd1306.c     ****     pOledReset_Write(0);
 114              		.loc 1 148 0
 115 0014 0020     		movs	r0, #0
 116 0016 FFF7FEFF 		bl	pOledReset_Write
 117              	.LVL11:
 149:ssd1306.c     ****     //output_drive(SSD1306_RST);
 150:ssd1306.c     ****     CyDelay(10);
 118              		.loc 1 150 0
 119 001a 0A20     		movs	r0, #10
 120 001c FFF7FEFF 		bl	CyDelay
 121              	.LVL12:
 151:ssd1306.c     ****     pOledReset_Write(1);
 122              		.loc 1 151 0
 123 0020 0120     		movs	r0, #1
 124 0022 FFF7FEFF 		bl	pOledReset_Write
 125              	.LVL13:
 152:ssd1306.c     ****   #endif
 153:ssd1306.c     **** 
 154:ssd1306.c     ****     // Init sequence
 155:ssd1306.c     ****     ssd1306_command(SSD1306_DISPLAYOFF);                    // 0xAE
 126              		.loc 1 155 0
 127 0026 AE20     		movs	r0, #174
 128 0028 FFF7FEFF 		bl	ssd1306_command
ARM GAS  C:\Users\PC\AppData\Local\Temp\cccpd4eb.s 			page 6


 129              	.LVL14:
 156:ssd1306.c     ****     ssd1306_command(SSD1306_SETDISPLAYCLOCKDIV);            // 0xD5
 130              		.loc 1 156 0
 131 002c D520     		movs	r0, #213
 132 002e FFF7FEFF 		bl	ssd1306_command
 133              	.LVL15:
 157:ssd1306.c     ****     ssd1306_command(0x80);                                  // the suggested ratio 0x80
 134              		.loc 1 157 0
 135 0032 8020     		movs	r0, #128
 136 0034 FFF7FEFF 		bl	ssd1306_command
 137              	.LVL16:
 158:ssd1306.c     **** 
 159:ssd1306.c     ****     ssd1306_command(SSD1306_SETMULTIPLEX);                  // 0xA8
 138              		.loc 1 159 0
 139 0038 A820     		movs	r0, #168
 140 003a FFF7FEFF 		bl	ssd1306_command
 141              	.LVL17:
 160:ssd1306.c     ****     ssd1306_command(SSD1306_LCDHEIGHT - 1);
 142              		.loc 1 160 0
 143 003e 3F20     		movs	r0, #63
 144 0040 FFF7FEFF 		bl	ssd1306_command
 145              	.LVL18:
 161:ssd1306.c     **** 
 162:ssd1306.c     ****     ssd1306_command(SSD1306_SETDISPLAYOFFSET);              // 0xD3
 146              		.loc 1 162 0
 147 0044 D320     		movs	r0, #211
 148 0046 FFF7FEFF 		bl	ssd1306_command
 149              	.LVL19:
 163:ssd1306.c     ****     ssd1306_command(0x0);                                   // no offset
 150              		.loc 1 163 0
 151 004a 0020     		movs	r0, #0
 152 004c FFF7FEFF 		bl	ssd1306_command
 153              	.LVL20:
 164:ssd1306.c     ****     ssd1306_command(SSD1306_SETSTARTLINE | 0x0);            // line #0
 154              		.loc 1 164 0
 155 0050 4020     		movs	r0, #64
 156 0052 FFF7FEFF 		bl	ssd1306_command
 157              	.LVL21:
 165:ssd1306.c     ****     ssd1306_command(SSD1306_CHARGEPUMP);                    // 0x8D
 158              		.loc 1 165 0
 159 0056 8D20     		movs	r0, #141
 160 0058 FFF7FEFF 		bl	ssd1306_command
 161              	.LVL22:
 166:ssd1306.c     ****     if (vccstate == SSD1306_EXTERNALVCC)
 167:ssd1306.c     ****         { ssd1306_command(0x10); }
 162              		.loc 1 167 0
 163 005c 1020     		movs	r0, #16
 166:ssd1306.c     ****     if (vccstate == SSD1306_EXTERNALVCC)
 164              		.loc 1 166 0
 165 005e 012C     		cmp	r4, #1
 166 0060 00D0     		beq	.L14
 168:ssd1306.c     ****     else
 169:ssd1306.c     ****         { ssd1306_command(0x14); }
 167              		.loc 1 169 0
 168 0062 1420     		movs	r0, #20
 169              	.L14:
 170 0064 FFF7FEFF 		bl	ssd1306_command
ARM GAS  C:\Users\PC\AppData\Local\Temp\cccpd4eb.s 			page 7


 171              	.LVL23:
 170:ssd1306.c     ****     ssd1306_command(SSD1306_MEMORYMODE);                    // 0x20
 172              		.loc 1 170 0
 173 0068 2020     		movs	r0, #32
 174 006a FFF7FEFF 		bl	ssd1306_command
 175              	.LVL24:
 171:ssd1306.c     ****     ssd1306_command(0x00);                                  // 0x0 act like ks0108
 176              		.loc 1 171 0
 177 006e 0020     		movs	r0, #0
 178 0070 FFF7FEFF 		bl	ssd1306_command
 179              	.LVL25:
 172:ssd1306.c     ****     ssd1306_command(SSD1306_SEGREMAP | 0x1);
 180              		.loc 1 172 0
 181 0074 A120     		movs	r0, #161
 182 0076 FFF7FEFF 		bl	ssd1306_command
 183              	.LVL26:
 173:ssd1306.c     ****     ssd1306_command(SSD1306_COMSCANDEC);
 184              		.loc 1 173 0
 185 007a C820     		movs	r0, #200
 186 007c FFF7FEFF 		bl	ssd1306_command
 187              	.LVL27:
 174:ssd1306.c     **** 
 175:ssd1306.c     ****  #if defined SSD1306_128_32
 176:ssd1306.c     ****     ssd1306_command(SSD1306_SETCOMPINS);                    // 0xDA
 177:ssd1306.c     ****     ssd1306_command(0x02);
 178:ssd1306.c     ****     ssd1306_command(SSD1306_SETCONTRAST);                   // 0x81
 179:ssd1306.c     ****     ssd1306_command(0x8F);
 180:ssd1306.c     **** 
 181:ssd1306.c     **** #elif defined SSD1306_128_64
 182:ssd1306.c     ****     ssd1306_command(SSD1306_SETCOMPINS);                    // 0xDA
 188              		.loc 1 182 0
 189 0080 DA20     		movs	r0, #218
 190 0082 FFF7FEFF 		bl	ssd1306_command
 191              	.LVL28:
 183:ssd1306.c     ****     ssd1306_command(0x12);
 192              		.loc 1 183 0
 193 0086 1220     		movs	r0, #18
 194 0088 FFF7FEFF 		bl	ssd1306_command
 195              	.LVL29:
 184:ssd1306.c     ****     ssd1306_command(SSD1306_SETCONTRAST);                   // 0x81
 196              		.loc 1 184 0
 197 008c 8120     		movs	r0, #129
 198 008e FFF7FEFF 		bl	ssd1306_command
 199              	.LVL30:
 185:ssd1306.c     ****     if (vccstate == SSD1306_EXTERNALVCC)
 186:ssd1306.c     ****         { ssd1306_command(0x9F); }
 200              		.loc 1 186 0
 201 0092 9F20     		movs	r0, #159
 185:ssd1306.c     ****     if (vccstate == SSD1306_EXTERNALVCC)
 202              		.loc 1 185 0
 203 0094 012C     		cmp	r4, #1
 204 0096 00D0     		beq	.L15
 187:ssd1306.c     ****     else
 188:ssd1306.c     ****         { ssd1306_command(0xCF); }
 205              		.loc 1 188 0
 206 0098 CF20     		movs	r0, #207
 207              	.L15:
ARM GAS  C:\Users\PC\AppData\Local\Temp\cccpd4eb.s 			page 8


 208 009a FFF7FEFF 		bl	ssd1306_command
 209              	.LVL31:
 189:ssd1306.c     **** 
 190:ssd1306.c     **** #elif defined SSD1306_96_16
 191:ssd1306.c     ****     ssd1306_command(SSD1306_SETCOMPINS);                    // 0xDA
 192:ssd1306.c     ****     ssd1306_command(0x2);   //ada x12
 193:ssd1306.c     ****     ssd1306_command(SSD1306_SETCONTRAST);                   // 0x81
 194:ssd1306.c     ****     if (vccstate == SSD1306_EXTERNALVCC)
 195:ssd1306.c     ****         { ssd1306_command(0x10); }
 196:ssd1306.c     ****     else
 197:ssd1306.c     ****         { ssd1306_command(0xAF); }
 198:ssd1306.c     **** 
 199:ssd1306.c     **** #endif
 200:ssd1306.c     **** 
 201:ssd1306.c     ****     ssd1306_command(SSD1306_SETPRECHARGE);                  // 0xd9
 210              		.loc 1 201 0
 211 009e D920     		movs	r0, #217
 212 00a0 FFF7FEFF 		bl	ssd1306_command
 213              	.LVL32:
 202:ssd1306.c     ****     if (vccstate == SSD1306_EXTERNALVCC)
 203:ssd1306.c     ****         { ssd1306_command(0x22); }
 214              		.loc 1 203 0
 215 00a4 2220     		movs	r0, #34
 202:ssd1306.c     ****     if (vccstate == SSD1306_EXTERNALVCC)
 216              		.loc 1 202 0
 217 00a6 012C     		cmp	r4, #1
 218 00a8 00D0     		beq	.L16
 204:ssd1306.c     ****     else
 205:ssd1306.c     ****         { ssd1306_command(0xF1); }
 219              		.loc 1 205 0
 220 00aa F120     		movs	r0, #241
 221              	.L16:
 222 00ac FFF7FEFF 		bl	ssd1306_command
 223              	.LVL33:
 206:ssd1306.c     ****     ssd1306_command(SSD1306_SETVCOMDETECT);                 // 0xDB
 224              		.loc 1 206 0
 225 00b0 DB20     		movs	r0, #219
 226 00b2 FFF7FEFF 		bl	ssd1306_command
 227              	.LVL34:
 207:ssd1306.c     ****     ssd1306_command(0x40);
 228              		.loc 1 207 0
 229 00b6 4020     		movs	r0, #64
 230 00b8 FFF7FEFF 		bl	ssd1306_command
 231              	.LVL35:
 208:ssd1306.c     ****     ssd1306_command(SSD1306_DISPLAYALLON_RESUME);           // 0xA4
 232              		.loc 1 208 0
 233 00bc A420     		movs	r0, #164
 234 00be FFF7FEFF 		bl	ssd1306_command
 235              	.LVL36:
 209:ssd1306.c     ****     ssd1306_command(SSD1306_NORMALDISPLAY);                 // 0xA6
 236              		.loc 1 209 0
 237 00c2 A620     		movs	r0, #166
 238 00c4 FFF7FEFF 		bl	ssd1306_command
 239              	.LVL37:
 210:ssd1306.c     **** 
 211:ssd1306.c     ****     ssd1306_command(SSD1306_DEACTIVATE_SCROLL);
 240              		.loc 1 211 0
ARM GAS  C:\Users\PC\AppData\Local\Temp\cccpd4eb.s 			page 9


 241 00c8 2E20     		movs	r0, #46
 242 00ca FFF7FEFF 		bl	ssd1306_command
 243              	.LVL38:
 212:ssd1306.c     **** 
 213:ssd1306.c     ****     ssd1306_command(SSD1306_DISPLAYON);  //--turn on oled panel
 244              		.loc 1 213 0
 245 00ce AF20     		movs	r0, #175
 246 00d0 FFF7FEFF 		bl	ssd1306_command
 247              	.LVL39:
 214:ssd1306.c     **** 
 215:ssd1306.c     ****     _height = SSD1306_LCDHEIGHT;
 248              		.loc 1 215 0
 249 00d4 4022     		movs	r2, #64
 250 00d6 044B     		ldr	r3, .L17+4
 216:ssd1306.c     ****     _width  = SSD1306_LCDWIDTH;
 217:ssd1306.c     **** }
 251              		.loc 1 217 0
 252              		@ sp needed
 215:ssd1306.c     ****     _width  = SSD1306_LCDWIDTH;
 253              		.loc 1 215 0
 254 00d8 1A70     		strb	r2, [r3]
 216:ssd1306.c     ****     _width  = SSD1306_LCDWIDTH;
 255              		.loc 1 216 0
 256 00da 044B     		ldr	r3, .L17+8
 257 00dc 9218     		adds	r2, r2, r2
 258 00de 1A70     		strb	r2, [r3]
 259              		.loc 1 217 0
 260 00e0 10BD     		pop	{r4, pc}
 261              	.L18:
 262 00e2 C046     		.align	2
 263              	.L17:
 264 00e4 00000000 		.word	_vccstate
 265 00e8 00000000 		.word	_height
 266 00ec 00000000 		.word	_width
 267              		.cfi_endproc
 268              	.LFE34:
 269              		.size	SSD1306_begin, .-SSD1306_begin
 270              		.section	.text.drawPixel,"ax",%progbits
 271              		.align	1
 272              		.global	drawPixel
 273              		.code	16
 274              		.thumb_func
 275              		.type	drawPixel, %function
 276              	drawPixel:
 277              	.LFB35:
 218:ssd1306.c     **** 
 219:ssd1306.c     **** // the most basic function, set a single pixel
 220:ssd1306.c     **** void drawPixel(uint8_t x, uint8_t y, uint8_t color) {
 278              		.loc 1 220 0
 279              		.cfi_startproc
 280              		@ args = 0, pretend = 0, frame = 0
 281              		@ frame_needed = 0, uses_anonymous_args = 0
 282              	.LVL40:
 283 0000 10B5     		push	{r4, lr}
 284              		.cfi_def_cfa_offset 8
 285              		.cfi_offset 4, -8
 286              		.cfi_offset 14, -4
ARM GAS  C:\Users\PC\AppData\Local\Temp\cccpd4eb.s 			page 10


 221:ssd1306.c     ****     if ((x >= _width) || (y >= _height))
 287              		.loc 1 221 0
 288 0002 244B     		ldr	r3, .L29
 289 0004 1B78     		ldrb	r3, [r3]
 290 0006 8342     		cmp	r3, r0
 291 0008 42D9     		bls	.L19
 292              		.loc 1 221 0 is_stmt 0 discriminator 1
 293 000a 234B     		ldr	r3, .L29+4
 294 000c 1B78     		ldrb	r3, [r3]
 295 000e 8B42     		cmp	r3, r1
 296 0010 3ED9     		bls	.L19
 222:ssd1306.c     ****         return;
 223:ssd1306.c     **** 
 224:ssd1306.c     ****     // check rotation, move pixel around if necessary
 225:ssd1306.c     ****     switch (rotation) {
 297              		.loc 1 225 0 is_stmt 1
 298 0012 224B     		ldr	r3, .L29+8
 299 0014 1B78     		ldrb	r3, [r3]
 300 0016 022B     		cmp	r3, #2
 301 0018 08D0     		beq	.L22
 302 001a 032B     		cmp	r3, #3
 303 001c 0DD0     		beq	.L23
 304 001e 012B     		cmp	r3, #1
 305 0020 0FD1     		bne	.L21
 306              	.LVL41:
 226:ssd1306.c     ****         case 1:
 227:ssd1306.c     ****             ssd1306_swap(x, y);
 228:ssd1306.c     ****             x = SSD1306_LCDWIDTH - x - 1;
 307              		.loc 1 228 0
 308 0022 7E33     		adds	r3, r3, #126
 309 0024 5B1A     		subs	r3, r3, r1
 310              	.LVL42:
 229:ssd1306.c     ****             break;
 311              		.loc 1 229 0
 312 0026 0100     		movs	r1, r0
 228:ssd1306.c     ****             break;
 313              		.loc 1 228 0
 314 0028 D8B2     		uxtb	r0, r3
 315              	.LVL43:
 316              		.loc 1 229 0
 317 002a 0AE0     		b	.L21
 318              	.LVL44:
 319              	.L22:
 230:ssd1306.c     ****         case 2:
 231:ssd1306.c     ****             x = SSD1306_LCDWIDTH - x - 1;
 320              		.loc 1 231 0
 321 002c 7F23     		movs	r3, #127
 322 002e 181A     		subs	r0, r3, r0
 323              	.LVL45:
 232:ssd1306.c     ****             y = SSD1306_LCDHEIGHT - y - 1;
 324              		.loc 1 232 0
 325 0030 403B     		subs	r3, r3, #64
 326 0032 591A     		subs	r1, r3, r1
 327              	.LVL46:
 231:ssd1306.c     ****             y = SSD1306_LCDHEIGHT - y - 1;
 328              		.loc 1 231 0
 329 0034 C0B2     		uxtb	r0, r0
ARM GAS  C:\Users\PC\AppData\Local\Temp\cccpd4eb.s 			page 11


 330              	.LVL47:
 331              		.loc 1 232 0
 332 0036 C9B2     		uxtb	r1, r1
 333              	.LVL48:
 233:ssd1306.c     ****             break;
 334              		.loc 1 233 0
 335 0038 03E0     		b	.L21
 336              	.L23:
 337              	.LVL49:
 234:ssd1306.c     ****         case 3:
 235:ssd1306.c     ****             ssd1306_swap(x, y);
 236:ssd1306.c     ****             y = SSD1306_LCDHEIGHT - y - 1;
 338              		.loc 1 236 0
 339 003a 3F23     		movs	r3, #63
 340 003c 1B1A     		subs	r3, r3, r0
 341              	.LVL50:
 237:ssd1306.c     ****             break;
 342              		.loc 1 237 0
 343 003e 0800     		movs	r0, r1
 344              	.LVL51:
 236:ssd1306.c     ****             break;
 345              		.loc 1 236 0
 346 0040 D9B2     		uxtb	r1, r3
 347              	.LVL52:
 348              	.L21:
 238:ssd1306.c     ****     }
 239:ssd1306.c     **** 
 240:ssd1306.c     ****   // x is which column
 241:ssd1306.c     ****     switch (color) {
 349              		.loc 1 241 0
 350 0042 012A     		cmp	r2, #1
 351 0044 0ED0     		beq	.L25
 352 0046 002A     		cmp	r2, #0
 353 0048 17D0     		beq	.L26
 354 004a 022A     		cmp	r2, #2
 355 004c 20D1     		bne	.L19
 242:ssd1306.c     ****       case WHITE:   ssd1306_buffer[x + (uint16_t)(y/8) * SSD1306_LCDWIDTH] |=  (1 << (y&7)); break;
 243:ssd1306.c     ****       case BLACK:   ssd1306_buffer[x + (uint16_t)(y/8) * SSD1306_LCDWIDTH] &= ~(1 << (y&7)); break;
 244:ssd1306.c     ****       case INVERSE: ssd1306_buffer[x + (uint16_t)(y/8) * SSD1306_LCDWIDTH] ^=  (1 << (y&7)); break;
 356              		.loc 1 244 0
 357 004e CB08     		lsrs	r3, r1, #3
 358 0050 DB01     		lsls	r3, r3, #7
 359 0052 1818     		adds	r0, r3, r0
 360              	.LVL53:
 361 0054 0723     		movs	r3, #7
 362 0056 1940     		ands	r1, r3
 363              	.LVL54:
 364 0058 063B     		subs	r3, r3, #6
 365 005a 8B40     		lsls	r3, r3, r1
 366 005c 104C     		ldr	r4, .L29+12
 367 005e 225C     		ldrb	r2, [r4, r0]
 368              	.LVL55:
 369 0060 5340     		eors	r3, r2
 370 0062 14E0     		b	.L28
 371              	.LVL56:
 372              	.L25:
 242:ssd1306.c     ****       case WHITE:   ssd1306_buffer[x + (uint16_t)(y/8) * SSD1306_LCDWIDTH] |=  (1 << (y&7)); break;
ARM GAS  C:\Users\PC\AppData\Local\Temp\cccpd4eb.s 			page 12


 373              		.loc 1 242 0
 374 0064 CB08     		lsrs	r3, r1, #3
 375 0066 DB01     		lsls	r3, r3, #7
 376 0068 1818     		adds	r0, r3, r0
 377              	.LVL57:
 378 006a 0723     		movs	r3, #7
 379 006c 1940     		ands	r1, r3
 380              	.LVL58:
 381 006e 8A40     		lsls	r2, r2, r1
 382              	.LVL59:
 383 0070 0B4C     		ldr	r4, .L29+12
 384 0072 235C     		ldrb	r3, [r4, r0]
 385 0074 1A43     		orrs	r2, r3
 386 0076 2254     		strb	r2, [r4, r0]
 387 0078 0AE0     		b	.L19
 388              	.LVL60:
 389              	.L26:
 243:ssd1306.c     ****       case INVERSE: ssd1306_buffer[x + (uint16_t)(y/8) * SSD1306_LCDWIDTH] ^=  (1 << (y&7)); break;
 390              		.loc 1 243 0
 391 007a CB08     		lsrs	r3, r1, #3
 392 007c DB01     		lsls	r3, r3, #7
 393 007e 1818     		adds	r0, r3, r0
 394              	.LVL61:
 395 0080 0723     		movs	r3, #7
 396 0082 0122     		movs	r2, #1
 397              	.LVL62:
 398 0084 1940     		ands	r1, r3
 399              	.LVL63:
 400 0086 8A40     		lsls	r2, r2, r1
 401 0088 054C     		ldr	r4, .L29+12
 402 008a 235C     		ldrb	r3, [r4, r0]
 403 008c 9343     		bics	r3, r2
 404              	.L28:
 405              		.loc 1 244 0
 406 008e 2354     		strb	r3, [r4, r0]
 407              	.L19:
 245:ssd1306.c     ****     }
 246:ssd1306.c     **** 
 247:ssd1306.c     **** }
 408              		.loc 1 247 0
 409              		@ sp needed
 410 0090 10BD     		pop	{r4, pc}
 411              	.L30:
 412 0092 C046     		.align	2
 413              	.L29:
 414 0094 00000000 		.word	_width
 415 0098 00000000 		.word	_height
 416 009c 00000000 		.word	rotation
 417 00a0 00000000 		.word	.LANCHOR0
 418              		.cfi_endproc
 419              	.LFE35:
 420              		.size	drawPixel, .-drawPixel
 421              		.section	.text.display_startScrollRight,"ax",%progbits
 422              		.align	1
 423              		.global	display_startScrollRight
 424              		.code	16
 425              		.thumb_func
ARM GAS  C:\Users\PC\AppData\Local\Temp\cccpd4eb.s 			page 13


 426              		.type	display_startScrollRight, %function
 427              	display_startScrollRight:
 428              	.LFB36:
 248:ssd1306.c     **** 
 249:ssd1306.c     **** // startscrollright
 250:ssd1306.c     **** // Activate a right handed scroll for rows start through stop
 251:ssd1306.c     **** // Hint, the display is 16 rows tall. To scroll the whole display, run:
 252:ssd1306.c     **** // display_scrollright(0x00, 0x0F)
 253:ssd1306.c     **** void display_startScrollRight(uint8_t start, uint8_t stop) {
 429              		.loc 1 253 0
 430              		.cfi_startproc
 431              		@ args = 0, pretend = 0, frame = 0
 432              		@ frame_needed = 0, uses_anonymous_args = 0
 433              	.LVL64:
 434 0000 70B5     		push	{r4, r5, r6, lr}
 435              		.cfi_def_cfa_offset 16
 436              		.cfi_offset 4, -16
 437              		.cfi_offset 5, -12
 438              		.cfi_offset 6, -8
 439              		.cfi_offset 14, -4
 440              		.loc 1 253 0
 441 0002 0500     		movs	r5, r0
 442 0004 0C00     		movs	r4, r1
 254:ssd1306.c     ****     ssd1306_command(SSD1306_RIGHT_HORIZONTAL_SCROLL);
 443              		.loc 1 254 0
 444 0006 2620     		movs	r0, #38
 445              	.LVL65:
 446 0008 FFF7FEFF 		bl	ssd1306_command
 447              	.LVL66:
 255:ssd1306.c     ****     ssd1306_command(0X00);
 448              		.loc 1 255 0
 449 000c 0020     		movs	r0, #0
 450 000e FFF7FEFF 		bl	ssd1306_command
 451              	.LVL67:
 256:ssd1306.c     ****     ssd1306_command(start);
 452              		.loc 1 256 0
 453 0012 2800     		movs	r0, r5
 454 0014 FFF7FEFF 		bl	ssd1306_command
 455              	.LVL68:
 257:ssd1306.c     ****     ssd1306_command(0X00);
 456              		.loc 1 257 0
 457 0018 0020     		movs	r0, #0
 458 001a FFF7FEFF 		bl	ssd1306_command
 459              	.LVL69:
 258:ssd1306.c     ****     ssd1306_command(stop);
 460              		.loc 1 258 0
 461 001e 2000     		movs	r0, r4
 462 0020 FFF7FEFF 		bl	ssd1306_command
 463              	.LVL70:
 259:ssd1306.c     ****     ssd1306_command(0X00);
 464              		.loc 1 259 0
 465 0024 0020     		movs	r0, #0
 466 0026 FFF7FEFF 		bl	ssd1306_command
 467              	.LVL71:
 260:ssd1306.c     ****     ssd1306_command(0XFF);
 468              		.loc 1 260 0
 469 002a FF20     		movs	r0, #255
ARM GAS  C:\Users\PC\AppData\Local\Temp\cccpd4eb.s 			page 14


 470 002c FFF7FEFF 		bl	ssd1306_command
 471              	.LVL72:
 261:ssd1306.c     ****     ssd1306_command(SSD1306_ACTIVATE_SCROLL);
 472              		.loc 1 261 0
 473 0030 2F20     		movs	r0, #47
 474 0032 FFF7FEFF 		bl	ssd1306_command
 475              	.LVL73:
 262:ssd1306.c     **** }
 476              		.loc 1 262 0
 477              		@ sp needed
 478 0036 70BD     		pop	{r4, r5, r6, pc}
 479              		.cfi_endproc
 480              	.LFE36:
 481              		.size	display_startScrollRight, .-display_startScrollRight
 482              		.section	.text.display_startScrollLeft,"ax",%progbits
 483              		.align	1
 484              		.global	display_startScrollLeft
 485              		.code	16
 486              		.thumb_func
 487              		.type	display_startScrollLeft, %function
 488              	display_startScrollLeft:
 489              	.LFB37:
 263:ssd1306.c     **** 
 264:ssd1306.c     **** // startscrollleft
 265:ssd1306.c     **** // Activate a right handed scroll for rows start through stop
 266:ssd1306.c     **** // Hint, the display is 16 rows tall. To scroll the whole display, run:
 267:ssd1306.c     **** // display_scrollright(0x00, 0x0F)
 268:ssd1306.c     **** void display_startScrollLeft(uint8_t start, uint8_t stop) {
 490              		.loc 1 268 0
 491              		.cfi_startproc
 492              		@ args = 0, pretend = 0, frame = 0
 493              		@ frame_needed = 0, uses_anonymous_args = 0
 494              	.LVL74:
 495 0000 70B5     		push	{r4, r5, r6, lr}
 496              		.cfi_def_cfa_offset 16
 497              		.cfi_offset 4, -16
 498              		.cfi_offset 5, -12
 499              		.cfi_offset 6, -8
 500              		.cfi_offset 14, -4
 501              		.loc 1 268 0
 502 0002 0500     		movs	r5, r0
 503 0004 0C00     		movs	r4, r1
 269:ssd1306.c     ****     ssd1306_command(SSD1306_LEFT_HORIZONTAL_SCROLL);
 504              		.loc 1 269 0
 505 0006 2720     		movs	r0, #39
 506              	.LVL75:
 507 0008 FFF7FEFF 		bl	ssd1306_command
 508              	.LVL76:
 270:ssd1306.c     ****     ssd1306_command(0X00);
 509              		.loc 1 270 0
 510 000c 0020     		movs	r0, #0
 511 000e FFF7FEFF 		bl	ssd1306_command
 512              	.LVL77:
 271:ssd1306.c     ****     ssd1306_command(start);
 513              		.loc 1 271 0
 514 0012 2800     		movs	r0, r5
 515 0014 FFF7FEFF 		bl	ssd1306_command
ARM GAS  C:\Users\PC\AppData\Local\Temp\cccpd4eb.s 			page 15


 516              	.LVL78:
 272:ssd1306.c     ****     ssd1306_command(0X00);//0x07,0x00
 517              		.loc 1 272 0
 518 0018 0020     		movs	r0, #0
 519 001a FFF7FEFF 		bl	ssd1306_command
 520              	.LVL79:
 273:ssd1306.c     ****     ssd1306_command(stop);
 521              		.loc 1 273 0
 522 001e 2000     		movs	r0, r4
 523 0020 FFF7FEFF 		bl	ssd1306_command
 524              	.LVL80:
 274:ssd1306.c     ****     ssd1306_command(0X00);
 525              		.loc 1 274 0
 526 0024 0020     		movs	r0, #0
 527 0026 FFF7FEFF 		bl	ssd1306_command
 528              	.LVL81:
 275:ssd1306.c     ****     ssd1306_command(0XFF);
 529              		.loc 1 275 0
 530 002a FF20     		movs	r0, #255
 531 002c FFF7FEFF 		bl	ssd1306_command
 532              	.LVL82:
 276:ssd1306.c     ****     ssd1306_command(SSD1306_ACTIVATE_SCROLL);
 533              		.loc 1 276 0
 534 0030 2F20     		movs	r0, #47
 535 0032 FFF7FEFF 		bl	ssd1306_command
 536              	.LVL83:
 277:ssd1306.c     **** }
 537              		.loc 1 277 0
 538              		@ sp needed
 539 0036 70BD     		pop	{r4, r5, r6, pc}
 540              		.cfi_endproc
 541              	.LFE37:
 542              		.size	display_startScrollLeft, .-display_startScrollLeft
 543              		.section	.text.display_startScrollDiagRight,"ax",%progbits
 544              		.align	1
 545              		.global	display_startScrollDiagRight
 546              		.code	16
 547              		.thumb_func
 548              		.type	display_startScrollDiagRight, %function
 549              	display_startScrollDiagRight:
 550              	.LFB38:
 278:ssd1306.c     **** 
 279:ssd1306.c     **** // startscrolldiagright
 280:ssd1306.c     **** // Activate a diagonal scroll for rows start through stop
 281:ssd1306.c     **** // Hint, the display is 16 rows tall. To scroll the whole display, run:
 282:ssd1306.c     **** // display_scrollright(0x00, 0x0F)
 283:ssd1306.c     **** void display_startScrollDiagRight(uint8_t start, uint8_t stop) {
 551              		.loc 1 283 0
 552              		.cfi_startproc
 553              		@ args = 0, pretend = 0, frame = 0
 554              		@ frame_needed = 0, uses_anonymous_args = 0
 555              	.LVL84:
 556 0000 70B5     		push	{r4, r5, r6, lr}
 557              		.cfi_def_cfa_offset 16
 558              		.cfi_offset 4, -16
 559              		.cfi_offset 5, -12
 560              		.cfi_offset 6, -8
ARM GAS  C:\Users\PC\AppData\Local\Temp\cccpd4eb.s 			page 16


 561              		.cfi_offset 14, -4
 562              		.loc 1 283 0
 563 0002 0500     		movs	r5, r0
 564 0004 0C00     		movs	r4, r1
 284:ssd1306.c     ****     ssd1306_command(SSD1306_SET_VERTICAL_SCROLL_AREA);
 565              		.loc 1 284 0
 566 0006 A320     		movs	r0, #163
 567              	.LVL85:
 568 0008 FFF7FEFF 		bl	ssd1306_command
 569              	.LVL86:
 285:ssd1306.c     ****     ssd1306_command(0X00);
 570              		.loc 1 285 0
 571 000c 0020     		movs	r0, #0
 572 000e FFF7FEFF 		bl	ssd1306_command
 573              	.LVL87:
 286:ssd1306.c     ****     ssd1306_command(SSD1306_LCDHEIGHT);
 574              		.loc 1 286 0
 575 0012 4020     		movs	r0, #64
 576 0014 FFF7FEFF 		bl	ssd1306_command
 577              	.LVL88:
 287:ssd1306.c     ****     ssd1306_command(SSD1306_VERTICAL_AND_RIGHT_HORIZONTAL_SCROLL);
 578              		.loc 1 287 0
 579 0018 2920     		movs	r0, #41
 580 001a FFF7FEFF 		bl	ssd1306_command
 581              	.LVL89:
 288:ssd1306.c     ****     ssd1306_command(0X00);
 582              		.loc 1 288 0
 583 001e 0020     		movs	r0, #0
 584 0020 FFF7FEFF 		bl	ssd1306_command
 585              	.LVL90:
 289:ssd1306.c     ****     ssd1306_command(start);
 586              		.loc 1 289 0
 587 0024 2800     		movs	r0, r5
 588 0026 FFF7FEFF 		bl	ssd1306_command
 589              	.LVL91:
 290:ssd1306.c     ****     ssd1306_command(0X00);
 590              		.loc 1 290 0
 591 002a 0020     		movs	r0, #0
 592 002c FFF7FEFF 		bl	ssd1306_command
 593              	.LVL92:
 291:ssd1306.c     ****     ssd1306_command(stop);
 594              		.loc 1 291 0
 595 0030 2000     		movs	r0, r4
 596 0032 FFF7FEFF 		bl	ssd1306_command
 597              	.LVL93:
 292:ssd1306.c     ****     ssd1306_command(0X01);
 598              		.loc 1 292 0
 599 0036 0120     		movs	r0, #1
 600 0038 FFF7FEFF 		bl	ssd1306_command
 601              	.LVL94:
 293:ssd1306.c     ****     ssd1306_command(SSD1306_ACTIVATE_SCROLL);
 602              		.loc 1 293 0
 603 003c 2F20     		movs	r0, #47
 604 003e FFF7FEFF 		bl	ssd1306_command
 605              	.LVL95:
 294:ssd1306.c     **** }
 606              		.loc 1 294 0
ARM GAS  C:\Users\PC\AppData\Local\Temp\cccpd4eb.s 			page 17


 607              		@ sp needed
 608 0042 70BD     		pop	{r4, r5, r6, pc}
 609              		.cfi_endproc
 610              	.LFE38:
 611              		.size	display_startScrollDiagRight, .-display_startScrollDiagRight
 612              		.section	.text.display_startScrollDiagLeft,"ax",%progbits
 613              		.align	1
 614              		.global	display_startScrollDiagLeft
 615              		.code	16
 616              		.thumb_func
 617              		.type	display_startScrollDiagLeft, %function
 618              	display_startScrollDiagLeft:
 619              	.LFB39:
 295:ssd1306.c     **** 
 296:ssd1306.c     **** // startscrolldiagleft
 297:ssd1306.c     **** // Activate a diagonal scroll for rows start through stop
 298:ssd1306.c     **** // Hint, the display is 16 rows tall. To scroll the whole display, run:
 299:ssd1306.c     **** // display_scrollright(0x00, 0x0F)
 300:ssd1306.c     **** void display_startScrollDiagLeft(uint8_t start, uint8_t stop) {
 620              		.loc 1 300 0
 621              		.cfi_startproc
 622              		@ args = 0, pretend = 0, frame = 0
 623              		@ frame_needed = 0, uses_anonymous_args = 0
 624              	.LVL96:
 625 0000 70B5     		push	{r4, r5, r6, lr}
 626              		.cfi_def_cfa_offset 16
 627              		.cfi_offset 4, -16
 628              		.cfi_offset 5, -12
 629              		.cfi_offset 6, -8
 630              		.cfi_offset 14, -4
 631              		.loc 1 300 0
 632 0002 0500     		movs	r5, r0
 633 0004 0C00     		movs	r4, r1
 301:ssd1306.c     ****     ssd1306_command(SSD1306_SET_VERTICAL_SCROLL_AREA);
 634              		.loc 1 301 0
 635 0006 A320     		movs	r0, #163
 636              	.LVL97:
 637 0008 FFF7FEFF 		bl	ssd1306_command
 638              	.LVL98:
 302:ssd1306.c     ****     ssd1306_command(0X00);
 639              		.loc 1 302 0
 640 000c 0020     		movs	r0, #0
 641 000e FFF7FEFF 		bl	ssd1306_command
 642              	.LVL99:
 303:ssd1306.c     ****     ssd1306_command(SSD1306_LCDHEIGHT);
 643              		.loc 1 303 0
 644 0012 4020     		movs	r0, #64
 645 0014 FFF7FEFF 		bl	ssd1306_command
 646              	.LVL100:
 304:ssd1306.c     ****     ssd1306_command(SSD1306_VERTICAL_AND_LEFT_HORIZONTAL_SCROLL);
 647              		.loc 1 304 0
 648 0018 2A20     		movs	r0, #42
 649 001a FFF7FEFF 		bl	ssd1306_command
 650              	.LVL101:
 305:ssd1306.c     ****     ssd1306_command(0X00);
 651              		.loc 1 305 0
 652 001e 0020     		movs	r0, #0
ARM GAS  C:\Users\PC\AppData\Local\Temp\cccpd4eb.s 			page 18


 653 0020 FFF7FEFF 		bl	ssd1306_command
 654              	.LVL102:
 306:ssd1306.c     ****     ssd1306_command(start);
 655              		.loc 1 306 0
 656 0024 2800     		movs	r0, r5
 657 0026 FFF7FEFF 		bl	ssd1306_command
 658              	.LVL103:
 307:ssd1306.c     ****     ssd1306_command(0X00);
 659              		.loc 1 307 0
 660 002a 0020     		movs	r0, #0
 661 002c FFF7FEFF 		bl	ssd1306_command
 662              	.LVL104:
 308:ssd1306.c     ****     ssd1306_command(stop);
 663              		.loc 1 308 0
 664 0030 2000     		movs	r0, r4
 665 0032 FFF7FEFF 		bl	ssd1306_command
 666              	.LVL105:
 309:ssd1306.c     ****     ssd1306_command(0X01);
 667              		.loc 1 309 0
 668 0036 0120     		movs	r0, #1
 669 0038 FFF7FEFF 		bl	ssd1306_command
 670              	.LVL106:
 310:ssd1306.c     ****     ssd1306_command(SSD1306_ACTIVATE_SCROLL);
 671              		.loc 1 310 0
 672 003c 2F20     		movs	r0, #47
 673 003e FFF7FEFF 		bl	ssd1306_command
 674              	.LVL107:
 311:ssd1306.c     **** }
 675              		.loc 1 311 0
 676              		@ sp needed
 677 0042 70BD     		pop	{r4, r5, r6, pc}
 678              		.cfi_endproc
 679              	.LFE39:
 680              		.size	display_startScrollDiagLeft, .-display_startScrollDiagLeft
 681              		.section	.text.display_stopScroll,"ax",%progbits
 682              		.align	1
 683              		.global	display_stopScroll
 684              		.code	16
 685              		.thumb_func
 686              		.type	display_stopScroll, %function
 687              	display_stopScroll:
 688              	.LFB40:
 312:ssd1306.c     **** 
 313:ssd1306.c     **** void display_stopScroll(void) {
 689              		.loc 1 313 0
 690              		.cfi_startproc
 691              		@ args = 0, pretend = 0, frame = 0
 692              		@ frame_needed = 0, uses_anonymous_args = 0
 693 0000 10B5     		push	{r4, lr}
 694              		.cfi_def_cfa_offset 8
 695              		.cfi_offset 4, -8
 696              		.cfi_offset 14, -4
 314:ssd1306.c     ****     ssd1306_command(SSD1306_DEACTIVATE_SCROLL);
 697              		.loc 1 314 0
 698 0002 2E20     		movs	r0, #46
 699 0004 FFF7FEFF 		bl	ssd1306_command
 700              	.LVL108:
ARM GAS  C:\Users\PC\AppData\Local\Temp\cccpd4eb.s 			page 19


 315:ssd1306.c     **** }
 701              		.loc 1 315 0
 702              		@ sp needed
 703 0008 10BD     		pop	{r4, pc}
 704              		.cfi_endproc
 705              	.LFE40:
 706              		.size	display_stopScroll, .-display_stopScroll
 707              		.section	.text.display_dim,"ax",%progbits
 708              		.align	1
 709              		.global	display_dim
 710              		.code	16
 711              		.thumb_func
 712              		.type	display_dim, %function
 713              	display_dim:
 714              	.LFB41:
 316:ssd1306.c     **** 
 317:ssd1306.c     **** // Dim the display
 318:ssd1306.c     **** // dim = true: display is dimmed
 319:ssd1306.c     **** // dim = false: display is normal
 320:ssd1306.c     **** void display_dim(bool dim)
 321:ssd1306.c     **** {
 715              		.loc 1 321 0
 716              		.cfi_startproc
 717              		@ args = 0, pretend = 0, frame = 0
 718              		@ frame_needed = 0, uses_anonymous_args = 0
 719              	.LVL109:
 720 0000 10B5     		push	{r4, lr}
 721              		.cfi_def_cfa_offset 8
 722              		.cfi_offset 4, -8
 723              		.cfi_offset 14, -4
 322:ssd1306.c     ****   uint8_t contrast;
 323:ssd1306.c     ****   if (dim)
 324:ssd1306.c     ****     contrast = 0; // Dimmed display
 724              		.loc 1 324 0
 725 0002 0024     		movs	r4, #0
 323:ssd1306.c     ****     contrast = 0; // Dimmed display
 726              		.loc 1 323 0
 727 0004 A042     		cmp	r0, r4
 728 0006 05D1     		bne	.L37
 325:ssd1306.c     ****   else {
 326:ssd1306.c     ****     if (_vccstate == SSD1306_EXTERNALVCC)
 729              		.loc 1 326 0
 730 0008 064B     		ldr	r3, .L40
 327:ssd1306.c     ****       contrast = 0x9F;
 731              		.loc 1 327 0
 732 000a 9F34     		adds	r4, r4, #159
 326:ssd1306.c     ****       contrast = 0x9F;
 733              		.loc 1 326 0
 734 000c 1B78     		ldrb	r3, [r3]
 735 000e 012B     		cmp	r3, #1
 736 0010 00D0     		beq	.L37
 328:ssd1306.c     ****     else
 329:ssd1306.c     ****       contrast = 0xCF;
 737              		.loc 1 329 0
 738 0012 3034     		adds	r4, r4, #48
 739              	.L37:
 740              	.LVL110:
ARM GAS  C:\Users\PC\AppData\Local\Temp\cccpd4eb.s 			page 20


 330:ssd1306.c     ****   }
 331:ssd1306.c     ****   // the range of contrast to too small to be really useful
 332:ssd1306.c     ****   // it is useful to dim the display
 333:ssd1306.c     ****   ssd1306_command(SSD1306_SETCONTRAST);
 741              		.loc 1 333 0
 742 0014 8120     		movs	r0, #129
 743              	.LVL111:
 744 0016 FFF7FEFF 		bl	ssd1306_command
 745              	.LVL112:
 334:ssd1306.c     ****   ssd1306_command(contrast);
 746              		.loc 1 334 0
 747 001a 2000     		movs	r0, r4
 748 001c FFF7FEFF 		bl	ssd1306_command
 749              	.LVL113:
 335:ssd1306.c     **** }
 750              		.loc 1 335 0
 751              		@ sp needed
 752              	.LVL114:
 753 0020 10BD     		pop	{r4, pc}
 754              	.L41:
 755 0022 C046     		.align	2
 756              	.L40:
 757 0024 00000000 		.word	_vccstate
 758              		.cfi_endproc
 759              	.LFE41:
 760              		.size	display_dim, .-display_dim
 761              		.section	.text.display,"ax",%progbits
 762              		.align	1
 763              		.global	display
 764              		.code	16
 765              		.thumb_func
 766              		.type	display, %function
 767              	display:
 768              	.LFB42:
 336:ssd1306.c     **** 
 337:ssd1306.c     **** void display(void)
 338:ssd1306.c     **** {
 769              		.loc 1 338 0
 770              		.cfi_startproc
 771              		@ args = 0, pretend = 0, frame = 0
 772              		@ frame_needed = 0, uses_anonymous_args = 0
 773 0000 10B5     		push	{r4, lr}
 774              		.cfi_def_cfa_offset 8
 775              		.cfi_offset 4, -8
 776              		.cfi_offset 14, -4
 339:ssd1306.c     ****   ssd1306_command(SSD1306_COLUMNADDR);
 777              		.loc 1 339 0
 778 0002 2120     		movs	r0, #33
 779 0004 FFF7FEFF 		bl	ssd1306_command
 780              	.LVL115:
 340:ssd1306.c     ****   ssd1306_command(0);   // Column start address (0 = reset)
 781              		.loc 1 340 0
 782 0008 0020     		movs	r0, #0
 783 000a FFF7FEFF 		bl	ssd1306_command
 784              	.LVL116:
 341:ssd1306.c     ****   ssd1306_command(SSD1306_LCDWIDTH-1); // Column end address (127 = reset)
 785              		.loc 1 341 0
ARM GAS  C:\Users\PC\AppData\Local\Temp\cccpd4eb.s 			page 21


 786 000e 7F20     		movs	r0, #127
 787 0010 FFF7FEFF 		bl	ssd1306_command
 788              	.LVL117:
 342:ssd1306.c     **** 
 343:ssd1306.c     ****   ssd1306_command(SSD1306_PAGEADDR);
 789              		.loc 1 343 0
 790 0014 2220     		movs	r0, #34
 791 0016 FFF7FEFF 		bl	ssd1306_command
 792              	.LVL118:
 344:ssd1306.c     ****   ssd1306_command(0); // Page start address (0 = reset)
 793              		.loc 1 344 0
 794 001a 0020     		movs	r0, #0
 795 001c FFF7FEFF 		bl	ssd1306_command
 796              	.LVL119:
 345:ssd1306.c     ****   #if SSD1306_LCDHEIGHT == 64
 346:ssd1306.c     ****     ssd1306_command(7); // Page end address
 797              		.loc 1 346 0
 798 0020 0720     		movs	r0, #7
 799 0022 FFF7FEFF 		bl	ssd1306_command
 800              	.LVL120:
 347:ssd1306.c     ****   #endif
 348:ssd1306.c     ****   #if SSD1306_LCDHEIGHT == 32
 349:ssd1306.c     ****     ssd1306_command(3); // Page end address
 350:ssd1306.c     ****   #endif
 351:ssd1306.c     ****   #if SSD1306_LCDHEIGHT == 16
 352:ssd1306.c     ****     ssd1306_command(1); // Page end address
 353:ssd1306.c     ****   #endif
 354:ssd1306.c     **** 
 355:ssd1306.c     ****   /*for (uint16_t i = 0; i < (SSD1306_LCDWIDTH*SSD1306_LCDHEIGHT / 8); i++) {
 356:ssd1306.c     ****       // send a bunch of data in one xmission
 357:ssd1306.c     ****       #ifdef SSD1306_SPI_MODE
 358:ssd1306.c     ****       //pOledSs_Write(LOW);//output_low(SSD1306_CS);
 359:ssd1306.c     ****       //SoftSPI_WriteByte(ssd1306_buffer[i]);//SpiOled_WriteByte(ssd1306_buffer[i]);//SSD1306_SPI_W
 360:ssd1306.c     ****       //while((SpiOled_ReadTxStatus() & (SpiOled_STS_SPI_DONE | SpiOled_STS_SPI_IDLE)) == false);
 361:ssd1306.c     ****       //SpiOled_WriteTxData(ssd1306_buffer[i]);CyDelayUs(HWSPIDELAY);//SpiOled_WriteByte(ssd1306_bu
 362:ssd1306.c     ****         pOledDc_Write(1);
 363:ssd1306.c     ****         mSPI_SpiUartPutArray(&ssd1306_buffer[i], 1);
 364:ssd1306.c     ****         while (0u != (mSPI_SpiUartGetTxBufferSize() + mSPI_GET_TX_FIFO_SR_VALID));
 365:ssd1306.c     ****       //pOledSs_Write(HIGH);//output_high(SSD1306_CS);
 366:ssd1306.c     ****       #else
 367:ssd1306.c     ****       SSD1306_I2C_Start;
 368:ssd1306.c     ****       SSD1306_I2C_Write(_i2caddr);
 369:ssd1306.c     ****       SSD1306_I2C_Write(0x40);
 370:ssd1306.c     ****       for (uint8_t x = 0; x < 16; x++) {
 371:ssd1306.c     ****         SSD1306_I2C_Write(ssd1306_buffer[i]);
 372:ssd1306.c     ****         i++;
 373:ssd1306.c     ****       }
 374:ssd1306.c     ****       i--;
 375:ssd1306.c     ****       SSD1306_I2C_Stop;
 376:ssd1306.c     ****       #endif
 377:ssd1306.c     ****     }//*/
 378:ssd1306.c     ****     pOledDc_Write(1);
 801              		.loc 1 378 0
 802 0026 0120     		movs	r0, #1
 803 0028 FFF7FEFF 		bl	pOledDc_Write
 804              	.LVL121:
 379:ssd1306.c     ****     mSPI_SpiUartPutArray(ssd1306_buffer, SSD1306_LCDWIDTH*SSD1306_LCDHEIGHT / 8);
ARM GAS  C:\Users\PC\AppData\Local\Temp\cccpd4eb.s 			page 22


 805              		.loc 1 379 0
 806 002c 8021     		movs	r1, #128
 807 002e 0748     		ldr	r0, .L45
 808 0030 C900     		lsls	r1, r1, #3
 809 0032 FFF7FEFF 		bl	mSPI_SpiUartPutArray
 810              	.LVL122:
 380:ssd1306.c     ****     while (0u != (mSPI_SpiUartGetTxBufferSize() + mSPI_GET_TX_FIFO_SR_VALID));//*/
 811              		.loc 1 380 0
 812 0036 0124     		movs	r4, #1
 813              	.L43:
 814              		.loc 1 380 0 is_stmt 0 discriminator 5
 815 0038 FFF7FEFF 		bl	mSPI_SpiUartGetTxBufferSize
 816              	.LVL123:
 817 003c 044B     		ldr	r3, .L45+4
 818 003e 1B68     		ldr	r3, [r3]
 819 0040 DB0B     		lsrs	r3, r3, #15
 820 0042 2340     		ands	r3, r4
 821 0044 1B18     		adds	r3, r3, r0
 822 0046 002B     		cmp	r3, #0
 823 0048 F6D1     		bne	.L43
 381:ssd1306.c     **** }
 824              		.loc 1 381 0 is_stmt 1
 825              		@ sp needed
 826 004a 10BD     		pop	{r4, pc}
 827              	.L46:
 828              		.align	2
 829              	.L45:
 830 004c 00000000 		.word	.LANCHOR0
 831 0050 08020940 		.word	1074332168
 832              		.cfi_endproc
 833              	.LFE42:
 834              		.size	display, .-display
 835              		.section	.text.display_setColum,"ax",%progbits
 836              		.align	1
 837              		.global	display_setColum
 838              		.code	16
 839              		.thumb_func
 840              		.type	display_setColum, %function
 841              	display_setColum:
 842              	.LFB57:
 843              		.cfi_startproc
 844              		@ args = 0, pretend = 0, frame = 0
 845              		@ frame_needed = 0, uses_anonymous_args = 0
 846              		@ link register save eliminated.
 847              		@ sp needed
 848 0000 7047     		bx	lr
 849              		.cfi_endproc
 850              	.LFE57:
 851              		.size	display_setColum, .-display_setColum
 852              		.section	.text.display_setRow,"ax",%progbits
 853              		.align	1
 854              		.global	display_setRow
 855              		.code	16
 856              		.thumb_func
 857              		.type	display_setRow, %function
 858              	display_setRow:
 859              	.LFB44:
ARM GAS  C:\Users\PC\AppData\Local\Temp\cccpd4eb.s 			page 23


 382:ssd1306.c     **** 
 383:ssd1306.c     **** void display_setColum(uint8 col) {
 384:ssd1306.c     **** }
 385:ssd1306.c     **** 
 386:ssd1306.c     **** void display_setRow(uint8 row) {
 860              		.loc 1 386 0
 861              		.cfi_startproc
 862              		@ args = 0, pretend = 0, frame = 0
 863              		@ frame_needed = 0, uses_anonymous_args = 0
 864              		@ link register save eliminated.
 865              	.LVL124:
 387:ssd1306.c     **** }
 866              		.loc 1 387 0
 867              		@ sp needed
 868 0000 7047     		bx	lr
 869              		.cfi_endproc
 870              	.LFE44:
 871              		.size	display_setRow, .-display_setRow
 872              		.section	.text.display_directSetVertical,"ax",%progbits
 873              		.align	1
 874              		.global	display_directSetVertical
 875              		.code	16
 876              		.thumb_func
 877              		.type	display_directSetVertical, %function
 878              	display_directSetVertical:
 879              	.LFB45:
 388:ssd1306.c     **** 
 389:ssd1306.c     **** void display_directSetVertical(uint8 *inData) {
 880              		.loc 1 389 0
 881              		.cfi_startproc
 882              		@ args = 0, pretend = 0, frame = 0
 883              		@ frame_needed = 0, uses_anonymous_args = 0
 884              	.LVL125:
 885 0000 70B5     		push	{r4, r5, r6, lr}
 886              		.cfi_def_cfa_offset 16
 887              		.cfi_offset 4, -16
 888              		.cfi_offset 5, -12
 889              		.cfi_offset 6, -8
 890              		.cfi_offset 14, -4
 891              		.loc 1 389 0
 892 0002 0500     		movs	r5, r0
 390:ssd1306.c     ****     ssd1306_command(SSD1306_COLUMNADDR);
 893              		.loc 1 390 0
 894 0004 2120     		movs	r0, #33
 895              	.LVL126:
 896 0006 FFF7FEFF 		bl	ssd1306_command
 897              	.LVL127:
 391:ssd1306.c     ****     ssd1306_command(0);   // Column start address (0 = reset)
 898              		.loc 1 391 0
 899 000a 0020     		movs	r0, #0
 900 000c FFF7FEFF 		bl	ssd1306_command
 901              	.LVL128:
 392:ssd1306.c     ****     ssd1306_command(SSD1306_LCDWIDTH-1); // Column end address (127 = reset)
 902              		.loc 1 392 0
 903 0010 7F20     		movs	r0, #127
 904 0012 FFF7FEFF 		bl	ssd1306_command
 905              	.LVL129:
ARM GAS  C:\Users\PC\AppData\Local\Temp\cccpd4eb.s 			page 24


 393:ssd1306.c     **** 
 394:ssd1306.c     ****     ssd1306_command(SSD1306_PAGEADDR);
 906              		.loc 1 394 0
 907 0016 2220     		movs	r0, #34
 908 0018 FFF7FEFF 		bl	ssd1306_command
 909              	.LVL130:
 395:ssd1306.c     ****     ssd1306_command(0); // Page start address (0 = reset)
 910              		.loc 1 395 0
 911 001c 0020     		movs	r0, #0
 912 001e FFF7FEFF 		bl	ssd1306_command
 913              	.LVL131:
 396:ssd1306.c     ****     #if SSD1306_LCDHEIGHT == 64
 397:ssd1306.c     ****     ssd1306_command(7); // Page end address
 914              		.loc 1 397 0
 915 0022 0720     		movs	r0, #7
 916 0024 FFF7FEFF 		bl	ssd1306_command
 917              	.LVL132:
 918 0028 0824     		movs	r4, #8
 919              	.LBB2:
 398:ssd1306.c     ****     #endif
 399:ssd1306.c     ****     #if SSD1306_LCDHEIGHT == 32
 400:ssd1306.c     ****     ssd1306_command(3); // Page end address
 401:ssd1306.c     ****     #endif
 402:ssd1306.c     ****     #if SSD1306_LCDHEIGHT == 16
 403:ssd1306.c     ****     ssd1306_command(1); // Page end address
 404:ssd1306.c     ****     #endif
 405:ssd1306.c     **** 
 406:ssd1306.c     ****     for (uint16_t i = 0; i < 8; i++) {
 407:ssd1306.c     ****         pOledDc_Write(1);
 920              		.loc 1 407 0
 921 002a 0126     		movs	r6, #1
 922              	.LVL133:
 923              	.L51:
 924 002c 0120     		movs	r0, #1
 925 002e FFF7FEFF 		bl	pOledDc_Write
 926              	.LVL134:
 408:ssd1306.c     ****         mSPI_SpiUartPutArray(inData, 1);
 927              		.loc 1 408 0
 928 0032 0121     		movs	r1, #1
 929 0034 2800     		movs	r0, r5
 930 0036 FFF7FEFF 		bl	mSPI_SpiUartPutArray
 931              	.LVL135:
 932              	.L50:
 409:ssd1306.c     ****         while (0u != (mSPI_SpiUartGetTxBufferSize() + mSPI_GET_TX_FIFO_SR_VALID));
 933              		.loc 1 409 0 discriminator 5
 934 003a FFF7FEFF 		bl	mSPI_SpiUartGetTxBufferSize
 935              	.LVL136:
 936 003e 064B     		ldr	r3, .L54
 937 0040 1B68     		ldr	r3, [r3]
 938 0042 DB0B     		lsrs	r3, r3, #15
 939 0044 3340     		ands	r3, r6
 940 0046 1B18     		adds	r3, r3, r0
 941 0048 002B     		cmp	r3, #0
 942 004a F6D1     		bne	.L50
 943              	.LVL137:
 944 004c 013C     		subs	r4, r4, #1
 945              	.LVL138:
ARM GAS  C:\Users\PC\AppData\Local\Temp\cccpd4eb.s 			page 25


 946 004e A4B2     		uxth	r4, r4
 406:ssd1306.c     ****         pOledDc_Write(1);
 947              		.loc 1 406 0 discriminator 2
 948 0050 002C     		cmp	r4, #0
 949 0052 EBD1     		bne	.L51
 950              	.LBE2:
 410:ssd1306.c     ****     }
 411:ssd1306.c     **** }
 951              		.loc 1 411 0
 952              		@ sp needed
 953              	.LVL139:
 954 0054 70BD     		pop	{r4, r5, r6, pc}
 955              	.L55:
 956 0056 C046     		.align	2
 957              	.L54:
 958 0058 08020940 		.word	1074332168
 959              		.cfi_endproc
 960              	.LFE45:
 961              		.size	display_directSetVertical, .-display_directSetVertical
 962              		.section	.text.display_clear,"ax",%progbits
 963              		.align	1
 964              		.global	display_clear
 965              		.code	16
 966              		.thumb_func
 967              		.type	display_clear, %function
 968              	display_clear:
 969              	.LFB46:
 412:ssd1306.c     **** 
 413:ssd1306.c     **** void display_clear(void)
 414:ssd1306.c     **** {
 970              		.loc 1 414 0
 971              		.cfi_startproc
 972              		@ args = 0, pretend = 0, frame = 0
 973              		@ frame_needed = 0, uses_anonymous_args = 0
 974              		@ link register save eliminated.
 975              	.LVL140:
 976              		.loc 1 414 0
 977 0000 0023     		movs	r3, #0
 978              	.LBB3:
 415:ssd1306.c     ****   for (uint16_t i = 0; i < (SSD1306_LCDWIDTH*SSD1306_LCDHEIGHT / 8); i++)
 979              		.loc 1 415 0
 980 0002 8022     		movs	r2, #128
 416:ssd1306.c     ****     ssd1306_buffer[i] = 0;
 981              		.loc 1 416 0
 982 0004 1800     		movs	r0, r3
 983 0006 0349     		ldr	r1, .L59
 415:ssd1306.c     ****   for (uint16_t i = 0; i < (SSD1306_LCDWIDTH*SSD1306_LCDHEIGHT / 8); i++)
 984              		.loc 1 415 0
 985 0008 D200     		lsls	r2, r2, #3
 986              	.LVL141:
 987              	.L57:
 988              		.loc 1 416 0 discriminator 3
 989 000a 5854     		strb	r0, [r3, r1]
 990              	.LVL142:
 991 000c 0133     		adds	r3, r3, #1
 992              	.LVL143:
 415:ssd1306.c     ****   for (uint16_t i = 0; i < (SSD1306_LCDWIDTH*SSD1306_LCDHEIGHT / 8); i++)
ARM GAS  C:\Users\PC\AppData\Local\Temp\cccpd4eb.s 			page 26


 993              		.loc 1 415 0 discriminator 3
 994 000e 9342     		cmp	r3, r2
 995 0010 FBD1     		bne	.L57
 996              	.LBE3:
 417:ssd1306.c     **** }
 997              		.loc 1 417 0
 998              		@ sp needed
 999 0012 7047     		bx	lr
 1000              	.L60:
 1001              		.align	2
 1002              	.L59:
 1003 0014 00000000 		.word	.LANCHOR0
 1004              		.cfi_endproc
 1005              	.LFE46:
 1006              		.size	display_clear, .-display_clear
 1007              		.section	.text.invertDisplay,"ax",%progbits
 1008              		.align	1
 1009              		.global	invertDisplay
 1010              		.code	16
 1011              		.thumb_func
 1012              		.type	invertDisplay, %function
 1013              	invertDisplay:
 1014              	.LFB49:
 418:ssd1306.c     **** 
 419:ssd1306.c     **** void fillRect(uint8_t x, uint8_t y, uint8_t w, uint8_t h, uint8_t color)
 420:ssd1306.c     **** {
 421:ssd1306.c     ****   for (int16_t i = x; i < x + w; i++)
 422:ssd1306.c     ****     drawVLine(i, y, h, color);
 423:ssd1306.c     **** }
 424:ssd1306.c     **** 
 425:ssd1306.c     **** void fillScreen(void) {
 426:ssd1306.c     ****   fillRect(0, 0, SSD1306_LCDWIDTH, SSD1306_LCDHEIGHT, 1);
 427:ssd1306.c     **** }
 428:ssd1306.c     **** 
 429:ssd1306.c     **** // invert the display
 430:ssd1306.c     **** void invertDisplay(bool i)
 431:ssd1306.c     **** {
 1015              		.loc 1 431 0
 1016              		.cfi_startproc
 1017              		@ args = 0, pretend = 0, frame = 0
 1018              		@ frame_needed = 0, uses_anonymous_args = 0
 1019              	.LVL144:
 1020 0000 10B5     		push	{r4, lr}
 1021              		.cfi_def_cfa_offset 8
 1022              		.cfi_offset 4, -8
 1023              		.cfi_offset 14, -4
 432:ssd1306.c     ****   if (i)
 1024              		.loc 1 432 0
 1025 0002 0028     		cmp	r0, #0
 1026 0004 01D0     		beq	.L62
 433:ssd1306.c     ****     ssd1306_command(SSD1306_INVERTDISPLAY_);
 1027              		.loc 1 433 0
 1028 0006 A720     		movs	r0, #167
 1029              	.LVL145:
 1030 0008 00E0     		b	.L64
 1031              	.LVL146:
 1032              	.L62:
ARM GAS  C:\Users\PC\AppData\Local\Temp\cccpd4eb.s 			page 27


 434:ssd1306.c     ****   else
 435:ssd1306.c     ****     ssd1306_command(SSD1306_NORMALDISPLAY);
 1033              		.loc 1 435 0
 1034 000a A620     		movs	r0, #166
 1035              	.LVL147:
 1036              	.L64:
 1037 000c FFF7FEFF 		bl	ssd1306_command
 1038              	.LVL148:
 436:ssd1306.c     **** }
 1039              		.loc 1 436 0
 1040              		@ sp needed
 1041 0010 10BD     		pop	{r4, pc}
 1042              		.cfi_endproc
 1043              	.LFE49:
 1044              		.size	invertDisplay, .-invertDisplay
 1045              		.section	.text.setRotation,"ax",%progbits
 1046              		.align	1
 1047              		.global	setRotation
 1048              		.code	16
 1049              		.thumb_func
 1050              		.type	setRotation, %function
 1051              	setRotation:
 1052              	.LFB50:
 437:ssd1306.c     **** 
 438:ssd1306.c     **** void setRotation(uint8_t m) {
 1053              		.loc 1 438 0
 1054              		.cfi_startproc
 1055              		@ args = 0, pretend = 0, frame = 0
 1056              		@ frame_needed = 0, uses_anonymous_args = 0
 1057              		@ link register save eliminated.
 1058              	.LVL149:
 439:ssd1306.c     ****     rotation = (m & 3);
 1059              		.loc 1 439 0
 1060 0000 0323     		movs	r3, #3
 1061 0002 1840     		ands	r0, r3
 1062              	.LVL150:
 1063 0004 084B     		ldr	r3, .L76
 1064 0006 094A     		ldr	r2, .L76+4
 1065 0008 1870     		strb	r0, [r3]
 1066 000a 094B     		ldr	r3, .L76+8
 440:ssd1306.c     ****     switch(rotation) {
 1067              		.loc 1 440 0
 1068 000c 0128     		cmp	r0, #1
 1069 000e 05D0     		beq	.L67
 1070 0010 0328     		cmp	r0, #3
 1071 0012 03D0     		beq	.L67
 441:ssd1306.c     ****         case 0:
 442:ssd1306.c     ****         case 2:
 443:ssd1306.c     ****             _width  = SSD1306_LCDWIDTH;
 1072              		.loc 1 443 0
 1073 0014 8021     		movs	r1, #128
 1074 0016 1170     		strb	r1, [r2]
 444:ssd1306.c     ****             _height = SSD1306_LCDHEIGHT;
 1075              		.loc 1 444 0
 1076 0018 4022     		movs	r2, #64
 1077 001a 02E0     		b	.L75
 1078              	.L67:
ARM GAS  C:\Users\PC\AppData\Local\Temp\cccpd4eb.s 			page 28


 445:ssd1306.c     ****             break;
 446:ssd1306.c     ****         case 1:
 447:ssd1306.c     ****         case 3:
 448:ssd1306.c     ****             _width  = SSD1306_LCDHEIGHT;
 1079              		.loc 1 448 0
 1080 001c 4021     		movs	r1, #64
 1081 001e 1170     		strb	r1, [r2]
 449:ssd1306.c     ****             _height = SSD1306_LCDWIDTH;
 1082              		.loc 1 449 0
 1083 0020 8022     		movs	r2, #128
 1084              	.L75:
 1085 0022 1A70     		strb	r2, [r3]
 450:ssd1306.c     ****             break;
 451:ssd1306.c     ****     }
 452:ssd1306.c     **** }
 1086              		.loc 1 452 0
 1087              		@ sp needed
 1088 0024 7047     		bx	lr
 1089              	.L77:
 1090 0026 C046     		.align	2
 1091              	.L76:
 1092 0028 00000000 		.word	rotation
 1093 002c 00000000 		.word	_width
 1094 0030 00000000 		.word	_height
 1095              		.cfi_endproc
 1096              	.LFE50:
 1097              		.size	setRotation, .-setRotation
 1098              		.section	.text.drawFastHLineInternal,"ax",%progbits
 1099              		.align	1
 1100              		.global	drawFastHLineInternal
 1101              		.code	16
 1102              		.thumb_func
 1103              		.type	drawFastHLineInternal, %function
 1104              	drawFastHLineInternal:
 1105              	.LFB52:
 453:ssd1306.c     **** 
 454:ssd1306.c     **** void drawHLine(uint8_t x, uint8_t y, uint8_t w, uint8_t color) {
 455:ssd1306.c     ****     bool bSwap = false;
 456:ssd1306.c     ****     switch(rotation) {
 457:ssd1306.c     ****         case 0:
 458:ssd1306.c     ****             // 0 degree rotation, do nothing
 459:ssd1306.c     ****             break;
 460:ssd1306.c     ****         case 1:
 461:ssd1306.c     ****             // 90 degree rotation, swap x & y for rotation, then invert x
 462:ssd1306.c     ****             bSwap = true;
 463:ssd1306.c     ****             ssd1306_swap(x, y);
 464:ssd1306.c     ****             x = SSD1306_LCDWIDTH - x - 1;
 465:ssd1306.c     ****             break;
 466:ssd1306.c     ****         case 2:
 467:ssd1306.c     ****             // 180 degree rotation, invert x and y - then shift y around for _height.
 468:ssd1306.c     ****             x = SSD1306_LCDWIDTH - x - 1;
 469:ssd1306.c     ****             y = SSD1306_LCDHEIGHT - y - 1;
 470:ssd1306.c     ****             x -= (w-1);
 471:ssd1306.c     ****             break;
 472:ssd1306.c     ****         case 3:
 473:ssd1306.c     ****             // 270 degree rotation, swap x & y for rotation, then invert y  and adjust y for w (not
 474:ssd1306.c     ****             bSwap = true;
ARM GAS  C:\Users\PC\AppData\Local\Temp\cccpd4eb.s 			page 29


 475:ssd1306.c     ****             ssd1306_swap(x, y);
 476:ssd1306.c     ****             y = SSD1306_LCDHEIGHT - y - 1;
 477:ssd1306.c     ****             y -= (w-1);
 478:ssd1306.c     ****             break;
 479:ssd1306.c     ****     }
 480:ssd1306.c     **** 
 481:ssd1306.c     ****     if(bSwap) {
 482:ssd1306.c     ****         drawFastVLineInternal(x, y, w, color);
 483:ssd1306.c     ****     }
 484:ssd1306.c     ****     else {
 485:ssd1306.c     ****         drawFastHLineInternal(x, y, w, color);
 486:ssd1306.c     ****     }
 487:ssd1306.c     **** }
 488:ssd1306.c     **** 
 489:ssd1306.c     **** void drawFastHLineInternal(uint8_t x, uint8_t y, uint8_t w, uint8_t color) {
 1106              		.loc 1 489 0
 1107              		.cfi_startproc
 1108              		@ args = 0, pretend = 0, frame = 0
 1109              		@ frame_needed = 0, uses_anonymous_args = 0
 1110              	.LVL151:
 1111 0000 10B5     		push	{r4, lr}
 1112              		.cfi_def_cfa_offset 8
 1113              		.cfi_offset 4, -8
 1114              		.cfi_offset 14, -4
 490:ssd1306.c     ****     // Do bounds/limit checks
 491:ssd1306.c     ****     if(y >= SSD1306_LCDHEIGHT) { return; }
 1115              		.loc 1 491 0
 1116 0002 3F29     		cmp	r1, #63
 1117 0004 31D8     		bhi	.L78
 1118              	.LVL152:
 1119              	.LBB6:
 1120              	.LBB7:
 492:ssd1306.c     **** 
 493:ssd1306.c     ****     // make sure we don't go off the edge of the display
 494:ssd1306.c     ****     if( (x + w) > SSD1306_LCDWIDTH) {
 1121              		.loc 1 494 0
 1122 0006 8418     		adds	r4, r0, r2
 1123 0008 802C     		cmp	r4, #128
 1124 000a 03DD     		ble	.L81
 495:ssd1306.c     ****         w = (SSD1306_LCDWIDTH - x);
 1125              		.loc 1 495 0
 1126 000c 8022     		movs	r2, #128
 1127              	.LVL153:
 1128 000e 5242     		rsbs	r2, r2, #0
 1129 0010 121A     		subs	r2, r2, r0
 1130              	.LVL154:
 1131 0012 D2B2     		uxtb	r2, r2
 1132              	.L81:
 1133              	.LVL155:
 496:ssd1306.c     ****     }
 497:ssd1306.c     **** 
 498:ssd1306.c     ****     // set up the pointer for  movement through the buffer
 499:ssd1306.c     ****     register uint8_t *pBuf = ssd1306_buffer;
 500:ssd1306.c     ****     // adjust the buffer pointer for the current row
 501:ssd1306.c     ****     pBuf += ((uint16_t)(y/8) * SSD1306_LCDWIDTH);
 502:ssd1306.c     ****     // and offset x columns in
 503:ssd1306.c     ****     pBuf += x;
ARM GAS  C:\Users\PC\AppData\Local\Temp\cccpd4eb.s 			page 30


 1134              		.loc 1 503 0
 1135 0014 CC08     		lsrs	r4, r1, #3
 1136 0016 E401     		lsls	r4, r4, #7
 1137 0018 2018     		adds	r0, r4, r0
 1138              	.LVL156:
 1139 001a 144C     		ldr	r4, .L92
 1140 001c 2018     		adds	r0, r4, r0
 1141              	.LVL157:
 504:ssd1306.c     **** 
 505:ssd1306.c     ****     register uint8_t mask = 1 << (y&7);
 1142              		.loc 1 505 0
 1143 001e 0724     		movs	r4, #7
 1144 0020 0C40     		ands	r4, r1
 1145 0022 0121     		movs	r1, #1
 1146              	.LVL158:
 1147 0024 A140     		lsls	r1, r1, r4
 1148 0026 C9B2     		uxtb	r1, r1
 1149              	.LVL159:
 506:ssd1306.c     **** 
 507:ssd1306.c     ****     switch (color) {
 1150              		.loc 1 507 0
 1151 0028 012B     		cmp	r3, #1
 1152 002a 05D0     		beq	.L82
 1153 002c 002B     		cmp	r3, #0
 1154 002e 0BD0     		beq	.L83
 1155 0030 8218     		adds	r2, r0, r2
 1156              	.LVL160:
 1157 0032 022B     		cmp	r3, #2
 1158 0034 12D0     		beq	.L85
 1159 0036 18E0     		b	.L78
 1160              	.LVL161:
 1161              	.L82:
 1162 0038 8218     		adds	r2, r0, r2
 1163              	.LVL162:
 1164              	.L86:
 508:ssd1306.c     ****         case WHITE:                 while(w--) { *pBuf++ |= mask; }; break;
 1165              		.loc 1 508 0
 1166 003a 9042     		cmp	r0, r2
 1167 003c 15D0     		beq	.L78
 1168              	.LVL163:
 1169 003e 0378     		ldrb	r3, [r0]
 1170 0040 0B43     		orrs	r3, r1
 1171 0042 0370     		strb	r3, [r0]
 1172 0044 0130     		adds	r0, r0, #1
 1173              	.LVL164:
 1174 0046 F8E7     		b	.L86
 1175              	.LVL165:
 1176              	.L83:
 509:ssd1306.c     ****         case BLACK: mask = ~mask;   while(w--) { *pBuf++ &= mask; }; break;
 1177              		.loc 1 509 0
 1178 0048 C943     		mvns	r1, r1
 1179              	.LVL166:
 1180 004a 8218     		adds	r2, r0, r2
 1181              	.LVL167:
 1182 004c C9B2     		uxtb	r1, r1
 1183              	.LVL168:
 1184              	.L89:
ARM GAS  C:\Users\PC\AppData\Local\Temp\cccpd4eb.s 			page 31


 1185 004e 9042     		cmp	r0, r2
 1186 0050 0BD0     		beq	.L78
 1187              	.LVL169:
 1188 0052 0378     		ldrb	r3, [r0]
 1189 0054 0B40     		ands	r3, r1
 1190 0056 0370     		strb	r3, [r0]
 1191 0058 0130     		adds	r0, r0, #1
 1192              	.LVL170:
 1193 005a F8E7     		b	.L89
 1194              	.LVL171:
 1195              	.L85:
 510:ssd1306.c     ****         case INVERSE:               while(w--) { *pBuf++ ^= mask; }; break;
 1196              		.loc 1 510 0
 1197 005c 9042     		cmp	r0, r2
 1198 005e 04D0     		beq	.L78
 1199              	.LVL172:
 1200 0060 0378     		ldrb	r3, [r0]
 1201 0062 4B40     		eors	r3, r1
 1202 0064 0370     		strb	r3, [r0]
 1203 0066 0130     		adds	r0, r0, #1
 1204              	.LVL173:
 1205 0068 F8E7     		b	.L85
 1206              	.LVL174:
 1207              	.L78:
 1208              	.LBE7:
 1209              	.LBE6:
 511:ssd1306.c     ****     }
 512:ssd1306.c     **** }
 1210              		.loc 1 512 0
 1211              		@ sp needed
 1212 006a 10BD     		pop	{r4, pc}
 1213              	.L93:
 1214              		.align	2
 1215              	.L92:
 1216 006c 00000000 		.word	.LANCHOR0
 1217              		.cfi_endproc
 1218              	.LFE52:
 1219              		.size	drawFastHLineInternal, .-drawFastHLineInternal
 1220              		.section	.text.drawFastVLineInternal,"ax",%progbits
 1221              		.align	1
 1222              		.global	drawFastVLineInternal
 1223              		.code	16
 1224              		.thumb_func
 1225              		.type	drawFastVLineInternal, %function
 1226              	drawFastVLineInternal:
 1227              	.LFB54:
 513:ssd1306.c     **** 
 514:ssd1306.c     **** void drawVLine(uint8_t x, uint8_t y, uint8_t h, uint8_t color) {
 515:ssd1306.c     ****     bool bSwap = false;
 516:ssd1306.c     ****     switch(rotation) {
 517:ssd1306.c     ****         case 0:
 518:ssd1306.c     ****             break;
 519:ssd1306.c     ****         case 1:
 520:ssd1306.c     ****             // 90 degree rotation, swap x & y for rotation, then invert x and adjust x for h (now t
 521:ssd1306.c     ****             bSwap = true;
 522:ssd1306.c     ****             ssd1306_swap(x, y);
 523:ssd1306.c     ****             x = SSD1306_LCDWIDTH - x - 1;
ARM GAS  C:\Users\PC\AppData\Local\Temp\cccpd4eb.s 			page 32


 524:ssd1306.c     ****             x -= (h-1);
 525:ssd1306.c     ****             break;
 526:ssd1306.c     ****         case 2:
 527:ssd1306.c     ****             // 180 degree rotation, invert x and y - then shift y around for _height.
 528:ssd1306.c     ****             x = SSD1306_LCDWIDTH - x - 1;
 529:ssd1306.c     ****             y = SSD1306_LCDHEIGHT - y - 1;
 530:ssd1306.c     ****             y -= (h-1);
 531:ssd1306.c     ****             break;
 532:ssd1306.c     ****         case 3:
 533:ssd1306.c     ****             // 270 degree rotation, swap x & y for rotation, then invert y
 534:ssd1306.c     ****             bSwap = true;
 535:ssd1306.c     ****             ssd1306_swap(x, y);
 536:ssd1306.c     ****             y = SSD1306_LCDHEIGHT - y - 1;
 537:ssd1306.c     ****             break;
 538:ssd1306.c     ****     }
 539:ssd1306.c     **** 
 540:ssd1306.c     ****     if(bSwap) {
 541:ssd1306.c     ****         drawFastHLineInternal(x, y, h, color);
 542:ssd1306.c     ****     }
 543:ssd1306.c     ****     else {
 544:ssd1306.c     ****         drawFastVLineInternal(x, y, h, color);
 545:ssd1306.c     ****     }
 546:ssd1306.c     **** }
 547:ssd1306.c     **** 
 548:ssd1306.c     **** void drawFastVLineInternal(uint8_t x, uint8_t __y, uint8_t __h, uint8_t color) {
 1228              		.loc 1 548 0
 1229              		.cfi_startproc
 1230              		@ args = 0, pretend = 0, frame = 0
 1231              		@ frame_needed = 0, uses_anonymous_args = 0
 1232              	.LVL175:
 1233 0000 70B5     		push	{r4, r5, r6, lr}
 1234              		.cfi_def_cfa_offset 16
 1235              		.cfi_offset 4, -16
 1236              		.cfi_offset 5, -12
 1237              		.cfi_offset 6, -8
 1238              		.cfi_offset 14, -4
 549:ssd1306.c     **** 
 550:ssd1306.c     ****     // do nothing if we're off the left or right side of the screen
 551:ssd1306.c     ****     if(x >= SSD1306_LCDWIDTH) { return; }
 1239              		.loc 1 551 0
 1240 0002 44B2     		sxtb	r4, r0
 1241 0004 002C     		cmp	r4, #0
 1242 0006 7CDB     		blt	.L94
 552:ssd1306.c     **** 
 553:ssd1306.c     ****     // make sure we don't go past the _height of the display
 554:ssd1306.c     ****     if( (__y + __h) > SSD1306_LCDHEIGHT) {
 1243              		.loc 1 554 0
 1244 0008 8C18     		adds	r4, r1, r2
 1245 000a 402C     		cmp	r4, #64
 1246 000c 02DD     		ble	.L97
 555:ssd1306.c     ****         __h = (SSD1306_LCDHEIGHT - __y);
 1247              		.loc 1 555 0
 1248 000e 4022     		movs	r2, #64
 1249              	.LVL176:
 1250 0010 521A     		subs	r2, r2, r1
 1251 0012 D2B2     		uxtb	r2, r2
 1252              	.LVL177:
ARM GAS  C:\Users\PC\AppData\Local\Temp\cccpd4eb.s 			page 33


 1253              	.L97:
 556:ssd1306.c     ****     }
 557:ssd1306.c     **** 
 558:ssd1306.c     ****     // this display doesn't need ints for coordinates, use local byte registers for faster juggling
 559:ssd1306.c     ****     register uint8_t y = __y;
 560:ssd1306.c     ****     register uint8_t h = __h;
 561:ssd1306.c     **** 
 562:ssd1306.c     ****     // set up the pointer for fast movement through the buffer
 563:ssd1306.c     ****     register uint8_t *pBuf = ssd1306_buffer;
 564:ssd1306.c     ****     // adjust the buffer pointer for the current row
 565:ssd1306.c     ****     pBuf += ((uint16_t)(y/8) * SSD1306_LCDWIDTH);
 566:ssd1306.c     ****     // and offset x columns in
 567:ssd1306.c     ****     pBuf += x;
 1254              		.loc 1 567 0
 1255 0014 CC08     		lsrs	r4, r1, #3
 1256 0016 E401     		lsls	r4, r4, #7
 1257 0018 2018     		adds	r0, r4, r0
 1258              	.LVL178:
 1259 001a 3A4C     		ldr	r4, .L150
 1260 001c 2018     		adds	r0, r4, r0
 1261              	.LVL179:
 568:ssd1306.c     **** 
 569:ssd1306.c     ****     // do the first partial byte, if necessary - this requires some masking
 570:ssd1306.c     ****     register uint8_t mod = (y&7);
 1262              		.loc 1 570 0
 1263 001e 0724     		movs	r4, #7
 1264 0020 2140     		ands	r1, r4
 1265              	.LVL180:
 571:ssd1306.c     ****     if(mod) {
 1266              		.loc 1 571 0
 1267 0022 26D0     		beq	.L98
 1268              	.LBB8:
 572:ssd1306.c     ****         // mask off the high n bits we want to set
 573:ssd1306.c     ****         mod = 8-mod;
 1269              		.loc 1 573 0
 1270 0024 0134     		adds	r4, r4, #1
 1271 0026 611A     		subs	r1, r4, r1
 1272              	.LVL181:
 574:ssd1306.c     **** 
 575:ssd1306.c     ****         // note - lookup table results in a nearly 10% performance improvement in fill* functions
 576:ssd1306.c     ****         // register uint8_t mask = ~(0xFF >> (mod));
 577:ssd1306.c     ****         static uint8_t premask[8] = {0x00, 0x80, 0xC0, 0xE0, 0xF0, 0xF8, 0xFC, 0xFE };
 578:ssd1306.c     ****         register uint8_t mask = premask[mod];
 1273              		.loc 1 578 0
 1274 0028 374C     		ldr	r4, .L150+4
 573:ssd1306.c     **** 
 1275              		.loc 1 573 0
 1276 002a C9B2     		uxtb	r1, r1
 1277              	.LVL182:
 1278              		.loc 1 578 0
 1279 002c 645C     		ldrb	r4, [r4, r1]
 1280              	.LVL183:
 579:ssd1306.c     **** 
 580:ssd1306.c     ****         // adjust the mask if we're not going to reach the end of this byte
 581:ssd1306.c     ****         if( h < mod) {
 1281              		.loc 1 581 0
 1282 002e 8A42     		cmp	r2, r1
ARM GAS  C:\Users\PC\AppData\Local\Temp\cccpd4eb.s 			page 34


 1283 0030 0AD2     		bcs	.L99
 582:ssd1306.c     ****             mask &= (0XFF >> (mod-h));
 1284              		.loc 1 582 0
 1285 0032 FF25     		movs	r5, #255
 1286 0034 8E1A     		subs	r6, r1, r2
 1287 0036 3541     		asrs	r5, r5, r6
 1288 0038 2C40     		ands	r4, r5
 1289              	.LVL184:
 583:ssd1306.c     ****         }
 584:ssd1306.c     **** 
 585:ssd1306.c     ****         switch (color) {
 1290              		.loc 1 585 0
 1291 003a 012B     		cmp	r3, #1
 1292 003c 06D0     		beq	.L100
 1293 003e 002B     		cmp	r3, #0
 1294 0040 09D0     		beq	.L101
 1295 0042 022B     		cmp	r3, #2
 1296 0044 0DD0     		beq	.L102
 1297 0046 5CE0     		b	.L94
 1298              	.L99:
 1299 0048 012B     		cmp	r3, #1
 1300 004a 02D1     		bne	.L147
 1301              	.L100:
 586:ssd1306.c     ****             case WHITE:   *pBuf |=  mask;  break;
 1302              		.loc 1 586 0
 1303 004c 0578     		ldrb	r5, [r0]
 1304 004e 2C43     		orrs	r4, r5
 1305              	.LVL185:
 1306 0050 09E0     		b	.L145
 1307              	.LVL186:
 1308              	.L147:
 585:ssd1306.c     ****             case WHITE:   *pBuf |=  mask;  break;
 1309              		.loc 1 585 0
 1310 0052 002B     		cmp	r3, #0
 1311 0054 03D1     		bne	.L148
 1312              	.L101:
 587:ssd1306.c     ****             case BLACK:   *pBuf &= ~mask;  break;
 1313              		.loc 1 587 0
 1314 0056 0578     		ldrb	r5, [r0]
 1315 0058 A543     		bics	r5, r4
 1316 005a 2C00     		movs	r4, r5
 1317              	.LVL187:
 1318 005c 03E0     		b	.L145
 1319              	.LVL188:
 1320              	.L148:
 585:ssd1306.c     ****             case WHITE:   *pBuf |=  mask;  break;
 1321              		.loc 1 585 0
 1322 005e 022B     		cmp	r3, #2
 1323 0060 04D1     		bne	.L105
 1324              	.L102:
 588:ssd1306.c     ****             case INVERSE: *pBuf ^=  mask;  break;
 1325              		.loc 1 588 0
 1326 0062 0578     		ldrb	r5, [r0]
 1327 0064 6C40     		eors	r4, r5
 1328              	.LVL189:
 1329              	.L145:
 1330 0066 0470     		strb	r4, [r0]
ARM GAS  C:\Users\PC\AppData\Local\Temp\cccpd4eb.s 			page 35


 589:ssd1306.c     ****         }
 590:ssd1306.c     **** 
 591:ssd1306.c     ****         // fast exit if we're done here!
 592:ssd1306.c     ****         if(h<mod) { return; }
 1331              		.loc 1 592 0
 1332 0068 8A42     		cmp	r2, r1
 1333 006a 4AD3     		bcc	.L94
 1334              	.L105:
 593:ssd1306.c     **** 
 594:ssd1306.c     ****         h -= mod;
 1335              		.loc 1 594 0
 1336 006c 521A     		subs	r2, r2, r1
 1337              	.LVL190:
 1338 006e D2B2     		uxtb	r2, r2
 1339              	.LVL191:
 595:ssd1306.c     **** 
 596:ssd1306.c     ****         pBuf += SSD1306_LCDWIDTH;
 1340              		.loc 1 596 0
 1341 0070 8030     		adds	r0, r0, #128
 1342              	.LVL192:
 1343              	.L98:
 1344              	.LBE8:
 597:ssd1306.c     ****     }
 598:ssd1306.c     **** 
 599:ssd1306.c     **** 
 600:ssd1306.c     ****     // write solid bytes while we can - effectively doing 8 rows at a time
 601:ssd1306.c     ****     if(h >= 8) {
 1345              		.loc 1 601 0
 1346 0072 072A     		cmp	r2, #7
 1347 0074 22D9     		bls	.L106
 602:ssd1306.c     ****         if (color == INVERSE)  {          // separate copy of the code so we don't impact performan
 1348              		.loc 1 602 0
 1349 0076 022B     		cmp	r3, #2
 1350 0078 0AD1     		bne	.L107
 1351 007a 0100     		movs	r1, r0
 1352              	.LVL193:
 1353 007c 1300     		movs	r3, r2
 1354              	.LVL194:
 1355              	.L108:
 603:ssd1306.c     ****             do  {
 604:ssd1306.c     ****                 *pBuf=~(*pBuf);
 1356              		.loc 1 604 0 discriminator 1
 1357 007e 0C78     		ldrb	r4, [r1]
 605:ssd1306.c     **** 
 606:ssd1306.c     ****                 // adjust the buffer forward 8 rows worth of data
 607:ssd1306.c     ****                 pBuf += SSD1306_LCDWIDTH;
 608:ssd1306.c     **** 
 609:ssd1306.c     ****                 // adjust h & y (there's got to be a faster way for me to do this, but this should 
 610:ssd1306.c     ****                 h -= 8;
 1358              		.loc 1 610 0 discriminator 1
 1359 0080 083B     		subs	r3, r3, #8
 1360              	.LVL195:
 604:ssd1306.c     **** 
 1361              		.loc 1 604 0 discriminator 1
 1362 0082 E443     		mvns	r4, r4
 1363              		.loc 1 610 0 discriminator 1
 1364 0084 DBB2     		uxtb	r3, r3
ARM GAS  C:\Users\PC\AppData\Local\Temp\cccpd4eb.s 			page 36


 604:ssd1306.c     **** 
 1365              		.loc 1 604 0 discriminator 1
 1366 0086 0C70     		strb	r4, [r1]
 607:ssd1306.c     **** 
 1367              		.loc 1 607 0 discriminator 1
 1368 0088 8031     		adds	r1, r1, #128
 1369              	.LVL196:
 611:ssd1306.c     ****             } while(h >= 8);
 1370              		.loc 1 611 0 discriminator 1
 1371 008a 072B     		cmp	r3, #7
 1372 008c F7D8     		bhi	.L108
 1373 008e 28E0     		b	.L149
 1374              	.LVL197:
 1375              	.L107:
 1376              	.LBB9:
 612:ssd1306.c     ****         }
 613:ssd1306.c     ****         else {
 614:ssd1306.c     ****             // store a local value to work with
 615:ssd1306.c     ****             register uint8_t val = (color == WHITE) ? 255 : 0;
 1377              		.loc 1 615 0
 1378 0090 591E     		subs	r1, r3, #1
 1379              	.LVL198:
 1380 0092 4C42     		rsbs	r4, r1, #0
 1381 0094 6141     		adcs	r1, r1, r4
 1382 0096 0500     		movs	r5, r0
 1383 0098 1400     		movs	r4, r2
 1384 009a 4942     		rsbs	r1, r1, #0
 1385 009c C9B2     		uxtb	r1, r1
 1386              	.LVL199:
 1387              	.L110:
 616:ssd1306.c     **** 
 617:ssd1306.c     ****             do  {
 618:ssd1306.c     ****                 // write our value in
 619:ssd1306.c     ****                 *pBuf = val;
 620:ssd1306.c     **** 
 621:ssd1306.c     ****                 // adjust the buffer forward 8 rows worth of data
 622:ssd1306.c     ****                 pBuf += SSD1306_LCDWIDTH;
 623:ssd1306.c     **** 
 624:ssd1306.c     ****                 // adjust h & y (there's got to be a faster way for me to do this, but this should 
 625:ssd1306.c     ****                 h -= 8;
 1388              		.loc 1 625 0 discriminator 1
 1389 009e 083C     		subs	r4, r4, #8
 1390              	.LVL200:
 1391 00a0 E4B2     		uxtb	r4, r4
 619:ssd1306.c     **** 
 1392              		.loc 1 619 0 discriminator 1
 1393 00a2 2970     		strb	r1, [r5]
 622:ssd1306.c     **** 
 1394              		.loc 1 622 0 discriminator 1
 1395 00a4 8035     		adds	r5, r5, #128
 1396              	.LVL201:
 626:ssd1306.c     ****             } while(h >= 8);
 1397              		.loc 1 626 0 discriminator 1
 1398 00a6 072C     		cmp	r4, #7
 1399 00a8 F9D8     		bhi	.L110
 1400 00aa 1100     		movs	r1, r2
 1401              	.LVL202:
ARM GAS  C:\Users\PC\AppData\Local\Temp\cccpd4eb.s 			page 37


 1402 00ac 0839     		subs	r1, r1, #8
 1403 00ae C9B2     		uxtb	r1, r1
 1404 00b0 C908     		lsrs	r1, r1, #3
 1405 00b2 0131     		adds	r1, r1, #1
 1406 00b4 C901     		lsls	r1, r1, #7
 1407 00b6 4018     		adds	r0, r0, r1
 1408 00b8 0721     		movs	r1, #7
 1409 00ba 0A40     		ands	r2, r1
 1410              	.LVL203:
 1411              	.L106:
 1412              	.LBE9:
 627:ssd1306.c     ****         }
 628:ssd1306.c     ****     }
 629:ssd1306.c     **** 
 630:ssd1306.c     ****     // now do the final partial byte, if necessary
 631:ssd1306.c     ****     if(h) {
 1413              		.loc 1 631 0
 1414 00bc 002A     		cmp	r2, #0
 1415 00be 20D0     		beq	.L94
 1416              	.LVL204:
 1417              	.LBB10:
 632:ssd1306.c     ****         mod = h & 7;
 633:ssd1306.c     ****         // this time we want to mask the low bits of the byte, vs the high bits we did above
 634:ssd1306.c     ****         // register uint8_t mask = (1 << mod) - 1;
 635:ssd1306.c     ****         // note - lookup table results in a nearly 10% performance improvement in fill* functions
 636:ssd1306.c     ****         static uint8_t postmask[8] = {0x00, 0x01, 0x03, 0x07, 0x0F, 0x1F, 0x3F, 0x7F };
 637:ssd1306.c     ****         register uint8_t mask = postmask[mod];
 1418              		.loc 1 637 0
 1419 00c0 1149     		ldr	r1, .L150+4
 1420 00c2 8A18     		adds	r2, r1, r2
 1421              	.LVL205:
 1422 00c4 127A     		ldrb	r2, [r2, #8]
 1423              	.LVL206:
 638:ssd1306.c     ****         switch (color) {
 1424              		.loc 1 638 0
 1425 00c6 012B     		cmp	r3, #1
 1426 00c8 04D0     		beq	.L111
 1427 00ca 002B     		cmp	r3, #0
 1428 00cc 05D0     		beq	.L112
 1429 00ce 022B     		cmp	r3, #2
 1430 00d0 17D1     		bne	.L94
 1431 00d2 13E0     		b	.L113
 1432              	.L111:
 639:ssd1306.c     ****             case WHITE:   *pBuf |=  mask;  break;
 1433              		.loc 1 639 0
 1434 00d4 0378     		ldrb	r3, [r0]
 1435              	.LVL207:
 1436 00d6 1A43     		orrs	r2, r3
 1437              	.LVL208:
 1438 00d8 12E0     		b	.L146
 1439              	.LVL209:
 1440              	.L112:
 640:ssd1306.c     ****             case BLACK:   *pBuf &= ~mask;  break;
 1441              		.loc 1 640 0
 1442 00da 0378     		ldrb	r3, [r0]
 1443              	.LVL210:
 1444 00dc 9343     		bics	r3, r2
ARM GAS  C:\Users\PC\AppData\Local\Temp\cccpd4eb.s 			page 38


 1445 00de 0370     		strb	r3, [r0]
 1446 00e0 0FE0     		b	.L94
 1447              	.LVL211:
 1448              	.L149:
 1449 00e2 1300     		movs	r3, r2
 1450              	.LVL212:
 1451 00e4 083B     		subs	r3, r3, #8
 1452 00e6 DBB2     		uxtb	r3, r3
 1453 00e8 DB08     		lsrs	r3, r3, #3
 1454 00ea 0133     		adds	r3, r3, #1
 1455 00ec DB01     		lsls	r3, r3, #7
 1456 00ee C018     		adds	r0, r0, r3
 1457 00f0 0723     		movs	r3, #7
 1458 00f2 1A40     		ands	r2, r3
 1459              	.LVL213:
 1460              	.LBE10:
 631:ssd1306.c     ****         mod = h & 7;
 1461              		.loc 1 631 0
 1462 00f4 05D0     		beq	.L94
 1463              	.LVL214:
 1464              	.LBB11:
 637:ssd1306.c     ****         switch (color) {
 1465              		.loc 1 637 0
 1466 00f6 044B     		ldr	r3, .L150+4
 1467 00f8 9A18     		adds	r2, r3, r2
 1468              	.LVL215:
 1469 00fa 127A     		ldrb	r2, [r2, #8]
 1470              	.LVL216:
 1471              	.L113:
 641:ssd1306.c     ****             case INVERSE: *pBuf ^=  mask;  break;
 1472              		.loc 1 641 0
 1473 00fc 0378     		ldrb	r3, [r0]
 1474 00fe 5A40     		eors	r2, r3
 1475              	.LVL217:
 1476              	.L146:
 1477 0100 0270     		strb	r2, [r0]
 1478              	.LVL218:
 1479              	.L94:
 1480              	.LBE11:
 642:ssd1306.c     ****         }
 643:ssd1306.c     ****     }
 644:ssd1306.c     **** }
 1481              		.loc 1 644 0
 1482              		@ sp needed
 1483 0102 70BD     		pop	{r4, r5, r6, pc}
 1484              	.L151:
 1485              		.align	2
 1486              	.L150:
 1487 0104 00000000 		.word	.LANCHOR0
 1488 0108 00000000 		.word	.LANCHOR1
 1489              		.cfi_endproc
 1490              	.LFE54:
 1491              		.size	drawFastVLineInternal, .-drawFastVLineInternal
 1492              		.section	.text.drawHLine,"ax",%progbits
 1493              		.align	1
 1494              		.global	drawHLine
 1495              		.code	16
ARM GAS  C:\Users\PC\AppData\Local\Temp\cccpd4eb.s 			page 39


 1496              		.thumb_func
 1497              		.type	drawHLine, %function
 1498              	drawHLine:
 1499              	.LFB51:
 454:ssd1306.c     ****     bool bSwap = false;
 1500              		.loc 1 454 0
 1501              		.cfi_startproc
 1502              		@ args = 0, pretend = 0, frame = 0
 1503              		@ frame_needed = 0, uses_anonymous_args = 0
 1504              	.LVL219:
 1505 0000 70B5     		push	{r4, r5, r6, lr}
 1506              		.cfi_def_cfa_offset 16
 1507              		.cfi_offset 4, -16
 1508              		.cfi_offset 5, -12
 1509              		.cfi_offset 6, -8
 1510              		.cfi_offset 14, -4
 456:ssd1306.c     ****         case 0:
 1511              		.loc 1 456 0
 1512 0002 114C     		ldr	r4, .L159
 1513 0004 2478     		ldrb	r4, [r4]
 1514 0006 022C     		cmp	r4, #2
 1515 0008 08D0     		beq	.L154
 1516 000a 032C     		cmp	r4, #3
 1517 000c 0FD0     		beq	.L155
 1518 000e 012C     		cmp	r4, #1
 1519 0010 17D1     		bne	.L153
 1520              	.LVL220:
 464:ssd1306.c     ****             break;
 1521              		.loc 1 464 0
 1522 0012 7F25     		movs	r5, #127
 1523 0014 6D1A     		subs	r5, r5, r1
 1524 0016 EDB2     		uxtb	r5, r5
 1525              	.LVL221:
 1526              	.LBB12:
 463:ssd1306.c     ****             x = SSD1306_LCDWIDTH - x - 1;
 1527              		.loc 1 463 0
 1528 0018 0400     		movs	r4, r0
 1529              	.LBE12:
 465:ssd1306.c     ****         case 2:
 1530              		.loc 1 465 0
 1531 001a 0DE0     		b	.L157
 1532              	.LVL222:
 1533              	.L154:
 470:ssd1306.c     ****             break;
 1534              		.loc 1 470 0
 1535 001c 8024     		movs	r4, #128
 469:ssd1306.c     ****             x -= (w-1);
 1536              		.loc 1 469 0
 1537 001e 3F25     		movs	r5, #63
 470:ssd1306.c     ****             break;
 1538              		.loc 1 470 0
 1539 0020 6442     		rsbs	r4, r4, #0
 1540 0022 A41A     		subs	r4, r4, r2
 469:ssd1306.c     ****             x -= (w-1);
 1541              		.loc 1 469 0
 1542 0024 6D1A     		subs	r5, r5, r1
 470:ssd1306.c     ****             break;
ARM GAS  C:\Users\PC\AppData\Local\Temp\cccpd4eb.s 			page 40


 1543              		.loc 1 470 0
 1544 0026 241A     		subs	r4, r4, r0
 469:ssd1306.c     ****             x -= (w-1);
 1545              		.loc 1 469 0
 1546 0028 E9B2     		uxtb	r1, r5
 1547              	.LVL223:
 470:ssd1306.c     ****             break;
 1548              		.loc 1 470 0
 1549 002a E0B2     		uxtb	r0, r4
 1550              	.LVL224:
 471:ssd1306.c     ****         case 3:
 1551              		.loc 1 471 0
 1552 002c 09E0     		b	.L153
 1553              	.L155:
 1554              	.LVL225:
 477:ssd1306.c     ****             break;
 1555              		.loc 1 477 0
 1556 002e 4025     		movs	r5, #64
 1557 0030 AD1A     		subs	r5, r5, r2
 1558 0032 2C1A     		subs	r4, r5, r0
 1559              	.LBB13:
 475:ssd1306.c     ****             y = SSD1306_LCDHEIGHT - y - 1;
 1560              		.loc 1 475 0
 1561 0034 0D00     		movs	r5, r1
 1562              	.LBE13:
 477:ssd1306.c     ****             break;
 1563              		.loc 1 477 0
 1564 0036 E4B2     		uxtb	r4, r4
 1565              	.LVL226:
 1566              	.L157:
 482:ssd1306.c     ****     }
 1567              		.loc 1 482 0
 1568 0038 2100     		movs	r1, r4
 1569 003a 2800     		movs	r0, r5
 1570 003c FFF7FEFF 		bl	drawFastVLineInternal
 1571              	.LVL227:
 1572 0040 01E0     		b	.L152
 1573              	.LVL228:
 1574              	.L153:
 485:ssd1306.c     ****     }
 1575              		.loc 1 485 0
 1576 0042 FFF7FEFF 		bl	drawFastHLineInternal
 1577              	.LVL229:
 1578              	.L152:
 487:ssd1306.c     **** 
 1579              		.loc 1 487 0
 1580              		@ sp needed
 1581 0046 70BD     		pop	{r4, r5, r6, pc}
 1582              	.L160:
 1583              		.align	2
 1584              	.L159:
 1585 0048 00000000 		.word	rotation
 1586              		.cfi_endproc
 1587              	.LFE51:
 1588              		.size	drawHLine, .-drawHLine
 1589              		.section	.text.drawVLine,"ax",%progbits
 1590              		.align	1
ARM GAS  C:\Users\PC\AppData\Local\Temp\cccpd4eb.s 			page 41


 1591              		.global	drawVLine
 1592              		.code	16
 1593              		.thumb_func
 1594              		.type	drawVLine, %function
 1595              	drawVLine:
 1596              	.LFB53:
 514:ssd1306.c     ****     bool bSwap = false;
 1597              		.loc 1 514 0
 1598              		.cfi_startproc
 1599              		@ args = 0, pretend = 0, frame = 0
 1600              		@ frame_needed = 0, uses_anonymous_args = 0
 1601              	.LVL230:
 1602 0000 70B5     		push	{r4, r5, r6, lr}
 1603              		.cfi_def_cfa_offset 16
 1604              		.cfi_offset 4, -16
 1605              		.cfi_offset 5, -12
 1606              		.cfi_offset 6, -8
 1607              		.cfi_offset 14, -4
 516:ssd1306.c     ****         case 0:
 1608              		.loc 1 516 0
 1609 0002 114C     		ldr	r4, .L168
 1610 0004 2478     		ldrb	r4, [r4]
 1611 0006 022C     		cmp	r4, #2
 1612 0008 09D0     		beq	.L163
 1613 000a 032C     		cmp	r4, #3
 1614 000c 0FD0     		beq	.L164
 1615 000e 012C     		cmp	r4, #1
 1616 0010 16D1     		bne	.L162
 1617              	.LVL231:
 524:ssd1306.c     ****             break;
 1618              		.loc 1 524 0
 1619 0012 8025     		movs	r5, #128
 1620 0014 6D42     		rsbs	r5, r5, #0
 1621 0016 AD1A     		subs	r5, r5, r2
 1622 0018 6C1A     		subs	r4, r5, r1
 1623 001a E4B2     		uxtb	r4, r4
 1624              	.LVL232:
 525:ssd1306.c     ****         case 2:
 1625              		.loc 1 525 0
 1626 001c 0BE0     		b	.L166
 1627              	.LVL233:
 1628              	.L163:
 528:ssd1306.c     ****             y = SSD1306_LCDHEIGHT - y - 1;
 1629              		.loc 1 528 0
 1630 001e 7F24     		movs	r4, #127
 1631 0020 201A     		subs	r0, r4, r0
 1632              	.LVL234:
 530:ssd1306.c     ****             break;
 1633              		.loc 1 530 0
 1634 0022 3F3C     		subs	r4, r4, #63
 1635 0024 A41A     		subs	r4, r4, r2
 1636 0026 641A     		subs	r4, r4, r1
 528:ssd1306.c     ****             y = SSD1306_LCDHEIGHT - y - 1;
 1637              		.loc 1 528 0
 1638 0028 C0B2     		uxtb	r0, r0
 1639              	.LVL235:
 530:ssd1306.c     ****             break;
ARM GAS  C:\Users\PC\AppData\Local\Temp\cccpd4eb.s 			page 42


 1640              		.loc 1 530 0
 1641 002a E1B2     		uxtb	r1, r4
 1642              	.LVL236:
 531:ssd1306.c     ****         case 3:
 1643              		.loc 1 531 0
 1644 002c 08E0     		b	.L162
 1645              	.L164:
 1646              	.LVL237:
 536:ssd1306.c     ****             break;
 1647              		.loc 1 536 0
 1648 002e 3F24     		movs	r4, #63
 1649 0030 201A     		subs	r0, r4, r0
 1650              	.LVL238:
 1651              	.LBB14:
 535:ssd1306.c     ****             y = SSD1306_LCDHEIGHT - y - 1;
 1652              		.loc 1 535 0
 1653 0032 0C00     		movs	r4, r1
 1654              	.LBE14:
 536:ssd1306.c     ****             break;
 1655              		.loc 1 536 0
 1656 0034 C0B2     		uxtb	r0, r0
 1657              	.LVL239:
 1658              	.L166:
 541:ssd1306.c     ****     }
 1659              		.loc 1 541 0
 1660 0036 0100     		movs	r1, r0
 1661 0038 2000     		movs	r0, r4
 1662              	.LVL240:
 1663 003a FFF7FEFF 		bl	drawFastHLineInternal
 1664              	.LVL241:
 1665 003e 01E0     		b	.L161
 1666              	.LVL242:
 1667              	.L162:
 544:ssd1306.c     ****     }
 1668              		.loc 1 544 0
 1669 0040 FFF7FEFF 		bl	drawFastVLineInternal
 1670              	.LVL243:
 1671              	.L161:
 546:ssd1306.c     **** 
 1672              		.loc 1 546 0
 1673              		@ sp needed
 1674 0044 70BD     		pop	{r4, r5, r6, pc}
 1675              	.L169:
 1676 0046 C046     		.align	2
 1677              	.L168:
 1678 0048 00000000 		.word	rotation
 1679              		.cfi_endproc
 1680              	.LFE53:
 1681              		.size	drawVLine, .-drawVLine
 1682              		.section	.text.fillRect,"ax",%progbits
 1683              		.align	1
 1684              		.global	fillRect
 1685              		.code	16
 1686              		.thumb_func
 1687              		.type	fillRect, %function
 1688              	fillRect:
 1689              	.LFB47:
ARM GAS  C:\Users\PC\AppData\Local\Temp\cccpd4eb.s 			page 43


 420:ssd1306.c     ****   for (int16_t i = x; i < x + w; i++)
 1690              		.loc 1 420 0
 1691              		.cfi_startproc
 1692              		@ args = 4, pretend = 0, frame = 8
 1693              		@ frame_needed = 0, uses_anonymous_args = 0
 1694              	.LVL244:
 1695 0000 F7B5     		push	{r0, r1, r2, r4, r5, r6, r7, lr}
 1696              		.cfi_def_cfa_offset 32
 1697              		.cfi_offset 0, -32
 1698              		.cfi_offset 1, -28
 1699              		.cfi_offset 2, -24
 1700              		.cfi_offset 4, -20
 1701              		.cfi_offset 5, -16
 1702              		.cfi_offset 6, -12
 1703              		.cfi_offset 7, -8
 1704              		.cfi_offset 14, -4
 420:ssd1306.c     ****   for (int16_t i = x; i < x + w; i++)
 1705              		.loc 1 420 0
 1706 0002 0500     		movs	r5, r0
 1707 0004 0E00     		movs	r6, r1
 1708 0006 1F00     		movs	r7, r3
 1709 0008 08AB     		add	r3, sp, #32
 1710              	.LVL245:
 1711 000a 1B78     		ldrb	r3, [r3]
 1712              	.LVL246:
 1713 000c 0092     		str	r2, [sp]
 1714 000e 0193     		str	r3, [sp, #4]
 1715              	.LBB15:
 421:ssd1306.c     ****     drawVLine(i, y, h, color);
 1716              		.loc 1 421 0
 1717 0010 04B2     		sxth	r4, r0
 1718              	.LVL247:
 1719              	.L171:
 421:ssd1306.c     ****     drawVLine(i, y, h, color);
 1720              		.loc 1 421 0 is_stmt 0 discriminator 1
 1721 0012 009B     		ldr	r3, [sp]
 1722 0014 EB18     		adds	r3, r5, r3
 1723 0016 9C42     		cmp	r4, r3
 1724 0018 08DA     		bge	.L173
 422:ssd1306.c     **** }
 1725              		.loc 1 422 0 is_stmt 1 discriminator 3
 1726 001a E0B2     		uxtb	r0, r4
 1727 001c 019B     		ldr	r3, [sp, #4]
 1728 001e 3A00     		movs	r2, r7
 1729 0020 3100     		movs	r1, r6
 1730 0022 0134     		adds	r4, r4, #1
 1731              	.LVL248:
 1732 0024 FFF7FEFF 		bl	drawVLine
 1733              	.LVL249:
 1734 0028 24B2     		sxth	r4, r4
 1735              	.LVL250:
 1736 002a F2E7     		b	.L171
 1737              	.L173:
 1738              	.LBE15:
 423:ssd1306.c     **** 
 1739              		.loc 1 423 0
 1740              		@ sp needed
ARM GAS  C:\Users\PC\AppData\Local\Temp\cccpd4eb.s 			page 44


 1741              	.LVL251:
 1742 002c F7BD     		pop	{r0, r1, r2, r4, r5, r6, r7, pc}
 1743              		.cfi_endproc
 1744              	.LFE47:
 1745              		.size	fillRect, .-fillRect
 1746              		.section	.text.fillScreen,"ax",%progbits
 1747              		.align	1
 1748              		.global	fillScreen
 1749              		.code	16
 1750              		.thumb_func
 1751              		.type	fillScreen, %function
 1752              	fillScreen:
 1753              	.LFB48:
 425:ssd1306.c     ****   fillRect(0, 0, SSD1306_LCDWIDTH, SSD1306_LCDHEIGHT, 1);
 1754              		.loc 1 425 0
 1755              		.cfi_startproc
 1756              		@ args = 0, pretend = 0, frame = 0
 1757              		@ frame_needed = 0, uses_anonymous_args = 0
 1758 0000 07B5     		push	{r0, r1, r2, lr}
 1759              		.cfi_def_cfa_offset 16
 1760              		.cfi_offset 0, -16
 1761              		.cfi_offset 1, -12
 1762              		.cfi_offset 2, -8
 1763              		.cfi_offset 14, -4
 426:ssd1306.c     **** }
 1764              		.loc 1 426 0
 1765 0002 0123     		movs	r3, #1
 1766 0004 0021     		movs	r1, #0
 1767 0006 0093     		str	r3, [sp]
 1768 0008 8022     		movs	r2, #128
 1769 000a 3F33     		adds	r3, r3, #63
 1770 000c 0800     		movs	r0, r1
 1771 000e FFF7FEFF 		bl	fillRect
 1772              	.LVL252:
 427:ssd1306.c     **** 
 1773              		.loc 1 427 0
 1774              		@ sp needed
 1775 0012 07BD     		pop	{r0, r1, r2, pc}
 1776              		.cfi_endproc
 1777              	.LFE48:
 1778              		.size	fillScreen, .-fillScreen
 1779              		.comm	_height,1,1
 1780              		.comm	_width,1,1
 1781              		.comm	rotation,1,1
 1782              		.comm	_vccstate,1,1
 1783              		.section	.rodata
 1784              		.set	.LANCHOR1,. + 0
 1785              		.type	premask.5729, %object
 1786              		.size	premask.5729, 8
 1787              	premask.5729:
 1788 0000 00       		.byte	0
 1789 0001 80       		.byte	-128
 1790 0002 C0       		.byte	-64
 1791 0003 E0       		.byte	-32
 1792 0004 F0       		.byte	-16
 1793 0005 F8       		.byte	-8
 1794 0006 FC       		.byte	-4
ARM GAS  C:\Users\PC\AppData\Local\Temp\cccpd4eb.s 			page 45


 1795 0007 FE       		.byte	-2
 1796              		.type	postmask.5740, %object
 1797              		.size	postmask.5740, 8
 1798              	postmask.5740:
 1799 0008 00       		.byte	0
 1800 0009 01       		.byte	1
 1801 000a 03       		.byte	3
 1802 000b 07       		.byte	7
 1803 000c 0F       		.byte	15
 1804 000d 1F       		.byte	31
 1805 000e 3F       		.byte	63
 1806 000f 7F       		.byte	127
 1807              		.data
 1808              		.set	.LANCHOR0,. + 0
 1809              		.type	ssd1306_buffer, %object
 1810              		.size	ssd1306_buffer, 1024
 1811              	ssd1306_buffer:
 1812 0000 00       		.byte	0
 1813 0001 00       		.byte	0
 1814 0002 00       		.byte	0
 1815 0003 00       		.byte	0
 1816 0004 00       		.byte	0
 1817 0005 00       		.byte	0
 1818 0006 00       		.byte	0
 1819 0007 00       		.byte	0
 1820 0008 00       		.byte	0
 1821 0009 00       		.byte	0
 1822 000a 00       		.byte	0
 1823 000b 00       		.byte	0
 1824 000c 00       		.byte	0
 1825 000d 00       		.byte	0
 1826 000e 00       		.byte	0
 1827 000f 00       		.byte	0
 1828 0010 00       		.byte	0
 1829 0011 00       		.byte	0
 1830 0012 00       		.byte	0
 1831 0013 00       		.byte	0
 1832 0014 00       		.byte	0
 1833 0015 00       		.byte	0
 1834 0016 00       		.byte	0
 1835 0017 00       		.byte	0
 1836 0018 00       		.byte	0
 1837 0019 00       		.byte	0
 1838 001a 00       		.byte	0
 1839 001b 00       		.byte	0
 1840 001c 00       		.byte	0
 1841 001d 00       		.byte	0
 1842 001e 00       		.byte	0
 1843 001f 00       		.byte	0
 1844 0020 00       		.byte	0
 1845 0021 00       		.byte	0
 1846 0022 00       		.byte	0
 1847 0023 00       		.byte	0
 1848 0024 00       		.byte	0
 1849 0025 00       		.byte	0
 1850 0026 00       		.byte	0
 1851 0027 00       		.byte	0
ARM GAS  C:\Users\PC\AppData\Local\Temp\cccpd4eb.s 			page 46


 1852 0028 00       		.byte	0
 1853 0029 00       		.byte	0
 1854 002a 00       		.byte	0
 1855 002b 00       		.byte	0
 1856 002c 00       		.byte	0
 1857 002d 00       		.byte	0
 1858 002e 00       		.byte	0
 1859 002f 00       		.byte	0
 1860 0030 00       		.byte	0
 1861 0031 00       		.byte	0
 1862 0032 00       		.byte	0
 1863 0033 00       		.byte	0
 1864 0034 00       		.byte	0
 1865 0035 00       		.byte	0
 1866 0036 00       		.byte	0
 1867 0037 00       		.byte	0
 1868 0038 00       		.byte	0
 1869 0039 00       		.byte	0
 1870 003a 00       		.byte	0
 1871 003b 00       		.byte	0
 1872 003c 00       		.byte	0
 1873 003d 00       		.byte	0
 1874 003e 00       		.byte	0
 1875 003f 80       		.byte	-128
 1876 0040 80       		.byte	-128
 1877 0041 80       		.byte	-128
 1878 0042 00       		.byte	0
 1879 0043 00       		.byte	0
 1880 0044 00       		.byte	0
 1881 0045 00       		.byte	0
 1882 0046 00       		.byte	0
 1883 0047 00       		.byte	0
 1884 0048 00       		.byte	0
 1885 0049 00       		.byte	0
 1886 004a 00       		.byte	0
 1887 004b 00       		.byte	0
 1888 004c 00       		.byte	0
 1889 004d 00       		.byte	0
 1890 004e 00       		.byte	0
 1891 004f 00       		.byte	0
 1892 0050 00       		.byte	0
 1893 0051 80       		.byte	-128
 1894 0052 80       		.byte	-128
 1895 0053 C0       		.byte	-64
 1896 0054 C0       		.byte	-64
 1897 0055 00       		.byte	0
 1898 0056 00       		.byte	0
 1899 0057 00       		.byte	0
 1900 0058 00       		.byte	0
 1901 0059 00       		.byte	0
 1902 005a 00       		.byte	0
 1903 005b 00       		.byte	0
 1904 005c 00       		.byte	0
 1905 005d 00       		.byte	0
 1906 005e 00       		.byte	0
 1907 005f 00       		.byte	0
 1908 0060 00       		.byte	0
ARM GAS  C:\Users\PC\AppData\Local\Temp\cccpd4eb.s 			page 47


 1909 0061 00       		.byte	0
 1910 0062 00       		.byte	0
 1911 0063 00       		.byte	0
 1912 0064 00       		.byte	0
 1913 0065 00       		.byte	0
 1914 0066 00       		.byte	0
 1915 0067 00       		.byte	0
 1916 0068 00       		.byte	0
 1917 0069 00       		.byte	0
 1918 006a 00       		.byte	0
 1919 006b 00       		.byte	0
 1920 006c 00       		.byte	0
 1921 006d 00       		.byte	0
 1922 006e 00       		.byte	0
 1923 006f 00       		.byte	0
 1924 0070 00       		.byte	0
 1925 0071 00       		.byte	0
 1926 0072 00       		.byte	0
 1927 0073 00       		.byte	0
 1928 0074 00       		.byte	0
 1929 0075 00       		.byte	0
 1930 0076 00       		.byte	0
 1931 0077 00       		.byte	0
 1932 0078 00       		.byte	0
 1933 0079 00       		.byte	0
 1934 007a 00       		.byte	0
 1935 007b 00       		.byte	0
 1936 007c 00       		.byte	0
 1937 007d 00       		.byte	0
 1938 007e 00       		.byte	0
 1939 007f 00       		.byte	0
 1940 0080 00       		.byte	0
 1941 0081 00       		.byte	0
 1942 0082 00       		.byte	0
 1943 0083 00       		.byte	0
 1944 0084 00       		.byte	0
 1945 0085 00       		.byte	0
 1946 0086 00       		.byte	0
 1947 0087 00       		.byte	0
 1948 0088 00       		.byte	0
 1949 0089 00       		.byte	0
 1950 008a 00       		.byte	0
 1951 008b 00       		.byte	0
 1952 008c 00       		.byte	0
 1953 008d 00       		.byte	0
 1954 008e 00       		.byte	0
 1955 008f 00       		.byte	0
 1956 0090 00       		.byte	0
 1957 0091 00       		.byte	0
 1958 0092 00       		.byte	0
 1959 0093 00       		.byte	0
 1960 0094 80       		.byte	-128
 1961 0095 C0       		.byte	-64
 1962 0096 E0       		.byte	-32
 1963 0097 F0       		.byte	-16
 1964 0098 F8       		.byte	-8
 1965 0099 FC       		.byte	-4
ARM GAS  C:\Users\PC\AppData\Local\Temp\cccpd4eb.s 			page 48


 1966 009a F8       		.byte	-8
 1967 009b E0       		.byte	-32
 1968 009c 00       		.byte	0
 1969 009d 00       		.byte	0
 1970 009e 00       		.byte	0
 1971 009f 00       		.byte	0
 1972 00a0 00       		.byte	0
 1973 00a1 00       		.byte	0
 1974 00a2 00       		.byte	0
 1975 00a3 00       		.byte	0
 1976 00a4 00       		.byte	0
 1977 00a5 00       		.byte	0
 1978 00a6 00       		.byte	0
 1979 00a7 00       		.byte	0
 1980 00a8 00       		.byte	0
 1981 00a9 00       		.byte	0
 1982 00aa 00       		.byte	0
 1983 00ab 00       		.byte	0
 1984 00ac 00       		.byte	0
 1985 00ad 80       		.byte	-128
 1986 00ae 80       		.byte	-128
 1987 00af 80       		.byte	-128
 1988 00b0 80       		.byte	-128
 1989 00b1 80       		.byte	-128
 1990 00b2 00       		.byte	0
 1991 00b3 80       		.byte	-128
 1992 00b4 80       		.byte	-128
 1993 00b5 00       		.byte	0
 1994 00b6 00       		.byte	0
 1995 00b7 00       		.byte	0
 1996 00b8 00       		.byte	0
 1997 00b9 80       		.byte	-128
 1998 00ba 80       		.byte	-128
 1999 00bb 80       		.byte	-128
 2000 00bc 80       		.byte	-128
 2001 00bd 80       		.byte	-128
 2002 00be 00       		.byte	0
 2003 00bf FF       		.byte	-1
 2004 00c0 FF       		.byte	-1
 2005 00c1 FF       		.byte	-1
 2006 00c2 00       		.byte	0
 2007 00c3 00       		.byte	0
 2008 00c4 00       		.byte	0
 2009 00c5 00       		.byte	0
 2010 00c6 80       		.byte	-128
 2011 00c7 80       		.byte	-128
 2012 00c8 80       		.byte	-128
 2013 00c9 80       		.byte	-128
 2014 00ca 00       		.byte	0
 2015 00cb 00       		.byte	0
 2016 00cc 80       		.byte	-128
 2017 00cd 80       		.byte	-128
 2018 00ce 00       		.byte	0
 2019 00cf 00       		.byte	0
 2020 00d0 80       		.byte	-128
 2021 00d1 FF       		.byte	-1
 2022 00d2 FF       		.byte	-1
ARM GAS  C:\Users\PC\AppData\Local\Temp\cccpd4eb.s 			page 49


 2023 00d3 80       		.byte	-128
 2024 00d4 80       		.byte	-128
 2025 00d5 00       		.byte	0
 2026 00d6 80       		.byte	-128
 2027 00d7 80       		.byte	-128
 2028 00d8 00       		.byte	0
 2029 00d9 80       		.byte	-128
 2030 00da 80       		.byte	-128
 2031 00db 80       		.byte	-128
 2032 00dc 80       		.byte	-128
 2033 00dd 00       		.byte	0
 2034 00de 80       		.byte	-128
 2035 00df 80       		.byte	-128
 2036 00e0 00       		.byte	0
 2037 00e1 00       		.byte	0
 2038 00e2 00       		.byte	0
 2039 00e3 00       		.byte	0
 2040 00e4 00       		.byte	0
 2041 00e5 80       		.byte	-128
 2042 00e6 80       		.byte	-128
 2043 00e7 00       		.byte	0
 2044 00e8 00       		.byte	0
 2045 00e9 8C       		.byte	-116
 2046 00ea 8E       		.byte	-114
 2047 00eb 84       		.byte	-124
 2048 00ec 00       		.byte	0
 2049 00ed 00       		.byte	0
 2050 00ee 80       		.byte	-128
 2051 00ef F8       		.byte	-8
 2052 00f0 F8       		.byte	-8
 2053 00f1 F8       		.byte	-8
 2054 00f2 80       		.byte	-128
 2055 00f3 00       		.byte	0
 2056 00f4 00       		.byte	0
 2057 00f5 00       		.byte	0
 2058 00f6 00       		.byte	0
 2059 00f7 00       		.byte	0
 2060 00f8 00       		.byte	0
 2061 00f9 00       		.byte	0
 2062 00fa 00       		.byte	0
 2063 00fb 00       		.byte	0
 2064 00fc 00       		.byte	0
 2065 00fd 00       		.byte	0
 2066 00fe 00       		.byte	0
 2067 00ff 00       		.byte	0
 2068 0100 F0       		.byte	-16
 2069 0101 F0       		.byte	-16
 2070 0102 F0       		.byte	-16
 2071 0103 F0       		.byte	-16
 2072 0104 F0       		.byte	-16
 2073 0105 F0       		.byte	-16
 2074 0106 F0       		.byte	-16
 2075 0107 F0       		.byte	-16
 2076 0108 F0       		.byte	-16
 2077 0109 F0       		.byte	-16
 2078 010a F0       		.byte	-16
 2079 010b F0       		.byte	-16
ARM GAS  C:\Users\PC\AppData\Local\Temp\cccpd4eb.s 			page 50


 2080 010c E0       		.byte	-32
 2081 010d E0       		.byte	-32
 2082 010e C0       		.byte	-64
 2083 010f 80       		.byte	-128
 2084 0110 00       		.byte	0
 2085 0111 E0       		.byte	-32
 2086 0112 FC       		.byte	-4
 2087 0113 FE       		.byte	-2
 2088 0114 FF       		.byte	-1
 2089 0115 FF       		.byte	-1
 2090 0116 FF       		.byte	-1
 2091 0117 7F       		.byte	127
 2092 0118 FF       		.byte	-1
 2093 0119 FF       		.byte	-1
 2094 011a FF       		.byte	-1
 2095 011b FF       		.byte	-1
 2096 011c FF       		.byte	-1
 2097 011d 00       		.byte	0
 2098 011e 00       		.byte	0
 2099 011f 00       		.byte	0
 2100 0120 00       		.byte	0
 2101 0121 00       		.byte	0
 2102 0122 00       		.byte	0
 2103 0123 00       		.byte	0
 2104 0124 00       		.byte	0
 2105 0125 00       		.byte	0
 2106 0126 00       		.byte	0
 2107 0127 00       		.byte	0
 2108 0128 00       		.byte	0
 2109 0129 00       		.byte	0
 2110 012a 00       		.byte	0
 2111 012b FE       		.byte	-2
 2112 012c FF       		.byte	-1
 2113 012d C7       		.byte	-57
 2114 012e 01       		.byte	1
 2115 012f 01       		.byte	1
 2116 0130 01       		.byte	1
 2117 0131 01       		.byte	1
 2118 0132 83       		.byte	-125
 2119 0133 FF       		.byte	-1
 2120 0134 FF       		.byte	-1
 2121 0135 00       		.byte	0
 2122 0136 00       		.byte	0
 2123 0137 7C       		.byte	124
 2124 0138 FE       		.byte	-2
 2125 0139 C7       		.byte	-57
 2126 013a 01       		.byte	1
 2127 013b 01       		.byte	1
 2128 013c 01       		.byte	1
 2129 013d 01       		.byte	1
 2130 013e 83       		.byte	-125
 2131 013f FF       		.byte	-1
 2132 0140 FF       		.byte	-1
 2133 0141 FF       		.byte	-1
 2134 0142 00       		.byte	0
 2135 0143 38       		.byte	56
 2136 0144 FE       		.byte	-2
ARM GAS  C:\Users\PC\AppData\Local\Temp\cccpd4eb.s 			page 51


 2137 0145 C7       		.byte	-57
 2138 0146 83       		.byte	-125
 2139 0147 01       		.byte	1
 2140 0148 01       		.byte	1
 2141 0149 01       		.byte	1
 2142 014a 83       		.byte	-125
 2143 014b C7       		.byte	-57
 2144 014c FF       		.byte	-1
 2145 014d FF       		.byte	-1
 2146 014e 00       		.byte	0
 2147 014f 00       		.byte	0
 2148 0150 01       		.byte	1
 2149 0151 FF       		.byte	-1
 2150 0152 FF       		.byte	-1
 2151 0153 01       		.byte	1
 2152 0154 01       		.byte	1
 2153 0155 00       		.byte	0
 2154 0156 FF       		.byte	-1
 2155 0157 FF       		.byte	-1
 2156 0158 07       		.byte	7
 2157 0159 01       		.byte	1
 2158 015a 01       		.byte	1
 2159 015b 01       		.byte	1
 2160 015c 00       		.byte	0
 2161 015d 00       		.byte	0
 2162 015e 7F       		.byte	127
 2163 015f FF       		.byte	-1
 2164 0160 80       		.byte	-128
 2165 0161 00       		.byte	0
 2166 0162 00       		.byte	0
 2167 0163 00       		.byte	0
 2168 0164 FF       		.byte	-1
 2169 0165 FF       		.byte	-1
 2170 0166 7F       		.byte	127
 2171 0167 00       		.byte	0
 2172 0168 00       		.byte	0
 2173 0169 FF       		.byte	-1
 2174 016a FF       		.byte	-1
 2175 016b FF       		.byte	-1
 2176 016c 00       		.byte	0
 2177 016d 00       		.byte	0
 2178 016e 01       		.byte	1
 2179 016f FF       		.byte	-1
 2180 0170 FF       		.byte	-1
 2181 0171 FF       		.byte	-1
 2182 0172 01       		.byte	1
 2183 0173 00       		.byte	0
 2184 0174 00       		.byte	0
 2185 0175 00       		.byte	0
 2186 0176 00       		.byte	0
 2187 0177 00       		.byte	0
 2188 0178 00       		.byte	0
 2189 0179 00       		.byte	0
 2190 017a 00       		.byte	0
 2191 017b 00       		.byte	0
 2192 017c 00       		.byte	0
 2193 017d 00       		.byte	0
ARM GAS  C:\Users\PC\AppData\Local\Temp\cccpd4eb.s 			page 52


 2194 017e 00       		.byte	0
 2195 017f 00       		.byte	0
 2196 0180 03       		.byte	3
 2197 0181 0F       		.byte	15
 2198 0182 3F       		.byte	63
 2199 0183 7F       		.byte	127
 2200 0184 7F       		.byte	127
 2201 0185 FF       		.byte	-1
 2202 0186 FF       		.byte	-1
 2203 0187 FF       		.byte	-1
 2204 0188 FF       		.byte	-1
 2205 0189 FF       		.byte	-1
 2206 018a FF       		.byte	-1
 2207 018b FF       		.byte	-1
 2208 018c E7       		.byte	-25
 2209 018d C7       		.byte	-57
 2210 018e C7       		.byte	-57
 2211 018f 8F       		.byte	-113
 2212 0190 8F       		.byte	-113
 2213 0191 9F       		.byte	-97
 2214 0192 BF       		.byte	-65
 2215 0193 FF       		.byte	-1
 2216 0194 FF       		.byte	-1
 2217 0195 C3       		.byte	-61
 2218 0196 C0       		.byte	-64
 2219 0197 F0       		.byte	-16
 2220 0198 FF       		.byte	-1
 2221 0199 FF       		.byte	-1
 2222 019a FF       		.byte	-1
 2223 019b FF       		.byte	-1
 2224 019c FF       		.byte	-1
 2225 019d FC       		.byte	-4
 2226 019e FC       		.byte	-4
 2227 019f FC       		.byte	-4
 2228 01a0 FC       		.byte	-4
 2229 01a1 FC       		.byte	-4
 2230 01a2 FC       		.byte	-4
 2231 01a3 FC       		.byte	-4
 2232 01a4 FC       		.byte	-4
 2233 01a5 F8       		.byte	-8
 2234 01a6 F8       		.byte	-8
 2235 01a7 F0       		.byte	-16
 2236 01a8 F0       		.byte	-16
 2237 01a9 E0       		.byte	-32
 2238 01aa C0       		.byte	-64
 2239 01ab 00       		.byte	0
 2240 01ac 01       		.byte	1
 2241 01ad 03       		.byte	3
 2242 01ae 03       		.byte	3
 2243 01af 03       		.byte	3
 2244 01b0 03       		.byte	3
 2245 01b1 03       		.byte	3
 2246 01b2 01       		.byte	1
 2247 01b3 03       		.byte	3
 2248 01b4 03       		.byte	3
 2249 01b5 00       		.byte	0
 2250 01b6 00       		.byte	0
ARM GAS  C:\Users\PC\AppData\Local\Temp\cccpd4eb.s 			page 53


 2251 01b7 00       		.byte	0
 2252 01b8 00       		.byte	0
 2253 01b9 01       		.byte	1
 2254 01ba 03       		.byte	3
 2255 01bb 03       		.byte	3
 2256 01bc 03       		.byte	3
 2257 01bd 03       		.byte	3
 2258 01be 01       		.byte	1
 2259 01bf 01       		.byte	1
 2260 01c0 03       		.byte	3
 2261 01c1 01       		.byte	1
 2262 01c2 00       		.byte	0
 2263 01c3 00       		.byte	0
 2264 01c4 00       		.byte	0
 2265 01c5 01       		.byte	1
 2266 01c6 03       		.byte	3
 2267 01c7 03       		.byte	3
 2268 01c8 03       		.byte	3
 2269 01c9 03       		.byte	3
 2270 01ca 01       		.byte	1
 2271 01cb 01       		.byte	1
 2272 01cc 03       		.byte	3
 2273 01cd 03       		.byte	3
 2274 01ce 00       		.byte	0
 2275 01cf 00       		.byte	0
 2276 01d0 00       		.byte	0
 2277 01d1 03       		.byte	3
 2278 01d2 03       		.byte	3
 2279 01d3 00       		.byte	0
 2280 01d4 00       		.byte	0
 2281 01d5 00       		.byte	0
 2282 01d6 03       		.byte	3
 2283 01d7 03       		.byte	3
 2284 01d8 00       		.byte	0
 2285 01d9 00       		.byte	0
 2286 01da 00       		.byte	0
 2287 01db 00       		.byte	0
 2288 01dc 00       		.byte	0
 2289 01dd 00       		.byte	0
 2290 01de 00       		.byte	0
 2291 01df 01       		.byte	1
 2292 01e0 03       		.byte	3
 2293 01e1 03       		.byte	3
 2294 01e2 03       		.byte	3
 2295 01e3 03       		.byte	3
 2296 01e4 03       		.byte	3
 2297 01e5 01       		.byte	1
 2298 01e6 00       		.byte	0
 2299 01e7 00       		.byte	0
 2300 01e8 00       		.byte	0
 2301 01e9 01       		.byte	1
 2302 01ea 03       		.byte	3
 2303 01eb 01       		.byte	1
 2304 01ec 00       		.byte	0
 2305 01ed 00       		.byte	0
 2306 01ee 00       		.byte	0
 2307 01ef 03       		.byte	3
ARM GAS  C:\Users\PC\AppData\Local\Temp\cccpd4eb.s 			page 54


 2308 01f0 03       		.byte	3
 2309 01f1 01       		.byte	1
 2310 01f2 00       		.byte	0
 2311 01f3 00       		.byte	0
 2312 01f4 00       		.byte	0
 2313 01f5 00       		.byte	0
 2314 01f6 00       		.byte	0
 2315 01f7 00       		.byte	0
 2316 01f8 00       		.byte	0
 2317 01f9 00       		.byte	0
 2318 01fa 00       		.byte	0
 2319 01fb 00       		.byte	0
 2320 01fc 00       		.byte	0
 2321 01fd 00       		.byte	0
 2322 01fe 00       		.byte	0
 2323 01ff 00       		.byte	0
 2324 0200 00       		.byte	0
 2325 0201 00       		.byte	0
 2326 0202 00       		.byte	0
 2327 0203 80       		.byte	-128
 2328 0204 C0       		.byte	-64
 2329 0205 E0       		.byte	-32
 2330 0206 F0       		.byte	-16
 2331 0207 F9       		.byte	-7
 2332 0208 FF       		.byte	-1
 2333 0209 FF       		.byte	-1
 2334 020a FF       		.byte	-1
 2335 020b FF       		.byte	-1
 2336 020c FF       		.byte	-1
 2337 020d 3F       		.byte	63
 2338 020e 1F       		.byte	31
 2339 020f 0F       		.byte	15
 2340 0210 87       		.byte	-121
 2341 0211 C7       		.byte	-57
 2342 0212 F7       		.byte	-9
 2343 0213 FF       		.byte	-1
 2344 0214 FF       		.byte	-1
 2345 0215 1F       		.byte	31
 2346 0216 1F       		.byte	31
 2347 0217 3D       		.byte	61
 2348 0218 FC       		.byte	-4
 2349 0219 F8       		.byte	-8
 2350 021a F8       		.byte	-8
 2351 021b F8       		.byte	-8
 2352 021c F8       		.byte	-8
 2353 021d 7C       		.byte	124
 2354 021e 7D       		.byte	125
 2355 021f FF       		.byte	-1
 2356 0220 FF       		.byte	-1
 2357 0221 FF       		.byte	-1
 2358 0222 FF       		.byte	-1
 2359 0223 FF       		.byte	-1
 2360 0224 FF       		.byte	-1
 2361 0225 FF       		.byte	-1
 2362 0226 FF       		.byte	-1
 2363 0227 7F       		.byte	127
 2364 0228 3F       		.byte	63
ARM GAS  C:\Users\PC\AppData\Local\Temp\cccpd4eb.s 			page 55


 2365 0229 0F       		.byte	15
 2366 022a 07       		.byte	7
 2367 022b 00       		.byte	0
 2368 022c 30       		.byte	48
 2369 022d 30       		.byte	48
 2370 022e 00       		.byte	0
 2371 022f 00       		.byte	0
 2372 0230 00       		.byte	0
 2373 0231 00       		.byte	0
 2374 0232 00       		.byte	0
 2375 0233 00       		.byte	0
 2376 0234 00       		.byte	0
 2377 0235 00       		.byte	0
 2378 0236 00       		.byte	0
 2379 0237 00       		.byte	0
 2380 0238 00       		.byte	0
 2381 0239 00       		.byte	0
 2382 023a 00       		.byte	0
 2383 023b 00       		.byte	0
 2384 023c 00       		.byte	0
 2385 023d 00       		.byte	0
 2386 023e 00       		.byte	0
 2387 023f 00       		.byte	0
 2388 0240 00       		.byte	0
 2389 0241 00       		.byte	0
 2390 0242 00       		.byte	0
 2391 0243 00       		.byte	0
 2392 0244 FE       		.byte	-2
 2393 0245 FE       		.byte	-2
 2394 0246 FC       		.byte	-4
 2395 0247 00       		.byte	0
 2396 0248 00       		.byte	0
 2397 0249 00       		.byte	0
 2398 024a 00       		.byte	0
 2399 024b 00       		.byte	0
 2400 024c 00       		.byte	0
 2401 024d 00       		.byte	0
 2402 024e 00       		.byte	0
 2403 024f 00       		.byte	0
 2404 0250 00       		.byte	0
 2405 0251 00       		.byte	0
 2406 0252 00       		.byte	0
 2407 0253 00       		.byte	0
 2408 0254 00       		.byte	0
 2409 0255 00       		.byte	0
 2410 0256 00       		.byte	0
 2411 0257 00       		.byte	0
 2412 0258 00       		.byte	0
 2413 0259 00       		.byte	0
 2414 025a 00       		.byte	0
 2415 025b 00       		.byte	0
 2416 025c 00       		.byte	0
 2417 025d E0       		.byte	-32
 2418 025e C0       		.byte	-64
 2419 025f 00       		.byte	0
 2420 0260 00       		.byte	0
 2421 0261 00       		.byte	0
ARM GAS  C:\Users\PC\AppData\Local\Temp\cccpd4eb.s 			page 56


 2422 0262 00       		.byte	0
 2423 0263 00       		.byte	0
 2424 0264 00       		.byte	0
 2425 0265 00       		.byte	0
 2426 0266 00       		.byte	0
 2427 0267 00       		.byte	0
 2428 0268 00       		.byte	0
 2429 0269 00       		.byte	0
 2430 026a 30       		.byte	48
 2431 026b 30       		.byte	48
 2432 026c 00       		.byte	0
 2433 026d 00       		.byte	0
 2434 026e 00       		.byte	0
 2435 026f 00       		.byte	0
 2436 0270 00       		.byte	0
 2437 0271 00       		.byte	0
 2438 0272 00       		.byte	0
 2439 0273 00       		.byte	0
 2440 0274 00       		.byte	0
 2441 0275 00       		.byte	0
 2442 0276 00       		.byte	0
 2443 0277 00       		.byte	0
 2444 0278 00       		.byte	0
 2445 0279 00       		.byte	0
 2446 027a 00       		.byte	0
 2447 027b 00       		.byte	0
 2448 027c 00       		.byte	0
 2449 027d 00       		.byte	0
 2450 027e 00       		.byte	0
 2451 027f 00       		.byte	0
 2452 0280 00       		.byte	0
 2453 0281 C0       		.byte	-64
 2454 0282 FE       		.byte	-2
 2455 0283 FF       		.byte	-1
 2456 0284 FF       		.byte	-1
 2457 0285 FF       		.byte	-1
 2458 0286 FF       		.byte	-1
 2459 0287 FF       		.byte	-1
 2460 0288 FF       		.byte	-1
 2461 0289 FF       		.byte	-1
 2462 028a FF       		.byte	-1
 2463 028b FF       		.byte	-1
 2464 028c 7F       		.byte	127
 2465 028d 7F       		.byte	127
 2466 028e 3F       		.byte	63
 2467 028f 1F       		.byte	31
 2468 0290 0F       		.byte	15
 2469 0291 07       		.byte	7
 2470 0292 1F       		.byte	31
 2471 0293 7F       		.byte	127
 2472 0294 FF       		.byte	-1
 2473 0295 FF       		.byte	-1
 2474 0296 F8       		.byte	-8
 2475 0297 F8       		.byte	-8
 2476 0298 FF       		.byte	-1
 2477 0299 FF       		.byte	-1
 2478 029a FF       		.byte	-1
ARM GAS  C:\Users\PC\AppData\Local\Temp\cccpd4eb.s 			page 57


 2479 029b FF       		.byte	-1
 2480 029c FF       		.byte	-1
 2481 029d FE       		.byte	-2
 2482 029e F8       		.byte	-8
 2483 029f E0       		.byte	-32
 2484 02a0 00       		.byte	0
 2485 02a1 00       		.byte	0
 2486 02a2 00       		.byte	0
 2487 02a3 01       		.byte	1
 2488 02a4 00       		.byte	0
 2489 02a5 00       		.byte	0
 2490 02a6 00       		.byte	0
 2491 02a7 00       		.byte	0
 2492 02a8 00       		.byte	0
 2493 02a9 00       		.byte	0
 2494 02aa 00       		.byte	0
 2495 02ab 00       		.byte	0
 2496 02ac FE       		.byte	-2
 2497 02ad FE       		.byte	-2
 2498 02ae 00       		.byte	0
 2499 02af 00       		.byte	0
 2500 02b0 00       		.byte	0
 2501 02b1 FC       		.byte	-4
 2502 02b2 FE       		.byte	-2
 2503 02b3 FC       		.byte	-4
 2504 02b4 0C       		.byte	12
 2505 02b5 06       		.byte	6
 2506 02b6 06       		.byte	6
 2507 02b7 0E       		.byte	14
 2508 02b8 FC       		.byte	-4
 2509 02b9 F8       		.byte	-8
 2510 02ba 00       		.byte	0
 2511 02bb 00       		.byte	0
 2512 02bc F0       		.byte	-16
 2513 02bd F8       		.byte	-8
 2514 02be 1C       		.byte	28
 2515 02bf 0E       		.byte	14
 2516 02c0 06       		.byte	6
 2517 02c1 06       		.byte	6
 2518 02c2 06       		.byte	6
 2519 02c3 0C       		.byte	12
 2520 02c4 FF       		.byte	-1
 2521 02c5 FF       		.byte	-1
 2522 02c6 FF       		.byte	-1
 2523 02c7 00       		.byte	0
 2524 02c8 00       		.byte	0
 2525 02c9 FE       		.byte	-2
 2526 02ca FE       		.byte	-2
 2527 02cb 00       		.byte	0
 2528 02cc 00       		.byte	0
 2529 02cd 00       		.byte	0
 2530 02ce 00       		.byte	0
 2531 02cf FC       		.byte	-4
 2532 02d0 FE       		.byte	-2
 2533 02d1 FC       		.byte	-4
 2534 02d2 00       		.byte	0
 2535 02d3 18       		.byte	24
ARM GAS  C:\Users\PC\AppData\Local\Temp\cccpd4eb.s 			page 58


 2536 02d4 3C       		.byte	60
 2537 02d5 7E       		.byte	126
 2538 02d6 66       		.byte	102
 2539 02d7 E6       		.byte	-26
 2540 02d8 CE       		.byte	-50
 2541 02d9 84       		.byte	-124
 2542 02da 00       		.byte	0
 2543 02db 00       		.byte	0
 2544 02dc 06       		.byte	6
 2545 02dd FF       		.byte	-1
 2546 02de FF       		.byte	-1
 2547 02df 06       		.byte	6
 2548 02e0 06       		.byte	6
 2549 02e1 FC       		.byte	-4
 2550 02e2 FE       		.byte	-2
 2551 02e3 FC       		.byte	-4
 2552 02e4 0C       		.byte	12
 2553 02e5 06       		.byte	6
 2554 02e6 06       		.byte	6
 2555 02e7 06       		.byte	6
 2556 02e8 00       		.byte	0
 2557 02e9 00       		.byte	0
 2558 02ea FE       		.byte	-2
 2559 02eb FE       		.byte	-2
 2560 02ec 00       		.byte	0
 2561 02ed 00       		.byte	0
 2562 02ee C0       		.byte	-64
 2563 02ef F8       		.byte	-8
 2564 02f0 FC       		.byte	-4
 2565 02f1 4E       		.byte	78
 2566 02f2 46       		.byte	70
 2567 02f3 46       		.byte	70
 2568 02f4 46       		.byte	70
 2569 02f5 4E       		.byte	78
 2570 02f6 7C       		.byte	124
 2571 02f7 78       		.byte	120
 2572 02f8 40       		.byte	64
 2573 02f9 18       		.byte	24
 2574 02fa 3C       		.byte	60
 2575 02fb 76       		.byte	118
 2576 02fc E6       		.byte	-26
 2577 02fd CE       		.byte	-50
 2578 02fe CC       		.byte	-52
 2579 02ff 80       		.byte	-128
 2580 0300 00       		.byte	0
 2581 0301 00       		.byte	0
 2582 0302 00       		.byte	0
 2583 0303 00       		.byte	0
 2584 0304 00       		.byte	0
 2585 0305 00       		.byte	0
 2586 0306 00       		.byte	0
 2587 0307 00       		.byte	0
 2588 0308 00       		.byte	0
 2589 0309 00       		.byte	0
 2590 030a 00       		.byte	0
 2591 030b 00       		.byte	0
 2592 030c 00       		.byte	0
ARM GAS  C:\Users\PC\AppData\Local\Temp\cccpd4eb.s 			page 59


 2593 030d 00       		.byte	0
 2594 030e 00       		.byte	0
 2595 030f 00       		.byte	0
 2596 0310 00       		.byte	0
 2597 0311 00       		.byte	0
 2598 0312 00       		.byte	0
 2599 0313 00       		.byte	0
 2600 0314 01       		.byte	1
 2601 0315 07       		.byte	7
 2602 0316 0F       		.byte	15
 2603 0317 1F       		.byte	31
 2604 0318 1F       		.byte	31
 2605 0319 3F       		.byte	63
 2606 031a 3F       		.byte	63
 2607 031b 3F       		.byte	63
 2608 031c 3F       		.byte	63
 2609 031d 1F       		.byte	31
 2610 031e 0F       		.byte	15
 2611 031f 03       		.byte	3
 2612 0320 00       		.byte	0
 2613 0321 00       		.byte	0
 2614 0322 00       		.byte	0
 2615 0323 00       		.byte	0
 2616 0324 00       		.byte	0
 2617 0325 00       		.byte	0
 2618 0326 00       		.byte	0
 2619 0327 00       		.byte	0
 2620 0328 00       		.byte	0
 2621 0329 00       		.byte	0
 2622 032a 00       		.byte	0
 2623 032b 00       		.byte	0
 2624 032c 0F       		.byte	15
 2625 032d 0F       		.byte	15
 2626 032e 00       		.byte	0
 2627 032f 00       		.byte	0
 2628 0330 00       		.byte	0
 2629 0331 0F       		.byte	15
 2630 0332 0F       		.byte	15
 2631 0333 0F       		.byte	15
 2632 0334 00       		.byte	0
 2633 0335 00       		.byte	0
 2634 0336 00       		.byte	0
 2635 0337 00       		.byte	0
 2636 0338 0F       		.byte	15
 2637 0339 0F       		.byte	15
 2638 033a 00       		.byte	0
 2639 033b 00       		.byte	0
 2640 033c 03       		.byte	3
 2641 033d 07       		.byte	7
 2642 033e 0E       		.byte	14
 2643 033f 0C       		.byte	12
 2644 0340 18       		.byte	24
 2645 0341 18       		.byte	24
 2646 0342 0C       		.byte	12
 2647 0343 06       		.byte	6
 2648 0344 0F       		.byte	15
 2649 0345 0F       		.byte	15
ARM GAS  C:\Users\PC\AppData\Local\Temp\cccpd4eb.s 			page 60


 2650 0346 0F       		.byte	15
 2651 0347 00       		.byte	0
 2652 0348 00       		.byte	0
 2653 0349 01       		.byte	1
 2654 034a 0F       		.byte	15
 2655 034b 0E       		.byte	14
 2656 034c 0C       		.byte	12
 2657 034d 18       		.byte	24
 2658 034e 0C       		.byte	12
 2659 034f 0F       		.byte	15
 2660 0350 07       		.byte	7
 2661 0351 01       		.byte	1
 2662 0352 00       		.byte	0
 2663 0353 04       		.byte	4
 2664 0354 0E       		.byte	14
 2665 0355 0C       		.byte	12
 2666 0356 18       		.byte	24
 2667 0357 0C       		.byte	12
 2668 0358 0F       		.byte	15
 2669 0359 07       		.byte	7
 2670 035a 00       		.byte	0
 2671 035b 00       		.byte	0
 2672 035c 00       		.byte	0
 2673 035d 0F       		.byte	15
 2674 035e 0F       		.byte	15
 2675 035f 00       		.byte	0
 2676 0360 00       		.byte	0
 2677 0361 0F       		.byte	15
 2678 0362 0F       		.byte	15
 2679 0363 0F       		.byte	15
 2680 0364 00       		.byte	0
 2681 0365 00       		.byte	0
 2682 0366 00       		.byte	0
 2683 0367 00       		.byte	0
 2684 0368 00       		.byte	0
 2685 0369 00       		.byte	0
 2686 036a 0F       		.byte	15
 2687 036b 0F       		.byte	15
 2688 036c 00       		.byte	0
 2689 036d 00       		.byte	0
 2690 036e 00       		.byte	0
 2691 036f 07       		.byte	7
 2692 0370 07       		.byte	7
 2693 0371 0C       		.byte	12
 2694 0372 0C       		.byte	12
 2695 0373 18       		.byte	24
 2696 0374 1C       		.byte	28
 2697 0375 0C       		.byte	12
 2698 0376 06       		.byte	6
 2699 0377 06       		.byte	6
 2700 0378 00       		.byte	0
 2701 0379 04       		.byte	4
 2702 037a 0E       		.byte	14
 2703 037b 0C       		.byte	12
 2704 037c 18       		.byte	24
 2705 037d 0C       		.byte	12
 2706 037e 0F       		.byte	15
ARM GAS  C:\Users\PC\AppData\Local\Temp\cccpd4eb.s 			page 61


 2707 037f 07       		.byte	7
 2708 0380 00       		.byte	0
 2709 0381 00       		.byte	0
 2710 0382 00       		.byte	0
 2711 0383 00       		.byte	0
 2712 0384 00       		.byte	0
 2713 0385 00       		.byte	0
 2714 0386 00       		.byte	0
 2715 0387 00       		.byte	0
 2716 0388 00       		.byte	0
 2717 0389 00       		.byte	0
 2718 038a 00       		.byte	0
 2719 038b 00       		.byte	0
 2720 038c 00       		.byte	0
 2721 038d 00       		.byte	0
 2722 038e 00       		.byte	0
 2723 038f 00       		.byte	0
 2724 0390 00       		.byte	0
 2725 0391 00       		.byte	0
 2726 0392 00       		.byte	0
 2727 0393 00       		.byte	0
 2728 0394 00       		.byte	0
 2729 0395 00       		.byte	0
 2730 0396 00       		.byte	0
 2731 0397 00       		.byte	0
 2732 0398 00       		.byte	0
 2733 0399 00       		.byte	0
 2734 039a 00       		.byte	0
 2735 039b 00       		.byte	0
 2736 039c 00       		.byte	0
 2737 039d 00       		.byte	0
 2738 039e 00       		.byte	0
 2739 039f 00       		.byte	0
 2740 03a0 00       		.byte	0
 2741 03a1 00       		.byte	0
 2742 03a2 00       		.byte	0
 2743 03a3 00       		.byte	0
 2744 03a4 00       		.byte	0
 2745 03a5 00       		.byte	0
 2746 03a6 00       		.byte	0
 2747 03a7 00       		.byte	0
 2748 03a8 00       		.byte	0
 2749 03a9 00       		.byte	0
 2750 03aa 00       		.byte	0
 2751 03ab 00       		.byte	0
 2752 03ac 00       		.byte	0
 2753 03ad 00       		.byte	0
 2754 03ae 00       		.byte	0
 2755 03af 00       		.byte	0
 2756 03b0 00       		.byte	0
 2757 03b1 00       		.byte	0
 2758 03b2 00       		.byte	0
 2759 03b3 00       		.byte	0
 2760 03b4 00       		.byte	0
 2761 03b5 00       		.byte	0
 2762 03b6 00       		.byte	0
 2763 03b7 00       		.byte	0
ARM GAS  C:\Users\PC\AppData\Local\Temp\cccpd4eb.s 			page 62


 2764 03b8 00       		.byte	0
 2765 03b9 00       		.byte	0
 2766 03ba 00       		.byte	0
 2767 03bb 00       		.byte	0
 2768 03bc 00       		.byte	0
 2769 03bd 00       		.byte	0
 2770 03be 00       		.byte	0
 2771 03bf 00       		.byte	0
 2772 03c0 00       		.byte	0
 2773 03c1 00       		.byte	0
 2774 03c2 00       		.byte	0
 2775 03c3 00       		.byte	0
 2776 03c4 00       		.byte	0
 2777 03c5 00       		.byte	0
 2778 03c6 00       		.byte	0
 2779 03c7 00       		.byte	0
 2780 03c8 00       		.byte	0
 2781 03c9 00       		.byte	0
 2782 03ca 00       		.byte	0
 2783 03cb 00       		.byte	0
 2784 03cc 00       		.byte	0
 2785 03cd 00       		.byte	0
 2786 03ce 00       		.byte	0
 2787 03cf 00       		.byte	0
 2788 03d0 00       		.byte	0
 2789 03d1 00       		.byte	0
 2790 03d2 00       		.byte	0
 2791 03d3 00       		.byte	0
 2792 03d4 00       		.byte	0
 2793 03d5 00       		.byte	0
 2794 03d6 00       		.byte	0
 2795 03d7 00       		.byte	0
 2796 03d8 00       		.byte	0
 2797 03d9 00       		.byte	0
 2798 03da 00       		.byte	0
 2799 03db 00       		.byte	0
 2800 03dc 00       		.byte	0
 2801 03dd 00       		.byte	0
 2802 03de 00       		.byte	0
 2803 03df 00       		.byte	0
 2804 03e0 00       		.byte	0
 2805 03e1 00       		.byte	0
 2806 03e2 00       		.byte	0
 2807 03e3 00       		.byte	0
 2808 03e4 00       		.byte	0
 2809 03e5 00       		.byte	0
 2810 03e6 00       		.byte	0
 2811 03e7 00       		.byte	0
 2812 03e8 00       		.byte	0
 2813 03e9 00       		.byte	0
 2814 03ea 00       		.byte	0
 2815 03eb 00       		.byte	0
 2816 03ec 00       		.byte	0
 2817 03ed 00       		.byte	0
 2818 03ee 00       		.byte	0
 2819 03ef 00       		.byte	0
 2820 03f0 00       		.byte	0
ARM GAS  C:\Users\PC\AppData\Local\Temp\cccpd4eb.s 			page 63


 2821 03f1 00       		.byte	0
 2822 03f2 00       		.byte	0
 2823 03f3 00       		.byte	0
 2824 03f4 00       		.byte	0
 2825 03f5 00       		.byte	0
 2826 03f6 00       		.byte	0
 2827 03f7 00       		.byte	0
 2828 03f8 00       		.byte	0
 2829 03f9 00       		.byte	0
 2830 03fa 00       		.byte	0
 2831 03fb 00       		.byte	0
 2832 03fc 00       		.byte	0
 2833 03fd 00       		.byte	0
 2834 03fe 00       		.byte	0
 2835 03ff 00       		.byte	0
 2836              		.text
 2837              	.Letext0:
 2838              		.file 2 "c:\\program files (x86)\\cypress\\psoc creator\\4.4\\psoc creator\\import\\gnu\\arm\\5.4.
 2839              		.file 3 "c:\\program files (x86)\\cypress\\psoc creator\\4.4\\psoc creator\\import\\gnu\\arm\\5.4.
 2840              		.file 4 "Generated_Source\\PSoC4/cytypes.h"
 2841              		.file 5 "ssd1306.h"
 2842              		.file 6 "Generated_Source\\PSoC4/pOledDc.h"
 2843              		.file 7 "Generated_Source\\PSoC4/mSPI_SPI_UART.h"
 2844              		.file 8 "Generated_Source\\PSoC4/CyLib.h"
 2845              		.file 9 "Generated_Source\\PSoC4/pOledReset.h"