ARM GAS  C:\Users\PC\AppData\Local\Temp\ccwnvNtc.s 			page 1


   1              		.syntax unified
   2              		.cpu cortex-m0plus
   3              		.fpu softvfp
   4              		.eabi_attribute 20, 1
   5              		.eabi_attribute 21, 1
   6              		.eabi_attribute 23, 3
   7              		.eabi_attribute 24, 1
   8              		.eabi_attribute 25, 1
   9              		.eabi_attribute 26, 1
  10              		.eabi_attribute 30, 1
  11              		.eabi_attribute 34, 0
  12              		.eabi_attribute 18, 4
  13              		.thumb
  14              		.syntax unified
  15              		.file	"mUART_UART.c"
  16              		.text
  17              	.Ltext0:
  18              		.cfi_sections	.debug_frame
  19              		.section	.text.mUART_UartInit,"ax",%progbits
  20              		.align	2
  21              		.global	mUART_UartInit
  22              		.code	16
  23              		.thumb_func
  24              		.type	mUART_UartInit, %function
  25              	mUART_UartInit:
  26              	.LFB1:
  27              		.file 1 "Generated_Source\\PSoC4\\mUART_UART.c"
   1:Generated_Source\PSoC4/mUART_UART.c **** /***************************************************************************//**
   2:Generated_Source\PSoC4/mUART_UART.c **** * \file mUART_UART.c
   3:Generated_Source\PSoC4/mUART_UART.c **** * \version 4.0
   4:Generated_Source\PSoC4/mUART_UART.c **** *
   5:Generated_Source\PSoC4/mUART_UART.c **** * \brief
   6:Generated_Source\PSoC4/mUART_UART.c **** *  This file provides the source code to the API for the SCB Component in
   7:Generated_Source\PSoC4/mUART_UART.c **** *  UART mode.
   8:Generated_Source\PSoC4/mUART_UART.c **** *
   9:Generated_Source\PSoC4/mUART_UART.c **** * Note:
  10:Generated_Source\PSoC4/mUART_UART.c **** *
  11:Generated_Source\PSoC4/mUART_UART.c **** *******************************************************************************
  12:Generated_Source\PSoC4/mUART_UART.c **** * \copyright
  13:Generated_Source\PSoC4/mUART_UART.c **** * Copyright 2013-2017, Cypress Semiconductor Corporation.  All rights reserved.
  14:Generated_Source\PSoC4/mUART_UART.c **** * You may use this file only in accordance with the license, terms, conditions,
  15:Generated_Source\PSoC4/mUART_UART.c **** * disclaimers, and limitations in the end user license agreement accompanying
  16:Generated_Source\PSoC4/mUART_UART.c **** * the software package with which this file was provided.
  17:Generated_Source\PSoC4/mUART_UART.c **** *******************************************************************************/
  18:Generated_Source\PSoC4/mUART_UART.c **** 
  19:Generated_Source\PSoC4/mUART_UART.c **** #include "mUART_PVT.h"
  20:Generated_Source\PSoC4/mUART_UART.c **** #include "mUART_SPI_UART_PVT.h"
  21:Generated_Source\PSoC4/mUART_UART.c **** #include "cyapicallbacks.h"
  22:Generated_Source\PSoC4/mUART_UART.c **** 
  23:Generated_Source\PSoC4/mUART_UART.c **** #if (mUART_UART_WAKE_ENABLE_CONST && mUART_UART_RX_WAKEUP_IRQ)
  24:Generated_Source\PSoC4/mUART_UART.c ****     /**
  25:Generated_Source\PSoC4/mUART_UART.c ****     * \addtogroup group_globals
  26:Generated_Source\PSoC4/mUART_UART.c ****     * \{
  27:Generated_Source\PSoC4/mUART_UART.c ****     */
  28:Generated_Source\PSoC4/mUART_UART.c ****     /** This global variable determines whether to enable Skip Start
  29:Generated_Source\PSoC4/mUART_UART.c ****     * functionality when mUART_Sleep() function is called:
  30:Generated_Source\PSoC4/mUART_UART.c ****     * 0 – disable, other values – enable. Default value is 1.
ARM GAS  C:\Users\PC\AppData\Local\Temp\ccwnvNtc.s 			page 2


  31:Generated_Source\PSoC4/mUART_UART.c ****     * It is only available when Enable wakeup from Deep Sleep Mode is enabled.
  32:Generated_Source\PSoC4/mUART_UART.c ****     */
  33:Generated_Source\PSoC4/mUART_UART.c ****     uint8 mUART_skipStart = 1u;
  34:Generated_Source\PSoC4/mUART_UART.c ****     /** \} globals */
  35:Generated_Source\PSoC4/mUART_UART.c **** #endif /* (mUART_UART_WAKE_ENABLE_CONST && mUART_UART_RX_WAKEUP_IRQ) */
  36:Generated_Source\PSoC4/mUART_UART.c **** 
  37:Generated_Source\PSoC4/mUART_UART.c **** #if(mUART_SCB_MODE_UNCONFIG_CONST_CFG)
  38:Generated_Source\PSoC4/mUART_UART.c **** 
  39:Generated_Source\PSoC4/mUART_UART.c ****     /***************************************
  40:Generated_Source\PSoC4/mUART_UART.c ****     *  Configuration Structure Initialization
  41:Generated_Source\PSoC4/mUART_UART.c ****     ***************************************/
  42:Generated_Source\PSoC4/mUART_UART.c **** 
  43:Generated_Source\PSoC4/mUART_UART.c ****     const mUART_UART_INIT_STRUCT mUART_configUart =
  44:Generated_Source\PSoC4/mUART_UART.c ****     {
  45:Generated_Source\PSoC4/mUART_UART.c ****         mUART_UART_SUB_MODE,
  46:Generated_Source\PSoC4/mUART_UART.c ****         mUART_UART_DIRECTION,
  47:Generated_Source\PSoC4/mUART_UART.c ****         mUART_UART_DATA_BITS_NUM,
  48:Generated_Source\PSoC4/mUART_UART.c ****         mUART_UART_PARITY_TYPE,
  49:Generated_Source\PSoC4/mUART_UART.c ****         mUART_UART_STOP_BITS_NUM,
  50:Generated_Source\PSoC4/mUART_UART.c ****         mUART_UART_OVS_FACTOR,
  51:Generated_Source\PSoC4/mUART_UART.c ****         mUART_UART_IRDA_LOW_POWER,
  52:Generated_Source\PSoC4/mUART_UART.c ****         mUART_UART_MEDIAN_FILTER_ENABLE,
  53:Generated_Source\PSoC4/mUART_UART.c ****         mUART_UART_RETRY_ON_NACK,
  54:Generated_Source\PSoC4/mUART_UART.c ****         mUART_UART_IRDA_POLARITY,
  55:Generated_Source\PSoC4/mUART_UART.c ****         mUART_UART_DROP_ON_PARITY_ERR,
  56:Generated_Source\PSoC4/mUART_UART.c ****         mUART_UART_DROP_ON_FRAME_ERR,
  57:Generated_Source\PSoC4/mUART_UART.c ****         mUART_UART_WAKE_ENABLE,
  58:Generated_Source\PSoC4/mUART_UART.c ****         0u,
  59:Generated_Source\PSoC4/mUART_UART.c ****         NULL,
  60:Generated_Source\PSoC4/mUART_UART.c ****         0u,
  61:Generated_Source\PSoC4/mUART_UART.c ****         NULL,
  62:Generated_Source\PSoC4/mUART_UART.c ****         mUART_UART_MP_MODE_ENABLE,
  63:Generated_Source\PSoC4/mUART_UART.c ****         mUART_UART_MP_ACCEPT_ADDRESS,
  64:Generated_Source\PSoC4/mUART_UART.c ****         mUART_UART_MP_RX_ADDRESS,
  65:Generated_Source\PSoC4/mUART_UART.c ****         mUART_UART_MP_RX_ADDRESS_MASK,
  66:Generated_Source\PSoC4/mUART_UART.c ****         (uint32) mUART_SCB_IRQ_INTERNAL,
  67:Generated_Source\PSoC4/mUART_UART.c ****         mUART_UART_INTR_RX_MASK,
  68:Generated_Source\PSoC4/mUART_UART.c ****         mUART_UART_RX_TRIGGER_LEVEL,
  69:Generated_Source\PSoC4/mUART_UART.c ****         mUART_UART_INTR_TX_MASK,
  70:Generated_Source\PSoC4/mUART_UART.c ****         mUART_UART_TX_TRIGGER_LEVEL,
  71:Generated_Source\PSoC4/mUART_UART.c ****         (uint8) mUART_UART_BYTE_MODE_ENABLE,
  72:Generated_Source\PSoC4/mUART_UART.c ****         (uint8) mUART_UART_CTS_ENABLE,
  73:Generated_Source\PSoC4/mUART_UART.c ****         (uint8) mUART_UART_CTS_POLARITY,
  74:Generated_Source\PSoC4/mUART_UART.c ****         (uint8) mUART_UART_RTS_POLARITY,
  75:Generated_Source\PSoC4/mUART_UART.c ****         (uint8) mUART_UART_RTS_FIFO_LEVEL,
  76:Generated_Source\PSoC4/mUART_UART.c ****         (uint8) mUART_UART_RX_BREAK_WIDTH
  77:Generated_Source\PSoC4/mUART_UART.c ****     };
  78:Generated_Source\PSoC4/mUART_UART.c **** 
  79:Generated_Source\PSoC4/mUART_UART.c **** 
  80:Generated_Source\PSoC4/mUART_UART.c ****     /*******************************************************************************
  81:Generated_Source\PSoC4/mUART_UART.c ****     * Function Name: mUART_UartInit
  82:Generated_Source\PSoC4/mUART_UART.c ****     ****************************************************************************//**
  83:Generated_Source\PSoC4/mUART_UART.c ****     *
  84:Generated_Source\PSoC4/mUART_UART.c ****     *  Configures the mUART for UART operation.
  85:Generated_Source\PSoC4/mUART_UART.c ****     *
  86:Generated_Source\PSoC4/mUART_UART.c ****     *  This function is intended specifically to be used when the mUART
  87:Generated_Source\PSoC4/mUART_UART.c ****     *  configuration is set to “Unconfigured mUART” in the customizer.
ARM GAS  C:\Users\PC\AppData\Local\Temp\ccwnvNtc.s 			page 3


  88:Generated_Source\PSoC4/mUART_UART.c ****     *  After initializing the mUART in UART mode using this function,
  89:Generated_Source\PSoC4/mUART_UART.c ****     *  the component can be enabled using the mUART_Start() or
  90:Generated_Source\PSoC4/mUART_UART.c ****     * mUART_Enable() function.
  91:Generated_Source\PSoC4/mUART_UART.c ****     *  This function uses a pointer to a structure that provides the configuration
  92:Generated_Source\PSoC4/mUART_UART.c ****     *  settings. This structure contains the same information that would otherwise
  93:Generated_Source\PSoC4/mUART_UART.c ****     *  be provided by the customizer settings.
  94:Generated_Source\PSoC4/mUART_UART.c ****     *
  95:Generated_Source\PSoC4/mUART_UART.c ****     *  \param config: pointer to a structure that contains the following list of
  96:Generated_Source\PSoC4/mUART_UART.c ****     *   fields. These fields match the selections available in the customizer.
  97:Generated_Source\PSoC4/mUART_UART.c ****     *   Refer to the customizer for further description of the settings.
  98:Generated_Source\PSoC4/mUART_UART.c ****     *
  99:Generated_Source\PSoC4/mUART_UART.c ****     *******************************************************************************/
 100:Generated_Source\PSoC4/mUART_UART.c ****     void mUART_UartInit(const mUART_UART_INIT_STRUCT *config)
 101:Generated_Source\PSoC4/mUART_UART.c ****     {
 102:Generated_Source\PSoC4/mUART_UART.c ****         uint32 pinsConfig;
 103:Generated_Source\PSoC4/mUART_UART.c **** 
 104:Generated_Source\PSoC4/mUART_UART.c ****         if (NULL == config)
 105:Generated_Source\PSoC4/mUART_UART.c ****         {
 106:Generated_Source\PSoC4/mUART_UART.c ****             CYASSERT(0u != 0u); /* Halt execution due to bad function parameter */
 107:Generated_Source\PSoC4/mUART_UART.c ****         }
 108:Generated_Source\PSoC4/mUART_UART.c ****         else
 109:Generated_Source\PSoC4/mUART_UART.c ****         {
 110:Generated_Source\PSoC4/mUART_UART.c ****             /* Get direction to configure UART pins: TX, RX or TX+RX */
 111:Generated_Source\PSoC4/mUART_UART.c ****             pinsConfig  = config->direction;
 112:Generated_Source\PSoC4/mUART_UART.c **** 
 113:Generated_Source\PSoC4/mUART_UART.c ****         #if !(mUART_CY_SCBIP_V0 || mUART_CY_SCBIP_V1)
 114:Generated_Source\PSoC4/mUART_UART.c ****             /* Add RTS and CTS pins to configure */
 115:Generated_Source\PSoC4/mUART_UART.c ****             pinsConfig |= (0u != config->rtsRxFifoLevel) ? (mUART_UART_RTS_PIN_ENABLE) : (0u);
 116:Generated_Source\PSoC4/mUART_UART.c ****             pinsConfig |= (0u != config->enableCts)      ? (mUART_UART_CTS_PIN_ENABLE) : (0u);
 117:Generated_Source\PSoC4/mUART_UART.c ****         #endif /* !(mUART_CY_SCBIP_V0 || mUART_CY_SCBIP_V1) */
 118:Generated_Source\PSoC4/mUART_UART.c **** 
 119:Generated_Source\PSoC4/mUART_UART.c ****             /* Configure pins */
 120:Generated_Source\PSoC4/mUART_UART.c ****             mUART_SetPins(mUART_SCB_MODE_UART, config->mode, pinsConfig);
 121:Generated_Source\PSoC4/mUART_UART.c **** 
 122:Generated_Source\PSoC4/mUART_UART.c ****             /* Store internal configuration */
 123:Generated_Source\PSoC4/mUART_UART.c ****             mUART_scbMode       = (uint8) mUART_SCB_MODE_UART;
 124:Generated_Source\PSoC4/mUART_UART.c ****             mUART_scbEnableWake = (uint8) config->enableWake;
 125:Generated_Source\PSoC4/mUART_UART.c ****             mUART_scbEnableIntr = (uint8) config->enableInterrupt;
 126:Generated_Source\PSoC4/mUART_UART.c **** 
 127:Generated_Source\PSoC4/mUART_UART.c ****             /* Set RX direction internal variables */
 128:Generated_Source\PSoC4/mUART_UART.c ****             mUART_rxBuffer      =         config->rxBuffer;
 129:Generated_Source\PSoC4/mUART_UART.c ****             mUART_rxDataBits    = (uint8) config->dataBits;
 130:Generated_Source\PSoC4/mUART_UART.c ****             mUART_rxBufferSize  =         config->rxBufferSize;
 131:Generated_Source\PSoC4/mUART_UART.c **** 
 132:Generated_Source\PSoC4/mUART_UART.c ****             /* Set TX direction internal variables */
 133:Generated_Source\PSoC4/mUART_UART.c ****             mUART_txBuffer      =         config->txBuffer;
 134:Generated_Source\PSoC4/mUART_UART.c ****             mUART_txDataBits    = (uint8) config->dataBits;
 135:Generated_Source\PSoC4/mUART_UART.c ****             mUART_txBufferSize  =         config->txBufferSize;
 136:Generated_Source\PSoC4/mUART_UART.c **** 
 137:Generated_Source\PSoC4/mUART_UART.c ****             /* Configure UART interface */
 138:Generated_Source\PSoC4/mUART_UART.c ****             if(mUART_UART_MODE_IRDA == config->mode)
 139:Generated_Source\PSoC4/mUART_UART.c ****             {
 140:Generated_Source\PSoC4/mUART_UART.c ****                 /* OVS settings: IrDA */
 141:Generated_Source\PSoC4/mUART_UART.c ****                 mUART_CTRL_REG  = ((0u != config->enableIrdaLowPower) ?
 142:Generated_Source\PSoC4/mUART_UART.c ****                                                 (mUART_UART_GET_CTRL_OVS_IRDA_LP(config->oversample
 143:Generated_Source\PSoC4/mUART_UART.c ****                                                 (mUART_CTRL_OVS_IRDA_OVS16));
 144:Generated_Source\PSoC4/mUART_UART.c ****             }
ARM GAS  C:\Users\PC\AppData\Local\Temp\ccwnvNtc.s 			page 4


 145:Generated_Source\PSoC4/mUART_UART.c ****             else
 146:Generated_Source\PSoC4/mUART_UART.c ****             {
 147:Generated_Source\PSoC4/mUART_UART.c ****                 /* OVS settings: UART and SmartCard */
 148:Generated_Source\PSoC4/mUART_UART.c ****                 mUART_CTRL_REG  = mUART_GET_CTRL_OVS(config->oversample);
 149:Generated_Source\PSoC4/mUART_UART.c ****             }
 150:Generated_Source\PSoC4/mUART_UART.c **** 
 151:Generated_Source\PSoC4/mUART_UART.c ****             mUART_CTRL_REG     |= mUART_GET_CTRL_BYTE_MODE  (config->enableByteMode)      |
 152:Generated_Source\PSoC4/mUART_UART.c ****                                              mUART_GET_CTRL_ADDR_ACCEPT(config->multiprocAcceptAddr
 153:Generated_Source\PSoC4/mUART_UART.c ****                                              mUART_CTRL_UART;
 154:Generated_Source\PSoC4/mUART_UART.c **** 
 155:Generated_Source\PSoC4/mUART_UART.c ****             /* Configure sub-mode: UART, SmartCard or IrDA */
 156:Generated_Source\PSoC4/mUART_UART.c ****             mUART_UART_CTRL_REG = mUART_GET_UART_CTRL_MODE(config->mode);
 157:Generated_Source\PSoC4/mUART_UART.c **** 
 158:Generated_Source\PSoC4/mUART_UART.c ****             /* Configure RX direction */
 159:Generated_Source\PSoC4/mUART_UART.c ****             mUART_UART_RX_CTRL_REG = mUART_GET_UART_RX_CTRL_MODE(config->stopBits)              |
 160:Generated_Source\PSoC4/mUART_UART.c ****                                         mUART_GET_UART_RX_CTRL_POLARITY(config->enableInvertedRx)  
 161:Generated_Source\PSoC4/mUART_UART.c ****                                         mUART_GET_UART_RX_CTRL_MP_MODE(config->enableMultiproc)    
 162:Generated_Source\PSoC4/mUART_UART.c ****                                         mUART_GET_UART_RX_CTRL_DROP_ON_PARITY_ERR(config->dropOnPar
 163:Generated_Source\PSoC4/mUART_UART.c ****                                         mUART_GET_UART_RX_CTRL_DROP_ON_FRAME_ERR(config->dropOnFram
 164:Generated_Source\PSoC4/mUART_UART.c ****                                         mUART_GET_UART_RX_CTRL_BREAK_WIDTH(config->breakWidth);
 165:Generated_Source\PSoC4/mUART_UART.c **** 
 166:Generated_Source\PSoC4/mUART_UART.c ****             if(mUART_UART_PARITY_NONE != config->parity)
 167:Generated_Source\PSoC4/mUART_UART.c ****             {
 168:Generated_Source\PSoC4/mUART_UART.c ****                mUART_UART_RX_CTRL_REG |= mUART_GET_UART_RX_CTRL_PARITY(config->parity) |
 169:Generated_Source\PSoC4/mUART_UART.c ****                                                     mUART_UART_RX_CTRL_PARITY_ENABLED;
 170:Generated_Source\PSoC4/mUART_UART.c ****             }
 171:Generated_Source\PSoC4/mUART_UART.c **** 
 172:Generated_Source\PSoC4/mUART_UART.c ****             mUART_RX_CTRL_REG      = mUART_GET_RX_CTRL_DATA_WIDTH(config->dataBits)       |
 173:Generated_Source\PSoC4/mUART_UART.c ****                                                 mUART_GET_RX_CTRL_MEDIAN(config->enableMedianFilter
 174:Generated_Source\PSoC4/mUART_UART.c ****                                                 mUART_GET_UART_RX_CTRL_ENABLED(config->direction);
 175:Generated_Source\PSoC4/mUART_UART.c **** 
 176:Generated_Source\PSoC4/mUART_UART.c ****             mUART_RX_FIFO_CTRL_REG = mUART_GET_RX_FIFO_CTRL_TRIGGER_LEVEL(config->rxTriggerLevel);
 177:Generated_Source\PSoC4/mUART_UART.c **** 
 178:Generated_Source\PSoC4/mUART_UART.c ****             /* Configure MP address */
 179:Generated_Source\PSoC4/mUART_UART.c ****             mUART_RX_MATCH_REG     = mUART_GET_RX_MATCH_ADDR(config->multiprocAddr) |
 180:Generated_Source\PSoC4/mUART_UART.c ****                                                 mUART_GET_RX_MATCH_MASK(config->multiprocAddrMask);
 181:Generated_Source\PSoC4/mUART_UART.c **** 
 182:Generated_Source\PSoC4/mUART_UART.c ****             /* Configure RX direction */
 183:Generated_Source\PSoC4/mUART_UART.c ****             mUART_UART_TX_CTRL_REG = mUART_GET_UART_TX_CTRL_MODE(config->stopBits) |
 184:Generated_Source\PSoC4/mUART_UART.c ****                                                 mUART_GET_UART_TX_CTRL_RETRY_NACK(config->enableRet
 185:Generated_Source\PSoC4/mUART_UART.c **** 
 186:Generated_Source\PSoC4/mUART_UART.c ****             if(mUART_UART_PARITY_NONE != config->parity)
 187:Generated_Source\PSoC4/mUART_UART.c ****             {
 188:Generated_Source\PSoC4/mUART_UART.c ****                mUART_UART_TX_CTRL_REG |= mUART_GET_UART_TX_CTRL_PARITY(config->parity) |
 189:Generated_Source\PSoC4/mUART_UART.c ****                                                     mUART_UART_TX_CTRL_PARITY_ENABLED;
 190:Generated_Source\PSoC4/mUART_UART.c ****             }
 191:Generated_Source\PSoC4/mUART_UART.c **** 
 192:Generated_Source\PSoC4/mUART_UART.c ****             mUART_TX_CTRL_REG      = mUART_GET_TX_CTRL_DATA_WIDTH(config->dataBits)    |
 193:Generated_Source\PSoC4/mUART_UART.c ****                                                 mUART_GET_UART_TX_CTRL_ENABLED(config->direction);
 194:Generated_Source\PSoC4/mUART_UART.c **** 
 195:Generated_Source\PSoC4/mUART_UART.c ****             mUART_TX_FIFO_CTRL_REG = mUART_GET_TX_FIFO_CTRL_TRIGGER_LEVEL(config->txTriggerLevel);
 196:Generated_Source\PSoC4/mUART_UART.c **** 
 197:Generated_Source\PSoC4/mUART_UART.c ****         #if !(mUART_CY_SCBIP_V0 || mUART_CY_SCBIP_V1)
 198:Generated_Source\PSoC4/mUART_UART.c ****             mUART_UART_FLOW_CTRL_REG = mUART_GET_UART_FLOW_CTRL_CTS_ENABLE(config->enableCts) | \
 199:Generated_Source\PSoC4/mUART_UART.c ****                                             mUART_GET_UART_FLOW_CTRL_CTS_POLARITY (config->ctsPolar
 200:Generated_Source\PSoC4/mUART_UART.c ****                                             mUART_GET_UART_FLOW_CTRL_RTS_POLARITY (config->rtsPolar
 201:Generated_Source\PSoC4/mUART_UART.c ****                                             mUART_GET_UART_FLOW_CTRL_TRIGGER_LEVEL(config->rtsRxFif
ARM GAS  C:\Users\PC\AppData\Local\Temp\ccwnvNtc.s 			page 5


 202:Generated_Source\PSoC4/mUART_UART.c ****         #endif /* !(mUART_CY_SCBIP_V0 || mUART_CY_SCBIP_V1) */
 203:Generated_Source\PSoC4/mUART_UART.c **** 
 204:Generated_Source\PSoC4/mUART_UART.c ****             /* Configure interrupt with UART handler but do not enable it */
 205:Generated_Source\PSoC4/mUART_UART.c ****             CyIntDisable    (mUART_ISR_NUMBER);
 206:Generated_Source\PSoC4/mUART_UART.c ****             CyIntSetPriority(mUART_ISR_NUMBER, mUART_ISR_PRIORITY);
 207:Generated_Source\PSoC4/mUART_UART.c ****             (void) CyIntSetVector(mUART_ISR_NUMBER, &mUART_SPI_UART_ISR);
 208:Generated_Source\PSoC4/mUART_UART.c **** 
 209:Generated_Source\PSoC4/mUART_UART.c ****             /* Configure WAKE interrupt */
 210:Generated_Source\PSoC4/mUART_UART.c ****         #if(mUART_UART_RX_WAKEUP_IRQ)
 211:Generated_Source\PSoC4/mUART_UART.c ****             CyIntDisable    (mUART_RX_WAKE_ISR_NUMBER);
 212:Generated_Source\PSoC4/mUART_UART.c ****             CyIntSetPriority(mUART_RX_WAKE_ISR_NUMBER, mUART_RX_WAKE_ISR_PRIORITY);
 213:Generated_Source\PSoC4/mUART_UART.c ****             (void) CyIntSetVector(mUART_RX_WAKE_ISR_NUMBER, &mUART_UART_WAKEUP_ISR);
 214:Generated_Source\PSoC4/mUART_UART.c ****         #endif /* (mUART_UART_RX_WAKEUP_IRQ) */
 215:Generated_Source\PSoC4/mUART_UART.c **** 
 216:Generated_Source\PSoC4/mUART_UART.c ****             /* Configure interrupt sources */
 217:Generated_Source\PSoC4/mUART_UART.c ****             mUART_INTR_I2C_EC_MASK_REG = mUART_NO_INTR_SOURCES;
 218:Generated_Source\PSoC4/mUART_UART.c ****             mUART_INTR_SPI_EC_MASK_REG = mUART_NO_INTR_SOURCES;
 219:Generated_Source\PSoC4/mUART_UART.c ****             mUART_INTR_SLAVE_MASK_REG  = mUART_NO_INTR_SOURCES;
 220:Generated_Source\PSoC4/mUART_UART.c ****             mUART_INTR_MASTER_MASK_REG = mUART_NO_INTR_SOURCES;
 221:Generated_Source\PSoC4/mUART_UART.c ****             mUART_INTR_RX_MASK_REG     = config->rxInterruptMask;
 222:Generated_Source\PSoC4/mUART_UART.c ****             mUART_INTR_TX_MASK_REG     = config->txInterruptMask;
 223:Generated_Source\PSoC4/mUART_UART.c **** 
 224:Generated_Source\PSoC4/mUART_UART.c ****             /* Configure TX interrupt sources to restore. */
 225:Generated_Source\PSoC4/mUART_UART.c ****             mUART_IntrTxMask = LO16(mUART_INTR_TX_MASK_REG);
 226:Generated_Source\PSoC4/mUART_UART.c **** 
 227:Generated_Source\PSoC4/mUART_UART.c ****             /* Clear RX buffer indexes */
 228:Generated_Source\PSoC4/mUART_UART.c ****             mUART_rxBufferHead     = 0u;
 229:Generated_Source\PSoC4/mUART_UART.c ****             mUART_rxBufferTail     = 0u;
 230:Generated_Source\PSoC4/mUART_UART.c ****             mUART_rxBufferOverflow = 0u;
 231:Generated_Source\PSoC4/mUART_UART.c **** 
 232:Generated_Source\PSoC4/mUART_UART.c ****             /* Clear TX buffer indexes */
 233:Generated_Source\PSoC4/mUART_UART.c ****             mUART_txBufferHead = 0u;
 234:Generated_Source\PSoC4/mUART_UART.c ****             mUART_txBufferTail = 0u;
 235:Generated_Source\PSoC4/mUART_UART.c ****         }
 236:Generated_Source\PSoC4/mUART_UART.c ****     }
 237:Generated_Source\PSoC4/mUART_UART.c **** 
 238:Generated_Source\PSoC4/mUART_UART.c **** #else
 239:Generated_Source\PSoC4/mUART_UART.c **** 
 240:Generated_Source\PSoC4/mUART_UART.c ****     /*******************************************************************************
 241:Generated_Source\PSoC4/mUART_UART.c ****     * Function Name: mUART_UartInit
 242:Generated_Source\PSoC4/mUART_UART.c ****     ****************************************************************************//**
 243:Generated_Source\PSoC4/mUART_UART.c ****     *
 244:Generated_Source\PSoC4/mUART_UART.c ****     *  Configures the SCB for the UART operation.
 245:Generated_Source\PSoC4/mUART_UART.c ****     *
 246:Generated_Source\PSoC4/mUART_UART.c ****     *******************************************************************************/
 247:Generated_Source\PSoC4/mUART_UART.c ****     void mUART_UartInit(void)
 248:Generated_Source\PSoC4/mUART_UART.c ****     {
  28              		.loc 1 248 0
  29              		.cfi_startproc
  30              		@ args = 0, pretend = 0, frame = 0
  31              		@ frame_needed = 0, uses_anonymous_args = 0
  32 0000 70B5     		push	{r4, r5, r6, lr}
  33              		.cfi_def_cfa_offset 16
  34              		.cfi_offset 4, -16
  35              		.cfi_offset 5, -12
  36              		.cfi_offset 6, -8
  37              		.cfi_offset 14, -4
ARM GAS  C:\Users\PC\AppData\Local\Temp\ccwnvNtc.s 			page 6


 249:Generated_Source\PSoC4/mUART_UART.c ****         /* Configure UART interface */
 250:Generated_Source\PSoC4/mUART_UART.c ****         mUART_CTRL_REG = mUART_UART_DEFAULT_CTRL;
  38              		.loc 1 250 0
  39 0002 1B4A     		ldr	r2, .L2
  40 0004 1B4B     		ldr	r3, .L2+4
  41 0006 1A60     		str	r2, [r3]
 251:Generated_Source\PSoC4/mUART_UART.c **** 
 252:Generated_Source\PSoC4/mUART_UART.c ****         /* Configure sub-mode: UART, SmartCard or IrDA */
 253:Generated_Source\PSoC4/mUART_UART.c ****         mUART_UART_CTRL_REG = mUART_UART_DEFAULT_UART_CTRL;
  42              		.loc 1 253 0
  43 0008 0024     		movs	r4, #0
  44 000a 1B4B     		ldr	r3, .L2+8
  45 000c 1C60     		str	r4, [r3]
 254:Generated_Source\PSoC4/mUART_UART.c **** 
 255:Generated_Source\PSoC4/mUART_UART.c ****         /* Configure RX direction */
 256:Generated_Source\PSoC4/mUART_UART.c ****         mUART_UART_RX_CTRL_REG = mUART_UART_DEFAULT_UART_RX_CTRL;
  46              		.loc 1 256 0
  47 000e 1B4A     		ldr	r2, .L2+12
  48 0010 1B4B     		ldr	r3, .L2+16
  49 0012 1A60     		str	r2, [r3]
 257:Generated_Source\PSoC4/mUART_UART.c ****         mUART_RX_CTRL_REG      = mUART_UART_DEFAULT_RX_CTRL;
  50              		.loc 1 257 0
  51 0014 1B4B     		ldr	r3, .L2+20
  52 0016 1C4A     		ldr	r2, .L2+24
  53 0018 1360     		str	r3, [r2]
 258:Generated_Source\PSoC4/mUART_UART.c ****         mUART_RX_FIFO_CTRL_REG = mUART_UART_DEFAULT_RX_FIFO_CTRL;
  54              		.loc 1 258 0
  55 001a 0721     		movs	r1, #7
  56 001c 1B4A     		ldr	r2, .L2+28
  57 001e 1160     		str	r1, [r2]
 259:Generated_Source\PSoC4/mUART_UART.c ****         mUART_RX_MATCH_REG     = mUART_UART_DEFAULT_RX_MATCH_REG;
  58              		.loc 1 259 0
  59 0020 1B4A     		ldr	r2, .L2+32
  60 0022 1460     		str	r4, [r2]
 260:Generated_Source\PSoC4/mUART_UART.c **** 
 261:Generated_Source\PSoC4/mUART_UART.c ****         /* Configure TX direction */
 262:Generated_Source\PSoC4/mUART_UART.c ****         mUART_UART_TX_CTRL_REG = mUART_UART_DEFAULT_UART_TX_CTRL;
  61              		.loc 1 262 0
  62 0024 0639     		subs	r1, r1, #6
  63 0026 1B4A     		ldr	r2, .L2+36
  64 0028 1160     		str	r1, [r2]
 263:Generated_Source\PSoC4/mUART_UART.c ****         mUART_TX_CTRL_REG      = mUART_UART_DEFAULT_TX_CTRL;
  65              		.loc 1 263 0
  66 002a 1B4A     		ldr	r2, .L2+40
  67 002c 1360     		str	r3, [r2]
 264:Generated_Source\PSoC4/mUART_UART.c ****         mUART_TX_FIFO_CTRL_REG = mUART_UART_DEFAULT_TX_FIFO_CTRL;
  68              		.loc 1 264 0
  69 002e 1B4B     		ldr	r3, .L2+44
  70 0030 1C60     		str	r4, [r3]
 265:Generated_Source\PSoC4/mUART_UART.c **** 
 266:Generated_Source\PSoC4/mUART_UART.c ****     #if !(mUART_CY_SCBIP_V0 || mUART_CY_SCBIP_V1)
 267:Generated_Source\PSoC4/mUART_UART.c ****         mUART_UART_FLOW_CTRL_REG = mUART_UART_DEFAULT_FLOW_CTRL;
  71              		.loc 1 267 0
  72 0032 0425     		movs	r5, #4
  73 0034 1A4B     		ldr	r3, .L2+48
  74 0036 1D60     		str	r5, [r3]
 268:Generated_Source\PSoC4/mUART_UART.c ****     #endif /* !(mUART_CY_SCBIP_V0 || mUART_CY_SCBIP_V1) */
ARM GAS  C:\Users\PC\AppData\Local\Temp\ccwnvNtc.s 			page 7


 269:Generated_Source\PSoC4/mUART_UART.c **** 
 270:Generated_Source\PSoC4/mUART_UART.c ****         /* Configure interrupt with UART handler but do not enable it */
 271:Generated_Source\PSoC4/mUART_UART.c ****     #if(mUART_SCB_IRQ_INTERNAL)
 272:Generated_Source\PSoC4/mUART_UART.c ****         CyIntDisable    (mUART_ISR_NUMBER);
  75              		.loc 1 272 0
  76 0038 0720     		movs	r0, #7
  77 003a FFF7FEFF 		bl	CyIntDisable
  78              	.LVL0:
 273:Generated_Source\PSoC4/mUART_UART.c ****         CyIntSetPriority(mUART_ISR_NUMBER, mUART_ISR_PRIORITY);
  79              		.loc 1 273 0
  80 003e 0321     		movs	r1, #3
  81 0040 0720     		movs	r0, #7
  82 0042 FFF7FEFF 		bl	CyIntSetPriority
  83              	.LVL1:
 274:Generated_Source\PSoC4/mUART_UART.c ****         (void) CyIntSetVector(mUART_ISR_NUMBER, &mUART_SPI_UART_ISR);
  84              		.loc 1 274 0
  85 0046 1749     		ldr	r1, .L2+52
  86 0048 0720     		movs	r0, #7
  87 004a FFF7FEFF 		bl	CyIntSetVector
  88              	.LVL2:
 275:Generated_Source\PSoC4/mUART_UART.c ****     #endif /* (mUART_SCB_IRQ_INTERNAL) */
 276:Generated_Source\PSoC4/mUART_UART.c **** 
 277:Generated_Source\PSoC4/mUART_UART.c ****         /* Configure WAKE interrupt */
 278:Generated_Source\PSoC4/mUART_UART.c ****     #if(mUART_UART_RX_WAKEUP_IRQ)
 279:Generated_Source\PSoC4/mUART_UART.c ****         CyIntDisable    (mUART_RX_WAKE_ISR_NUMBER);
 280:Generated_Source\PSoC4/mUART_UART.c ****         CyIntSetPriority(mUART_RX_WAKE_ISR_NUMBER, mUART_RX_WAKE_ISR_PRIORITY);
 281:Generated_Source\PSoC4/mUART_UART.c ****         (void) CyIntSetVector(mUART_RX_WAKE_ISR_NUMBER, &mUART_UART_WAKEUP_ISR);
 282:Generated_Source\PSoC4/mUART_UART.c ****     #endif /* (mUART_UART_RX_WAKEUP_IRQ) */
 283:Generated_Source\PSoC4/mUART_UART.c **** 
 284:Generated_Source\PSoC4/mUART_UART.c ****         /* Configure interrupt sources */
 285:Generated_Source\PSoC4/mUART_UART.c ****         mUART_INTR_I2C_EC_MASK_REG = mUART_UART_DEFAULT_INTR_I2C_EC_MASK;
  89              		.loc 1 285 0
  90 004e 164B     		ldr	r3, .L2+56
  91 0050 1C60     		str	r4, [r3]
 286:Generated_Source\PSoC4/mUART_UART.c ****         mUART_INTR_SPI_EC_MASK_REG = mUART_UART_DEFAULT_INTR_SPI_EC_MASK;
  92              		.loc 1 286 0
  93 0052 164B     		ldr	r3, .L2+60
  94 0054 1C60     		str	r4, [r3]
 287:Generated_Source\PSoC4/mUART_UART.c ****         mUART_INTR_SLAVE_MASK_REG  = mUART_UART_DEFAULT_INTR_SLAVE_MASK;
  95              		.loc 1 287 0
  96 0056 164B     		ldr	r3, .L2+64
  97 0058 1C60     		str	r4, [r3]
 288:Generated_Source\PSoC4/mUART_UART.c ****         mUART_INTR_MASTER_MASK_REG = mUART_UART_DEFAULT_INTR_MASTER_MASK;
  98              		.loc 1 288 0
  99 005a 164B     		ldr	r3, .L2+68
 100 005c 1C60     		str	r4, [r3]
 289:Generated_Source\PSoC4/mUART_UART.c ****         mUART_INTR_RX_MASK_REG     = mUART_UART_DEFAULT_INTR_RX_MASK;
 101              		.loc 1 289 0
 102 005e 164B     		ldr	r3, .L2+72
 103 0060 1D60     		str	r5, [r3]
 290:Generated_Source\PSoC4/mUART_UART.c ****         mUART_INTR_TX_MASK_REG     = mUART_UART_DEFAULT_INTR_TX_MASK;
 104              		.loc 1 290 0
 105 0062 164B     		ldr	r3, .L2+76
 106 0064 1C60     		str	r4, [r3]
 291:Generated_Source\PSoC4/mUART_UART.c **** 
 292:Generated_Source\PSoC4/mUART_UART.c ****         /* Configure TX interrupt sources to restore. */
 293:Generated_Source\PSoC4/mUART_UART.c ****         mUART_IntrTxMask = LO16(mUART_INTR_TX_MASK_REG);
ARM GAS  C:\Users\PC\AppData\Local\Temp\ccwnvNtc.s 			page 8


 107              		.loc 1 293 0
 108 0066 1A68     		ldr	r2, [r3]
 109 0068 154B     		ldr	r3, .L2+80
 110 006a 1A80     		strh	r2, [r3]
 294:Generated_Source\PSoC4/mUART_UART.c **** 
 295:Generated_Source\PSoC4/mUART_UART.c ****     #if(mUART_INTERNAL_RX_SW_BUFFER_CONST)
 296:Generated_Source\PSoC4/mUART_UART.c ****         mUART_rxBufferHead     = 0u;
 297:Generated_Source\PSoC4/mUART_UART.c ****         mUART_rxBufferTail     = 0u;
 298:Generated_Source\PSoC4/mUART_UART.c ****         mUART_rxBufferOverflow = 0u;
 299:Generated_Source\PSoC4/mUART_UART.c ****     #endif /* (mUART_INTERNAL_RX_SW_BUFFER_CONST) */
 300:Generated_Source\PSoC4/mUART_UART.c **** 
 301:Generated_Source\PSoC4/mUART_UART.c ****     #if(mUART_INTERNAL_TX_SW_BUFFER_CONST)
 302:Generated_Source\PSoC4/mUART_UART.c ****         mUART_txBufferHead = 0u;
 303:Generated_Source\PSoC4/mUART_UART.c ****         mUART_txBufferTail = 0u;
 304:Generated_Source\PSoC4/mUART_UART.c ****     #endif /* (mUART_INTERNAL_TX_SW_BUFFER_CONST) */
 305:Generated_Source\PSoC4/mUART_UART.c ****     }
 111              		.loc 1 305 0
 112              		@ sp needed
 113 006c 70BD     		pop	{r4, r5, r6, pc}
 114              	.L3:
 115 006e C046     		.align	2
 116              	.L2:
 117 0070 0B000002 		.word	33554443
 118 0074 00000840 		.word	1074266112
 119 0078 40000840 		.word	1074266176
 120 007c 01000A00 		.word	655361
 121 0080 48000840 		.word	1074266184
 122 0084 07000080 		.word	-2147483641
 123 0088 00030840 		.word	1074266880
 124 008c 04030840 		.word	1074266884
 125 0090 10030840 		.word	1074266896
 126 0094 44000840 		.word	1074266180
 127 0098 00020840 		.word	1074266624
 128 009c 04020840 		.word	1074266628
 129 00a0 50000840 		.word	1074266192
 130 00a4 00000000 		.word	mUART_SPI_UART_ISR
 131 00a8 880E0840 		.word	1074269832
 132 00ac C80E0840 		.word	1074269896
 133 00b0 480F0840 		.word	1074270024
 134 00b4 080F0840 		.word	1074269960
 135 00b8 C80F0840 		.word	1074270152
 136 00bc 880F0840 		.word	1074270088
 137 00c0 00000000 		.word	mUART_IntrTxMask
 138              		.cfi_endproc
 139              	.LFE1:
 140              		.size	mUART_UartInit, .-mUART_UartInit
 141              		.section	.text.mUART_UartPostEnable,"ax",%progbits
 142              		.align	2
 143              		.global	mUART_UartPostEnable
 144              		.code	16
 145              		.thumb_func
 146              		.type	mUART_UartPostEnable, %function
 147              	mUART_UartPostEnable:
 148              	.LFB2:
 306:Generated_Source\PSoC4/mUART_UART.c **** #endif /* (mUART_SCB_MODE_UNCONFIG_CONST_CFG) */
 307:Generated_Source\PSoC4/mUART_UART.c **** 
 308:Generated_Source\PSoC4/mUART_UART.c **** 
ARM GAS  C:\Users\PC\AppData\Local\Temp\ccwnvNtc.s 			page 9


 309:Generated_Source\PSoC4/mUART_UART.c **** /*******************************************************************************
 310:Generated_Source\PSoC4/mUART_UART.c **** * Function Name: mUART_UartPostEnable
 311:Generated_Source\PSoC4/mUART_UART.c **** ****************************************************************************//**
 312:Generated_Source\PSoC4/mUART_UART.c **** *
 313:Generated_Source\PSoC4/mUART_UART.c **** *  Restores HSIOM settings for the UART output pins (TX and/or RTS) to be
 314:Generated_Source\PSoC4/mUART_UART.c **** *  controlled by the SCB UART.
 315:Generated_Source\PSoC4/mUART_UART.c **** *
 316:Generated_Source\PSoC4/mUART_UART.c **** *******************************************************************************/
 317:Generated_Source\PSoC4/mUART_UART.c **** void mUART_UartPostEnable(void)
 318:Generated_Source\PSoC4/mUART_UART.c **** {
 149              		.loc 1 318 0
 150              		.cfi_startproc
 151              		@ args = 0, pretend = 0, frame = 0
 152              		@ frame_needed = 0, uses_anonymous_args = 0
 153              		@ link register save eliminated.
 319:Generated_Source\PSoC4/mUART_UART.c **** #if (mUART_SCB_MODE_UNCONFIG_CONST_CFG)
 320:Generated_Source\PSoC4/mUART_UART.c ****     #if (mUART_TX_SDA_MISO_PIN)
 321:Generated_Source\PSoC4/mUART_UART.c ****         if (mUART_CHECK_TX_SDA_MISO_PIN_USED)
 322:Generated_Source\PSoC4/mUART_UART.c ****         {
 323:Generated_Source\PSoC4/mUART_UART.c ****             /* Set SCB UART to drive the output pin */
 324:Generated_Source\PSoC4/mUART_UART.c ****             mUART_SET_HSIOM_SEL(mUART_TX_SDA_MISO_HSIOM_REG, mUART_TX_SDA_MISO_HSIOM_MASK,
 325:Generated_Source\PSoC4/mUART_UART.c ****                                            mUART_TX_SDA_MISO_HSIOM_POS, mUART_TX_SDA_MISO_HSIOM_SEL
 326:Generated_Source\PSoC4/mUART_UART.c ****         }
 327:Generated_Source\PSoC4/mUART_UART.c ****     #endif /* (mUART_TX_SDA_MISO_PIN_PIN) */
 328:Generated_Source\PSoC4/mUART_UART.c **** 
 329:Generated_Source\PSoC4/mUART_UART.c ****     #if !(mUART_CY_SCBIP_V0 || mUART_CY_SCBIP_V1)
 330:Generated_Source\PSoC4/mUART_UART.c ****         #if (mUART_RTS_SS0_PIN)
 331:Generated_Source\PSoC4/mUART_UART.c ****             if (mUART_CHECK_RTS_SS0_PIN_USED)
 332:Generated_Source\PSoC4/mUART_UART.c ****             {
 333:Generated_Source\PSoC4/mUART_UART.c ****                 /* Set SCB UART to drive the output pin */
 334:Generated_Source\PSoC4/mUART_UART.c ****                 mUART_SET_HSIOM_SEL(mUART_RTS_SS0_HSIOM_REG, mUART_RTS_SS0_HSIOM_MASK,
 335:Generated_Source\PSoC4/mUART_UART.c ****                                                mUART_RTS_SS0_HSIOM_POS, mUART_RTS_SS0_HSIOM_SEL_UAR
 336:Generated_Source\PSoC4/mUART_UART.c ****             }
 337:Generated_Source\PSoC4/mUART_UART.c ****         #endif /* (mUART_RTS_SS0_PIN) */
 338:Generated_Source\PSoC4/mUART_UART.c ****     #endif /* !(mUART_CY_SCBIP_V0 || mUART_CY_SCBIP_V1) */
 339:Generated_Source\PSoC4/mUART_UART.c **** 
 340:Generated_Source\PSoC4/mUART_UART.c **** #else
 341:Generated_Source\PSoC4/mUART_UART.c ****     #if (mUART_UART_TX_PIN)
 342:Generated_Source\PSoC4/mUART_UART.c ****          /* Set SCB UART to drive the output pin */
 343:Generated_Source\PSoC4/mUART_UART.c ****         mUART_SET_HSIOM_SEL(mUART_TX_HSIOM_REG, mUART_TX_HSIOM_MASK,
 154              		.loc 1 343 0
 155 0000 0549     		ldr	r1, .L5
 156 0002 0B68     		ldr	r3, [r1]
 157 0004 F022     		movs	r2, #240
 158 0006 9343     		bics	r3, r2
 159 0008 603A     		subs	r2, r2, #96
 160 000a 1343     		orrs	r3, r2
 161 000c 0B60     		str	r3, [r1]
 344:Generated_Source\PSoC4/mUART_UART.c ****                                        mUART_TX_HSIOM_POS, mUART_TX_HSIOM_SEL_UART);
 345:Generated_Source\PSoC4/mUART_UART.c ****     #endif /* (mUART_UART_TX_PIN) */
 346:Generated_Source\PSoC4/mUART_UART.c **** 
 347:Generated_Source\PSoC4/mUART_UART.c ****     #if (mUART_UART_RTS_PIN)
 348:Generated_Source\PSoC4/mUART_UART.c ****         /* Set SCB UART to drive the output pin */
 349:Generated_Source\PSoC4/mUART_UART.c ****         mUART_SET_HSIOM_SEL(mUART_RTS_HSIOM_REG, mUART_RTS_HSIOM_MASK,
 350:Generated_Source\PSoC4/mUART_UART.c ****                                        mUART_RTS_HSIOM_POS, mUART_RTS_HSIOM_SEL_UART);
 351:Generated_Source\PSoC4/mUART_UART.c ****     #endif /* (mUART_UART_RTS_PIN) */
 352:Generated_Source\PSoC4/mUART_UART.c **** #endif /* (mUART_SCB_MODE_UNCONFIG_CONST_CFG) */
ARM GAS  C:\Users\PC\AppData\Local\Temp\ccwnvNtc.s 			page 10


 353:Generated_Source\PSoC4/mUART_UART.c **** 
 354:Generated_Source\PSoC4/mUART_UART.c ****     /* Restore TX interrupt sources. */
 355:Generated_Source\PSoC4/mUART_UART.c ****     mUART_SetTxInterruptMode(mUART_IntrTxMask);
 162              		.loc 1 355 0
 163 000e 034B     		ldr	r3, .L5+4
 164 0010 1A88     		ldrh	r2, [r3]
 165 0012 034B     		ldr	r3, .L5+8
 166 0014 1A60     		str	r2, [r3]
 356:Generated_Source\PSoC4/mUART_UART.c **** }
 167              		.loc 1 356 0
 168              		@ sp needed
 169 0016 7047     		bx	lr
 170              	.L6:
 171              		.align	2
 172              	.L5:
 173 0018 00040240 		.word	1073873920
 174 001c 00000000 		.word	mUART_IntrTxMask
 175 0020 880F0840 		.word	1074270088
 176              		.cfi_endproc
 177              	.LFE2:
 178              		.size	mUART_UartPostEnable, .-mUART_UartPostEnable
 179              		.section	.text.mUART_UartStop,"ax",%progbits
 180              		.align	2
 181              		.global	mUART_UartStop
 182              		.code	16
 183              		.thumb_func
 184              		.type	mUART_UartStop, %function
 185              	mUART_UartStop:
 186              	.LFB3:
 357:Generated_Source\PSoC4/mUART_UART.c **** 
 358:Generated_Source\PSoC4/mUART_UART.c **** 
 359:Generated_Source\PSoC4/mUART_UART.c **** /*******************************************************************************
 360:Generated_Source\PSoC4/mUART_UART.c **** * Function Name: mUART_UartStop
 361:Generated_Source\PSoC4/mUART_UART.c **** ****************************************************************************//**
 362:Generated_Source\PSoC4/mUART_UART.c **** *
 363:Generated_Source\PSoC4/mUART_UART.c **** *  Changes the HSIOM settings for the UART output pins (TX and/or RTS) to keep
 364:Generated_Source\PSoC4/mUART_UART.c **** *  them inactive after the block is disabled. The output pins are controlled by
 365:Generated_Source\PSoC4/mUART_UART.c **** *  the GPIO data register. Also, the function disables the skip start feature
 366:Generated_Source\PSoC4/mUART_UART.c **** *  to not cause it to trigger after the component is enabled.
 367:Generated_Source\PSoC4/mUART_UART.c **** *
 368:Generated_Source\PSoC4/mUART_UART.c **** *******************************************************************************/
 369:Generated_Source\PSoC4/mUART_UART.c **** void mUART_UartStop(void)
 370:Generated_Source\PSoC4/mUART_UART.c **** {
 187              		.loc 1 370 0
 188              		.cfi_startproc
 189              		@ args = 0, pretend = 0, frame = 0
 190              		@ frame_needed = 0, uses_anonymous_args = 0
 191              		@ link register save eliminated.
 371:Generated_Source\PSoC4/mUART_UART.c **** #if(mUART_SCB_MODE_UNCONFIG_CONST_CFG)
 372:Generated_Source\PSoC4/mUART_UART.c ****     #if (mUART_TX_SDA_MISO_PIN)
 373:Generated_Source\PSoC4/mUART_UART.c ****         if (mUART_CHECK_TX_SDA_MISO_PIN_USED)
 374:Generated_Source\PSoC4/mUART_UART.c ****         {
 375:Generated_Source\PSoC4/mUART_UART.c ****             /* Set GPIO to drive output pin */
 376:Generated_Source\PSoC4/mUART_UART.c ****             mUART_SET_HSIOM_SEL(mUART_TX_SDA_MISO_HSIOM_REG, mUART_TX_SDA_MISO_HSIOM_MASK,
 377:Generated_Source\PSoC4/mUART_UART.c ****                                            mUART_TX_SDA_MISO_HSIOM_POS, mUART_TX_SDA_MISO_HSIOM_SEL
 378:Generated_Source\PSoC4/mUART_UART.c ****         }
 379:Generated_Source\PSoC4/mUART_UART.c ****     #endif /* (mUART_TX_SDA_MISO_PIN_PIN) */
ARM GAS  C:\Users\PC\AppData\Local\Temp\ccwnvNtc.s 			page 11


 380:Generated_Source\PSoC4/mUART_UART.c **** 
 381:Generated_Source\PSoC4/mUART_UART.c ****     #if !(mUART_CY_SCBIP_V0 || mUART_CY_SCBIP_V1)
 382:Generated_Source\PSoC4/mUART_UART.c ****         #if (mUART_RTS_SS0_PIN)
 383:Generated_Source\PSoC4/mUART_UART.c ****             if (mUART_CHECK_RTS_SS0_PIN_USED)
 384:Generated_Source\PSoC4/mUART_UART.c ****             {
 385:Generated_Source\PSoC4/mUART_UART.c ****                 /* Set output pin state after block is disabled */
 386:Generated_Source\PSoC4/mUART_UART.c ****                 mUART_uart_rts_spi_ss0_Write(mUART_GET_UART_RTS_INACTIVE);
 387:Generated_Source\PSoC4/mUART_UART.c **** 
 388:Generated_Source\PSoC4/mUART_UART.c ****                 /* Set GPIO to drive output pin */
 389:Generated_Source\PSoC4/mUART_UART.c ****                 mUART_SET_HSIOM_SEL(mUART_RTS_SS0_HSIOM_REG, mUART_RTS_SS0_HSIOM_MASK,
 390:Generated_Source\PSoC4/mUART_UART.c ****                                                mUART_RTS_SS0_HSIOM_POS, mUART_RTS_SS0_HSIOM_SEL_GPI
 391:Generated_Source\PSoC4/mUART_UART.c ****             }
 392:Generated_Source\PSoC4/mUART_UART.c ****         #endif /* (mUART_RTS_SS0_PIN) */
 393:Generated_Source\PSoC4/mUART_UART.c ****     #endif /* !(mUART_CY_SCBIP_V0 || mUART_CY_SCBIP_V1) */
 394:Generated_Source\PSoC4/mUART_UART.c **** 
 395:Generated_Source\PSoC4/mUART_UART.c **** #else
 396:Generated_Source\PSoC4/mUART_UART.c ****     #if (mUART_UART_TX_PIN)
 397:Generated_Source\PSoC4/mUART_UART.c ****         /* Set GPIO to drive output pin */
 398:Generated_Source\PSoC4/mUART_UART.c ****         mUART_SET_HSIOM_SEL(mUART_TX_HSIOM_REG, mUART_TX_HSIOM_MASK,
 192              		.loc 1 398 0
 193 0000 064A     		ldr	r2, .L8
 194 0002 1368     		ldr	r3, [r2]
 195 0004 F021     		movs	r1, #240
 196 0006 8B43     		bics	r3, r1
 197 0008 1360     		str	r3, [r2]
 399:Generated_Source\PSoC4/mUART_UART.c ****                                        mUART_TX_HSIOM_POS, mUART_TX_HSIOM_SEL_GPIO);
 400:Generated_Source\PSoC4/mUART_UART.c ****     #endif /* (mUART_UART_TX_PIN) */
 401:Generated_Source\PSoC4/mUART_UART.c **** 
 402:Generated_Source\PSoC4/mUART_UART.c ****     #if (mUART_UART_RTS_PIN)
 403:Generated_Source\PSoC4/mUART_UART.c ****         /* Set output pin state after block is disabled */
 404:Generated_Source\PSoC4/mUART_UART.c ****         mUART_rts_Write(mUART_GET_UART_RTS_INACTIVE);
 405:Generated_Source\PSoC4/mUART_UART.c **** 
 406:Generated_Source\PSoC4/mUART_UART.c ****         /* Set GPIO to drive output pin */
 407:Generated_Source\PSoC4/mUART_UART.c ****         mUART_SET_HSIOM_SEL(mUART_RTS_HSIOM_REG, mUART_RTS_HSIOM_MASK,
 408:Generated_Source\PSoC4/mUART_UART.c ****                                        mUART_RTS_HSIOM_POS, mUART_RTS_HSIOM_SEL_GPIO);
 409:Generated_Source\PSoC4/mUART_UART.c ****     #endif /* (mUART_UART_RTS_PIN) */
 410:Generated_Source\PSoC4/mUART_UART.c **** 
 411:Generated_Source\PSoC4/mUART_UART.c **** #endif /* (mUART_SCB_MODE_UNCONFIG_CONST_CFG) */
 412:Generated_Source\PSoC4/mUART_UART.c **** 
 413:Generated_Source\PSoC4/mUART_UART.c **** #if (mUART_UART_WAKE_ENABLE_CONST)
 414:Generated_Source\PSoC4/mUART_UART.c ****     /* Disable skip start feature used for wakeup */
 415:Generated_Source\PSoC4/mUART_UART.c ****     mUART_UART_RX_CTRL_REG &= (uint32) ~mUART_UART_RX_CTRL_SKIP_START;
 416:Generated_Source\PSoC4/mUART_UART.c **** #endif /* (mUART_UART_WAKE_ENABLE_CONST) */
 417:Generated_Source\PSoC4/mUART_UART.c **** 
 418:Generated_Source\PSoC4/mUART_UART.c ****     /* Store TX interrupt sources (exclude level triggered). */
 419:Generated_Source\PSoC4/mUART_UART.c ****     mUART_IntrTxMask = LO16(mUART_GetTxInterruptMode() & mUART_INTR_UART_TX_RESTORE);
 198              		.loc 1 419 0
 199 000a 054B     		ldr	r3, .L8+4
 200 000c 1A68     		ldr	r2, [r3]
 201 000e E423     		movs	r3, #228
 202 0010 DB00     		lsls	r3, r3, #3
 203 0012 1340     		ands	r3, r2
 204 0014 034A     		ldr	r2, .L8+8
 205 0016 1380     		strh	r3, [r2]
 420:Generated_Source\PSoC4/mUART_UART.c **** }
 206              		.loc 1 420 0
 207              		@ sp needed
ARM GAS  C:\Users\PC\AppData\Local\Temp\ccwnvNtc.s 			page 12


 208 0018 7047     		bx	lr
 209              	.L9:
 210 001a C046     		.align	2
 211              	.L8:
 212 001c 00040240 		.word	1073873920
 213 0020 880F0840 		.word	1074270088
 214 0024 00000000 		.word	mUART_IntrTxMask
 215              		.cfi_endproc
 216              	.LFE3:
 217              		.size	mUART_UartStop, .-mUART_UartStop
 218              		.section	.text.mUART_UartSetRxAddress,"ax",%progbits
 219              		.align	2
 220              		.global	mUART_UartSetRxAddress
 221              		.code	16
 222              		.thumb_func
 223              		.type	mUART_UartSetRxAddress, %function
 224              	mUART_UartSetRxAddress:
 225              	.LFB4:
 421:Generated_Source\PSoC4/mUART_UART.c **** 
 422:Generated_Source\PSoC4/mUART_UART.c **** 
 423:Generated_Source\PSoC4/mUART_UART.c **** /*******************************************************************************
 424:Generated_Source\PSoC4/mUART_UART.c **** * Function Name: mUART_UartSetRxAddress
 425:Generated_Source\PSoC4/mUART_UART.c **** ****************************************************************************//**
 426:Generated_Source\PSoC4/mUART_UART.c **** *
 427:Generated_Source\PSoC4/mUART_UART.c **** *  Sets the hardware detectable receiver address for the UART in the
 428:Generated_Source\PSoC4/mUART_UART.c **** *  Multiprocessor mode.
 429:Generated_Source\PSoC4/mUART_UART.c **** *
 430:Generated_Source\PSoC4/mUART_UART.c **** *  \param address: Address for hardware address detection.
 431:Generated_Source\PSoC4/mUART_UART.c **** *
 432:Generated_Source\PSoC4/mUART_UART.c **** *******************************************************************************/
 433:Generated_Source\PSoC4/mUART_UART.c **** void mUART_UartSetRxAddress(uint32 address)
 434:Generated_Source\PSoC4/mUART_UART.c **** {
 226              		.loc 1 434 0
 227              		.cfi_startproc
 228              		@ args = 0, pretend = 0, frame = 0
 229              		@ frame_needed = 0, uses_anonymous_args = 0
 230              		@ link register save eliminated.
 231              	.LVL3:
 435:Generated_Source\PSoC4/mUART_UART.c ****      uint32 matchReg;
 436:Generated_Source\PSoC4/mUART_UART.c **** 
 437:Generated_Source\PSoC4/mUART_UART.c ****     matchReg = mUART_RX_MATCH_REG;
 232              		.loc 1 437 0
 233 0000 034A     		ldr	r2, .L11
 234 0002 1368     		ldr	r3, [r2]
 235              	.LVL4:
 438:Generated_Source\PSoC4/mUART_UART.c **** 
 439:Generated_Source\PSoC4/mUART_UART.c ****     matchReg &= ((uint32) ~mUART_RX_MATCH_ADDR_MASK); /* Clear address bits */
 236              		.loc 1 439 0
 237 0004 FF21     		movs	r1, #255
 238 0006 8B43     		bics	r3, r1
 239              	.LVL5:
 440:Generated_Source\PSoC4/mUART_UART.c ****     matchReg |= ((uint32)  (address & mUART_RX_MATCH_ADDR_MASK)); /* Set address  */
 240              		.loc 1 440 0
 241 0008 0840     		ands	r0, r1
 242              	.LVL6:
 243 000a 1843     		orrs	r0, r3
 244              	.LVL7:
ARM GAS  C:\Users\PC\AppData\Local\Temp\ccwnvNtc.s 			page 13


 441:Generated_Source\PSoC4/mUART_UART.c **** 
 442:Generated_Source\PSoC4/mUART_UART.c ****     mUART_RX_MATCH_REG = matchReg;
 245              		.loc 1 442 0
 246 000c 1060     		str	r0, [r2]
 443:Generated_Source\PSoC4/mUART_UART.c **** }
 247              		.loc 1 443 0
 248              		@ sp needed
 249 000e 7047     		bx	lr
 250              	.L12:
 251              		.align	2
 252              	.L11:
 253 0010 10030840 		.word	1074266896
 254              		.cfi_endproc
 255              	.LFE4:
 256              		.size	mUART_UartSetRxAddress, .-mUART_UartSetRxAddress
 257              		.section	.text.mUART_UartSetRxAddressMask,"ax",%progbits
 258              		.align	2
 259              		.global	mUART_UartSetRxAddressMask
 260              		.code	16
 261              		.thumb_func
 262              		.type	mUART_UartSetRxAddressMask, %function
 263              	mUART_UartSetRxAddressMask:
 264              	.LFB5:
 444:Generated_Source\PSoC4/mUART_UART.c **** 
 445:Generated_Source\PSoC4/mUART_UART.c **** 
 446:Generated_Source\PSoC4/mUART_UART.c **** /*******************************************************************************
 447:Generated_Source\PSoC4/mUART_UART.c **** * Function Name: mUART_UartSetRxAddressMask
 448:Generated_Source\PSoC4/mUART_UART.c **** ****************************************************************************//**
 449:Generated_Source\PSoC4/mUART_UART.c **** *
 450:Generated_Source\PSoC4/mUART_UART.c **** *  Sets the hardware address mask for the UART in the Multiprocessor mode.
 451:Generated_Source\PSoC4/mUART_UART.c **** *
 452:Generated_Source\PSoC4/mUART_UART.c **** *  \param addressMask: Address mask.
 453:Generated_Source\PSoC4/mUART_UART.c **** *   - Bit value 0 – excludes bit from address comparison.
 454:Generated_Source\PSoC4/mUART_UART.c **** *   - Bit value 1 – the bit needs to match with the corresponding bit
 455:Generated_Source\PSoC4/mUART_UART.c **** *     of the address.
 456:Generated_Source\PSoC4/mUART_UART.c **** *
 457:Generated_Source\PSoC4/mUART_UART.c **** *******************************************************************************/
 458:Generated_Source\PSoC4/mUART_UART.c **** void mUART_UartSetRxAddressMask(uint32 addressMask)
 459:Generated_Source\PSoC4/mUART_UART.c **** {
 265              		.loc 1 459 0
 266              		.cfi_startproc
 267              		@ args = 0, pretend = 0, frame = 0
 268              		@ frame_needed = 0, uses_anonymous_args = 0
 269              		@ link register save eliminated.
 270              	.LVL8:
 460:Generated_Source\PSoC4/mUART_UART.c ****     uint32 matchReg;
 461:Generated_Source\PSoC4/mUART_UART.c **** 
 462:Generated_Source\PSoC4/mUART_UART.c ****     matchReg = mUART_RX_MATCH_REG;
 271              		.loc 1 462 0
 272 0000 034A     		ldr	r2, .L14
 273 0002 1168     		ldr	r1, [r2]
 274              	.LVL9:
 463:Generated_Source\PSoC4/mUART_UART.c **** 
 464:Generated_Source\PSoC4/mUART_UART.c ****     matchReg &= ((uint32) ~mUART_RX_MATCH_MASK_MASK); /* Clear address mask bits */
 275              		.loc 1 464 0
 276 0004 034B     		ldr	r3, .L14+4
 277 0006 0B40     		ands	r3, r1
ARM GAS  C:\Users\PC\AppData\Local\Temp\ccwnvNtc.s 			page 14


 278              	.LVL10:
 465:Generated_Source\PSoC4/mUART_UART.c ****     matchReg |= ((uint32) (addressMask << mUART_RX_MATCH_MASK_POS));
 279              		.loc 1 465 0
 280 0008 0004     		lsls	r0, r0, #16
 281              	.LVL11:
 282 000a 1843     		orrs	r0, r3
 283              	.LVL12:
 466:Generated_Source\PSoC4/mUART_UART.c **** 
 467:Generated_Source\PSoC4/mUART_UART.c ****     mUART_RX_MATCH_REG = matchReg;
 284              		.loc 1 467 0
 285 000c 1060     		str	r0, [r2]
 468:Generated_Source\PSoC4/mUART_UART.c **** }
 286              		.loc 1 468 0
 287              		@ sp needed
 288 000e 7047     		bx	lr
 289              	.L15:
 290              		.align	2
 291              	.L14:
 292 0010 10030840 		.word	1074266896
 293 0014 FFFF00FF 		.word	-16711681
 294              		.cfi_endproc
 295              	.LFE5:
 296              		.size	mUART_UartSetRxAddressMask, .-mUART_UartSetRxAddressMask
 297              		.section	.text.mUART_UartGetChar,"ax",%progbits
 298              		.align	2
 299              		.global	mUART_UartGetChar
 300              		.code	16
 301              		.thumb_func
 302              		.type	mUART_UartGetChar, %function
 303              	mUART_UartGetChar:
 304              	.LFB6:
 469:Generated_Source\PSoC4/mUART_UART.c **** 
 470:Generated_Source\PSoC4/mUART_UART.c **** 
 471:Generated_Source\PSoC4/mUART_UART.c **** #if(mUART_UART_RX_DIRECTION)
 472:Generated_Source\PSoC4/mUART_UART.c ****     /*******************************************************************************
 473:Generated_Source\PSoC4/mUART_UART.c ****     * Function Name: mUART_UartGetChar
 474:Generated_Source\PSoC4/mUART_UART.c ****     ****************************************************************************//**
 475:Generated_Source\PSoC4/mUART_UART.c ****     *
 476:Generated_Source\PSoC4/mUART_UART.c ****     *  Retrieves next data element from receive buffer.
 477:Generated_Source\PSoC4/mUART_UART.c ****     *  This function is designed for ASCII characters and returns a char where
 478:Generated_Source\PSoC4/mUART_UART.c ****     *  1 to 255 are valid characters and 0 indicates an error occurred or no data
 479:Generated_Source\PSoC4/mUART_UART.c ****     *  is present.
 480:Generated_Source\PSoC4/mUART_UART.c ****     *  - RX software buffer is disabled: Returns data element retrieved from RX
 481:Generated_Source\PSoC4/mUART_UART.c ****     *    FIFO.
 482:Generated_Source\PSoC4/mUART_UART.c ****     *  - RX software buffer is enabled: Returns data element from the software
 483:Generated_Source\PSoC4/mUART_UART.c ****     *    receive buffer.
 484:Generated_Source\PSoC4/mUART_UART.c ****     *
 485:Generated_Source\PSoC4/mUART_UART.c ****     *  \return
 486:Generated_Source\PSoC4/mUART_UART.c ****     *   Next data element from the receive buffer. ASCII character values from
 487:Generated_Source\PSoC4/mUART_UART.c ****     *   1 to 255 are valid. A returned zero signifies an error condition or no
 488:Generated_Source\PSoC4/mUART_UART.c ****     *   data available.
 489:Generated_Source\PSoC4/mUART_UART.c ****     *
 490:Generated_Source\PSoC4/mUART_UART.c ****     *  \sideeffect
 491:Generated_Source\PSoC4/mUART_UART.c ****     *   The errors bits may not correspond with reading characters due to
 492:Generated_Source\PSoC4/mUART_UART.c ****     *   RX FIFO and software buffer usage.
 493:Generated_Source\PSoC4/mUART_UART.c ****     *   RX software buffer is enabled: The internal software buffer overflow
 494:Generated_Source\PSoC4/mUART_UART.c ****     *   is not treated as an error condition.
ARM GAS  C:\Users\PC\AppData\Local\Temp\ccwnvNtc.s 			page 15


 495:Generated_Source\PSoC4/mUART_UART.c ****     *   Check mUART_rxBufferOverflow to capture that error condition.
 496:Generated_Source\PSoC4/mUART_UART.c ****     *
 497:Generated_Source\PSoC4/mUART_UART.c ****     *******************************************************************************/
 498:Generated_Source\PSoC4/mUART_UART.c ****     uint32 mUART_UartGetChar(void)
 499:Generated_Source\PSoC4/mUART_UART.c ****     {
 305              		.loc 1 499 0
 306              		.cfi_startproc
 307              		@ args = 0, pretend = 0, frame = 0
 308              		@ frame_needed = 0, uses_anonymous_args = 0
 309 0000 10B5     		push	{r4, lr}
 310              		.cfi_def_cfa_offset 8
 311              		.cfi_offset 4, -8
 312              		.cfi_offset 14, -4
 313              	.LVL13:
 500:Generated_Source\PSoC4/mUART_UART.c ****         uint32 rxData = 0u;
 501:Generated_Source\PSoC4/mUART_UART.c **** 
 502:Generated_Source\PSoC4/mUART_UART.c ****         /* Reads data only if there is data to read */
 503:Generated_Source\PSoC4/mUART_UART.c ****         if (0u != mUART_SpiUartGetRxBufferSize())
 314              		.loc 1 503 0
 315 0002 FFF7FEFF 		bl	mUART_SpiUartGetRxBufferSize
 316              	.LVL14:
 317 0006 0028     		cmp	r0, #0
 318 0008 02D0     		beq	.L19
 504:Generated_Source\PSoC4/mUART_UART.c ****         {
 505:Generated_Source\PSoC4/mUART_UART.c ****             rxData = mUART_SpiUartReadRxData();
 319              		.loc 1 505 0
 320 000a FFF7FEFF 		bl	mUART_SpiUartReadRxData
 321              	.LVL15:
 322 000e 00E0     		b	.L17
 323              	.LVL16:
 324              	.L19:
 500:Generated_Source\PSoC4/mUART_UART.c ****         uint32 rxData = 0u;
 325              		.loc 1 500 0
 326 0010 0020     		movs	r0, #0
 327              	.LVL17:
 328              	.L17:
 506:Generated_Source\PSoC4/mUART_UART.c ****         }
 507:Generated_Source\PSoC4/mUART_UART.c **** 
 508:Generated_Source\PSoC4/mUART_UART.c ****         if (mUART_CHECK_INTR_RX(mUART_INTR_RX_ERR))
 329              		.loc 1 508 0
 330 0012 054B     		ldr	r3, .L20
 331 0014 1A68     		ldr	r2, [r3]
 332 0016 D823     		movs	r3, #216
 333 0018 9B00     		lsls	r3, r3, #2
 334 001a 1A42     		tst	r2, r3
 335 001c 03D0     		beq	.L18
 336              	.LVL18:
 509:Generated_Source\PSoC4/mUART_UART.c ****         {
 510:Generated_Source\PSoC4/mUART_UART.c ****             rxData = 0u; /* Error occurred: returns zero */
 511:Generated_Source\PSoC4/mUART_UART.c ****             mUART_ClearRxInterruptSource(mUART_INTR_RX_ERR);
 337              		.loc 1 511 0
 338 001e 1A00     		movs	r2, r3
 339 0020 014B     		ldr	r3, .L20
 340 0022 1A60     		str	r2, [r3]
 510:Generated_Source\PSoC4/mUART_UART.c ****             mUART_ClearRxInterruptSource(mUART_INTR_RX_ERR);
 341              		.loc 1 510 0
 342 0024 0020     		movs	r0, #0
ARM GAS  C:\Users\PC\AppData\Local\Temp\ccwnvNtc.s 			page 16


 343              	.LVL19:
 344              	.L18:
 512:Generated_Source\PSoC4/mUART_UART.c ****         }
 513:Generated_Source\PSoC4/mUART_UART.c **** 
 514:Generated_Source\PSoC4/mUART_UART.c ****         return (rxData);
 515:Generated_Source\PSoC4/mUART_UART.c ****     }
 345              		.loc 1 515 0
 346              		@ sp needed
 347 0026 10BD     		pop	{r4, pc}
 348              	.L21:
 349              		.align	2
 350              	.L20:
 351 0028 C00F0840 		.word	1074270144
 352              		.cfi_endproc
 353              	.LFE6:
 354              		.size	mUART_UartGetChar, .-mUART_UartGetChar
 355              		.section	.text.mUART_UartGetByte,"ax",%progbits
 356              		.align	2
 357              		.global	mUART_UartGetByte
 358              		.code	16
 359              		.thumb_func
 360              		.type	mUART_UartGetByte, %function
 361              	mUART_UartGetByte:
 362              	.LFB7:
 516:Generated_Source\PSoC4/mUART_UART.c **** 
 517:Generated_Source\PSoC4/mUART_UART.c **** 
 518:Generated_Source\PSoC4/mUART_UART.c ****     /*******************************************************************************
 519:Generated_Source\PSoC4/mUART_UART.c ****     * Function Name: mUART_UartGetByte
 520:Generated_Source\PSoC4/mUART_UART.c ****     ****************************************************************************//**
 521:Generated_Source\PSoC4/mUART_UART.c ****     *
 522:Generated_Source\PSoC4/mUART_UART.c ****     *  Retrieves the next data element from the receive buffer, returns the
 523:Generated_Source\PSoC4/mUART_UART.c ****     *  received byte and error condition.
 524:Generated_Source\PSoC4/mUART_UART.c ****     *   - The RX software buffer is disabled: returns the data element retrieved
 525:Generated_Source\PSoC4/mUART_UART.c ****     *     from the RX FIFO. Undefined data will be returned if the RX FIFO is
 526:Generated_Source\PSoC4/mUART_UART.c ****     *     empty.
 527:Generated_Source\PSoC4/mUART_UART.c ****     *   - The RX software buffer is enabled: returns data element from the
 528:Generated_Source\PSoC4/mUART_UART.c ****     *     software receive buffer.
 529:Generated_Source\PSoC4/mUART_UART.c ****     *
 530:Generated_Source\PSoC4/mUART_UART.c ****     *  \return
 531:Generated_Source\PSoC4/mUART_UART.c ****     *   Bits 7-0 contain the next data element from the receive buffer and
 532:Generated_Source\PSoC4/mUART_UART.c ****     *   other bits contain the error condition.
 533:Generated_Source\PSoC4/mUART_UART.c ****     *   - mUART_UART_RX_OVERFLOW - Attempt to write to a full
 534:Generated_Source\PSoC4/mUART_UART.c ****     *     receiver FIFO.
 535:Generated_Source\PSoC4/mUART_UART.c ****     *   - mUART_UART_RX_UNDERFLOW    Attempt to read from an empty
 536:Generated_Source\PSoC4/mUART_UART.c ****     *     receiver FIFO.
 537:Generated_Source\PSoC4/mUART_UART.c ****     *   - mUART_UART_RX_FRAME_ERROR - UART framing error detected.
 538:Generated_Source\PSoC4/mUART_UART.c ****     *   - mUART_UART_RX_PARITY_ERROR - UART parity error detected.
 539:Generated_Source\PSoC4/mUART_UART.c ****     *
 540:Generated_Source\PSoC4/mUART_UART.c ****     *  \sideeffect
 541:Generated_Source\PSoC4/mUART_UART.c ****     *   The errors bits may not correspond with reading characters due to
 542:Generated_Source\PSoC4/mUART_UART.c ****     *   RX FIFO and software buffer usage.
 543:Generated_Source\PSoC4/mUART_UART.c ****     *   RX software buffer is enabled: The internal software buffer overflow
 544:Generated_Source\PSoC4/mUART_UART.c ****     *   is not treated as an error condition.
 545:Generated_Source\PSoC4/mUART_UART.c ****     *   Check mUART_rxBufferOverflow to capture that error condition.
 546:Generated_Source\PSoC4/mUART_UART.c ****     *
 547:Generated_Source\PSoC4/mUART_UART.c ****     *******************************************************************************/
 548:Generated_Source\PSoC4/mUART_UART.c ****     uint32 mUART_UartGetByte(void)
ARM GAS  C:\Users\PC\AppData\Local\Temp\ccwnvNtc.s 			page 17


 549:Generated_Source\PSoC4/mUART_UART.c ****     {
 363              		.loc 1 549 0
 364              		.cfi_startproc
 365              		@ args = 0, pretend = 0, frame = 0
 366              		@ frame_needed = 0, uses_anonymous_args = 0
 367 0000 10B5     		push	{r4, lr}
 368              		.cfi_def_cfa_offset 8
 369              		.cfi_offset 4, -8
 370              		.cfi_offset 14, -4
 550:Generated_Source\PSoC4/mUART_UART.c ****         uint32 rxData;
 551:Generated_Source\PSoC4/mUART_UART.c ****         uint32 tmpStatus;
 552:Generated_Source\PSoC4/mUART_UART.c **** 
 553:Generated_Source\PSoC4/mUART_UART.c ****         #if (mUART_CHECK_RX_SW_BUFFER)
 554:Generated_Source\PSoC4/mUART_UART.c ****         {
 555:Generated_Source\PSoC4/mUART_UART.c ****             mUART_DisableInt();
 556:Generated_Source\PSoC4/mUART_UART.c ****         }
 557:Generated_Source\PSoC4/mUART_UART.c ****         #endif
 558:Generated_Source\PSoC4/mUART_UART.c **** 
 559:Generated_Source\PSoC4/mUART_UART.c ****         if (0u != mUART_SpiUartGetRxBufferSize())
 371              		.loc 1 559 0
 372 0002 FFF7FEFF 		bl	mUART_SpiUartGetRxBufferSize
 373              	.LVL20:
 374 0006 0028     		cmp	r0, #0
 375 0008 02D0     		beq	.L23
 560:Generated_Source\PSoC4/mUART_UART.c ****         {
 561:Generated_Source\PSoC4/mUART_UART.c ****             /* Enables interrupt to receive more bytes: at least one byte is in
 562:Generated_Source\PSoC4/mUART_UART.c ****             * buffer.
 563:Generated_Source\PSoC4/mUART_UART.c ****             */
 564:Generated_Source\PSoC4/mUART_UART.c ****             #if (mUART_CHECK_RX_SW_BUFFER)
 565:Generated_Source\PSoC4/mUART_UART.c ****             {
 566:Generated_Source\PSoC4/mUART_UART.c ****                 mUART_EnableInt();
 567:Generated_Source\PSoC4/mUART_UART.c ****             }
 568:Generated_Source\PSoC4/mUART_UART.c ****             #endif
 569:Generated_Source\PSoC4/mUART_UART.c **** 
 570:Generated_Source\PSoC4/mUART_UART.c ****             /* Get received byte */
 571:Generated_Source\PSoC4/mUART_UART.c ****             rxData = mUART_SpiUartReadRxData();
 376              		.loc 1 571 0
 377 000a FFF7FEFF 		bl	mUART_SpiUartReadRxData
 378              	.LVL21:
 379 000e 01E0     		b	.L24
 380              	.LVL22:
 381              	.L23:
 572:Generated_Source\PSoC4/mUART_UART.c ****         }
 573:Generated_Source\PSoC4/mUART_UART.c ****         else
 574:Generated_Source\PSoC4/mUART_UART.c ****         {
 575:Generated_Source\PSoC4/mUART_UART.c ****             /* Reads a byte directly from RX FIFO: underflow is raised in the
 576:Generated_Source\PSoC4/mUART_UART.c ****             * case of empty. Otherwise the first received byte will be read.
 577:Generated_Source\PSoC4/mUART_UART.c ****             */
 578:Generated_Source\PSoC4/mUART_UART.c ****             rxData = mUART_RX_FIFO_RD_REG;
 382              		.loc 1 578 0
 383 0010 064B     		ldr	r3, .L25
 384 0012 1868     		ldr	r0, [r3]
 385              	.LVL23:
 386              	.L24:
 579:Generated_Source\PSoC4/mUART_UART.c **** 
 580:Generated_Source\PSoC4/mUART_UART.c **** 
 581:Generated_Source\PSoC4/mUART_UART.c ****             /* Enables interrupt to receive more bytes. */
ARM GAS  C:\Users\PC\AppData\Local\Temp\ccwnvNtc.s 			page 18


 582:Generated_Source\PSoC4/mUART_UART.c ****             #if (mUART_CHECK_RX_SW_BUFFER)
 583:Generated_Source\PSoC4/mUART_UART.c ****             {
 584:Generated_Source\PSoC4/mUART_UART.c **** 
 585:Generated_Source\PSoC4/mUART_UART.c ****                 /* The byte has been read from RX FIFO. Clear RX interrupt to
 586:Generated_Source\PSoC4/mUART_UART.c ****                 * not involve interrupt handler when RX FIFO is empty.
 587:Generated_Source\PSoC4/mUART_UART.c ****                 */
 588:Generated_Source\PSoC4/mUART_UART.c ****                 mUART_ClearRxInterruptSource(mUART_INTR_RX_NOT_EMPTY);
 589:Generated_Source\PSoC4/mUART_UART.c **** 
 590:Generated_Source\PSoC4/mUART_UART.c ****                 mUART_EnableInt();
 591:Generated_Source\PSoC4/mUART_UART.c ****             }
 592:Generated_Source\PSoC4/mUART_UART.c ****             #endif
 593:Generated_Source\PSoC4/mUART_UART.c ****         }
 594:Generated_Source\PSoC4/mUART_UART.c **** 
 595:Generated_Source\PSoC4/mUART_UART.c ****         /* Get and clear RX error mask */
 596:Generated_Source\PSoC4/mUART_UART.c ****         tmpStatus = (mUART_GetRxInterruptSource() & mUART_INTR_RX_ERR);
 387              		.loc 1 596 0
 388 0014 064A     		ldr	r2, .L25+4
 389 0016 1368     		ldr	r3, [r2]
 390              	.LVL24:
 597:Generated_Source\PSoC4/mUART_UART.c ****         mUART_ClearRxInterruptSource(mUART_INTR_RX_ERR);
 391              		.loc 1 597 0
 392 0018 D821     		movs	r1, #216
 393 001a 8900     		lsls	r1, r1, #2
 394 001c 1160     		str	r1, [r2]
 598:Generated_Source\PSoC4/mUART_UART.c **** 
 599:Generated_Source\PSoC4/mUART_UART.c ****         /* Puts together data and error status:
 600:Generated_Source\PSoC4/mUART_UART.c ****         * MP mode and accept address: 9th bit is set to notify mark.
 601:Generated_Source\PSoC4/mUART_UART.c ****         */
 602:Generated_Source\PSoC4/mUART_UART.c ****         rxData |= ((uint32) (tmpStatus << 8u));
 395              		.loc 1 602 0
 396 001e 1B02     		lsls	r3, r3, #8
 397              	.LVL25:
 398 0020 D822     		movs	r2, #216
 399 0022 9202     		lsls	r2, r2, #10
 400 0024 1340     		ands	r3, r2
 401 0026 1843     		orrs	r0, r3
 402              	.LVL26:
 603:Generated_Source\PSoC4/mUART_UART.c **** 
 604:Generated_Source\PSoC4/mUART_UART.c ****         return (rxData);
 605:Generated_Source\PSoC4/mUART_UART.c ****     }
 403              		.loc 1 605 0
 404              		@ sp needed
 405 0028 10BD     		pop	{r4, pc}
 406              	.L26:
 407 002a C046     		.align	2
 408              	.L25:
 409 002c 40030840 		.word	1074266944
 410 0030 C00F0840 		.word	1074270144
 411              		.cfi_endproc
 412              	.LFE7:
 413              		.size	mUART_UartGetByte, .-mUART_UartGetByte
 414              		.section	.text.mUART_UartSetRtsPolarity,"ax",%progbits
 415              		.align	2
 416              		.global	mUART_UartSetRtsPolarity
 417              		.code	16
 418              		.thumb_func
 419              		.type	mUART_UartSetRtsPolarity, %function
ARM GAS  C:\Users\PC\AppData\Local\Temp\ccwnvNtc.s 			page 19


 420              	mUART_UartSetRtsPolarity:
 421              	.LFB8:
 606:Generated_Source\PSoC4/mUART_UART.c **** 
 607:Generated_Source\PSoC4/mUART_UART.c **** 
 608:Generated_Source\PSoC4/mUART_UART.c ****     #if !(mUART_CY_SCBIP_V0 || mUART_CY_SCBIP_V1)
 609:Generated_Source\PSoC4/mUART_UART.c ****         /*******************************************************************************
 610:Generated_Source\PSoC4/mUART_UART.c ****         * Function Name: mUART_UartSetRtsPolarity
 611:Generated_Source\PSoC4/mUART_UART.c ****         ****************************************************************************//**
 612:Generated_Source\PSoC4/mUART_UART.c ****         *
 613:Generated_Source\PSoC4/mUART_UART.c ****         *  Sets active polarity of RTS output signal.
 614:Generated_Source\PSoC4/mUART_UART.c ****         *  Only available for PSoC 4100 BLE / PSoC 4200 BLE / PSoC 4100M / PSoC 4200M /
 615:Generated_Source\PSoC4/mUART_UART.c ****         *  PSoC 4200L / PSoC 4000S / PSoC 4100S / PSoC Analog Coprocessor devices.
 616:Generated_Source\PSoC4/mUART_UART.c ****         *
 617:Generated_Source\PSoC4/mUART_UART.c ****         *  \param polarity: Active polarity of RTS output signal.
 618:Generated_Source\PSoC4/mUART_UART.c ****         *   - mUART_UART_RTS_ACTIVE_LOW  - RTS signal is active low.
 619:Generated_Source\PSoC4/mUART_UART.c ****         *   - mUART_UART_RTS_ACTIVE_HIGH - RTS signal is active high.
 620:Generated_Source\PSoC4/mUART_UART.c ****         *
 621:Generated_Source\PSoC4/mUART_UART.c ****         *******************************************************************************/
 622:Generated_Source\PSoC4/mUART_UART.c ****         void mUART_UartSetRtsPolarity(uint32 polarity)
 623:Generated_Source\PSoC4/mUART_UART.c ****         {
 422              		.loc 1 623 0
 423              		.cfi_startproc
 424              		@ args = 0, pretend = 0, frame = 0
 425              		@ frame_needed = 0, uses_anonymous_args = 0
 426              		@ link register save eliminated.
 427              	.LVL27:
 624:Generated_Source\PSoC4/mUART_UART.c ****             if(0u != polarity)
 428              		.loc 1 624 0
 429 0000 0028     		cmp	r0, #0
 430 0002 06D0     		beq	.L28
 625:Generated_Source\PSoC4/mUART_UART.c ****             {
 626:Generated_Source\PSoC4/mUART_UART.c ****                 mUART_UART_FLOW_CTRL_REG |= (uint32)  mUART_UART_FLOW_CTRL_RTS_POLARITY;
 431              		.loc 1 626 0
 432 0004 064A     		ldr	r2, .L30
 433 0006 1368     		ldr	r3, [r2]
 434 0008 8021     		movs	r1, #128
 435 000a 4902     		lsls	r1, r1, #9
 436 000c 0B43     		orrs	r3, r1
 437 000e 1360     		str	r3, [r2]
 438 0010 04E0     		b	.L27
 439              	.L28:
 627:Generated_Source\PSoC4/mUART_UART.c ****             }
 628:Generated_Source\PSoC4/mUART_UART.c ****             else
 629:Generated_Source\PSoC4/mUART_UART.c ****             {
 630:Generated_Source\PSoC4/mUART_UART.c ****                 mUART_UART_FLOW_CTRL_REG &= (uint32) ~mUART_UART_FLOW_CTRL_RTS_POLARITY;
 440              		.loc 1 630 0
 441 0012 034A     		ldr	r2, .L30
 442 0014 1168     		ldr	r1, [r2]
 443 0016 034B     		ldr	r3, .L30+4
 444 0018 0B40     		ands	r3, r1
 445 001a 1360     		str	r3, [r2]
 446              	.L27:
 631:Generated_Source\PSoC4/mUART_UART.c ****             }
 632:Generated_Source\PSoC4/mUART_UART.c ****         }
 447              		.loc 1 632 0
 448              		@ sp needed
 449 001c 7047     		bx	lr
ARM GAS  C:\Users\PC\AppData\Local\Temp\ccwnvNtc.s 			page 20


 450              	.L31:
 451 001e C046     		.align	2
 452              	.L30:
 453 0020 50000840 		.word	1074266192
 454 0024 FFFFFEFF 		.word	-65537
 455              		.cfi_endproc
 456              	.LFE8:
 457              		.size	mUART_UartSetRtsPolarity, .-mUART_UartSetRtsPolarity
 458              		.section	.text.mUART_UartSetRtsFifoLevel,"ax",%progbits
 459              		.align	2
 460              		.global	mUART_UartSetRtsFifoLevel
 461              		.code	16
 462              		.thumb_func
 463              		.type	mUART_UartSetRtsFifoLevel, %function
 464              	mUART_UartSetRtsFifoLevel:
 465              	.LFB9:
 633:Generated_Source\PSoC4/mUART_UART.c **** 
 634:Generated_Source\PSoC4/mUART_UART.c **** 
 635:Generated_Source\PSoC4/mUART_UART.c ****         /*******************************************************************************
 636:Generated_Source\PSoC4/mUART_UART.c ****         * Function Name: mUART_UartSetRtsFifoLevel
 637:Generated_Source\PSoC4/mUART_UART.c ****         ****************************************************************************//**
 638:Generated_Source\PSoC4/mUART_UART.c ****         *
 639:Generated_Source\PSoC4/mUART_UART.c ****         *  Sets level in the RX FIFO for RTS signal activation.
 640:Generated_Source\PSoC4/mUART_UART.c ****         *  While the RX FIFO has fewer entries than the RX FIFO level the RTS signal
 641:Generated_Source\PSoC4/mUART_UART.c ****         *  remains active, otherwise the RTS signal becomes inactive.
 642:Generated_Source\PSoC4/mUART_UART.c ****         *  Only available for PSoC 4100 BLE / PSoC 4200 BLE / PSoC 4100M / PSoC 4200M /
 643:Generated_Source\PSoC4/mUART_UART.c ****         *  PSoC 4200L / PSoC 4000S / PSoC 4100S / PSoC Analog Coprocessor devices.
 644:Generated_Source\PSoC4/mUART_UART.c ****         *
 645:Generated_Source\PSoC4/mUART_UART.c ****         *  \param level: Level in the RX FIFO for RTS signal activation.
 646:Generated_Source\PSoC4/mUART_UART.c ****         *   The range of valid level values is between 0 and RX FIFO depth - 1.
 647:Generated_Source\PSoC4/mUART_UART.c ****         *   Setting level value to 0 disables RTS signal activation.
 648:Generated_Source\PSoC4/mUART_UART.c ****         *
 649:Generated_Source\PSoC4/mUART_UART.c ****         *******************************************************************************/
 650:Generated_Source\PSoC4/mUART_UART.c ****         void mUART_UartSetRtsFifoLevel(uint32 level)
 651:Generated_Source\PSoC4/mUART_UART.c ****         {
 466              		.loc 1 651 0
 467              		.cfi_startproc
 468              		@ args = 0, pretend = 0, frame = 0
 469              		@ frame_needed = 0, uses_anonymous_args = 0
 470              		@ link register save eliminated.
 471              	.LVL28:
 652:Generated_Source\PSoC4/mUART_UART.c ****             uint32 uartFlowCtrl;
 653:Generated_Source\PSoC4/mUART_UART.c **** 
 654:Generated_Source\PSoC4/mUART_UART.c ****             uartFlowCtrl = mUART_UART_FLOW_CTRL_REG;
 472              		.loc 1 654 0
 473 0000 034A     		ldr	r2, .L33
 474 0002 1368     		ldr	r3, [r2]
 475              	.LVL29:
 655:Generated_Source\PSoC4/mUART_UART.c **** 
 656:Generated_Source\PSoC4/mUART_UART.c ****             uartFlowCtrl &= ((uint32) ~mUART_UART_FLOW_CTRL_TRIGGER_LEVEL_MASK); /* Clear level mas
 476              		.loc 1 656 0
 477 0004 0F21     		movs	r1, #15
 478 0006 8B43     		bics	r3, r1
 479              	.LVL30:
 657:Generated_Source\PSoC4/mUART_UART.c ****             uartFlowCtrl |= ((uint32) (mUART_UART_FLOW_CTRL_TRIGGER_LEVEL_MASK & level));
 480              		.loc 1 657 0
 481 0008 0840     		ands	r0, r1
ARM GAS  C:\Users\PC\AppData\Local\Temp\ccwnvNtc.s 			page 21


 482              	.LVL31:
 483 000a 1843     		orrs	r0, r3
 484              	.LVL32:
 658:Generated_Source\PSoC4/mUART_UART.c **** 
 659:Generated_Source\PSoC4/mUART_UART.c ****             mUART_UART_FLOW_CTRL_REG = uartFlowCtrl;
 485              		.loc 1 659 0
 486 000c 1060     		str	r0, [r2]
 660:Generated_Source\PSoC4/mUART_UART.c ****         }
 487              		.loc 1 660 0
 488              		@ sp needed
 489 000e 7047     		bx	lr
 490              	.L34:
 491              		.align	2
 492              	.L33:
 493 0010 50000840 		.word	1074266192
 494              		.cfi_endproc
 495              	.LFE9:
 496              		.size	mUART_UartSetRtsFifoLevel, .-mUART_UartSetRtsFifoLevel
 497              		.section	.text.mUART_UartPutString,"ax",%progbits
 498              		.align	2
 499              		.global	mUART_UartPutString
 500              		.code	16
 501              		.thumb_func
 502              		.type	mUART_UartPutString, %function
 503              	mUART_UartPutString:
 504              	.LFB10:
 661:Generated_Source\PSoC4/mUART_UART.c ****     #endif /* !(mUART_CY_SCBIP_V0 || mUART_CY_SCBIP_V1) */
 662:Generated_Source\PSoC4/mUART_UART.c **** 
 663:Generated_Source\PSoC4/mUART_UART.c **** #endif /* (mUART_UART_RX_DIRECTION) */
 664:Generated_Source\PSoC4/mUART_UART.c **** 
 665:Generated_Source\PSoC4/mUART_UART.c **** 
 666:Generated_Source\PSoC4/mUART_UART.c **** #if(mUART_UART_TX_DIRECTION)
 667:Generated_Source\PSoC4/mUART_UART.c ****     /*******************************************************************************
 668:Generated_Source\PSoC4/mUART_UART.c ****     * Function Name: mUART_UartPutString
 669:Generated_Source\PSoC4/mUART_UART.c ****     ****************************************************************************//**
 670:Generated_Source\PSoC4/mUART_UART.c ****     *
 671:Generated_Source\PSoC4/mUART_UART.c ****     *  Places a NULL terminated string in the transmit buffer to be sent at the
 672:Generated_Source\PSoC4/mUART_UART.c ****     *  next available bus time.
 673:Generated_Source\PSoC4/mUART_UART.c ****     *  This function is blocking and waits until there is a space available to put
 674:Generated_Source\PSoC4/mUART_UART.c ****     *  requested data in transmit buffer.
 675:Generated_Source\PSoC4/mUART_UART.c ****     *
 676:Generated_Source\PSoC4/mUART_UART.c ****     *  \param string: pointer to the null terminated string array to be placed in the
 677:Generated_Source\PSoC4/mUART_UART.c ****     *   transmit buffer.
 678:Generated_Source\PSoC4/mUART_UART.c ****     *
 679:Generated_Source\PSoC4/mUART_UART.c ****     *******************************************************************************/
 680:Generated_Source\PSoC4/mUART_UART.c ****     void mUART_UartPutString(const char8 string[])
 681:Generated_Source\PSoC4/mUART_UART.c ****     {
 505              		.loc 1 681 0
 506              		.cfi_startproc
 507              		@ args = 0, pretend = 0, frame = 0
 508              		@ frame_needed = 0, uses_anonymous_args = 0
 509              	.LVL33:
 510 0000 70B5     		push	{r4, r5, r6, lr}
 511              		.cfi_def_cfa_offset 16
 512              		.cfi_offset 4, -16
 513              		.cfi_offset 5, -12
 514              		.cfi_offset 6, -8
ARM GAS  C:\Users\PC\AppData\Local\Temp\ccwnvNtc.s 			page 22


 515              		.cfi_offset 14, -4
 516 0002 0500     		movs	r5, r0
 517              	.LVL34:
 682:Generated_Source\PSoC4/mUART_UART.c ****         uint32 bufIndex;
 683:Generated_Source\PSoC4/mUART_UART.c **** 
 684:Generated_Source\PSoC4/mUART_UART.c ****         bufIndex = 0u;
 518              		.loc 1 684 0
 519 0004 0024     		movs	r4, #0
 685:Generated_Source\PSoC4/mUART_UART.c **** 
 686:Generated_Source\PSoC4/mUART_UART.c ****         /* Blocks the control flow until all data has been sent */
 687:Generated_Source\PSoC4/mUART_UART.c ****         while(string[bufIndex] != ((char8) 0))
 520              		.loc 1 687 0
 521 0006 02E0     		b	.L36
 522              	.LVL35:
 523              	.L37:
 688:Generated_Source\PSoC4/mUART_UART.c ****         {
 689:Generated_Source\PSoC4/mUART_UART.c ****             mUART_UartPutChar((uint32) string[bufIndex]);
 524              		.loc 1 689 0
 525 0008 FFF7FEFF 		bl	mUART_SpiUartWriteTxData
 526              	.LVL36:
 690:Generated_Source\PSoC4/mUART_UART.c ****             bufIndex++;
 527              		.loc 1 690 0
 528 000c 0134     		adds	r4, r4, #1
 529              	.LVL37:
 530              	.L36:
 687:Generated_Source\PSoC4/mUART_UART.c ****         {
 531              		.loc 1 687 0
 532 000e 285D     		ldrb	r0, [r5, r4]
 533 0010 0028     		cmp	r0, #0
 534 0012 F9D1     		bne	.L37
 691:Generated_Source\PSoC4/mUART_UART.c ****         }
 692:Generated_Source\PSoC4/mUART_UART.c ****     }
 535              		.loc 1 692 0
 536              		@ sp needed
 537              	.LVL38:
 538              	.LVL39:
 539 0014 70BD     		pop	{r4, r5, r6, pc}
 540              		.cfi_endproc
 541              	.LFE10:
 542              		.size	mUART_UartPutString, .-mUART_UartPutString
 543 0016 C046     		.section	.text.mUART_UartPutCRLF,"ax",%progbits
 544              		.align	2
 545              		.global	mUART_UartPutCRLF
 546              		.code	16
 547              		.thumb_func
 548              		.type	mUART_UartPutCRLF, %function
 549              	mUART_UartPutCRLF:
 550              	.LFB11:
 693:Generated_Source\PSoC4/mUART_UART.c **** 
 694:Generated_Source\PSoC4/mUART_UART.c **** 
 695:Generated_Source\PSoC4/mUART_UART.c ****     /*******************************************************************************
 696:Generated_Source\PSoC4/mUART_UART.c ****     * Function Name: mUART_UartPutCRLF
 697:Generated_Source\PSoC4/mUART_UART.c ****     ****************************************************************************//**
 698:Generated_Source\PSoC4/mUART_UART.c ****     *
 699:Generated_Source\PSoC4/mUART_UART.c ****     *  Places byte of data followed by a carriage return (0x0D) and line feed
 700:Generated_Source\PSoC4/mUART_UART.c ****     *  (0x0A) in the transmit buffer.
 701:Generated_Source\PSoC4/mUART_UART.c ****     *  This function is blocking and waits until there is a space available to put
ARM GAS  C:\Users\PC\AppData\Local\Temp\ccwnvNtc.s 			page 23


 702:Generated_Source\PSoC4/mUART_UART.c ****     *  all requested data in transmit buffer.
 703:Generated_Source\PSoC4/mUART_UART.c ****     *
 704:Generated_Source\PSoC4/mUART_UART.c ****     *  \param txDataByte: the data to be transmitted.
 705:Generated_Source\PSoC4/mUART_UART.c ****     *
 706:Generated_Source\PSoC4/mUART_UART.c ****     *******************************************************************************/
 707:Generated_Source\PSoC4/mUART_UART.c ****     void mUART_UartPutCRLF(uint32 txDataByte)
 708:Generated_Source\PSoC4/mUART_UART.c ****     {
 551              		.loc 1 708 0
 552              		.cfi_startproc
 553              		@ args = 0, pretend = 0, frame = 0
 554              		@ frame_needed = 0, uses_anonymous_args = 0
 555              	.LVL40:
 556 0000 10B5     		push	{r4, lr}
 557              		.cfi_def_cfa_offset 8
 558              		.cfi_offset 4, -8
 559              		.cfi_offset 14, -4
 709:Generated_Source\PSoC4/mUART_UART.c ****         mUART_UartPutChar(txDataByte);  /* Blocks control flow until all data has been sent */
 560              		.loc 1 709 0
 561 0002 FFF7FEFF 		bl	mUART_SpiUartWriteTxData
 562              	.LVL41:
 710:Generated_Source\PSoC4/mUART_UART.c ****         mUART_UartPutChar(0x0Du);       /* Blocks control flow until all data has been sent */
 563              		.loc 1 710 0
 564 0006 0D20     		movs	r0, #13
 565 0008 FFF7FEFF 		bl	mUART_SpiUartWriteTxData
 566              	.LVL42:
 711:Generated_Source\PSoC4/mUART_UART.c ****         mUART_UartPutChar(0x0Au);       /* Blocks control flow until all data has been sent */
 567              		.loc 1 711 0
 568 000c 0A20     		movs	r0, #10
 569 000e FFF7FEFF 		bl	mUART_SpiUartWriteTxData
 570              	.LVL43:
 712:Generated_Source\PSoC4/mUART_UART.c ****     }
 571              		.loc 1 712 0
 572              		@ sp needed
 573 0012 10BD     		pop	{r4, pc}
 574              		.cfi_endproc
 575              	.LFE11:
 576              		.size	mUART_UartPutCRLF, .-mUART_UartPutCRLF
 577              		.section	.text.mUART_UartEnableCts,"ax",%progbits
 578              		.align	2
 579              		.global	mUART_UartEnableCts
 580              		.code	16
 581              		.thumb_func
 582              		.type	mUART_UartEnableCts, %function
 583              	mUART_UartEnableCts:
 584              	.LFB12:
 713:Generated_Source\PSoC4/mUART_UART.c **** 
 714:Generated_Source\PSoC4/mUART_UART.c **** 
 715:Generated_Source\PSoC4/mUART_UART.c ****     #if !(mUART_CY_SCBIP_V0 || mUART_CY_SCBIP_V1)
 716:Generated_Source\PSoC4/mUART_UART.c ****         /*******************************************************************************
 717:Generated_Source\PSoC4/mUART_UART.c ****         * Function Name: mUARTSCB_UartEnableCts
 718:Generated_Source\PSoC4/mUART_UART.c ****         ****************************************************************************//**
 719:Generated_Source\PSoC4/mUART_UART.c ****         *
 720:Generated_Source\PSoC4/mUART_UART.c ****         *  Enables usage of CTS input signal by the UART transmitter.
 721:Generated_Source\PSoC4/mUART_UART.c ****         *  Only available for PSoC 4100 BLE / PSoC 4200 BLE / PSoC 4100M / PSoC 4200M /
 722:Generated_Source\PSoC4/mUART_UART.c ****         *  PSoC 4200L / PSoC 4000S / PSoC 4100S / PSoC Analog Coprocessor devices.
 723:Generated_Source\PSoC4/mUART_UART.c ****         *
 724:Generated_Source\PSoC4/mUART_UART.c ****         *******************************************************************************/
ARM GAS  C:\Users\PC\AppData\Local\Temp\ccwnvNtc.s 			page 24


 725:Generated_Source\PSoC4/mUART_UART.c ****         void mUART_UartEnableCts(void)
 726:Generated_Source\PSoC4/mUART_UART.c ****         {
 585              		.loc 1 726 0
 586              		.cfi_startproc
 587              		@ args = 0, pretend = 0, frame = 0
 588              		@ frame_needed = 0, uses_anonymous_args = 0
 589              		@ link register save eliminated.
 727:Generated_Source\PSoC4/mUART_UART.c ****             mUART_UART_FLOW_CTRL_REG |= (uint32)  mUART_UART_FLOW_CTRL_CTS_ENABLE;
 590              		.loc 1 727 0
 591 0000 034A     		ldr	r2, .L40
 592 0002 1368     		ldr	r3, [r2]
 593 0004 8021     		movs	r1, #128
 594 0006 8904     		lsls	r1, r1, #18
 595 0008 0B43     		orrs	r3, r1
 596 000a 1360     		str	r3, [r2]
 728:Generated_Source\PSoC4/mUART_UART.c ****         }
 597              		.loc 1 728 0
 598              		@ sp needed
 599 000c 7047     		bx	lr
 600              	.L41:
 601 000e C046     		.align	2
 602              	.L40:
 603 0010 50000840 		.word	1074266192
 604              		.cfi_endproc
 605              	.LFE12:
 606              		.size	mUART_UartEnableCts, .-mUART_UartEnableCts
 607              		.section	.text.mUART_UartDisableCts,"ax",%progbits
 608              		.align	2
 609              		.global	mUART_UartDisableCts
 610              		.code	16
 611              		.thumb_func
 612              		.type	mUART_UartDisableCts, %function
 613              	mUART_UartDisableCts:
 614              	.LFB13:
 729:Generated_Source\PSoC4/mUART_UART.c **** 
 730:Generated_Source\PSoC4/mUART_UART.c **** 
 731:Generated_Source\PSoC4/mUART_UART.c ****         /*******************************************************************************
 732:Generated_Source\PSoC4/mUART_UART.c ****         * Function Name: mUART_UartDisableCts
 733:Generated_Source\PSoC4/mUART_UART.c ****         ****************************************************************************//**
 734:Generated_Source\PSoC4/mUART_UART.c ****         *
 735:Generated_Source\PSoC4/mUART_UART.c ****         *  Disables usage of CTS input signal by the UART transmitter.
 736:Generated_Source\PSoC4/mUART_UART.c ****         *  Only available for PSoC 4100 BLE / PSoC 4200 BLE / PSoC 4100M / PSoC 4200M /
 737:Generated_Source\PSoC4/mUART_UART.c ****         *  PSoC 4200L / PSoC 4000S / PSoC 4100S / PSoC Analog Coprocessor devices.
 738:Generated_Source\PSoC4/mUART_UART.c ****         *
 739:Generated_Source\PSoC4/mUART_UART.c ****         *******************************************************************************/
 740:Generated_Source\PSoC4/mUART_UART.c ****         void mUART_UartDisableCts(void)
 741:Generated_Source\PSoC4/mUART_UART.c ****         {
 615              		.loc 1 741 0
 616              		.cfi_startproc
 617              		@ args = 0, pretend = 0, frame = 0
 618              		@ frame_needed = 0, uses_anonymous_args = 0
 619              		@ link register save eliminated.
 742:Generated_Source\PSoC4/mUART_UART.c ****             mUART_UART_FLOW_CTRL_REG &= (uint32) ~mUART_UART_FLOW_CTRL_CTS_ENABLE;
 620              		.loc 1 742 0
 621 0000 024A     		ldr	r2, .L43
 622 0002 1168     		ldr	r1, [r2]
 623 0004 024B     		ldr	r3, .L43+4
ARM GAS  C:\Users\PC\AppData\Local\Temp\ccwnvNtc.s 			page 25


 624 0006 0B40     		ands	r3, r1
 625 0008 1360     		str	r3, [r2]
 743:Generated_Source\PSoC4/mUART_UART.c ****         }
 626              		.loc 1 743 0
 627              		@ sp needed
 628 000a 7047     		bx	lr
 629              	.L44:
 630              		.align	2
 631              	.L43:
 632 000c 50000840 		.word	1074266192
 633 0010 FFFFFFFD 		.word	-33554433
 634              		.cfi_endproc
 635              	.LFE13:
 636              		.size	mUART_UartDisableCts, .-mUART_UartDisableCts
 637              		.section	.text.mUART_UartSetCtsPolarity,"ax",%progbits
 638              		.align	2
 639              		.global	mUART_UartSetCtsPolarity
 640              		.code	16
 641              		.thumb_func
 642              		.type	mUART_UartSetCtsPolarity, %function
 643              	mUART_UartSetCtsPolarity:
 644              	.LFB14:
 744:Generated_Source\PSoC4/mUART_UART.c **** 
 745:Generated_Source\PSoC4/mUART_UART.c **** 
 746:Generated_Source\PSoC4/mUART_UART.c ****         /*******************************************************************************
 747:Generated_Source\PSoC4/mUART_UART.c ****         * Function Name: mUART_UartSetCtsPolarity
 748:Generated_Source\PSoC4/mUART_UART.c ****         ****************************************************************************//**
 749:Generated_Source\PSoC4/mUART_UART.c ****         *
 750:Generated_Source\PSoC4/mUART_UART.c ****         *  Sets active polarity of CTS input signal.
 751:Generated_Source\PSoC4/mUART_UART.c ****         *  Only available for PSoC 4100 BLE / PSoC 4200 BLE / PSoC 4100M / PSoC 4200M /
 752:Generated_Source\PSoC4/mUART_UART.c ****         *  PSoC 4200L / PSoC 4000S / PSoC 4100S / PSoC Analog Coprocessor devices.
 753:Generated_Source\PSoC4/mUART_UART.c ****         *
 754:Generated_Source\PSoC4/mUART_UART.c ****         * \param
 755:Generated_Source\PSoC4/mUART_UART.c ****         * polarity: Active polarity of CTS output signal.
 756:Generated_Source\PSoC4/mUART_UART.c ****         *   - mUART_UART_CTS_ACTIVE_LOW  - CTS signal is active low.
 757:Generated_Source\PSoC4/mUART_UART.c ****         *   - mUART_UART_CTS_ACTIVE_HIGH - CTS signal is active high.
 758:Generated_Source\PSoC4/mUART_UART.c ****         *
 759:Generated_Source\PSoC4/mUART_UART.c ****         *******************************************************************************/
 760:Generated_Source\PSoC4/mUART_UART.c ****         void mUART_UartSetCtsPolarity(uint32 polarity)
 761:Generated_Source\PSoC4/mUART_UART.c ****         {
 645              		.loc 1 761 0
 646              		.cfi_startproc
 647              		@ args = 0, pretend = 0, frame = 0
 648              		@ frame_needed = 0, uses_anonymous_args = 0
 649              		@ link register save eliminated.
 650              	.LVL44:
 762:Generated_Source\PSoC4/mUART_UART.c ****             if (0u != polarity)
 651              		.loc 1 762 0
 652 0000 0028     		cmp	r0, #0
 653 0002 06D0     		beq	.L46
 763:Generated_Source\PSoC4/mUART_UART.c ****             {
 764:Generated_Source\PSoC4/mUART_UART.c ****                 mUART_UART_FLOW_CTRL_REG |= (uint32)  mUART_UART_FLOW_CTRL_CTS_POLARITY;
 654              		.loc 1 764 0
 655 0004 064A     		ldr	r2, .L48
 656 0006 1368     		ldr	r3, [r2]
 657 0008 8021     		movs	r1, #128
 658 000a 4904     		lsls	r1, r1, #17
ARM GAS  C:\Users\PC\AppData\Local\Temp\ccwnvNtc.s 			page 26


 659 000c 0B43     		orrs	r3, r1
 660 000e 1360     		str	r3, [r2]
 661 0010 04E0     		b	.L45
 662              	.L46:
 765:Generated_Source\PSoC4/mUART_UART.c ****             }
 766:Generated_Source\PSoC4/mUART_UART.c ****             else
 767:Generated_Source\PSoC4/mUART_UART.c ****             {
 768:Generated_Source\PSoC4/mUART_UART.c ****                 mUART_UART_FLOW_CTRL_REG &= (uint32) ~mUART_UART_FLOW_CTRL_CTS_POLARITY;
 663              		.loc 1 768 0
 664 0012 034A     		ldr	r2, .L48
 665 0014 1168     		ldr	r1, [r2]
 666 0016 034B     		ldr	r3, .L48+4
 667 0018 0B40     		ands	r3, r1
 668 001a 1360     		str	r3, [r2]
 669              	.L45:
 769:Generated_Source\PSoC4/mUART_UART.c ****             }
 770:Generated_Source\PSoC4/mUART_UART.c ****         }
 670              		.loc 1 770 0
 671              		@ sp needed
 672 001c 7047     		bx	lr
 673              	.L49:
 674 001e C046     		.align	2
 675              	.L48:
 676 0020 50000840 		.word	1074266192
 677 0024 FFFFFFFE 		.word	-16777217
 678              		.cfi_endproc
 679              	.LFE14:
 680              		.size	mUART_UartSetCtsPolarity, .-mUART_UartSetCtsPolarity
 681              		.section	.text.mUART_UartSendBreakBlocking,"ax",%progbits
 682              		.align	2
 683              		.global	mUART_UartSendBreakBlocking
 684              		.code	16
 685              		.thumb_func
 686              		.type	mUART_UartSendBreakBlocking, %function
 687              	mUART_UartSendBreakBlocking:
 688              	.LFB15:
 771:Generated_Source\PSoC4/mUART_UART.c ****     #endif /* !(mUART_CY_SCBIP_V0 || mUART_CY_SCBIP_V1) */
 772:Generated_Source\PSoC4/mUART_UART.c **** 
 773:Generated_Source\PSoC4/mUART_UART.c **** 
 774:Generated_Source\PSoC4/mUART_UART.c ****     /*******************************************************************************
 775:Generated_Source\PSoC4/mUART_UART.c ****     * Function Name: mUART_UartSendBreakBlocking
 776:Generated_Source\PSoC4/mUART_UART.c ****     ****************************************************************************//**
 777:Generated_Source\PSoC4/mUART_UART.c ****     *
 778:Generated_Source\PSoC4/mUART_UART.c ****     * Sends a break condition (logic low) of specified width on UART TX line.
 779:Generated_Source\PSoC4/mUART_UART.c ****     * Blocks until break is completed. Only call this function when UART TX FIFO
 780:Generated_Source\PSoC4/mUART_UART.c ****     * and shifter are empty.
 781:Generated_Source\PSoC4/mUART_UART.c ****     *
 782:Generated_Source\PSoC4/mUART_UART.c ****     * \param breakWidth
 783:Generated_Source\PSoC4/mUART_UART.c ****     * Width of break condition. Valid range is 4 to 16 bits.
 784:Generated_Source\PSoC4/mUART_UART.c ****     *
 785:Generated_Source\PSoC4/mUART_UART.c ****     * \note
 786:Generated_Source\PSoC4/mUART_UART.c ****     * Before sending break all UART TX interrupt sources are disabled. The state
 787:Generated_Source\PSoC4/mUART_UART.c ****     * of UART TX interrupt sources is restored before function returns.
 788:Generated_Source\PSoC4/mUART_UART.c ****     *
 789:Generated_Source\PSoC4/mUART_UART.c ****     * \sideeffect
 790:Generated_Source\PSoC4/mUART_UART.c ****     * If this function is called while there is data in the TX FIFO or shifter that
 791:Generated_Source\PSoC4/mUART_UART.c ****     * data will be shifted out in packets the size of breakWidth.
ARM GAS  C:\Users\PC\AppData\Local\Temp\ccwnvNtc.s 			page 27


 792:Generated_Source\PSoC4/mUART_UART.c ****     *
 793:Generated_Source\PSoC4/mUART_UART.c ****     *******************************************************************************/
 794:Generated_Source\PSoC4/mUART_UART.c ****     void mUART_UartSendBreakBlocking(uint32 breakWidth)
 795:Generated_Source\PSoC4/mUART_UART.c ****     {
 689              		.loc 1 795 0
 690              		.cfi_startproc
 691              		@ args = 0, pretend = 0, frame = 0
 692              		@ frame_needed = 0, uses_anonymous_args = 0
 693              	.LVL45:
 694 0000 70B5     		push	{r4, r5, r6, lr}
 695              		.cfi_def_cfa_offset 16
 696              		.cfi_offset 4, -16
 697              		.cfi_offset 5, -12
 698              		.cfi_offset 6, -8
 699              		.cfi_offset 14, -4
 700 0002 0300     		movs	r3, r0
 796:Generated_Source\PSoC4/mUART_UART.c ****         uint32 txCtrlReg;
 797:Generated_Source\PSoC4/mUART_UART.c ****         uint32 txIntrReg;
 798:Generated_Source\PSoC4/mUART_UART.c **** 
 799:Generated_Source\PSoC4/mUART_UART.c ****         /* Disable all UART TX interrupt source and clear UART TX Done history */
 800:Generated_Source\PSoC4/mUART_UART.c ****         txIntrReg = mUART_GetTxInterruptMode();
 701              		.loc 1 800 0
 702 0004 0F4A     		ldr	r2, .L52
 703 0006 1568     		ldr	r5, [r2]
 704              	.LVL46:
 801:Generated_Source\PSoC4/mUART_UART.c ****         mUART_SetTxInterruptMode(0u);
 705              		.loc 1 801 0
 706 0008 0024     		movs	r4, #0
 707 000a 1460     		str	r4, [r2]
 802:Generated_Source\PSoC4/mUART_UART.c ****         mUART_ClearTxInterruptSource(mUART_INTR_TX_UART_DONE);
 708              		.loc 1 802 0
 709 000c 8021     		movs	r1, #128
 710 000e 8900     		lsls	r1, r1, #2
 711 0010 0D4A     		ldr	r2, .L52+4
 712 0012 1160     		str	r1, [r2]
 803:Generated_Source\PSoC4/mUART_UART.c **** 
 804:Generated_Source\PSoC4/mUART_UART.c ****         /* Store TX CTRL configuration */
 805:Generated_Source\PSoC4/mUART_UART.c ****         txCtrlReg = mUART_TX_CTRL_REG;
 713              		.loc 1 805 0
 714 0014 0D4A     		ldr	r2, .L52+8
 715 0016 1668     		ldr	r6, [r2]
 716              	.LVL47:
 806:Generated_Source\PSoC4/mUART_UART.c **** 
 807:Generated_Source\PSoC4/mUART_UART.c ****         /* Set break width */
 808:Generated_Source\PSoC4/mUART_UART.c ****         mUART_TX_CTRL_REG = (mUART_TX_CTRL_REG & (uint32) ~mUART_TX_CTRL_DATA_WIDTH_MASK) |
 717              		.loc 1 808 0
 718 0018 1168     		ldr	r1, [r2]
 719 001a 0F20     		movs	r0, #15
 720              	.LVL48:
 721 001c 8143     		bics	r1, r0
 809:Generated_Source\PSoC4/mUART_UART.c ****                                         mUART_GET_TX_CTRL_DATA_WIDTH(breakWidth);
 722              		.loc 1 809 0
 723 001e 013B     		subs	r3, r3, #1
 724              	.LVL49:
 725 0020 1840     		ands	r0, r3
 808:Generated_Source\PSoC4/mUART_UART.c ****                                         mUART_GET_TX_CTRL_DATA_WIDTH(breakWidth);
 726              		.loc 1 808 0
ARM GAS  C:\Users\PC\AppData\Local\Temp\ccwnvNtc.s 			page 28


 727 0022 0843     		orrs	r0, r1
 728 0024 1060     		str	r0, [r2]
 810:Generated_Source\PSoC4/mUART_UART.c **** 
 811:Generated_Source\PSoC4/mUART_UART.c ****         /* Generate break */
 812:Generated_Source\PSoC4/mUART_UART.c ****         mUART_TX_FIFO_WR_REG = 0u;
 729              		.loc 1 812 0
 730 0026 0A4B     		ldr	r3, .L52+12
 731              	.LVL50:
 732 0028 1C60     		str	r4, [r3]
 733              	.L51:
 813:Generated_Source\PSoC4/mUART_UART.c **** 
 814:Generated_Source\PSoC4/mUART_UART.c ****         /* Wait for break completion */
 815:Generated_Source\PSoC4/mUART_UART.c ****         while (0u == (mUART_GetTxInterruptSource() & mUART_INTR_TX_UART_DONE))
 734              		.loc 1 815 0 discriminator 1
 735 002a 074B     		ldr	r3, .L52+4
 736 002c 1B68     		ldr	r3, [r3]
 737 002e 9B05     		lsls	r3, r3, #22
 738 0030 FBD5     		bpl	.L51
 816:Generated_Source\PSoC4/mUART_UART.c ****         {
 817:Generated_Source\PSoC4/mUART_UART.c ****         }
 818:Generated_Source\PSoC4/mUART_UART.c **** 
 819:Generated_Source\PSoC4/mUART_UART.c ****         /* Clear all UART TX interrupt sources to  */
 820:Generated_Source\PSoC4/mUART_UART.c ****         mUART_ClearTxInterruptSource(mUART_INTR_TX_ALL);
 739              		.loc 1 820 0
 740 0032 084A     		ldr	r2, .L52+16
 741 0034 044B     		ldr	r3, .L52+4
 742 0036 1A60     		str	r2, [r3]
 821:Generated_Source\PSoC4/mUART_UART.c **** 
 822:Generated_Source\PSoC4/mUART_UART.c ****         /* Restore TX interrupt sources and data width */
 823:Generated_Source\PSoC4/mUART_UART.c ****         mUART_TX_CTRL_REG = txCtrlReg;
 743              		.loc 1 823 0
 744 0038 044B     		ldr	r3, .L52+8
 745 003a 1E60     		str	r6, [r3]
 824:Generated_Source\PSoC4/mUART_UART.c ****         mUART_SetTxInterruptMode(txIntrReg);
 746              		.loc 1 824 0
 747 003c 014B     		ldr	r3, .L52
 748 003e 1D60     		str	r5, [r3]
 825:Generated_Source\PSoC4/mUART_UART.c ****     }
 749              		.loc 1 825 0
 750              		@ sp needed
 751              	.LVL51:
 752              	.LVL52:
 753 0040 70BD     		pop	{r4, r5, r6, pc}
 754              	.L53:
 755 0042 C046     		.align	2
 756              	.L52:
 757 0044 880F0840 		.word	1074270088
 758 0048 800F0840 		.word	1074270080
 759 004c 00020840 		.word	1074266624
 760 0050 40020840 		.word	1074266688
 761 0054 F3070000 		.word	2035
 762              		.cfi_endproc
 763              	.LFE15:
 764              		.size	mUART_UartSendBreakBlocking, .-mUART_UartSendBreakBlocking
 765              		.text
 766              	.Letext0:
 767              		.file 2 "Generated_Source\\PSoC4/cytypes.h"
ARM GAS  C:\Users\PC\AppData\Local\Temp\ccwnvNtc.s 			page 29


 768              		.file 3 "Generated_Source\\PSoC4/CyLib.h"
 769              		.file 4 "Generated_Source\\PSoC4\\mUART_SPI_UART.h"
 770              		.file 5 "Generated_Source\\PSoC4\\mUART_PVT.h"