ARM GAS  C:\Users\PC\AppData\Local\Temp\cc0ocRbV.s 			page 1


   1              		.syntax unified
   2              		.cpu cortex-m0plus
   3              		.fpu softvfp
   4              		.eabi_attribute 20, 1
   5              		.eabi_attribute 21, 1
   6              		.eabi_attribute 23, 3
   7              		.eabi_attribute 24, 1
   8              		.eabi_attribute 25, 1
   9              		.eabi_attribute 26, 1
  10              		.eabi_attribute 30, 4
  11              		.eabi_attribute 34, 0
  12              		.eabi_attribute 18, 4
  13              		.thumb
  14              		.syntax unified
  15              		.file	"main.c"
  16              		.text
  17              	.Ltext0:
  18              		.cfi_sections	.debug_frame
  19              		.section	.text.println,"ax",%progbits
  20              		.align	1
  21              		.global	println
  22              		.code	16
  23              		.thumb_func
  24              		.type	println, %function
  25              	println:
  26              	.LFB34:
  27              		.file 1 "main.c"
   1:main.c        **** /* ========================================
   2:main.c        ****  *
   3:main.c        ****  * Copyright YOUR COMPANY, THE YEAR
   4:main.c        ****  * All Rights Reserved
   5:main.c        ****  * UNPUBLISHED, LICENSED SOFTWARE.
   6:main.c        ****  *
   7:main.c        ****  * CONFIDENTIAL AND PROPRIETARY INFORMATION
   8:main.c        ****  * WHICH IS THE PROPERTY OF your company.
   9:main.c        ****  *
  10:main.c        ****  * ========================================
  11:main.c        **** */
  12:main.c        **** #include <stdio.h>
  13:main.c        **** #include <math.h>
  14:main.c        **** #include "project.h"
  15:main.c        **** 
  16:main.c        **** typedef char *String;
  17:main.c        **** 
  18:main.c        **** void println(String str){
  28              		.loc 1 18 0
  29              		.cfi_startproc
  30              		@ args = 0, pretend = 0, frame = 0
  31              		@ frame_needed = 0, uses_anonymous_args = 0
  32              	.LVL0:
  33 0000 10B5     		push	{r4, lr}
  34              		.cfi_def_cfa_offset 8
  35              		.cfi_offset 4, -8
  36              		.cfi_offset 14, -4
  19:main.c        ****     mUART_UartPutString(str);
  37              		.loc 1 19 0
  38 0002 FFF7FEFF 		bl	mUART_UartPutString
ARM GAS  C:\Users\PC\AppData\Local\Temp\cc0ocRbV.s 			page 2


  39              	.LVL1:
  20:main.c        ****     mUART_UartPutString("\n");
  40              		.loc 1 20 0
  41 0006 0248     		ldr	r0, .L2
  42 0008 FFF7FEFF 		bl	mUART_UartPutString
  43              	.LVL2:
  21:main.c        **** }
  44              		.loc 1 21 0
  45              		@ sp needed
  46 000c 10BD     		pop	{r4, pc}
  47              	.L3:
  48 000e C046     		.align	2
  49              	.L2:
  50 0010 00000000 		.word	.LC0
  51              		.cfi_endproc
  52              	.LFE34:
  53              		.size	println, .-println
  54              		.section	.text.publicSetUp,"ax",%progbits
  55              		.align	1
  56              		.global	publicSetUp
  57              		.code	16
  58              		.thumb_func
  59              		.type	publicSetUp, %function
  60              	publicSetUp:
  61              	.LFB39:
  62              		.cfi_startproc
  63              		@ args = 0, pretend = 0, frame = 0
  64              		@ frame_needed = 0, uses_anonymous_args = 0
  65              		@ link register save eliminated.
  66 0000 014B     		ldr	r3, .L5
  67              		@ sp needed
  68 0002 0360     		str	r3, [r0]
  69 0004 7047     		bx	lr
  70              	.L6:
  71 0006 C046     		.align	2
  72              	.L5:
  73 0008 00000000 		.word	println
  74              		.cfi_endproc
  75              	.LFE39:
  76              		.size	publicSetUp, .-publicSetUp
  77              		.section	.text.privateSetUp,"ax",%progbits
  78              		.align	1
  79              		.global	privateSetUp
  80              		.code	16
  81              		.thumb_func
  82              		.type	privateSetUp, %function
  83              	privateSetUp:
  84              	.LFB36:
  22:main.c        **** 
  23:main.c        **** typedef struct _System{
  24:main.c        ****     struct _IN{   
  25:main.c        ****     
  26:main.c        ****     }in;
  27:main.c        ****     struct _OUT{
  28:main.c        ****         void (*println)(String);
  29:main.c        ****     }out;
  30:main.c        **** }system;
ARM GAS  C:\Users\PC\AppData\Local\Temp\cc0ocRbV.s 			page 3


  31:main.c        **** 
  32:main.c        **** void publicSetUp(system *System){
  33:main.c        ****     System->out.println = println;
  34:main.c        **** }
  35:main.c        **** 
  36:main.c        **** void privateSetUp(system *System){
  85              		.loc 1 36 0
  86              		.cfi_startproc
  87              		@ args = 0, pretend = 0, frame = 0
  88              		@ frame_needed = 0, uses_anonymous_args = 0
  89              		@ link register save eliminated.
  90              	.LVL3:
  91              	.LBB7:
  92              	.LBB8:
  33:main.c        **** }
  93              		.loc 1 33 0
  94 0000 014B     		ldr	r3, .L8
  95              	.LBE8:
  96              	.LBE7:
  37:main.c        ****     publicSetUp(System);
  38:main.c        **** }
  97              		.loc 1 38 0
  98              		@ sp needed
  99              	.LBB10:
 100              	.LBB9:
  33:main.c        **** }
 101              		.loc 1 33 0
 102 0002 0360     		str	r3, [r0]
 103              	.LVL4:
 104              	.LBE9:
 105              	.LBE10:
 106              		.loc 1 38 0
 107 0004 7047     		bx	lr
 108              	.L9:
 109 0006 C046     		.align	2
 110              	.L8:
 111 0008 00000000 		.word	println
 112              		.cfi_endproc
 113              	.LFE36:
 114              		.size	privateSetUp, .-privateSetUp
 115              		.global	__aeabi_dadd
 116              		.global	__aeabi_dcmpge
 117              		.global	__aeabi_dsub
 118              		.global	__aeabi_dmul
 119              		.global	__aeabi_ddiv
 120              		.global	__aeabi_d2iz
 121              		.section	.text.startup.main,"ax",%progbits
 122              		.align	1
 123              		.global	main
 124              		.code	16
 125              		.thumb_func
 126              		.type	main, %function
 127              	main:
 128              	.LFB37:
  39:main.c        **** 
  40:main.c        **** int main(void)
  41:main.c        **** {
ARM GAS  C:\Users\PC\AppData\Local\Temp\cc0ocRbV.s 			page 4


 129              		.loc 1 41 0
 130              		.cfi_startproc
 131              		@ args = 0, pretend = 0, frame = 56
 132              		@ frame_needed = 0, uses_anonymous_args = 0
 133 0000 F0B5     		push	{r4, r5, r6, r7, lr}
 134              		.cfi_def_cfa_offset 20
 135              		.cfi_offset 4, -20
 136              		.cfi_offset 5, -16
 137              		.cfi_offset 6, -12
 138              		.cfi_offset 7, -8
 139              		.cfi_offset 14, -4
 140 0002 91B0     		sub	sp, sp, #68
 141              		.cfi_def_cfa_offset 88
  42:main.c        ****     CyGlobalIntEnable; /* Enable global interrupts. */
 142              		.loc 1 42 0
 143              		.syntax divided
 144              	@ 42 "main.c" 1
 145 0004 62B6     		CPSIE   i
 146              	@ 0 "" 2
 147              	.LVL5:
  43:main.c        ****     
  44:main.c        ****     system System;
  45:main.c        ****     double angleR = 0,angleG = 120, angleB = 240;
  46:main.c        ****     
  47:main.c        ****     /* Place your initialization/startup code here (e.g. MyInst_Start()) */
  48:main.c        ****     publicSetUp(&System);
  49:main.c        ****     mUART_Start();
 148              		.loc 1 49 0
 149              		.thumb
 150              		.syntax unified
 151 0006 FFF7FEFF 		bl	mUART_Start
 152              	.LVL6:
  50:main.c        ****     mPWM0_Start();
 153              		.loc 1 50 0
 154 000a FFF7FEFF 		bl	mPWM0_Start
 155              	.LVL7:
  51:main.c        ****     mPWM1_Start();
 156              		.loc 1 51 0
 157 000e FFF7FEFF 		bl	mPWM1_Start
 158              	.LVL8:
  52:main.c        ****     mPWM2_Start();
 159              		.loc 1 52 0
 160 0012 FFF7FEFF 		bl	mPWM2_Start
 161              	.LVL9:
  45:main.c        ****     
 162              		.loc 1 45 0
 163 0016 0022     		movs	r2, #0
 164 0018 0023     		movs	r3, #0
 165 001a 0026     		movs	r6, #0
 166 001c 0024     		movs	r4, #0
 167 001e 0292     		str	r2, [sp, #8]
 168 0020 0393     		str	r3, [sp, #12]
 169 0022 534F     		ldr	r7, .L22
 170 0024 534D     		ldr	r5, .L22+4
 171              	.LVL10:
 172              	.L17:
 173              	.LBB11:
ARM GAS  C:\Users\PC\AppData\Local\Temp\cc0ocRbV.s 			page 5


  53:main.c        ****     for(;;)
  54:main.c        ****     {   
  55:main.c        ****         angleR++;
 174              		.loc 1 55 0
 175 0026 0022     		movs	r2, #0
 176 0028 0298     		ldr	r0, [sp, #8]
 177 002a 0399     		ldr	r1, [sp, #12]
 178 002c 524B     		ldr	r3, .L22+8
 179 002e FFF7FEFF 		bl	__aeabi_dadd
 180              	.LVL11:
  56:main.c        ****         angleG++;
 181              		.loc 1 56 0
 182 0032 0022     		movs	r2, #0
  55:main.c        ****         angleG++;
 183              		.loc 1 55 0
 184 0034 0290     		str	r0, [sp, #8]
 185 0036 0391     		str	r1, [sp, #12]
 186              	.LVL12:
 187              		.loc 1 56 0
 188 0038 4F4B     		ldr	r3, .L22+8
 189 003a 2000     		movs	r0, r4
 190              	.LVL13:
 191 003c 2900     		movs	r1, r5
 192 003e FFF7FEFF 		bl	__aeabi_dadd
 193              	.LVL14:
  57:main.c        ****         angleB++;
 194              		.loc 1 57 0
 195 0042 0022     		movs	r2, #0
 196 0044 4C4B     		ldr	r3, .L22+8
  56:main.c        ****         angleG++;
 197              		.loc 1 56 0
 198 0046 0400     		movs	r4, r0
 199              	.LVL15:
 200 0048 0D00     		movs	r5, r1
 201              	.LVL16:
 202              		.loc 1 57 0
 203 004a 3000     		movs	r0, r6
 204 004c 3900     		movs	r1, r7
 205 004e FFF7FEFF 		bl	__aeabi_dadd
 206              	.LVL17:
  58:main.c        ****         if(angleR >= 360) angleR -= 360;
 207              		.loc 1 58 0
 208 0052 0022     		movs	r2, #0
  57:main.c        ****         angleB++;
 209              		.loc 1 57 0
 210 0054 0600     		movs	r6, r0
 211              	.LVL18:
 212 0056 0F00     		movs	r7, r1
 213              	.LVL19:
 214              		.loc 1 58 0
 215 0058 0298     		ldr	r0, [sp, #8]
 216 005a 0399     		ldr	r1, [sp, #12]
 217 005c 474B     		ldr	r3, .L22+12
 218 005e FFF7FEFF 		bl	__aeabi_dcmpge
 219              	.LVL20:
 220 0062 0028     		cmp	r0, #0
 221 0064 07D0     		beq	.L11
ARM GAS  C:\Users\PC\AppData\Local\Temp\cc0ocRbV.s 			page 6


 222              		.loc 1 58 0 is_stmt 0 discriminator 1
 223 0066 0298     		ldr	r0, [sp, #8]
 224 0068 0399     		ldr	r1, [sp, #12]
 225 006a 0022     		movs	r2, #0
 226 006c 434B     		ldr	r3, .L22+12
 227 006e FFF7FEFF 		bl	__aeabi_dsub
 228              	.LVL21:
 229 0072 0290     		str	r0, [sp, #8]
 230 0074 0391     		str	r1, [sp, #12]
 231              	.LVL22:
 232              	.L11:
  59:main.c        ****         if(angleG >= 360) angleG -= 360; 
 233              		.loc 1 59 0 is_stmt 1
 234 0076 0022     		movs	r2, #0
 235 0078 404B     		ldr	r3, .L22+12
 236 007a 2000     		movs	r0, r4
 237 007c 2900     		movs	r1, r5
 238 007e FFF7FEFF 		bl	__aeabi_dcmpge
 239              	.LVL23:
 240 0082 0028     		cmp	r0, #0
 241 0084 07D0     		beq	.L13
 242              		.loc 1 59 0 is_stmt 0 discriminator 1
 243 0086 2000     		movs	r0, r4
 244 0088 2900     		movs	r1, r5
 245 008a 0022     		movs	r2, #0
 246 008c 3B4B     		ldr	r3, .L22+12
 247 008e FFF7FEFF 		bl	__aeabi_dsub
 248              	.LVL24:
 249 0092 0400     		movs	r4, r0
 250              	.LVL25:
 251 0094 0D00     		movs	r5, r1
 252              	.LVL26:
 253              	.L13:
  60:main.c        ****         if(angleB >= 360) angleB -= 360;
 254              		.loc 1 60 0 is_stmt 1
 255 0096 0022     		movs	r2, #0
 256 0098 384B     		ldr	r3, .L22+12
 257 009a 3000     		movs	r0, r6
 258 009c 3900     		movs	r1, r7
 259 009e FFF7FEFF 		bl	__aeabi_dcmpge
 260              	.LVL27:
 261 00a2 0028     		cmp	r0, #0
 262 00a4 07D0     		beq	.L15
 263              		.loc 1 60 0 is_stmt 0 discriminator 1
 264 00a6 3000     		movs	r0, r6
 265 00a8 3900     		movs	r1, r7
 266 00aa 0022     		movs	r2, #0
 267 00ac 334B     		ldr	r3, .L22+12
 268 00ae FFF7FEFF 		bl	__aeabi_dsub
 269              	.LVL28:
 270 00b2 0600     		movs	r6, r0
 271              	.LVL29:
 272 00b4 0F00     		movs	r7, r1
 273              	.LVL30:
 274              	.L15:
  61:main.c        ****         int valR = (int)(sin(angleR * 3.14 / 180) * 500 + 500);
 275              		.loc 1 61 0 is_stmt 1
ARM GAS  C:\Users\PC\AppData\Local\Temp\cc0ocRbV.s 			page 7


 276 00b6 0298     		ldr	r0, [sp, #8]
 277 00b8 0399     		ldr	r1, [sp, #12]
 278 00ba 314A     		ldr	r2, .L22+16
 279 00bc 314B     		ldr	r3, .L22+20
 280 00be FFF7FEFF 		bl	__aeabi_dmul
 281              	.LVL31:
 282 00c2 0022     		movs	r2, #0
 283 00c4 304B     		ldr	r3, .L22+24
 284 00c6 FFF7FEFF 		bl	__aeabi_ddiv
 285              	.LVL32:
 286 00ca FFF7FEFF 		bl	sin
 287              	.LVL33:
 288 00ce 0022     		movs	r2, #0
 289 00d0 2E4B     		ldr	r3, .L22+28
 290 00d2 FFF7FEFF 		bl	__aeabi_dmul
 291              	.LVL34:
 292 00d6 0022     		movs	r2, #0
 293 00d8 2C4B     		ldr	r3, .L22+28
 294 00da FFF7FEFF 		bl	__aeabi_dadd
 295              	.LVL35:
 296 00de FFF7FEFF 		bl	__aeabi_d2iz
 297              	.LVL36:
  62:main.c        ****         int valG = (int)(sin(angleG * 3.14 / 180) * 500 + 500);
 298              		.loc 1 62 0
 299 00e2 274A     		ldr	r2, .L22+16
  61:main.c        ****         int valR = (int)(sin(angleR * 3.14 / 180) * 500 + 500);
 300              		.loc 1 61 0
 301 00e4 0590     		str	r0, [sp, #20]
 302              	.LVL37:
 303              		.loc 1 62 0
 304 00e6 274B     		ldr	r3, .L22+20
 305 00e8 2000     		movs	r0, r4
 306              	.LVL38:
 307 00ea 2900     		movs	r1, r5
 308 00ec FFF7FEFF 		bl	__aeabi_dmul
 309              	.LVL39:
 310 00f0 0022     		movs	r2, #0
 311 00f2 254B     		ldr	r3, .L22+24
 312 00f4 FFF7FEFF 		bl	__aeabi_ddiv
 313              	.LVL40:
 314 00f8 FFF7FEFF 		bl	sin
 315              	.LVL41:
 316 00fc 0022     		movs	r2, #0
 317 00fe 234B     		ldr	r3, .L22+28
 318 0100 FFF7FEFF 		bl	__aeabi_dmul
 319              	.LVL42:
 320 0104 0022     		movs	r2, #0
 321 0106 214B     		ldr	r3, .L22+28
 322 0108 FFF7FEFF 		bl	__aeabi_dadd
 323              	.LVL43:
 324 010c FFF7FEFF 		bl	__aeabi_d2iz
 325              	.LVL44:
  63:main.c        ****         int valB = (int)(sin(angleB * 3.14 / 180) * 500 + 500);
 326              		.loc 1 63 0
 327 0110 1B4A     		ldr	r2, .L22+16
  62:main.c        ****         int valG = (int)(sin(angleG * 3.14 / 180) * 500 + 500);
 328              		.loc 1 62 0
ARM GAS  C:\Users\PC\AppData\Local\Temp\cc0ocRbV.s 			page 8


 329 0112 0690     		str	r0, [sp, #24]
 330              	.LVL45:
 331              		.loc 1 63 0
 332 0114 1B4B     		ldr	r3, .L22+20
 333 0116 3000     		movs	r0, r6
 334              	.LVL46:
 335 0118 3900     		movs	r1, r7
 336 011a FFF7FEFF 		bl	__aeabi_dmul
 337              	.LVL47:
 338 011e 0022     		movs	r2, #0
 339 0120 194B     		ldr	r3, .L22+24
 340 0122 FFF7FEFF 		bl	__aeabi_ddiv
 341              	.LVL48:
 342 0126 FFF7FEFF 		bl	sin
 343              	.LVL49:
 344 012a 0022     		movs	r2, #0
 345 012c 174B     		ldr	r3, .L22+28
 346 012e FFF7FEFF 		bl	__aeabi_dmul
 347              	.LVL50:
 348 0132 0022     		movs	r2, #0
 349 0134 154B     		ldr	r3, .L22+28
 350 0136 FFF7FEFF 		bl	__aeabi_dadd
 351              	.LVL51:
 352 013a FFF7FEFF 		bl	__aeabi_d2iz
 353              	.LVL52:
 354 013e 0790     		str	r0, [sp, #28]
 355              	.LVL53:
  64:main.c        ****         mPWM0_WriteCompare(valR);
 356              		.loc 1 64 0
 357 0140 0598     		ldr	r0, [sp, #20]
 358              	.LVL54:
 359 0142 FFF7FEFF 		bl	mPWM0_WriteCompare
 360              	.LVL55:
  65:main.c        ****         mPWM1_WriteCompare(valG);
 361              		.loc 1 65 0
 362 0146 0698     		ldr	r0, [sp, #24]
 363 0148 FFF7FEFF 		bl	mPWM1_WriteCompare
 364              	.LVL56:
  66:main.c        ****         mPWM2_WriteCompare(valB);
 365              		.loc 1 66 0
 366 014c 0798     		ldr	r0, [sp, #28]
 367 014e FFF7FEFF 		bl	mPWM2_WriteCompare
 368              	.LVL57:
  67:main.c        ****         CyDelay(1);
 369              		.loc 1 67 0
 370 0152 0120     		movs	r0, #1
 371 0154 FFF7FEFF 		bl	CyDelay
 372              	.LVL58:
  68:main.c        ****         char str[30];
  69:main.c        ****         sprintf(str, "%d %d %d", valR, valG, valB);
 373              		.loc 1 69 0
 374 0158 079B     		ldr	r3, [sp, #28]
 375 015a 059A     		ldr	r2, [sp, #20]
 376 015c 0093     		str	r3, [sp]
 377 015e 0C49     		ldr	r1, .L22+32
 378 0160 069B     		ldr	r3, [sp, #24]
 379 0162 08A8     		add	r0, sp, #32
ARM GAS  C:\Users\PC\AppData\Local\Temp\cc0ocRbV.s 			page 9


 380 0164 FFF7FEFF 		bl	sprintf
 381              	.LVL59:
  70:main.c        ****         System.out.println(str);
 382              		.loc 1 70 0
 383 0168 08A8     		add	r0, sp, #32
 384 016a FFF7FEFF 		bl	println
 385              	.LVL60:
 386              	.LBE11:
  71:main.c        ****     }
 387              		.loc 1 71 0
 388 016e 5AE7     		b	.L17
 389              	.L23:
 390              		.align	2
 391              	.L22:
 392 0170 00006E40 		.word	1080950784
 393 0174 00005E40 		.word	1079902208
 394 0178 0000F03F 		.word	1072693248
 395 017c 00807640 		.word	1081507840
 396 0180 1F85EB51 		.word	1374389535
 397 0184 B81E0940 		.word	1074339512
 398 0188 00806640 		.word	1080459264
 399 018c 00407F40 		.word	1082081280
 400 0190 02000000 		.word	.LC4
 401              		.cfi_endproc
 402              	.LFE37:
 403              		.size	main, .-main
 404              		.section	.rodata.str1.1,"aMS",%progbits,1
 405              	.LC0:
 406 0000 0A00     		.ascii	"\012\000"
 407              	.LC4:
 408 0002 25642025 		.ascii	"%d %d %d\000"
 408      64202564 
 408      00
 409              		.text
 410              	.Letext0:
 411              		.file 2 "Generated_Source\\PSoC4/mUART_SPI_UART.h"
 412              		.file 3 "Generated_Source\\PSoC4/mPWM0.h"
 413              		.file 4 "Generated_Source\\PSoC4/mPWM1.h"
 414              		.file 5 "Generated_Source\\PSoC4/mPWM2.h"
 415              		.file 6 "Generated_Source\\PSoC4/CyLib.h"
 416              		.file 7 "c:\\program files (x86)\\cypress\\psoc creator\\4.4\\psoc creator\\import\\gnu\\arm\\5.4.
 417              		.file 8 "Generated_Source\\PSoC4/mUART.h"
 418              		.file 9 "c:\\program files (x86)\\cypress\\psoc creator\\4.4\\psoc creator\\import\\gnu\\arm\\5.4.