ARM GAS  C:\Users\PC\AppData\Local\Temp\cc1Ej2IJ.s 			page 1


   1              		.syntax unified
   2              		.cpu cortex-m0plus
   3              		.fpu softvfp
   4              		.eabi_attribute 20, 1
   5              		.eabi_attribute 21, 1
   6              		.eabi_attribute 23, 3
   7              		.eabi_attribute 24, 1
   8              		.eabi_attribute 25, 1
   9              		.eabi_attribute 26, 1
  10              		.eabi_attribute 30, 4
  11              		.eabi_attribute 34, 0
  12              		.eabi_attribute 18, 4
  13              		.thumb
  14              		.syntax unified
  15              		.file	"mBootloadable.c"
  16              		.text
  17              	.Ltext0:
  18              		.cfi_sections	.debug_frame
  19              		.section	.text.mBootloadable_Load,"ax",%progbits
  20              		.align	1
  21              		.global	mBootloadable_Load
  22              		.code	16
  23              		.thumb_func
  24              		.type	mBootloadable_Load, %function
  25              	mBootloadable_Load:
  26              	.LFB1:
  27              		.file 1 "Generated_Source\\PSoC4\\mBootloadable.c"
   1:Generated_Source\PSoC4/mBootloadable.c **** /****************************************************************************//**
   2:Generated_Source\PSoC4/mBootloadable.c **** * \file mBootloadable.c
   3:Generated_Source\PSoC4/mBootloadable.c **** * \version 1.60
   4:Generated_Source\PSoC4/mBootloadable.c **** *
   5:Generated_Source\PSoC4/mBootloadable.c **** * \brief
   6:Generated_Source\PSoC4/mBootloadable.c **** *   Provides an API for the Bootloadable application.
   7:Generated_Source\PSoC4/mBootloadable.c **** *
   8:Generated_Source\PSoC4/mBootloadable.c **** ********************************************************************************
   9:Generated_Source\PSoC4/mBootloadable.c **** * \copyright
  10:Generated_Source\PSoC4/mBootloadable.c **** * Copyright 2008-2015, Cypress Semiconductor Corporation.  All rights reserved.
  11:Generated_Source\PSoC4/mBootloadable.c **** * You may use this file only in accordance with the license, terms, conditions,
  12:Generated_Source\PSoC4/mBootloadable.c **** * disclaimers, and limitations in the end user license agreement accompanying
  13:Generated_Source\PSoC4/mBootloadable.c **** * the software package with which this file was provided.
  14:Generated_Source\PSoC4/mBootloadable.c **** *******************************************************************************/
  15:Generated_Source\PSoC4/mBootloadable.c **** 
  16:Generated_Source\PSoC4/mBootloadable.c **** #include "mBootloadable.h"
  17:Generated_Source\PSoC4/mBootloadable.c **** 
  18:Generated_Source\PSoC4/mBootloadable.c **** /**
  19:Generated_Source\PSoC4/mBootloadable.c ****  \defgroup functions_group Functions
  20:Generated_Source\PSoC4/mBootloadable.c ****  @{
  21:Generated_Source\PSoC4/mBootloadable.c **** */
  22:Generated_Source\PSoC4/mBootloadable.c **** 
  23:Generated_Source\PSoC4/mBootloadable.c **** #if (CYDEV_PROJ_TYPE == CYDEV_PROJ_TYPE_LOADABLEANDBOOTLOADER)
  24:Generated_Source\PSoC4/mBootloadable.c **** static cystatus mBootloadable_WriteFlashByte(const uint32 address, const uint8 inputValue) CYLARGE 
  25:Generated_Source\PSoC4/mBootloadable.c ****                                ;
  26:Generated_Source\PSoC4/mBootloadable.c **** #endif /*(CYDEV_PROJ_TYPE == CYDEV_PROJ_TYPE_LOADABLEANDBOOTLOADER)*/
  27:Generated_Source\PSoC4/mBootloadable.c **** 
  28:Generated_Source\PSoC4/mBootloadable.c **** /*******************************************************************************
  29:Generated_Source\PSoC4/mBootloadable.c **** * Function Name: mBootloadable_Load
  30:Generated_Source\PSoC4/mBootloadable.c **** ****************************************************************************//**
ARM GAS  C:\Users\PC\AppData\Local\Temp\cc1Ej2IJ.s 			page 2


  31:Generated_Source\PSoC4/mBootloadable.c **** *
  32:Generated_Source\PSoC4/mBootloadable.c **** * \brief
  33:Generated_Source\PSoC4/mBootloadable.c **** *  Schedules the Bootloader/Launcher to be launched and then performs
  34:Generated_Source\PSoC4/mBootloadable.c **** *  a software reset to launch it
  35:Generated_Source\PSoC4/mBootloadable.c **** *
  36:Generated_Source\PSoC4/mBootloadable.c **** * \return
  37:Generated_Source\PSoC4/mBootloadable.c **** *  This method will never return. It will load a new application and reset
  38:Generated_Source\PSoC4/mBootloadable.c **** *  the device.
  39:Generated_Source\PSoC4/mBootloadable.c **** *
  40:Generated_Source\PSoC4/mBootloadable.c **** *******************************************************************************/
  41:Generated_Source\PSoC4/mBootloadable.c **** void mBootloadable_Load(void) 
  42:Generated_Source\PSoC4/mBootloadable.c **** {
  28              		.loc 1 42 0
  29              		.cfi_startproc
  30              		@ args = 0, pretend = 0, frame = 0
  31              		@ frame_needed = 0, uses_anonymous_args = 0
  43:Generated_Source\PSoC4/mBootloadable.c ****     /* Schedule Bootloader to start after reset */
  44:Generated_Source\PSoC4/mBootloadable.c ****     mBootloadable_SET_RUN_TYPE(mBootloadable_SCHEDULE_BTLDR);
  32              		.loc 1 44 0
  33 0000 4022     		movs	r2, #64
  42:Generated_Source\PSoC4/mBootloadable.c ****     /* Schedule Bootloader to start after reset */
  34              		.loc 1 42 0
  35 0002 10B5     		push	{r4, lr}
  36              		.cfi_def_cfa_offset 8
  37              		.cfi_offset 4, -8
  38              		.cfi_offset 14, -4
  39              		.loc 1 44 0
  40 0004 024B     		ldr	r3, .L2
  45:Generated_Source\PSoC4/mBootloadable.c **** 
  46:Generated_Source\PSoC4/mBootloadable.c ****     CySoftwareReset();
  47:Generated_Source\PSoC4/mBootloadable.c **** }
  41              		.loc 1 47 0
  42              		@ sp needed
  44:Generated_Source\PSoC4/mBootloadable.c **** 
  43              		.loc 1 44 0
  44 0006 1A60     		str	r2, [r3]
  46:Generated_Source\PSoC4/mBootloadable.c **** }
  45              		.loc 1 46 0
  46 0008 FFF7FEFF 		bl	CySoftwareReset
  47              	.LVL0:
  48              		.loc 1 47 0
  49 000c 10BD     		pop	{r4, pc}
  50              	.L3:
  51 000e C046     		.align	2
  52              	.L2:
  53 0010 00000000 		.word	cyBtldrRunType
  54              		.cfi_endproc
  55              	.LFE1:
  56              		.size	mBootloadable_Load, .-mBootloadable_Load
  57              		.section	.text.mBootloadable_SetFlashByte,"ax",%progbits
  58              		.align	1
  59              		.global	mBootloadable_SetFlashByte
  60              		.code	16
  61              		.thumb_func
  62              		.type	mBootloadable_SetFlashByte, %function
  63              	mBootloadable_SetFlashByte:
  64              	.LFB2:
ARM GAS  C:\Users\PC\AppData\Local\Temp\cc1Ej2IJ.s 			page 3


  48:Generated_Source\PSoC4/mBootloadable.c **** 
  49:Generated_Source\PSoC4/mBootloadable.c **** #if (CYDEV_PROJ_TYPE == CYDEV_PROJ_TYPE_LOADABLEANDBOOTLOADER)
  50:Generated_Source\PSoC4/mBootloadable.c **** /*******************************************************************************
  51:Generated_Source\PSoC4/mBootloadable.c **** * Function Name: mBootloadable_GetActiveApplication
  52:Generated_Source\PSoC4/mBootloadable.c **** ****************************************************************************//**
  53:Generated_Source\PSoC4/mBootloadable.c **** *
  54:Generated_Source\PSoC4/mBootloadable.c **** * \brief
  55:Generated_Source\PSoC4/mBootloadable.c **** *   Gets the application which will be loaded after a next reset event.
  56:Generated_Source\PSoC4/mBootloadable.c **** *   NOTE Intended for the combination project type ONLY!
  57:Generated_Source\PSoC4/mBootloadable.c **** *
  58:Generated_Source\PSoC4/mBootloadable.c **** * \return 
  59:Generated_Source\PSoC4/mBootloadable.c **** *  A number of the current active application set in the metadata section.
  60:Generated_Source\PSoC4/mBootloadable.c **** *  \n  0 - app#0 is set as active.
  61:Generated_Source\PSoC4/mBootloadable.c **** *  \n  1 - app#1 is set as active.
  62:Generated_Source\PSoC4/mBootloadable.c **** *
  63:Generated_Source\PSoC4/mBootloadable.c **** * \note If neither of the applications is set active, then the API returns 0x02.
  64:Generated_Source\PSoC4/mBootloadable.c **** *
  65:Generated_Source\PSoC4/mBootloadable.c **** *******************************************************************************/
  66:Generated_Source\PSoC4/mBootloadable.c **** uint8 mBootloadable_GetActiveApplication(void) CYSMALL \
  67:Generated_Source\PSoC4/mBootloadable.c ****                           
  68:Generated_Source\PSoC4/mBootloadable.c **** {   
  69:Generated_Source\PSoC4/mBootloadable.c ****     uint8 result = mBootloadable_MD_BTLDB_ACTIVE_NONE;
  70:Generated_Source\PSoC4/mBootloadable.c ****     
  71:Generated_Source\PSoC4/mBootloadable.c ****     if (0u != mBootloadable_GET_CODE_DATA( \
  72:Generated_Source\PSoC4/mBootloadable.c ****               mBootloadable_MD_BTLDB_ACTIVE_OFFSET(mBootloadable_MD_BTLDB_ACTIVE_0))) 
  73:Generated_Source\PSoC4/mBootloadable.c ****     {
  74:Generated_Source\PSoC4/mBootloadable.c ****         result = mBootloadable_MD_BTLDB_ACTIVE_0;
  75:Generated_Source\PSoC4/mBootloadable.c ****     }
  76:Generated_Source\PSoC4/mBootloadable.c ****     else if (0u != mBootloadable_GET_CODE_DATA( \
  77:Generated_Source\PSoC4/mBootloadable.c ****                    mBootloadable_MD_BTLDB_ACTIVE_OFFSET(mBootloadable_MD_BTLDB_ACTIVE_1)))
  78:Generated_Source\PSoC4/mBootloadable.c ****     {
  79:Generated_Source\PSoC4/mBootloadable.c ****         result = mBootloadable_MD_BTLDB_ACTIVE_1;    
  80:Generated_Source\PSoC4/mBootloadable.c ****     }
  81:Generated_Source\PSoC4/mBootloadable.c ****     else
  82:Generated_Source\PSoC4/mBootloadable.c ****     {
  83:Generated_Source\PSoC4/mBootloadable.c ****         /*Do nothing, result is none*/
  84:Generated_Source\PSoC4/mBootloadable.c ****     }
  85:Generated_Source\PSoC4/mBootloadable.c ****     
  86:Generated_Source\PSoC4/mBootloadable.c ****     return (result);
  87:Generated_Source\PSoC4/mBootloadable.c **** }
  88:Generated_Source\PSoC4/mBootloadable.c **** 
  89:Generated_Source\PSoC4/mBootloadable.c **** /*******************************************************************************
  90:Generated_Source\PSoC4/mBootloadable.c **** * Function Name: mBootloadable_SetActiveApplication
  91:Generated_Source\PSoC4/mBootloadable.c **** ****************************************************************************//**
  92:Generated_Source\PSoC4/mBootloadable.c **** *
  93:Generated_Source\PSoC4/mBootloadable.c **** * \brief 
  94:Generated_Source\PSoC4/mBootloadable.c **** *   Sets the application which will be loaded after a next reset event.          
  95:Generated_Source\PSoC4/mBootloadable.c **** *   
  96:Generated_Source\PSoC4/mBootloadable.c **** * \details
  97:Generated_Source\PSoC4/mBootloadable.c **** * Theory: 
  98:Generated_Source\PSoC4/mBootloadable.c **** *   This API sets in the Flash (metadata section) the given active application 
  99:Generated_Source\PSoC4/mBootloadable.c **** *   number.
 100:Generated_Source\PSoC4/mBootloadable.c **** *          
 101:Generated_Source\PSoC4/mBootloadable.c **** *   NOTE The active application number is not set directly, but the boolean 
 102:Generated_Source\PSoC4/mBootloadable.c **** *   mark instead means that the application is active or not for the relative 
 103:Generated_Source\PSoC4/mBootloadable.c **** *   metadata. Both metadata sections are updated. For example, if the second 
 104:Generated_Source\PSoC4/mBootloadable.c **** *   application is to be set active, then in the metadata section for the first 
ARM GAS  C:\Users\PC\AppData\Local\Temp\cc1Ej2IJ.s 			page 4


 105:Generated_Source\PSoC4/mBootloadable.c **** *   application there will be a "0" written, which means that it is not active, and 
 106:Generated_Source\PSoC4/mBootloadable.c **** *   for the second metadata section there will be a "1" written, which means that it is 
 107:Generated_Source\PSoC4/mBootloadable.c **** *   active. 
 108:Generated_Source\PSoC4/mBootloadable.c **** *
 109:Generated_Source\PSoC4/mBootloadable.c **** *   NOTE Intended for the combination project type ONLY!
 110:Generated_Source\PSoC4/mBootloadable.c **** *
 111:Generated_Source\PSoC4/mBootloadable.c **** * \param appId  
 112:Generated_Source\PSoC4/mBootloadable.c **** *   The active application number to be written to flash (metadata section) 
 113:Generated_Source\PSoC4/mBootloadable.c **** *   NOTE Possible values are:
 114:Generated_Source\PSoC4/mBootloadable.c **** *   0 - for the first application
 115:Generated_Source\PSoC4/mBootloadable.c **** *   1 - for the second application.
 116:Generated_Source\PSoC4/mBootloadable.c **** *   Any other number is considered invalid. 
 117:Generated_Source\PSoC4/mBootloadable.c **** *
 118:Generated_Source\PSoC4/mBootloadable.c **** * \return 
 119:Generated_Source\PSoC4/mBootloadable.c **** *   A status of writing to flash operation.
 120:Generated_Source\PSoC4/mBootloadable.c **** *   \n CYRET_SUCCESS - Returned if appId was successfully changed. 
 121:Generated_Source\PSoC4/mBootloadable.c **** *   \n CYRET_BAD_PARAM - Returned if the parameter appID passed to the function has the 
 122:Generated_Source\PSoC4/mBootloadable.c **** *                       same value as the active application ID. 
 123:Generated_Source\PSoC4/mBootloadable.c **** *   \note - The other non-zero value is considered as a failure during writing to flash.  
 124:Generated_Source\PSoC4/mBootloadable.c **** *
 125:Generated_Source\PSoC4/mBootloadable.c **** *   \note - This API does not update Bootloader_activeApp variable.
 126:Generated_Source\PSoC4/mBootloadable.c **** *
 127:Generated_Source\PSoC4/mBootloadable.c **** *******************************************************************************/
 128:Generated_Source\PSoC4/mBootloadable.c **** cystatus mBootloadable_SetActiveApplication(uint8 appId) CYSMALL \
 129:Generated_Source\PSoC4/mBootloadable.c ****                 
 130:Generated_Source\PSoC4/mBootloadable.c **** {
 131:Generated_Source\PSoC4/mBootloadable.c ****     cystatus result = CYRET_SUCCESS;
 132:Generated_Source\PSoC4/mBootloadable.c **** 
 133:Generated_Source\PSoC4/mBootloadable.c ****     uint8 CYDATA idx;
 134:Generated_Source\PSoC4/mBootloadable.c ****     
 135:Generated_Source\PSoC4/mBootloadable.c ****     /* If invalid application number */
 136:Generated_Source\PSoC4/mBootloadable.c ****     if (appId > mBootloadable_MD_BTLDB_ACTIVE_1)
 137:Generated_Source\PSoC4/mBootloadable.c ****     {
 138:Generated_Source\PSoC4/mBootloadable.c ****         result = CYRET_BAD_PARAM;
 139:Generated_Source\PSoC4/mBootloadable.c ****     }
 140:Generated_Source\PSoC4/mBootloadable.c ****     else
 141:Generated_Source\PSoC4/mBootloadable.c ****     {
 142:Generated_Source\PSoC4/mBootloadable.c ****         /* If appID has same value as active application ID */
 143:Generated_Source\PSoC4/mBootloadable.c ****         if (1u == mBootloadable_GET_CODE_DATA(mBootloadable_MD_BTLDB_ACTIVE_OFFSET(appId)))
 144:Generated_Source\PSoC4/mBootloadable.c ****         {
 145:Generated_Source\PSoC4/mBootloadable.c ****             result = CYRET_BAD_PARAM;
 146:Generated_Source\PSoC4/mBootloadable.c ****         }
 147:Generated_Source\PSoC4/mBootloadable.c ****         else
 148:Generated_Source\PSoC4/mBootloadable.c ****         {
 149:Generated_Source\PSoC4/mBootloadable.c ****             /* Updating metadata section */
 150:Generated_Source\PSoC4/mBootloadable.c ****             for(idx = 0u; idx < mBootloadable_MAX_NUM_OF_BTLDB; idx++)
 151:Generated_Source\PSoC4/mBootloadable.c ****             {
 152:Generated_Source\PSoC4/mBootloadable.c ****                 result |= mBootloadable_WriteFlashByte((uint32) mBootloadable_MD_BTLDB_ACTIVE_OFFSE
 153:Generated_Source\PSoC4/mBootloadable.c ****                                                                                             (uint8)
 154:Generated_Source\PSoC4/mBootloadable.c ****             }
 155:Generated_Source\PSoC4/mBootloadable.c ****         }
 156:Generated_Source\PSoC4/mBootloadable.c ****     }
 157:Generated_Source\PSoC4/mBootloadable.c ****     
 158:Generated_Source\PSoC4/mBootloadable.c ****     return (result);
 159:Generated_Source\PSoC4/mBootloadable.c **** }
 160:Generated_Source\PSoC4/mBootloadable.c **** 
 161:Generated_Source\PSoC4/mBootloadable.c **** /*******************************************************************************
ARM GAS  C:\Users\PC\AppData\Local\Temp\cc1Ej2IJ.s 			page 5


 162:Generated_Source\PSoC4/mBootloadable.c **** * Function Name: mBootloadable_WriteFlashByte
 163:Generated_Source\PSoC4/mBootloadable.c **** ****************************************************************************//**
 164:Generated_Source\PSoC4/mBootloadable.c **** *
 165:Generated_Source\PSoC4/mBootloadable.c **** * \brief 
 166:Generated_Source\PSoC4/mBootloadable.c **** *   This API writes to flash the specified data.
 167:Generated_Source\PSoC4/mBootloadable.c **** *
 168:Generated_Source\PSoC4/mBootloadable.c **** * \param address 
 169:Generated_Source\PSoC4/mBootloadable.c **** *   The address in flash.
 170:Generated_Source\PSoC4/mBootloadable.c **** *
 171:Generated_Source\PSoC4/mBootloadable.c **** * \param inputValue 
 172:Generated_Source\PSoC4/mBootloadable.c **** *   One-byte data.
 173:Generated_Source\PSoC4/mBootloadable.c **** *
 174:Generated_Source\PSoC4/mBootloadable.c **** * \return 
 175:Generated_Source\PSoC4/mBootloadable.c **** *   A status of the writing to flash procedure.
 176:Generated_Source\PSoC4/mBootloadable.c **** *
 177:Generated_Source\PSoC4/mBootloadable.c **** *******************************************************************************/
 178:Generated_Source\PSoC4/mBootloadable.c **** static cystatus mBootloadable_WriteFlashByte(const uint32 address, const uint8 inputValue) CYLARGE 
 179:Generated_Source\PSoC4/mBootloadable.c ****                                
 180:Generated_Source\PSoC4/mBootloadable.c **** {
 181:Generated_Source\PSoC4/mBootloadable.c ****     cystatus result = CYRET_SUCCESS;
 182:Generated_Source\PSoC4/mBootloadable.c ****     uint32 flsAddr = address - CYDEV_FLASH_BASE;
 183:Generated_Source\PSoC4/mBootloadable.c ****     uint8  rowData[CYDEV_FLS_ROW_SIZE];
 184:Generated_Source\PSoC4/mBootloadable.c **** 
 185:Generated_Source\PSoC4/mBootloadable.c ****     #if !(CY_PSOC4)
 186:Generated_Source\PSoC4/mBootloadable.c ****         uint8 arrayId = ( uint8 )(flsAddr / CYDEV_FLS_SECTOR_SIZE);
 187:Generated_Source\PSoC4/mBootloadable.c ****     #endif  /* !(CY_PSOC4) */
 188:Generated_Source\PSoC4/mBootloadable.c **** 
 189:Generated_Source\PSoC4/mBootloadable.c ****     #if (CY_PSOC4)
 190:Generated_Source\PSoC4/mBootloadable.c ****         uint16 rowNum = ( uint16 )(flsAddr / CYDEV_FLS_ROW_SIZE);
 191:Generated_Source\PSoC4/mBootloadable.c ****     #else
 192:Generated_Source\PSoC4/mBootloadable.c ****         uint16 rowNum = ( uint16 )((flsAddr % CYDEV_FLS_SECTOR_SIZE) / CYDEV_FLS_ROW_SIZE);
 193:Generated_Source\PSoC4/mBootloadable.c ****     #endif  /* (CY_PSOC4) */
 194:Generated_Source\PSoC4/mBootloadable.c **** 
 195:Generated_Source\PSoC4/mBootloadable.c ****     uint32 baseAddr = address - (address % CYDEV_FLS_ROW_SIZE);
 196:Generated_Source\PSoC4/mBootloadable.c ****     uint16 idx;
 197:Generated_Source\PSoC4/mBootloadable.c **** 
 198:Generated_Source\PSoC4/mBootloadable.c ****     for(idx = 0u; idx < CYDEV_FLS_ROW_SIZE; idx++)
 199:Generated_Source\PSoC4/mBootloadable.c ****     {
 200:Generated_Source\PSoC4/mBootloadable.c ****         rowData[idx] = (uint8)mBootloadable_GET_CODE_DATA(baseAddr + idx);
 201:Generated_Source\PSoC4/mBootloadable.c ****     }
 202:Generated_Source\PSoC4/mBootloadable.c **** 
 203:Generated_Source\PSoC4/mBootloadable.c ****     rowData[address % CYDEV_FLS_ROW_SIZE] = inputValue;
 204:Generated_Source\PSoC4/mBootloadable.c **** 
 205:Generated_Source\PSoC4/mBootloadable.c ****     #if(CY_PSOC4)
 206:Generated_Source\PSoC4/mBootloadable.c ****         result = CySysFlashWriteRow((uint32) rowNum, rowData);
 207:Generated_Source\PSoC4/mBootloadable.c ****     #else
 208:Generated_Source\PSoC4/mBootloadable.c ****         result = CyWriteRowData(arrayId, rowNum, rowData);
 209:Generated_Source\PSoC4/mBootloadable.c ****     #endif  /* (CY_PSOC4) */
 210:Generated_Source\PSoC4/mBootloadable.c **** 
 211:Generated_Source\PSoC4/mBootloadable.c ****     #if(CY_PSOC5)
 212:Generated_Source\PSoC4/mBootloadable.c ****         /***************************************************************************
 213:Generated_Source\PSoC4/mBootloadable.c ****         * When writing to flash, data in the instruction cache can become stale.
 214:Generated_Source\PSoC4/mBootloadable.c ****         * Therefore, the cache data does not correlate to the data just written to
 215:Generated_Source\PSoC4/mBootloadable.c ****         * flash. A call to CyFlushCache() is required to invalidate the data in the
 216:Generated_Source\PSoC4/mBootloadable.c ****         * cache and force fresh information to be loaded from flash.
 217:Generated_Source\PSoC4/mBootloadable.c ****         ***************************************************************************/
 218:Generated_Source\PSoC4/mBootloadable.c ****         CyFlushCache();
ARM GAS  C:\Users\PC\AppData\Local\Temp\cc1Ej2IJ.s 			page 6


 219:Generated_Source\PSoC4/mBootloadable.c ****     #endif /* (CY_PSOC5) */
 220:Generated_Source\PSoC4/mBootloadable.c ****     return (result);
 221:Generated_Source\PSoC4/mBootloadable.c **** }
 222:Generated_Source\PSoC4/mBootloadable.c **** #endif /*(CYDEV_PROJ_TYPE == CYDEV_PROJ_TYPE_LOADABLEANDBOOTLOADER)*/
 223:Generated_Source\PSoC4/mBootloadable.c **** /** @} functions_group */
 224:Generated_Source\PSoC4/mBootloadable.c **** 
 225:Generated_Source\PSoC4/mBootloadable.c **** /*******************************************************************************
 226:Generated_Source\PSoC4/mBootloadable.c **** * The following code is OBSOLETE and must not be used.
 227:Generated_Source\PSoC4/mBootloadable.c **** *******************************************************************************/
 228:Generated_Source\PSoC4/mBootloadable.c **** void mBootloadable_SetFlashByte(uint32 address, uint8 runType) 
 229:Generated_Source\PSoC4/mBootloadable.c **** {
  65              		.loc 1 229 0
  66              		.cfi_startproc
  67              		@ args = 0, pretend = 0, frame = 128
  68              		@ frame_needed = 0, uses_anonymous_args = 0
  69              	.LVL1:
  70 0000 F0B5     		push	{r4, r5, r6, r7, lr}
  71              		.cfi_def_cfa_offset 20
  72              		.cfi_offset 4, -20
  73              		.cfi_offset 5, -16
  74              		.cfi_offset 6, -12
  75              		.cfi_offset 7, -8
  76              		.cfi_offset 14, -4
 230:Generated_Source\PSoC4/mBootloadable.c ****     uint32 flsAddr = address - CYDEV_FLASH_BASE;
 231:Generated_Source\PSoC4/mBootloadable.c ****     uint8  rowData[CYDEV_FLS_ROW_SIZE];
 232:Generated_Source\PSoC4/mBootloadable.c **** 
 233:Generated_Source\PSoC4/mBootloadable.c ****     #if !(CY_PSOC4)
 234:Generated_Source\PSoC4/mBootloadable.c ****         uint8 arrayId = ( uint8 )(flsAddr / CYDEV_FLS_SECTOR_SIZE);
 235:Generated_Source\PSoC4/mBootloadable.c ****     #endif  /* !(CY_PSOC4) */
 236:Generated_Source\PSoC4/mBootloadable.c **** 
 237:Generated_Source\PSoC4/mBootloadable.c ****     #if (CY_PSOC4)
 238:Generated_Source\PSoC4/mBootloadable.c ****         uint16 rowNum = ( uint16 )(flsAddr / CYDEV_FLS_ROW_SIZE);
 239:Generated_Source\PSoC4/mBootloadable.c ****     #else
 240:Generated_Source\PSoC4/mBootloadable.c ****         uint16 rowNum = ( uint16 )((flsAddr % CYDEV_FLS_SECTOR_SIZE) / CYDEV_FLS_ROW_SIZE);
 241:Generated_Source\PSoC4/mBootloadable.c ****     #endif  /* (CY_PSOC4) */
 242:Generated_Source\PSoC4/mBootloadable.c **** 
 243:Generated_Source\PSoC4/mBootloadable.c ****     uint32 baseAddr = address - (address % CYDEV_FLS_ROW_SIZE);
  77              		.loc 1 243 0
  78 0002 7F23     		movs	r3, #127
 229:Generated_Source\PSoC4/mBootloadable.c ****     uint32 flsAddr = address - CYDEV_FLASH_BASE;
  79              		.loc 1 229 0
  80 0004 0C00     		movs	r4, r1
  81              		.loc 1 243 0
  82 0006 0100     		movs	r1, r0
  83              	.LVL2:
 229:Generated_Source\PSoC4/mBootloadable.c ****     uint32 flsAddr = address - CYDEV_FLASH_BASE;
  84              		.loc 1 229 0
  85 0008 A1B0     		sub	sp, sp, #132
  86              		.cfi_def_cfa_offset 152
  87              		.loc 1 243 0
  88 000a 9943     		bics	r1, r3
  89 000c 0B00     		movs	r3, r1
  90 000e 0D00     		movs	r5, r1
 244:Generated_Source\PSoC4/mBootloadable.c ****     uint16 idx;
 245:Generated_Source\PSoC4/mBootloadable.c **** 
 246:Generated_Source\PSoC4/mBootloadable.c **** 
 247:Generated_Source\PSoC4/mBootloadable.c ****     for (idx = 0u; idx < CYDEV_FLS_ROW_SIZE; idx++)
ARM GAS  C:\Users\PC\AppData\Local\Temp\cc1Ej2IJ.s 			page 7


 248:Generated_Source\PSoC4/mBootloadable.c ****     {
 249:Generated_Source\PSoC4/mBootloadable.c ****         rowData[idx] = mBootloadable_GET_CODE_DATA(baseAddr + idx);
  91              		.loc 1 249 0
  92 0010 6946     		mov	r1, sp
 238:Generated_Source\PSoC4/mBootloadable.c ****     #else
  93              		.loc 1 238 0
  94 0012 C209     		lsrs	r2, r0, #7
  95              	.LVL3:
  96 0014 8035     		adds	r5, r5, #128
  97              		.loc 1 249 0
  98 0016 CE1A     		subs	r6, r1, r3
  99              	.LVL4:
 100              	.L5:
 101              		.loc 1 249 0 is_stmt 0 discriminator 3
 102 0018 1F78     		ldrb	r7, [r3]
 103 001a F754     		strb	r7, [r6, r3]
 104 001c 0133     		adds	r3, r3, #1
 247:Generated_Source\PSoC4/mBootloadable.c ****     {
 105              		.loc 1 247 0 is_stmt 1 discriminator 3
 106 001e AB42     		cmp	r3, r5
 107 0020 FAD1     		bne	.L5
 250:Generated_Source\PSoC4/mBootloadable.c ****     }
 251:Generated_Source\PSoC4/mBootloadable.c ****     rowData[address % CYDEV_FLS_ROW_SIZE] = runType;
 108              		.loc 1 251 0
 109 0022 7F23     		movs	r3, #127
 110 0024 1840     		ands	r0, r3
 111              	.LVL5:
 112 0026 0C54     		strb	r4, [r1, r0]
 252:Generated_Source\PSoC4/mBootloadable.c **** 
 253:Generated_Source\PSoC4/mBootloadable.c ****     #if(CY_PSOC4)
 254:Generated_Source\PSoC4/mBootloadable.c ****         (void) CySysFlashWriteRow((uint32) rowNum, rowData);
 113              		.loc 1 254 0
 114 0028 90B2     		uxth	r0, r2
 115 002a FFF7FEFF 		bl	CySysFlashWriteRow
 116              	.LVL6:
 255:Generated_Source\PSoC4/mBootloadable.c ****     #else
 256:Generated_Source\PSoC4/mBootloadable.c ****         (void) CyWriteRowData(arrayId, rowNum, rowData);
 257:Generated_Source\PSoC4/mBootloadable.c ****     #endif  /* (CY_PSOC4) */
 258:Generated_Source\PSoC4/mBootloadable.c **** 
 259:Generated_Source\PSoC4/mBootloadable.c ****     #if(CY_PSOC5)
 260:Generated_Source\PSoC4/mBootloadable.c ****         /***************************************************************************
 261:Generated_Source\PSoC4/mBootloadable.c ****         * When writing to flash, data in the instruction cache can become obsolete.
 262:Generated_Source\PSoC4/mBootloadable.c ****         * Therefore, the cache data does not correlate to the data just written to
 263:Generated_Source\PSoC4/mBootloadable.c ****         * flash. A call to CyFlushCache() is required to invalidate the data in the
 264:Generated_Source\PSoC4/mBootloadable.c ****         * cache and force fresh information to be loaded from flash.
 265:Generated_Source\PSoC4/mBootloadable.c ****         ***************************************************************************/
 266:Generated_Source\PSoC4/mBootloadable.c ****         CyFlushCache();
 267:Generated_Source\PSoC4/mBootloadable.c ****     #endif /* (CY_PSOC5) */
 268:Generated_Source\PSoC4/mBootloadable.c **** }
 117              		.loc 1 268 0
 118 002e 21B0     		add	sp, sp, #132
 119              		@ sp needed
 120 0030 F0BD     		pop	{r4, r5, r6, r7, pc}
 121              		.cfi_endproc
 122              	.LFE2:
 123              		.size	mBootloadable_SetFlashByte, .-mBootloadable_SetFlashByte
 124              		.text
ARM GAS  C:\Users\PC\AppData\Local\Temp\cc1Ej2IJ.s 			page 8


 125              	.Letext0:
 126              		.file 2 "Generated_Source\\PSoC4\\cytypes.h"
 127              		.file 3 "Generated_Source\\PSoC4\\CyLib.h"
 128              		.file 4 "Generated_Source\\PSoC4\\CyFlash.h"
 129              		.file 5 "Generated_Source\\PSoC4\\mBootloadable.h"